
/home/vaillant/ppc2/perf/malardalen/ppc-eabi/gcc-4.4.2/ns/ns.elf:     file format elf32-powerpc


Disassembly of section .init:

01800094 <__init>:
 1800094:	94 21 ff f0 	stwu    r1,-16(r1)
 1800098:	7c 08 02 a6 	mflr    r0
 180009c:	90 01 00 14 	stw     r0,20(r1)
 18000a0:	48 00 00 f9 	bl      1800198 <frame_dummy>
 18000a4:	48 00 04 55 	bl      18004f8 <__do_global_ctors_aux>
 18000a8:	80 01 00 14 	lwz     r0,20(r1)
 18000ac:	7c 08 03 a6 	mtlr    r0
 18000b0:	38 21 00 10 	addi    r1,r1,16
 18000b4:	4e 80 00 20 	blr

Disassembly of section .text:

018000b8 <__do_global_dtors_aux>:
 18000b8:	94 21 ff e8 	stwu    r1,-24(r1)
 18000bc:	7c 08 02 a6 	mflr    r0
 18000c0:	93 e1 00 14 	stw     r31,20(r1)
 18000c4:	3f e0 01 81 	lis     r31,385
 18000c8:	90 01 00 1c 	stw     r0,28(r1)
 18000cc:	88 1f 19 fc 	lbz     r0,6652(r31)
 18000d0:	93 81 00 08 	stw     r28,8(r1)
 18000d4:	2f 80 00 00 	cmpwi   cr7,r0,0
 18000d8:	93 a1 00 0c 	stw     r29,12(r1)
 18000dc:	93 c1 00 10 	stw     r30,16(r1)
 18000e0:	40 9e 00 7c 	bne-    cr7,180015c <__do_global_dtors_aux+0xa4>
 18000e4:	3f 80 01 81 	lis     r28,385
 18000e8:	3f a0 01 81 	lis     r29,385
 18000ec:	3b 9c 06 44 	addi    r28,r28,1604
 18000f0:	3b bd 06 48 	addi    r29,r29,1608
 18000f4:	7f bc e8 50 	subf    r29,r28,r29
 18000f8:	3f c0 01 81 	lis     r30,385
 18000fc:	7f bd 16 70 	srawi   r29,r29,2
 1800100:	81 3e 1a 00 	lwz     r9,6656(r30)
 1800104:	3b bd ff ff 	addi    r29,r29,-1
 1800108:	7f 89 e8 40 	cmplw   cr7,r9,r29
 180010c:	40 9c 00 2c 	bge-    cr7,1800138 <__do_global_dtors_aux+0x80>
 1800110:	3b de 1a 00 	addi    r30,r30,6656
 1800114:	39 29 00 01 	addi    r9,r9,1
 1800118:	55 20 10 3a 	rlwinm  r0,r9,2,0,29
 180011c:	91 3e 00 00 	stw     r9,0(r30)
 1800120:	7c 1c 00 2e 	lwzx    r0,r28,r0
 1800124:	7c 09 03 a6 	mtctr   r0
 1800128:	4e 80 04 21 	bctrl
 180012c:	81 3e 00 00 	lwz     r9,0(r30)
 1800130:	7f 89 e8 40 	cmplw   cr7,r9,r29
 1800134:	41 9c ff e0 	blt+    cr7,1800114 <__do_global_dtors_aux+0x5c>
 1800138:	3d 20 00 00 	lis     r9,0
 180013c:	38 09 00 00 	addi    r0,r9,0
 1800140:	2f 80 00 00 	cmpwi   cr7,r0,0
 1800144:	41 9e 00 10 	beq-    cr7,1800154 <__do_global_dtors_aux+0x9c>
 1800148:	3c 60 01 81 	lis     r3,385
 180014c:	38 63 05 b0 	addi    r3,r3,1456
 1800150:	4a 7f fe b1 	bl      0 <__init-0x1800094>
 1800154:	38 00 00 01 	li      r0,1
 1800158:	98 1f 19 fc 	stb     r0,6652(r31)
 180015c:	80 01 00 1c 	lwz     r0,28(r1)
 1800160:	83 81 00 08 	lwz     r28,8(r1)
 1800164:	7c 08 03 a6 	mtlr    r0
 1800168:	83 a1 00 0c 	lwz     r29,12(r1)
 180016c:	83 c1 00 10 	lwz     r30,16(r1)
 1800170:	83 e1 00 14 	lwz     r31,20(r1)
 1800174:	38 21 00 18 	addi    r1,r1,24
 1800178:	4e 80 00 20 	blr

0180017c <call___do_global_dtors_aux>:
 180017c:	7c 08 02 a6 	mflr    r0
 1800180:	94 21 ff f8 	stwu    r1,-8(r1)
 1800184:	90 01 00 0c 	stw     r0,12(r1)
 1800188:	80 01 00 0c 	lwz     r0,12(r1)
 180018c:	38 21 00 08 	addi    r1,r1,8
 1800190:	7c 08 03 a6 	mtlr    r0
 1800194:	4e 80 00 20 	blr

01800198 <frame_dummy>:
 1800198:	7c 08 02 a6 	mflr    r0
 180019c:	94 21 ff f8 	stwu    r1,-8(r1)
 18001a0:	3d 20 00 00 	lis     r9,0
 18001a4:	90 01 00 0c 	stw     r0,12(r1)
 18001a8:	38 09 00 00 	addi    r0,r9,0
 18001ac:	2f 80 00 00 	cmpwi   cr7,r0,0
 18001b0:	41 9e 00 18 	beq-    cr7,18001c8 <frame_dummy+0x30>
 18001b4:	3c 60 01 81 	lis     r3,385
 18001b8:	3c 80 01 81 	lis     r4,385
 18001bc:	38 63 05 b0 	addi    r3,r3,1456
 18001c0:	38 84 1a 04 	addi    r4,r4,6660
 18001c4:	4a 7f fe 3d 	bl      0 <__init-0x1800094>
 18001c8:	3c 60 01 81 	lis     r3,385
 18001cc:	80 03 06 4c 	lwz     r0,1612(r3)
 18001d0:	38 63 06 4c 	addi    r3,r3,1612
 18001d4:	2f 80 00 00 	cmpwi   cr7,r0,0
 18001d8:	41 9e 00 1c 	beq-    cr7,18001f4 <frame_dummy+0x5c>
 18001dc:	3d 20 00 00 	lis     r9,0
 18001e0:	38 09 00 00 	addi    r0,r9,0
 18001e4:	2f 80 00 00 	cmpwi   cr7,r0,0
 18001e8:	41 9e 00 0c 	beq-    cr7,18001f4 <frame_dummy+0x5c>
 18001ec:	7c 09 03 a6 	mtctr   r0
 18001f0:	4e 80 04 21 	bctrl
 18001f4:	80 01 00 0c 	lwz     r0,12(r1)
 18001f8:	38 21 00 08 	addi    r1,r1,8
 18001fc:	7c 08 03 a6 	mtlr    r0
 1800200:	4e 80 00 20 	blr

01800204 <call_frame_dummy>:
 1800204:	7c 08 02 a6 	mflr    r0
 1800208:	94 21 ff f8 	stwu    r1,-8(r1)
 180020c:	90 01 00 0c 	stw     r0,12(r1)
 1800210:	80 01 00 0c 	lwz     r0,12(r1)
 1800214:	38 21 00 08 	addi    r1,r1,8
 1800218:	7c 08 03 a6 	mtlr    r0
 180021c:	4e 80 00 20 	blr

01800220 <foo>:
 1800220:	94 21 ff d8 	stwu    r1,-40(r1)
 1800224:	93 e1 00 24 	stw     r31,36(r1)
 1800228:	7c 3f 0b 78 	mr      r31,r1
 180022c:	90 7f 00 18 	stw     r3,24(r31)
 1800230:	38 00 00 00 	li      r0,0
 1800234:	90 1f 00 14 	stw     r0,20(r31)
 1800238:	48 00 01 50 	b       1800388 <foo+0x168>
 180023c:	38 00 00 00 	li      r0,0
 1800240:	90 1f 00 10 	stw     r0,16(r31)
 1800244:	48 00 01 2c 	b       1800370 <foo+0x150>
 1800248:	38 00 00 00 	li      r0,0
 180024c:	90 1f 00 0c 	stw     r0,12(r31)
 1800250:	48 00 01 08 	b       1800358 <foo+0x138>
 1800254:	38 00 00 00 	li      r0,0
 1800258:	90 1f 00 08 	stw     r0,8(r31)
 180025c:	48 00 00 e4 	b       1800340 <foo+0x120>
 1800260:	81 5f 00 14 	lwz     r10,20(r31)
 1800264:	81 7f 00 10 	lwz     r11,16(r31)
 1800268:	81 1f 00 0c 	lwz     r8,12(r31)
 180026c:	80 1f 00 08 	lwz     r0,8(r31)
 1800270:	3d 20 01 81 	lis     r9,385
 1800274:	39 29 06 70 	addi    r9,r9,1648
 1800278:	1d 08 00 05 	mulli   r8,r8,5
 180027c:	1d 4a 00 7d 	mulli   r10,r10,125
 1800280:	7d 48 52 14 	add     r10,r8,r10
 1800284:	1d 6b 00 19 	mulli   r11,r11,25
 1800288:	7d 6a 5a 14 	add     r11,r10,r11
 180028c:	7c 0b 02 14 	add     r0,r11,r0
 1800290:	54 00 10 3a 	rlwinm  r0,r0,2,0,29
 1800294:	7c 09 02 14 	add     r0,r9,r0
 1800298:	7c 0b 03 78 	mr      r11,r0
 180029c:	81 2b 00 00 	lwz     r9,0(r11)
 18002a0:	80 1f 00 18 	lwz     r0,24(r31)
 18002a4:	7f 89 00 00 	cmpw    cr7,r9,r0
 18002a8:	40 9e 00 8c 	bne-    cr7,1800334 <foo+0x114>
 18002ac:	81 5f 00 14 	lwz     r10,20(r31)
 18002b0:	81 7f 00 10 	lwz     r11,16(r31)
 18002b4:	81 1f 00 0c 	lwz     r8,12(r31)
 18002b8:	80 1f 00 08 	lwz     r0,8(r31)
 18002bc:	3d 20 01 81 	lis     r9,385
 18002c0:	39 29 10 34 	addi    r9,r9,4148
 18002c4:	1d 08 00 05 	mulli   r8,r8,5
 18002c8:	1d 4a 00 7d 	mulli   r10,r10,125
 18002cc:	7d 48 52 14 	add     r10,r8,r10
 18002d0:	1d 6b 00 19 	mulli   r11,r11,25
 18002d4:	7d 6a 5a 14 	add     r11,r10,r11
 18002d8:	7c 0b 02 14 	add     r0,r11,r0
 18002dc:	54 00 10 3a 	rlwinm  r0,r0,2,0,29
 18002e0:	7c 09 02 14 	add     r0,r9,r0
 18002e4:	7c 0b 03 78 	mr      r11,r0
 18002e8:	81 2b 00 00 	lwz     r9,0(r11)
 18002ec:	81 1f 00 14 	lwz     r8,20(r31)
 18002f0:	81 5f 00 10 	lwz     r10,16(r31)
 18002f4:	80 ff 00 0c 	lwz     r7,12(r31)
 18002f8:	80 1f 00 08 	lwz     r0,8(r31)
 18002fc:	3d 60 01 81 	lis     r11,385
 1800300:	39 6b 06 70 	addi    r11,r11,1648
 1800304:	1c e7 00 05 	mulli   r7,r7,5
 1800308:	1d 08 00 7d 	mulli   r8,r8,125
 180030c:	7d 07 42 14 	add     r8,r7,r8
 1800310:	1d 4a 00 19 	mulli   r10,r10,25
 1800314:	7d 48 52 14 	add     r10,r8,r10
 1800318:	7c 0a 02 14 	add     r0,r10,r0
 180031c:	54 00 10 3a 	rlwinm  r0,r0,2,0,29
 1800320:	7c 0b 02 14 	add     r0,r11,r0
 1800324:	7c 0b 03 78 	mr      r11,r0
 1800328:	80 0b 00 00 	lwz     r0,0(r11)
 180032c:	7c 09 02 14 	add     r0,r9,r0
 1800330:	48 00 00 68 	b       1800398 <foo+0x178>
 1800334:	80 1f 00 08 	lwz     r0,8(r31)
 1800338:	30 00 00 01 	addic   r0,r0,1
 180033c:	90 1f 00 08 	stw     r0,8(r31)
 1800340:	80 1f 00 08 	lwz     r0,8(r31)
 1800344:	2f 80 00 04 	cmpwi   cr7,r0,4
 1800348:	40 9d ff 18 	ble+    cr7,1800260 <foo+0x40>
 180034c:	80 1f 00 0c 	lwz     r0,12(r31)
 1800350:	30 00 00 01 	addic   r0,r0,1
 1800354:	90 1f 00 0c 	stw     r0,12(r31)
 1800358:	80 1f 00 0c 	lwz     r0,12(r31)
 180035c:	2f 80 00 04 	cmpwi   cr7,r0,4
 1800360:	40 9d fe f4 	ble+    cr7,1800254 <foo+0x34>
 1800364:	80 1f 00 10 	lwz     r0,16(r31)
 1800368:	30 00 00 01 	addic   r0,r0,1
 180036c:	90 1f 00 10 	stw     r0,16(r31)
 1800370:	80 1f 00 10 	lwz     r0,16(r31)
 1800374:	2f 80 00 04 	cmpwi   cr7,r0,4
 1800378:	40 9d fe d0 	ble+    cr7,1800248 <foo+0x28>
 180037c:	80 1f 00 14 	lwz     r0,20(r31)
 1800380:	30 00 00 01 	addic   r0,r0,1
 1800384:	90 1f 00 14 	stw     r0,20(r31)
 1800388:	80 1f 00 14 	lwz     r0,20(r31)
 180038c:	2f 80 00 04 	cmpwi   cr7,r0,4
 1800390:	40 9d fe ac 	ble+    cr7,180023c <foo+0x1c>
 1800394:	38 00 ff ff 	li      r0,-1
 1800398:	7c 03 03 78 	mr      r3,r0
 180039c:	39 7f 00 28 	addi    r11,r31,40
 18003a0:	83 eb ff fc 	lwz     r31,-4(r11)
 18003a4:	7d 61 5b 78 	mr      r1,r11
 18003a8:	4e 80 00 20 	blr

018003ac <main>:
 18003ac:	94 21 ff e0 	stwu    r1,-32(r1)
 18003b0:	7c 08 02 a6 	mflr    r0
 18003b4:	90 01 00 24 	stw     r0,36(r1)
 18003b8:	93 e1 00 1c 	stw     r31,28(r1)
 18003bc:	7c 3f 0b 78 	mr      r31,r1
 18003c0:	48 00 00 85 	bl      1800444 <__eabi>
 18003c4:	38 00 02 58 	li      r0,600
 18003c8:	90 1f 00 08 	stw     r0,8(r31)
 18003cc:	48 00 00 18 	b       18003e4 <main+0x38>
 18003d0:	38 60 01 90 	li      r3,400
 18003d4:	4b ff fe 4d 	bl      1800220 <foo>
 18003d8:	80 1f 00 08 	lwz     r0,8(r31)
 18003dc:	30 00 ff ff 	addic   r0,r0,-1
 18003e0:	90 1f 00 08 	stw     r0,8(r31)
 18003e4:	80 1f 00 08 	lwz     r0,8(r31)
 18003e8:	2f 80 00 00 	cmpwi   cr7,r0,0
 18003ec:	40 9e ff e4 	bne+    cr7,18003d0 <main+0x24>
 18003f0:	39 7f 00 20 	addi    r11,r31,32
 18003f4:	80 0b 00 04 	lwz     r0,4(r11)
 18003f8:	7c 08 03 a6 	mtlr    r0
 18003fc:	83 eb ff fc 	lwz     r31,-4(r11)
 1800400:	7d 61 5b 78 	mr      r1,r11
 1800404:	4e 80 00 20 	blr

01800408 <_exit>:
 1800408:	94 21 ff e8 	stwu    r1,-24(r1)
 180040c:	93 e1 00 14 	stw     r31,20(r1)
 1800410:	7c 3f 0b 78 	mr      r31,r1
 1800414:	90 7f 00 08 	stw     r3,8(r31)
 1800418:	48 00 00 00 	b       1800418 <_exit+0x10>

0180041c <_start>:
 180041c:	94 21 ff f0 	stwu    r1,-16(r1)
 1800420:	7c 08 02 a6 	mflr    r0
 1800424:	90 01 00 14 	stw     r0,20(r1)
 1800428:	93 e1 00 0c 	stw     r31,12(r1)
 180042c:	7c 3f 0b 78 	mr      r31,r1
 1800430:	38 60 00 00 	li      r3,0
 1800434:	38 80 00 00 	li      r4,0
 1800438:	4b ff ff 75 	bl      18003ac <main>
 180043c:	38 60 00 00 	li      r3,0
 1800440:	4b ff ff c9 	bl      1800408 <_exit>

01800444 <__eabi>:
 1800444:	3d 40 01 81 	lis     r10,385
 1800448:	3d 60 01 81 	lis     r11,385
 180044c:	81 2a 19 f8 	lwz     r9,6648(r10)
 1800450:	39 6b 06 50 	addi    r11,r11,1616
 1800454:	29 09 00 00 	cmplwi  cr2,r9,0
 1800458:	4c 8a 00 20 	bnelr   cr2
 180045c:	90 2a 19 f8 	stw     r1,6648(r10)
 1800460:	80 6b 00 08 	lwz     r3,8(r11)
 1800464:	80 8b 00 0c 	lwz     r4,12(r11)
 1800468:	7c 83 20 00 	cmpw    cr1,r3,r4
 180046c:	41 86 00 08 	beq-    cr1,1800474 <__eabi+0x30>
 1800470:	81 ab 00 04 	lwz     r13,4(r11)
 1800474:	80 6b 00 14 	lwz     r3,20(r11)
 1800478:	80 8b 00 18 	lwz     r4,24(r11)
 180047c:	7c 83 20 00 	cmpw    cr1,r3,r4
 1800480:	41 a6 00 08 	beq+    cr1,1800488 <__eabi+0x44>
 1800484:	80 4b 00 10 	lwz     r2,16(r11)
 1800488:	4b ff fc 0c 	b       1800094 <__init>

0180048c <__eabi_convert>:
 180048c:	7c 83 20 40 	cmplw   cr1,r3,r4
 1800490:	7c a3 20 50 	subf    r5,r3,r4
 1800494:	4c 84 00 20 	bgelr   cr1
 1800498:	7c a5 16 70 	srawi   r5,r5,2
 180049c:	38 63 ff fc 	addi    r3,r3,-4
 18004a0:	7c a9 03 a6 	mtctr   r5
 18004a4:	84 c3 00 04 	lwzu    r6,4(r3)
 18004a8:	2c 06 00 00 	cmpwi   r6,0
 18004ac:	41 82 00 0c 	beq-    18004b8 <__eabi_convert+0x2c>
 18004b0:	7c c6 62 14 	add     r6,r6,r12
 18004b4:	90 c3 00 00 	stw     r6,0(r3)
 18004b8:	42 00 ff ec 	bdnz+   18004a4 <__eabi_convert+0x18>
 18004bc:	4e 80 00 20 	blr

018004c0 <__eabi_uconvert>:
 18004c0:	7c 83 20 40 	cmplw   cr1,r3,r4
 18004c4:	7c a3 20 50 	subf    r5,r3,r4
 18004c8:	4c 84 00 20 	bgelr   cr1
 18004cc:	7c a5 16 70 	srawi   r5,r5,2
 18004d0:	38 63 ff fc 	addi    r3,r3,-4
 18004d4:	7c a9 03 a6 	mtctr   r5
 18004d8:	84 c3 00 04 	lwzu    r6,4(r3)
 18004dc:	7c c6 62 14 	add     r6,r6,r12
 18004e0:	80 e6 00 00 	lwz     r7,0(r6)
 18004e4:	90 c3 00 00 	stw     r6,0(r3)
 18004e8:	7c e7 62 14 	add     r7,r7,r12
 18004ec:	90 e6 00 00 	stw     r7,0(r6)
 18004f0:	42 00 ff e8 	bdnz+   18004d8 <__eabi_uconvert+0x18>
 18004f4:	4e 80 00 20 	blr

018004f8 <__do_global_ctors_aux>:
 18004f8:	7c 08 02 a6 	mflr    r0
 18004fc:	94 21 ff f0 	stwu    r1,-16(r1)
 1800500:	93 e1 00 0c 	stw     r31,12(r1)
 1800504:	3f e0 01 81 	lis     r31,385
 1800508:	90 01 00 14 	stw     r0,20(r1)
 180050c:	3b ff 06 40 	addi    r31,r31,1600
 1800510:	80 1f ff fc 	lwz     r0,-4(r31)
 1800514:	2f 80 ff ff 	cmpwi   cr7,r0,-1
 1800518:	41 9e 00 1c 	beq-    cr7,1800534 <__do_global_ctors_aux+0x3c>
 180051c:	3b ff ff fc 	addi    r31,r31,-4
 1800520:	7c 09 03 a6 	mtctr   r0
 1800524:	4e 80 04 21 	bctrl
 1800528:	84 1f ff fc 	lwzu    r0,-4(r31)
 180052c:	2f 80 ff ff 	cmpwi   cr7,r0,-1
 1800530:	40 9e ff f0 	bne+    cr7,1800520 <__do_global_ctors_aux+0x28>
 1800534:	80 01 00 14 	lwz     r0,20(r1)
 1800538:	83 e1 00 0c 	lwz     r31,12(r1)
 180053c:	38 21 00 10 	addi    r1,r1,16
 1800540:	7c 08 03 a6 	mtlr    r0
 1800544:	4e 80 00 20 	blr

01800548 <call___do_global_ctors_aux>:
 1800548:	7c 08 02 a6 	mflr    r0
 180054c:	94 21 ff f8 	stwu    r1,-8(r1)
 1800550:	90 01 00 0c 	stw     r0,12(r1)
 1800554:	80 01 00 0c 	lwz     r0,12(r1)
 1800558:	38 21 00 08 	addi    r1,r1,8
 180055c:	7c 08 03 a6 	mtlr    r0
 1800560:	4e 80 00 20 	blr

Disassembly of section .fini:

01800564 <__fini>:
 1800564:	94 21 ff f0 	stwu    r1,-16(r1)
 1800568:	7c 08 02 a6 	mflr    r0
 180056c:	90 01 00 14 	stw     r0,20(r1)
 1800570:	4b ff fb 49 	bl      18000b8 <__do_global_dtors_aux>
 1800574:	80 01 00 14 	lwz     r0,20(r1)
 1800578:	7c 08 03 a6 	mtlr    r0
 180057c:	38 21 00 10 	addi    r1,r1,16
 1800580:	4e 80 00 20 	blr
