
/home/vaillant/ppc2/perf/malardalen/ppc-eabi/gcc-4.4.2/ud/ud.elf:     file format elf32-powerpc


Disassembly of section .init:

01800094 <__init>:
 1800094:	94 21 ff f0 	stwu    r1,-16(r1)
 1800098:	7c 08 02 a6 	mflr    r0
 180009c:	90 01 00 14 	stw     r0,20(r1)
 18000a0:	48 00 00 f9 	bl      1800198 <frame_dummy>
 18000a4:	48 00 09 69 	bl      1800a0c <__do_global_ctors_aux>
 18000a8:	80 01 00 14 	lwz     r0,20(r1)
 18000ac:	7c 08 03 a6 	mtlr    r0
 18000b0:	38 21 00 10 	addi    r1,r1,16
 18000b4:	4e 80 00 20 	blr

Disassembly of section .text:

018000b8 <__do_global_dtors_aux>:
 18000b8:	94 21 ff e8 	stwu    r1,-24(r1)
 18000bc:	7c 08 02 a6 	mflr    r0
 18000c0:	93 e1 00 14 	stw     r31,20(r1)
 18000c4:	3f e0 01 81 	lis     r31,385
 18000c8:	90 01 00 1c 	stw     r0,28(r1)
 18000cc:	88 1f 10 c4 	lbz     r0,4292(r31)
 18000d0:	93 81 00 08 	stw     r28,8(r1)
 18000d4:	2f 80 00 00 	cmpwi   cr7,r0,0
 18000d8:	93 a1 00 0c 	stw     r29,12(r1)
 18000dc:	93 c1 00 10 	stw     r30,16(r1)
 18000e0:	40 9e 00 7c 	bne-    cr7,180015c <__do_global_dtors_aux+0xa4>
 18000e4:	3f 80 01 81 	lis     r28,385
 18000e8:	3f a0 01 81 	lis     r29,385
 18000ec:	3b 9c 10 94 	addi    r28,r28,4244
 18000f0:	3b bd 10 98 	addi    r29,r29,4248
 18000f4:	7f bc e8 50 	subf    r29,r28,r29
 18000f8:	3f c0 01 81 	lis     r30,385
 18000fc:	7f bd 16 70 	srawi   r29,r29,2
 1800100:	81 3e 10 c8 	lwz     r9,4296(r30)
 1800104:	3b bd ff ff 	addi    r29,r29,-1
 1800108:	7f 89 e8 40 	cmplw   cr7,r9,r29
 180010c:	40 9c 00 2c 	bge-    cr7,1800138 <__do_global_dtors_aux+0x80>
 1800110:	3b de 10 c8 	addi    r30,r30,4296
 1800114:	39 29 00 01 	addi    r9,r9,1
 1800118:	55 20 10 3a 	rlwinm  r0,r9,2,0,29
 180011c:	91 3e 00 00 	stw     r9,0(r30)
 1800120:	7c 1c 00 2e 	lwzx    r0,r28,r0
 1800124:	7c 09 03 a6 	mtctr   r0
 1800128:	4e 80 04 21 	bctrl
 180012c:	81 3e 00 00 	lwz     r9,0(r30)
 1800130:	7f 89 e8 40 	cmplw   cr7,r9,r29
 1800134:	41 9c ff e0 	blt+    cr7,1800114 <__do_global_dtors_aux+0x5c>
 1800138:	3d 20 00 00 	lis     r9,0
 180013c:	38 09 00 00 	addi    r0,r9,0
 1800140:	2f 80 00 00 	cmpwi   cr7,r0,0
 1800144:	41 9e 00 10 	beq-    cr7,1800154 <__do_global_dtors_aux+0x9c>
 1800148:	3c 60 01 81 	lis     r3,385
 180014c:	38 63 10 00 	addi    r3,r3,4096
 1800150:	4a 7f fe b1 	bl      0 <__init-0x1800094>
 1800154:	38 00 00 01 	li      r0,1
 1800158:	98 1f 10 c4 	stb     r0,4292(r31)
 180015c:	80 01 00 1c 	lwz     r0,28(r1)
 1800160:	83 81 00 08 	lwz     r28,8(r1)
 1800164:	7c 08 03 a6 	mtlr    r0
 1800168:	83 a1 00 0c 	lwz     r29,12(r1)
 180016c:	83 c1 00 10 	lwz     r30,16(r1)
 1800170:	83 e1 00 14 	lwz     r31,20(r1)
 1800174:	38 21 00 18 	addi    r1,r1,24
 1800178:	4e 80 00 20 	blr

0180017c <call___do_global_dtors_aux>:
 180017c:	7c 08 02 a6 	mflr    r0
 1800180:	94 21 ff f8 	stwu    r1,-8(r1)
 1800184:	90 01 00 0c 	stw     r0,12(r1)
 1800188:	80 01 00 0c 	lwz     r0,12(r1)
 180018c:	38 21 00 08 	addi    r1,r1,8
 1800190:	7c 08 03 a6 	mtlr    r0
 1800194:	4e 80 00 20 	blr

01800198 <frame_dummy>:
 1800198:	7c 08 02 a6 	mflr    r0
 180019c:	94 21 ff f8 	stwu    r1,-8(r1)
 18001a0:	3d 20 00 00 	lis     r9,0
 18001a4:	90 01 00 0c 	stw     r0,12(r1)
 18001a8:	38 09 00 00 	addi    r0,r9,0
 18001ac:	2f 80 00 00 	cmpwi   cr7,r0,0
 18001b0:	41 9e 00 18 	beq-    cr7,18001c8 <frame_dummy+0x30>
 18001b4:	3c 60 01 81 	lis     r3,385
 18001b8:	3c 80 01 81 	lis     r4,385
 18001bc:	38 63 10 00 	addi    r3,r3,4096
 18001c0:	38 84 10 cc 	addi    r4,r4,4300
 18001c4:	4a 7f fe 3d 	bl      0 <__init-0x1800094>
 18001c8:	3c 60 01 81 	lis     r3,385
 18001cc:	80 03 10 9c 	lwz     r0,4252(r3)
 18001d0:	38 63 10 9c 	addi    r3,r3,4252
 18001d4:	2f 80 00 00 	cmpwi   cr7,r0,0
 18001d8:	41 9e 00 1c 	beq-    cr7,18001f4 <frame_dummy+0x5c>
 18001dc:	3d 20 00 00 	lis     r9,0
 18001e0:	38 09 00 00 	addi    r0,r9,0
 18001e4:	2f 80 00 00 	cmpwi   cr7,r0,0
 18001e8:	41 9e 00 0c 	beq-    cr7,18001f4 <frame_dummy+0x5c>
 18001ec:	7c 09 03 a6 	mtctr   r0
 18001f0:	4e 80 04 21 	bctrl
 18001f4:	80 01 00 0c 	lwz     r0,12(r1)
 18001f8:	38 21 00 08 	addi    r1,r1,8
 18001fc:	7c 08 03 a6 	mtlr    r0
 1800200:	4e 80 00 20 	blr

01800204 <call_frame_dummy>:
 1800204:	7c 08 02 a6 	mflr    r0
 1800208:	94 21 ff f8 	stwu    r1,-8(r1)
 180020c:	90 01 00 0c 	stw     r0,12(r1)
 1800210:	80 01 00 0c 	lwz     r0,12(r1)
 1800214:	38 21 00 08 	addi    r1,r1,8
 1800218:	7c 08 03 a6 	mtlr    r0
 180021c:	4e 80 00 20 	blr

01800220 <main>:
 1800220:	94 21 ff c0 	stwu    r1,-64(r1)
 1800224:	7c 08 02 a6 	mflr    r0
 1800228:	90 01 00 44 	stw     r0,68(r1)
 180022c:	93 e1 00 3c 	stw     r31,60(r1)
 1800230:	7c 3f 0b 78 	mr      r31,r1
 1800234:	48 00 07 25 	bl      1800958 <__eabi>
 1800238:	38 00 05 dc 	li      r0,1500
 180023c:	90 1f 00 20 	stw     r0,32(r31)
 1800240:	48 00 01 a8 	b       18003e8 <main+0x1c8>
 1800244:	38 00 00 32 	li      r0,50
 1800248:	90 1f 00 14 	stw     r0,20(r31)
 180024c:	38 00 00 05 	li      r0,5
 1800250:	90 1f 00 10 	stw     r0,16(r31)
 1800254:	38 00 00 00 	li      r0,0
 1800258:	90 1f 00 1c 	stw     r0,28(r31)
 180025c:	48 00 01 5c 	b       18003b8 <main+0x198>
 1800260:	38 00 00 00 	li      r0,0
 1800264:	90 1f 00 08 	stw     r0,8(r31)
 1800268:	38 00 00 00 	li      r0,0
 180026c:	90 1f 00 18 	stw     r0,24(r31)
 1800270:	48 00 01 0c 	b       180037c <main+0x15c>
 1800274:	81 5f 00 1c 	lwz     r10,28(r31)
 1800278:	80 1f 00 18 	lwz     r0,24(r31)
 180027c:	81 3f 00 1c 	lwz     r9,28(r31)
 1800280:	39 69 00 01 	addi    r11,r9,1
 1800284:	81 3f 00 18 	lwz     r9,24(r31)
 1800288:	39 29 00 01 	addi    r9,r9,1
 180028c:	7d 2b 4a 14 	add     r9,r11,r9
 1800290:	3d 60 01 81 	lis     r11,385
 1800294:	39 6b 12 74 	addi    r11,r11,4724
 1800298:	1d 4a 00 32 	mulli   r10,r10,50
 180029c:	7c 0a 02 14 	add     r0,r10,r0
 18002a0:	54 00 10 3a 	rlwinm  r0,r0,2,0,29
 18002a4:	7c 0b 02 14 	add     r0,r11,r0
 18002a8:	7c 0b 03 78 	mr      r11,r0
 18002ac:	91 2b 00 00 	stw     r9,0(r11)
 18002b0:	81 3f 00 1c 	lwz     r9,28(r31)
 18002b4:	80 1f 00 18 	lwz     r0,24(r31)
 18002b8:	7f 89 00 00 	cmpw    cr7,r9,r0
 18002bc:	40 9e 00 80 	bne-    cr7,180033c <main+0x11c>
 18002c0:	81 5f 00 1c 	lwz     r10,28(r31)
 18002c4:	80 1f 00 18 	lwz     r0,24(r31)
 18002c8:	81 1f 00 1c 	lwz     r8,28(r31)
 18002cc:	81 3f 00 18 	lwz     r9,24(r31)
 18002d0:	3d 60 01 81 	lis     r11,385
 18002d4:	39 6b 12 74 	addi    r11,r11,4724
 18002d8:	1d 08 00 32 	mulli   r8,r8,50
 18002dc:	7d 28 4a 14 	add     r9,r8,r9
 18002e0:	55 29 10 3a 	rlwinm  r9,r9,2,0,29
 18002e4:	7d 2b 4a 14 	add     r9,r11,r9
 18002e8:	81 69 00 00 	lwz     r11,0(r9)
 18002ec:	3d 20 43 30 	lis     r9,17200
 18002f0:	3d 00 01 80 	lis     r8,384
 18002f4:	c8 08 0a 98 	lfd     f0,2712(r8)
 18002f8:	6d 6b 80 00 	xoris   r11,r11,32768
 18002fc:	91 7f 00 2c 	stw     r11,44(r31)
 1800300:	91 3f 00 28 	stw     r9,40(r31)
 1800304:	c9 bf 00 28 	lfd     f13,40(r31)
 1800308:	fc 0d 00 28 	fsub    f0,f13,f0
 180030c:	fc 00 00 2a 	fadd    f0,f0,f0
 1800310:	fc 00 00 1e 	fctiwz  f0,f0
 1800314:	d8 1f 00 30 	stfd    f0,48(r31)
 1800318:	81 3f 00 34 	lwz     r9,52(r31)
 180031c:	3d 60 01 81 	lis     r11,385
 1800320:	39 6b 12 74 	addi    r11,r11,4724
 1800324:	1d 4a 00 32 	mulli   r10,r10,50
 1800328:	7c 0a 02 14 	add     r0,r10,r0
 180032c:	54 00 10 3a 	rlwinm  r0,r0,2,0,29
 1800330:	7c 0b 02 14 	add     r0,r11,r0
 1800334:	7c 0b 03 78 	mr      r11,r0
 1800338:	91 2b 00 00 	stw     r9,0(r11)
 180033c:	81 7f 00 1c 	lwz     r11,28(r31)
 1800340:	80 1f 00 18 	lwz     r0,24(r31)
 1800344:	3d 20 01 81 	lis     r9,385
 1800348:	39 29 12 74 	addi    r9,r9,4724
 180034c:	1d 6b 00 32 	mulli   r11,r11,50
 1800350:	7c 0b 02 14 	add     r0,r11,r0
 1800354:	54 00 10 3a 	rlwinm  r0,r0,2,0,29
 1800358:	7c 09 02 14 	add     r0,r9,r0
 180035c:	7c 09 03 78 	mr      r9,r0
 1800360:	80 09 00 00 	lwz     r0,0(r9)
 1800364:	81 3f 00 08 	lwz     r9,8(r31)
 1800368:	7c 09 02 14 	add     r0,r9,r0
 180036c:	90 1f 00 08 	stw     r0,8(r31)
 1800370:	80 1f 00 18 	lwz     r0,24(r31)
 1800374:	30 00 00 01 	addic   r0,r0,1
 1800378:	90 1f 00 18 	stw     r0,24(r31)
 180037c:	81 3f 00 18 	lwz     r9,24(r31)
 1800380:	80 1f 00 10 	lwz     r0,16(r31)
 1800384:	7f 89 00 00 	cmpw    cr7,r9,r0
 1800388:	40 9d fe ec 	ble+    cr7,1800274 <main+0x54>
 180038c:	80 1f 00 1c 	lwz     r0,28(r31)
 1800390:	3d 20 01 81 	lis     r9,385
 1800394:	39 29 10 e4 	addi    r9,r9,4324
 1800398:	54 00 10 3a 	rlwinm  r0,r0,2,0,29
 180039c:	7c 09 02 14 	add     r0,r9,r0
 18003a0:	81 3f 00 08 	lwz     r9,8(r31)
 18003a4:	7c 0b 03 78 	mr      r11,r0
 18003a8:	91 2b 00 00 	stw     r9,0(r11)
 18003ac:	80 1f 00 1c 	lwz     r0,28(r31)
 18003b0:	30 00 00 01 	addic   r0,r0,1
 18003b4:	90 1f 00 1c 	stw     r0,28(r31)
 18003b8:	81 3f 00 1c 	lwz     r9,28(r31)
 18003bc:	80 1f 00 10 	lwz     r0,16(r31)
 18003c0:	7f 89 00 00 	cmpw    cr7,r9,r0
 18003c4:	40 9d fe 9c 	ble+    cr7,1800260 <main+0x40>
 18003c8:	80 7f 00 14 	lwz     r3,20(r31)
 18003cc:	80 9f 00 10 	lwz     r4,16(r31)
 18003d0:	48 00 00 3d 	bl      180040c <ludcmp>
 18003d4:	7c 60 1b 78 	mr      r0,r3
 18003d8:	90 1f 00 0c 	stw     r0,12(r31)
 18003dc:	80 1f 00 20 	lwz     r0,32(r31)
 18003e0:	30 00 ff ff 	addic   r0,r0,-1
 18003e4:	90 1f 00 20 	stw     r0,32(r31)
 18003e8:	80 1f 00 20 	lwz     r0,32(r31)
 18003ec:	2f 80 00 00 	cmpwi   cr7,r0,0
 18003f0:	40 9e fe 54 	bne+    cr7,1800244 <main+0x24>
 18003f4:	39 7f 00 40 	addi    r11,r31,64
 18003f8:	80 0b 00 04 	lwz     r0,4(r11)
 18003fc:	7c 08 03 a6 	mtlr    r0
 1800400:	83 eb ff fc 	lwz     r31,-4(r11)
 1800404:	7d 61 5b 78 	mr      r1,r11
 1800408:	4e 80 00 20 	blr

0180040c <ludcmp>:
 180040c:	94 21 fe 48 	stwu    r1,-440(r1)
 1800410:	93 e1 01 b4 	stw     r31,436(r1)
 1800414:	7c 3f 0b 78 	mr      r31,r1
 1800418:	90 7f 01 a8 	stw     r3,424(r31)
 180041c:	90 9f 01 ac 	stw     r4,428(r31)
 1800420:	38 00 00 00 	li      r0,0
 1800424:	90 1f 00 14 	stw     r0,20(r31)
 1800428:	48 00 02 68 	b       1800690 <ludcmp+0x284>
 180042c:	80 1f 00 14 	lwz     r0,20(r31)
 1800430:	30 00 00 01 	addic   r0,r0,1
 1800434:	90 1f 00 10 	stw     r0,16(r31)
 1800438:	48 00 01 24 	b       180055c <ludcmp+0x150>
 180043c:	81 7f 00 10 	lwz     r11,16(r31)
 1800440:	80 1f 00 14 	lwz     r0,20(r31)
 1800444:	3d 20 01 81 	lis     r9,385
 1800448:	39 29 12 74 	addi    r9,r9,4724
 180044c:	1d 6b 00 32 	mulli   r11,r11,50
 1800450:	7c 0b 02 14 	add     r0,r11,r0
 1800454:	54 00 10 3a 	rlwinm  r0,r0,2,0,29
 1800458:	7c 09 02 14 	add     r0,r9,r0
 180045c:	7c 09 03 78 	mr      r9,r0
 1800460:	80 09 00 00 	lwz     r0,0(r9)
 1800464:	90 1f 00 08 	stw     r0,8(r31)
 1800468:	80 1f 00 14 	lwz     r0,20(r31)
 180046c:	2f 80 00 00 	cmpwi   cr7,r0,0
 1800470:	41 9e 00 8c 	beq-    cr7,18004fc <ludcmp+0xf0>
 1800474:	38 00 00 00 	li      r0,0
 1800478:	90 1f 00 0c 	stw     r0,12(r31)
 180047c:	48 00 00 70 	b       18004ec <ludcmp+0xe0>
 1800480:	81 7f 00 10 	lwz     r11,16(r31)
 1800484:	80 1f 00 0c 	lwz     r0,12(r31)
 1800488:	3d 20 01 81 	lis     r9,385
 180048c:	39 29 12 74 	addi    r9,r9,4724
 1800490:	1d 6b 00 32 	mulli   r11,r11,50
 1800494:	7c 0b 02 14 	add     r0,r11,r0
 1800498:	54 00 10 3a 	rlwinm  r0,r0,2,0,29
 180049c:	7c 09 02 14 	add     r0,r9,r0
 18004a0:	7c 0b 03 78 	mr      r11,r0
 18004a4:	81 2b 00 00 	lwz     r9,0(r11)
 18004a8:	81 5f 00 0c 	lwz     r10,12(r31)
 18004ac:	80 1f 00 14 	lwz     r0,20(r31)
 18004b0:	3d 60 01 81 	lis     r11,385
 18004b4:	39 6b 12 74 	addi    r11,r11,4724
 18004b8:	1d 4a 00 32 	mulli   r10,r10,50
 18004bc:	7c 0a 02 14 	add     r0,r10,r0
 18004c0:	54 00 10 3a 	rlwinm  r0,r0,2,0,29
 18004c4:	7c 0b 02 14 	add     r0,r11,r0
 18004c8:	7c 0b 03 78 	mr      r11,r0
 18004cc:	80 0b 00 00 	lwz     r0,0(r11)
 18004d0:	7c 09 01 d6 	mullw   r0,r9,r0
 18004d4:	81 3f 00 08 	lwz     r9,8(r31)
 18004d8:	7c 00 48 50 	subf    r0,r0,r9
 18004dc:	90 1f 00 08 	stw     r0,8(r31)
 18004e0:	80 1f 00 0c 	lwz     r0,12(r31)
 18004e4:	30 00 00 01 	addic   r0,r0,1
 18004e8:	90 1f 00 0c 	stw     r0,12(r31)
 18004ec:	81 3f 00 0c 	lwz     r9,12(r31)
 18004f0:	80 1f 00 14 	lwz     r0,20(r31)
 18004f4:	7f 89 00 00 	cmpw    cr7,r9,r0
 18004f8:	41 9c ff 88 	blt+    cr7,1800480 <ludcmp+0x74>
 18004fc:	81 5f 00 10 	lwz     r10,16(r31)
 1800500:	80 1f 00 14 	lwz     r0,20(r31)
 1800504:	81 1f 00 14 	lwz     r8,20(r31)
 1800508:	81 3f 00 14 	lwz     r9,20(r31)
 180050c:	3d 60 01 81 	lis     r11,385
 1800510:	39 6b 12 74 	addi    r11,r11,4724
 1800514:	1d 08 00 32 	mulli   r8,r8,50
 1800518:	7d 28 4a 14 	add     r9,r8,r9
 180051c:	55 29 10 3a 	rlwinm  r9,r9,2,0,29
 1800520:	7d 2b 4a 14 	add     r9,r11,r9
 1800524:	81 29 00 00 	lwz     r9,0(r9)
 1800528:	81 7f 00 08 	lwz     r11,8(r31)
 180052c:	7d 2b 4b d6 	divw    r9,r11,r9
 1800530:	3d 60 01 81 	lis     r11,385
 1800534:	39 6b 12 74 	addi    r11,r11,4724
 1800538:	1d 4a 00 32 	mulli   r10,r10,50
 180053c:	7c 0a 02 14 	add     r0,r10,r0
 1800540:	54 00 10 3a 	rlwinm  r0,r0,2,0,29
 1800544:	7c 0b 02 14 	add     r0,r11,r0
 1800548:	7c 0b 03 78 	mr      r11,r0
 180054c:	91 2b 00 00 	stw     r9,0(r11)
 1800550:	80 1f 00 10 	lwz     r0,16(r31)
 1800554:	30 00 00 01 	addic   r0,r0,1
 1800558:	90 1f 00 10 	stw     r0,16(r31)
 180055c:	81 3f 00 10 	lwz     r9,16(r31)
 1800560:	80 1f 01 ac 	lwz     r0,428(r31)
 1800564:	7f 89 00 00 	cmpw    cr7,r9,r0
 1800568:	40 9d fe d4 	ble+    cr7,180043c <ludcmp+0x30>
 180056c:	80 1f 00 14 	lwz     r0,20(r31)
 1800570:	30 00 00 01 	addic   r0,r0,1
 1800574:	90 1f 00 10 	stw     r0,16(r31)
 1800578:	48 00 00 fc 	b       1800674 <ludcmp+0x268>
 180057c:	80 1f 00 14 	lwz     r0,20(r31)
 1800580:	31 60 00 01 	addic   r11,r0,1
 1800584:	80 1f 00 10 	lwz     r0,16(r31)
 1800588:	3d 20 01 81 	lis     r9,385
 180058c:	39 29 12 74 	addi    r9,r9,4724
 1800590:	1d 6b 00 32 	mulli   r11,r11,50
 1800594:	7c 0b 02 14 	add     r0,r11,r0
 1800598:	54 00 10 3a 	rlwinm  r0,r0,2,0,29
 180059c:	7c 09 02 14 	add     r0,r9,r0
 18005a0:	7c 09 03 78 	mr      r9,r0
 18005a4:	80 09 00 00 	lwz     r0,0(r9)
 18005a8:	90 1f 00 08 	stw     r0,8(r31)
 18005ac:	38 00 00 00 	li      r0,0
 18005b0:	90 1f 00 0c 	stw     r0,12(r31)
 18005b4:	48 00 00 74 	b       1800628 <ludcmp+0x21c>
 18005b8:	80 1f 00 14 	lwz     r0,20(r31)
 18005bc:	31 60 00 01 	addic   r11,r0,1
 18005c0:	80 1f 00 0c 	lwz     r0,12(r31)
 18005c4:	3d 20 01 81 	lis     r9,385
 18005c8:	39 29 12 74 	addi    r9,r9,4724
 18005cc:	1d 6b 00 32 	mulli   r11,r11,50
 18005d0:	7c 0b 02 14 	add     r0,r11,r0
 18005d4:	54 00 10 3a 	rlwinm  r0,r0,2,0,29
 18005d8:	7c 09 02 14 	add     r0,r9,r0
 18005dc:	7c 0b 03 78 	mr      r11,r0
 18005e0:	81 2b 00 00 	lwz     r9,0(r11)
 18005e4:	81 5f 00 0c 	lwz     r10,12(r31)
 18005e8:	80 1f 00 10 	lwz     r0,16(r31)
 18005ec:	3d 60 01 81 	lis     r11,385
 18005f0:	39 6b 12 74 	addi    r11,r11,4724
 18005f4:	1d 4a 00 32 	mulli   r10,r10,50
 18005f8:	7c 0a 02 14 	add     r0,r10,r0
 18005fc:	54 00 10 3a 	rlwinm  r0,r0,2,0,29
 1800600:	7c 0b 02 14 	add     r0,r11,r0
 1800604:	7c 0b 03 78 	mr      r11,r0
 1800608:	80 0b 00 00 	lwz     r0,0(r11)
 180060c:	7c 09 01 d6 	mullw   r0,r9,r0
 1800610:	81 3f 00 08 	lwz     r9,8(r31)
 1800614:	7c 00 48 50 	subf    r0,r0,r9
 1800618:	90 1f 00 08 	stw     r0,8(r31)
 180061c:	80 1f 00 0c 	lwz     r0,12(r31)
 1800620:	30 00 00 01 	addic   r0,r0,1
 1800624:	90 1f 00 0c 	stw     r0,12(r31)
 1800628:	81 3f 00 0c 	lwz     r9,12(r31)
 180062c:	80 1f 00 14 	lwz     r0,20(r31)
 1800630:	7f 89 00 00 	cmpw    cr7,r9,r0
 1800634:	40 9d ff 84 	ble+    cr7,18005b8 <ludcmp+0x1ac>
 1800638:	80 1f 00 14 	lwz     r0,20(r31)
 180063c:	31 60 00 01 	addic   r11,r0,1
 1800640:	80 1f 00 10 	lwz     r0,16(r31)
 1800644:	3d 20 01 81 	lis     r9,385
 1800648:	39 29 12 74 	addi    r9,r9,4724
 180064c:	1d 6b 00 32 	mulli   r11,r11,50
 1800650:	7c 0b 02 14 	add     r0,r11,r0
 1800654:	54 00 10 3a 	rlwinm  r0,r0,2,0,29
 1800658:	7c 09 02 14 	add     r0,r9,r0
 180065c:	81 3f 00 08 	lwz     r9,8(r31)
 1800660:	7c 0b 03 78 	mr      r11,r0
 1800664:	91 2b 00 00 	stw     r9,0(r11)
 1800668:	80 1f 00 10 	lwz     r0,16(r31)
 180066c:	30 00 00 01 	addic   r0,r0,1
 1800670:	90 1f 00 10 	stw     r0,16(r31)
 1800674:	81 3f 00 10 	lwz     r9,16(r31)
 1800678:	80 1f 01 ac 	lwz     r0,428(r31)
 180067c:	7f 89 00 00 	cmpw    cr7,r9,r0
 1800680:	40 9d fe fc 	ble+    cr7,180057c <ludcmp+0x170>
 1800684:	80 1f 00 14 	lwz     r0,20(r31)
 1800688:	30 00 00 01 	addic   r0,r0,1
 180068c:	90 1f 00 14 	stw     r0,20(r31)
 1800690:	81 3f 00 14 	lwz     r9,20(r31)
 1800694:	80 1f 01 ac 	lwz     r0,428(r31)
 1800698:	7f 89 00 00 	cmpw    cr7,r9,r0
 180069c:	41 9c fd 90 	blt+    cr7,180042c <ludcmp+0x20>
 18006a0:	3c 00 01 81 	lis     r0,385
 18006a4:	30 00 10 e4 	addic   r0,r0,4324
 18006a8:	7c 09 03 78 	mr      r9,r0
 18006ac:	80 09 00 00 	lwz     r0,0(r9)
 18006b0:	90 1f 00 18 	stw     r0,24(r31)
 18006b4:	38 00 00 01 	li      r0,1
 18006b8:	90 1f 00 14 	stw     r0,20(r31)
 18006bc:	48 00 00 cc 	b       1800788 <ludcmp+0x37c>
 18006c0:	80 1f 00 14 	lwz     r0,20(r31)
 18006c4:	3d 20 01 81 	lis     r9,385
 18006c8:	39 29 10 e4 	addi    r9,r9,4324
 18006cc:	54 00 10 3a 	rlwinm  r0,r0,2,0,29
 18006d0:	7c 09 02 14 	add     r0,r9,r0
 18006d4:	7c 0b 03 78 	mr      r11,r0
 18006d8:	80 0b 00 00 	lwz     r0,0(r11)
 18006dc:	90 1f 00 08 	stw     r0,8(r31)
 18006e0:	38 00 00 00 	li      r0,0
 18006e4:	90 1f 00 10 	stw     r0,16(r31)
 18006e8:	48 00 00 64 	b       180074c <ludcmp+0x340>
 18006ec:	81 7f 00 14 	lwz     r11,20(r31)
 18006f0:	80 1f 00 10 	lwz     r0,16(r31)
 18006f4:	3d 20 01 81 	lis     r9,385
 18006f8:	39 29 12 74 	addi    r9,r9,4724
 18006fc:	1d 6b 00 32 	mulli   r11,r11,50
 1800700:	7c 0b 02 14 	add     r0,r11,r0
 1800704:	54 00 10 3a 	rlwinm  r0,r0,2,0,29
 1800708:	7c 09 02 14 	add     r0,r9,r0
 180070c:	7c 0b 03 78 	mr      r11,r0
 1800710:	81 2b 00 00 	lwz     r9,0(r11)
 1800714:	80 1f 00 10 	lwz     r0,16(r31)
 1800718:	54 00 10 3a 	rlwinm  r0,r0,2,0,29
 180071c:	39 7f 00 08 	addi    r11,r31,8
 1800720:	7c 0b 02 14 	add     r0,r11,r0
 1800724:	30 00 00 10 	addic   r0,r0,16
 1800728:	7c 0b 03 78 	mr      r11,r0
 180072c:	80 0b 00 00 	lwz     r0,0(r11)
 1800730:	7c 09 01 d6 	mullw   r0,r9,r0
 1800734:	81 3f 00 08 	lwz     r9,8(r31)
 1800738:	7c 00 48 50 	subf    r0,r0,r9
 180073c:	90 1f 00 08 	stw     r0,8(r31)
 1800740:	80 1f 00 10 	lwz     r0,16(r31)
 1800744:	30 00 00 01 	addic   r0,r0,1
 1800748:	90 1f 00 10 	stw     r0,16(r31)
 180074c:	81 3f 00 10 	lwz     r9,16(r31)
 1800750:	80 1f 00 14 	lwz     r0,20(r31)
 1800754:	7f 89 00 00 	cmpw    cr7,r9,r0
 1800758:	41 9c ff 94 	blt+    cr7,18006ec <ludcmp+0x2e0>
 180075c:	80 1f 00 14 	lwz     r0,20(r31)
 1800760:	54 00 10 3a 	rlwinm  r0,r0,2,0,29
 1800764:	39 3f 00 08 	addi    r9,r31,8
 1800768:	7c 09 02 14 	add     r0,r9,r0
 180076c:	30 00 00 10 	addic   r0,r0,16
 1800770:	81 3f 00 08 	lwz     r9,8(r31)
 1800774:	7c 0b 03 78 	mr      r11,r0
 1800778:	91 2b 00 00 	stw     r9,0(r11)
 180077c:	80 1f 00 14 	lwz     r0,20(r31)
 1800780:	30 00 00 01 	addic   r0,r0,1
 1800784:	90 1f 00 14 	stw     r0,20(r31)
 1800788:	81 3f 00 14 	lwz     r9,20(r31)
 180078c:	80 1f 01 ac 	lwz     r0,428(r31)
 1800790:	7f 89 00 00 	cmpw    cr7,r9,r0
 1800794:	40 9d ff 2c 	ble+    cr7,18006c0 <ludcmp+0x2b4>
 1800798:	80 1f 01 ac 	lwz     r0,428(r31)
 180079c:	81 3f 01 ac 	lwz     r9,428(r31)
 18007a0:	55 29 10 3a 	rlwinm  r9,r9,2,0,29
 18007a4:	39 7f 00 08 	addi    r11,r31,8
 18007a8:	7d 2b 4a 14 	add     r9,r11,r9
 18007ac:	39 29 00 10 	addi    r9,r9,16
 18007b0:	81 69 00 00 	lwz     r11,0(r9)
 18007b4:	81 1f 01 ac 	lwz     r8,428(r31)
 18007b8:	81 3f 01 ac 	lwz     r9,428(r31)
 18007bc:	3d 40 01 81 	lis     r10,385
 18007c0:	39 4a 12 74 	addi    r10,r10,4724
 18007c4:	1d 08 00 32 	mulli   r8,r8,50
 18007c8:	7d 28 4a 14 	add     r9,r8,r9
 18007cc:	55 29 10 3a 	rlwinm  r9,r9,2,0,29
 18007d0:	7d 2a 4a 14 	add     r9,r10,r9
 18007d4:	81 29 00 00 	lwz     r9,0(r9)
 18007d8:	7d 2b 4b d6 	divw    r9,r11,r9
 18007dc:	3d 60 01 81 	lis     r11,385
 18007e0:	39 6b 11 ac 	addi    r11,r11,4524
 18007e4:	54 00 10 3a 	rlwinm  r0,r0,2,0,29
 18007e8:	7c 0b 02 14 	add     r0,r11,r0
 18007ec:	7c 0b 03 78 	mr      r11,r0
 18007f0:	91 2b 00 00 	stw     r9,0(r11)
 18007f4:	80 1f 01 ac 	lwz     r0,428(r31)
 18007f8:	30 00 ff ff 	addic   r0,r0,-1
 18007fc:	90 1f 00 14 	stw     r0,20(r31)
 1800800:	48 00 00 f8 	b       18008f8 <ludcmp+0x4ec>
 1800804:	80 1f 00 14 	lwz     r0,20(r31)
 1800808:	54 00 10 3a 	rlwinm  r0,r0,2,0,29
 180080c:	39 3f 00 08 	addi    r9,r31,8
 1800810:	7c 09 02 14 	add     r0,r9,r0
 1800814:	30 00 00 10 	addic   r0,r0,16
 1800818:	7c 09 03 78 	mr      r9,r0
 180081c:	80 09 00 00 	lwz     r0,0(r9)
 1800820:	90 1f 00 08 	stw     r0,8(r31)
 1800824:	80 1f 00 14 	lwz     r0,20(r31)
 1800828:	30 00 00 01 	addic   r0,r0,1
 180082c:	90 1f 00 10 	stw     r0,16(r31)
 1800830:	48 00 00 64 	b       1800894 <ludcmp+0x488>
 1800834:	81 7f 00 14 	lwz     r11,20(r31)
 1800838:	80 1f 00 10 	lwz     r0,16(r31)
 180083c:	3d 20 01 81 	lis     r9,385
 1800840:	39 29 12 74 	addi    r9,r9,4724
 1800844:	1d 6b 00 32 	mulli   r11,r11,50
 1800848:	7c 0b 02 14 	add     r0,r11,r0
 180084c:	54 00 10 3a 	rlwinm  r0,r0,2,0,29
 1800850:	7c 09 02 14 	add     r0,r9,r0
 1800854:	7c 0b 03 78 	mr      r11,r0
 1800858:	81 2b 00 00 	lwz     r9,0(r11)
 180085c:	80 1f 00 10 	lwz     r0,16(r31)
 1800860:	3d 60 01 81 	lis     r11,385
 1800864:	39 6b 11 ac 	addi    r11,r11,4524
 1800868:	54 00 10 3a 	rlwinm  r0,r0,2,0,29
 180086c:	7c 0b 02 14 	add     r0,r11,r0
 1800870:	7c 0b 03 78 	mr      r11,r0
 1800874:	80 0b 00 00 	lwz     r0,0(r11)
 1800878:	7c 09 01 d6 	mullw   r0,r9,r0
 180087c:	81 3f 00 08 	lwz     r9,8(r31)
 1800880:	7c 00 48 50 	subf    r0,r0,r9
 1800884:	90 1f 00 08 	stw     r0,8(r31)
 1800888:	80 1f 00 10 	lwz     r0,16(r31)
 180088c:	30 00 00 01 	addic   r0,r0,1
 1800890:	90 1f 00 10 	stw     r0,16(r31)
 1800894:	81 3f 00 10 	lwz     r9,16(r31)
 1800898:	80 1f 01 ac 	lwz     r0,428(r31)
 180089c:	7f 89 00 00 	cmpw    cr7,r9,r0
 18008a0:	40 9d ff 94 	ble+    cr7,1800834 <ludcmp+0x428>
 18008a4:	80 1f 00 14 	lwz     r0,20(r31)
 18008a8:	81 5f 00 14 	lwz     r10,20(r31)
 18008ac:	81 3f 00 14 	lwz     r9,20(r31)
 18008b0:	3d 60 01 81 	lis     r11,385
 18008b4:	39 6b 12 74 	addi    r11,r11,4724
 18008b8:	1d 4a 00 32 	mulli   r10,r10,50
 18008bc:	7d 2a 4a 14 	add     r9,r10,r9
 18008c0:	55 29 10 3a 	rlwinm  r9,r9,2,0,29
 18008c4:	7d 2b 4a 14 	add     r9,r11,r9
 18008c8:	81 29 00 00 	lwz     r9,0(r9)
 18008cc:	81 7f 00 08 	lwz     r11,8(r31)
 18008d0:	7d 2b 4b d6 	divw    r9,r11,r9
 18008d4:	3d 60 01 81 	lis     r11,385
 18008d8:	39 6b 11 ac 	addi    r11,r11,4524
 18008dc:	54 00 10 3a 	rlwinm  r0,r0,2,0,29
 18008e0:	7c 0b 02 14 	add     r0,r11,r0
 18008e4:	7c 0b 03 78 	mr      r11,r0
 18008e8:	91 2b 00 00 	stw     r9,0(r11)
 18008ec:	80 1f 00 14 	lwz     r0,20(r31)
 18008f0:	30 00 ff ff 	addic   r0,r0,-1
 18008f4:	90 1f 00 14 	stw     r0,20(r31)
 18008f8:	80 1f 00 14 	lwz     r0,20(r31)
 18008fc:	2f 80 00 00 	cmpwi   cr7,r0,0
 1800900:	40 9c ff 04 	bge+    cr7,1800804 <ludcmp+0x3f8>
 1800904:	38 00 00 00 	li      r0,0
 1800908:	7c 03 03 78 	mr      r3,r0
 180090c:	39 7f 01 b8 	addi    r11,r31,440
 1800910:	83 eb ff fc 	lwz     r31,-4(r11)
 1800914:	7d 61 5b 78 	mr      r1,r11
 1800918:	4e 80 00 20 	blr

0180091c <_exit>:
 180091c:	94 21 ff e8 	stwu    r1,-24(r1)
 1800920:	93 e1 00 14 	stw     r31,20(r1)
 1800924:	7c 3f 0b 78 	mr      r31,r1
 1800928:	90 7f 00 08 	stw     r3,8(r31)
 180092c:	48 00 00 00 	b       180092c <_exit+0x10>

01800930 <_start>:
 1800930:	94 21 ff f0 	stwu    r1,-16(r1)
 1800934:	7c 08 02 a6 	mflr    r0
 1800938:	90 01 00 14 	stw     r0,20(r1)
 180093c:	93 e1 00 0c 	stw     r31,12(r1)
 1800940:	7c 3f 0b 78 	mr      r31,r1
 1800944:	38 60 00 00 	li      r3,0
 1800948:	38 80 00 00 	li      r4,0
 180094c:	4b ff f8 d5 	bl      1800220 <main>
 1800950:	38 60 00 00 	li      r3,0
 1800954:	4b ff ff c9 	bl      180091c <_exit>

01800958 <__eabi>:
 1800958:	3d 40 01 81 	lis     r10,385
 180095c:	3d 60 01 81 	lis     r11,385
 1800960:	81 2a 10 c0 	lwz     r9,4288(r10)
 1800964:	39 6b 10 a0 	addi    r11,r11,4256
 1800968:	29 09 00 00 	cmplwi  cr2,r9,0
 180096c:	4c 8a 00 20 	bnelr   cr2
 1800970:	90 2a 10 c0 	stw     r1,4288(r10)
 1800974:	80 6b 00 08 	lwz     r3,8(r11)
 1800978:	80 8b 00 0c 	lwz     r4,12(r11)
 180097c:	7c 83 20 00 	cmpw    cr1,r3,r4
 1800980:	41 86 00 08 	beq-    cr1,1800988 <__eabi+0x30>
 1800984:	81 ab 00 04 	lwz     r13,4(r11)
 1800988:	80 6b 00 14 	lwz     r3,20(r11)
 180098c:	80 8b 00 18 	lwz     r4,24(r11)
 1800990:	7c 83 20 00 	cmpw    cr1,r3,r4
 1800994:	41 a6 00 08 	beq+    cr1,180099c <__eabi+0x44>
 1800998:	80 4b 00 10 	lwz     r2,16(r11)
 180099c:	4b ff f6 f8 	b       1800094 <__init>

018009a0 <__eabi_convert>:
 18009a0:	7c 83 20 40 	cmplw   cr1,r3,r4
 18009a4:	7c a3 20 50 	subf    r5,r3,r4
 18009a8:	4c 84 00 20 	bgelr   cr1
 18009ac:	7c a5 16 70 	srawi   r5,r5,2
 18009b0:	38 63 ff fc 	addi    r3,r3,-4
 18009b4:	7c a9 03 a6 	mtctr   r5
 18009b8:	84 c3 00 04 	lwzu    r6,4(r3)
 18009bc:	2c 06 00 00 	cmpwi   r6,0
 18009c0:	41 82 00 0c 	beq-    18009cc <__eabi_convert+0x2c>
 18009c4:	7c c6 62 14 	add     r6,r6,r12
 18009c8:	90 c3 00 00 	stw     r6,0(r3)
 18009cc:	42 00 ff ec 	bdnz+   18009b8 <__eabi_convert+0x18>
 18009d0:	4e 80 00 20 	blr

018009d4 <__eabi_uconvert>:
 18009d4:	7c 83 20 40 	cmplw   cr1,r3,r4
 18009d8:	7c a3 20 50 	subf    r5,r3,r4
 18009dc:	4c 84 00 20 	bgelr   cr1
 18009e0:	7c a5 16 70 	srawi   r5,r5,2
 18009e4:	38 63 ff fc 	addi    r3,r3,-4
 18009e8:	7c a9 03 a6 	mtctr   r5
 18009ec:	84 c3 00 04 	lwzu    r6,4(r3)
 18009f0:	7c c6 62 14 	add     r6,r6,r12
 18009f4:	80 e6 00 00 	lwz     r7,0(r6)
 18009f8:	90 c3 00 00 	stw     r6,0(r3)
 18009fc:	7c e7 62 14 	add     r7,r7,r12
 1800a00:	90 e6 00 00 	stw     r7,0(r6)
 1800a04:	42 00 ff e8 	bdnz+   18009ec <__eabi_uconvert+0x18>
 1800a08:	4e 80 00 20 	blr

01800a0c <__do_global_ctors_aux>:
 1800a0c:	7c 08 02 a6 	mflr    r0
 1800a10:	94 21 ff f0 	stwu    r1,-16(r1)
 1800a14:	93 e1 00 0c 	stw     r31,12(r1)
 1800a18:	3f e0 01 81 	lis     r31,385
 1800a1c:	90 01 00 14 	stw     r0,20(r1)
 1800a20:	3b ff 10 90 	addi    r31,r31,4240
 1800a24:	80 1f ff fc 	lwz     r0,-4(r31)
 1800a28:	2f 80 ff ff 	cmpwi   cr7,r0,-1
 1800a2c:	41 9e 00 1c 	beq-    cr7,1800a48 <__do_global_ctors_aux+0x3c>
 1800a30:	3b ff ff fc 	addi    r31,r31,-4
 1800a34:	7c 09 03 a6 	mtctr   r0
 1800a38:	4e 80 04 21 	bctrl
 1800a3c:	84 1f ff fc 	lwzu    r0,-4(r31)
 1800a40:	2f 80 ff ff 	cmpwi   cr7,r0,-1
 1800a44:	40 9e ff f0 	bne+    cr7,1800a34 <__do_global_ctors_aux+0x28>
 1800a48:	80 01 00 14 	lwz     r0,20(r1)
 1800a4c:	83 e1 00 0c 	lwz     r31,12(r1)
 1800a50:	38 21 00 10 	addi    r1,r1,16
 1800a54:	7c 08 03 a6 	mtlr    r0
 1800a58:	4e 80 00 20 	blr

01800a5c <call___do_global_ctors_aux>:
 1800a5c:	7c 08 02 a6 	mflr    r0
 1800a60:	94 21 ff f8 	stwu    r1,-8(r1)
 1800a64:	90 01 00 0c 	stw     r0,12(r1)
 1800a68:	80 01 00 0c 	lwz     r0,12(r1)
 1800a6c:	38 21 00 08 	addi    r1,r1,8
 1800a70:	7c 08 03 a6 	mtlr    r0
 1800a74:	4e 80 00 20 	blr

Disassembly of section .fini:

01800a78 <__fini>:
 1800a78:	94 21 ff f0 	stwu    r1,-16(r1)
 1800a7c:	7c 08 02 a6 	mflr    r0
 1800a80:	90 01 00 14 	stw     r0,20(r1)
 1800a84:	4b ff f6 35 	bl      18000b8 <__do_global_dtors_aux>
 1800a88:	80 01 00 14 	lwz     r0,20(r1)
 1800a8c:	7c 08 03 a6 	mtlr    r0
 1800a90:	38 21 00 10 	addi    r1,r1,16
 1800a94:	4e 80 00 20 	blr
