
/home/vaillant/ppc2/perf/malardalen/ppc-eabi/gcc-4.4.2/jfdctint/jfdctint.elf:     file format elf32-powerpc


Disassembly of section .init:

01800094 <__init>:
 1800094:	94 21 ff f0 	stwu    r1,-16(r1)
 1800098:	7c 08 02 a6 	mflr    r0
 180009c:	90 01 00 14 	stw     r0,20(r1)
 18000a0:	48 00 00 f9 	bl      1800198 <frame_dummy>
 18000a4:	48 00 0b 21 	bl      1800bc4 <__do_global_ctors_aux>
 18000a8:	80 01 00 14 	lwz     r0,20(r1)
 18000ac:	7c 08 03 a6 	mtlr    r0
 18000b0:	38 21 00 10 	addi    r1,r1,16
 18000b4:	4e 80 00 20 	blr

Disassembly of section .text:

018000b8 <__do_global_dtors_aux>:
 18000b8:	94 21 ff e8 	stwu    r1,-24(r1)
 18000bc:	7c 08 02 a6 	mflr    r0
 18000c0:	93 e1 00 14 	stw     r31,20(r1)
 18000c4:	3f e0 01 81 	lis     r31,385
 18000c8:	90 01 00 1c 	stw     r0,28(r1)
 18000cc:	88 1f 0d 40 	lbz     r0,3392(r31)
 18000d0:	93 81 00 08 	stw     r28,8(r1)
 18000d4:	2f 80 00 00 	cmpwi   cr7,r0,0
 18000d8:	93 a1 00 0c 	stw     r29,12(r1)
 18000dc:	93 c1 00 10 	stw     r30,16(r1)
 18000e0:	40 9e 00 7c 	bne-    cr7,180015c <__do_global_dtors_aux+0xa4>
 18000e4:	3f 80 01 81 	lis     r28,385
 18000e8:	3f a0 01 81 	lis     r29,385
 18000ec:	3b 9c 0d 10 	addi    r28,r28,3344
 18000f0:	3b bd 0d 14 	addi    r29,r29,3348
 18000f4:	7f bc e8 50 	subf    r29,r28,r29
 18000f8:	3f c0 01 81 	lis     r30,385
 18000fc:	7f bd 16 70 	srawi   r29,r29,2
 1800100:	81 3e 0d 44 	lwz     r9,3396(r30)
 1800104:	3b bd ff ff 	addi    r29,r29,-1
 1800108:	7f 89 e8 40 	cmplw   cr7,r9,r29
 180010c:	40 9c 00 2c 	bge-    cr7,1800138 <__do_global_dtors_aux+0x80>
 1800110:	3b de 0d 44 	addi    r30,r30,3396
 1800114:	39 29 00 01 	addi    r9,r9,1
 1800118:	55 20 10 3a 	rlwinm  r0,r9,2,0,29
 180011c:	91 3e 00 00 	stw     r9,0(r30)
 1800120:	7c 1c 00 2e 	lwzx    r0,r28,r0
 1800124:	7c 09 03 a6 	mtctr   r0
 1800128:	4e 80 04 21 	bctrl
 180012c:	81 3e 00 00 	lwz     r9,0(r30)
 1800130:	7f 89 e8 40 	cmplw   cr7,r9,r29
 1800134:	41 9c ff e0 	blt+    cr7,1800114 <__do_global_dtors_aux+0x5c>
 1800138:	3d 20 00 00 	lis     r9,0
 180013c:	38 09 00 00 	addi    r0,r9,0
 1800140:	2f 80 00 00 	cmpwi   cr7,r0,0
 1800144:	41 9e 00 10 	beq-    cr7,1800154 <__do_global_dtors_aux+0x9c>
 1800148:	3c 60 01 81 	lis     r3,385
 180014c:	38 63 0c 7c 	addi    r3,r3,3196
 1800150:	4a 7f fe b1 	bl      0 <__init-0x1800094>
 1800154:	38 00 00 01 	li      r0,1
 1800158:	98 1f 0d 40 	stb     r0,3392(r31)
 180015c:	80 01 00 1c 	lwz     r0,28(r1)
 1800160:	83 81 00 08 	lwz     r28,8(r1)
 1800164:	7c 08 03 a6 	mtlr    r0
 1800168:	83 a1 00 0c 	lwz     r29,12(r1)
 180016c:	83 c1 00 10 	lwz     r30,16(r1)
 1800170:	83 e1 00 14 	lwz     r31,20(r1)
 1800174:	38 21 00 18 	addi    r1,r1,24
 1800178:	4e 80 00 20 	blr

0180017c <call___do_global_dtors_aux>:
 180017c:	7c 08 02 a6 	mflr    r0
 1800180:	94 21 ff f8 	stwu    r1,-8(r1)
 1800184:	90 01 00 0c 	stw     r0,12(r1)
 1800188:	80 01 00 0c 	lwz     r0,12(r1)
 180018c:	38 21 00 08 	addi    r1,r1,8
 1800190:	7c 08 03 a6 	mtlr    r0
 1800194:	4e 80 00 20 	blr

01800198 <frame_dummy>:
 1800198:	7c 08 02 a6 	mflr    r0
 180019c:	94 21 ff f8 	stwu    r1,-8(r1)
 18001a0:	3d 20 00 00 	lis     r9,0
 18001a4:	90 01 00 0c 	stw     r0,12(r1)
 18001a8:	38 09 00 00 	addi    r0,r9,0
 18001ac:	2f 80 00 00 	cmpwi   cr7,r0,0
 18001b0:	41 9e 00 18 	beq-    cr7,18001c8 <frame_dummy+0x30>
 18001b4:	3c 60 01 81 	lis     r3,385
 18001b8:	3c 80 01 81 	lis     r4,385
 18001bc:	38 63 0c 7c 	addi    r3,r3,3196
 18001c0:	38 84 0d 48 	addi    r4,r4,3400
 18001c4:	4a 7f fe 3d 	bl      0 <__init-0x1800094>
 18001c8:	3c 60 01 81 	lis     r3,385
 18001cc:	80 03 0d 18 	lwz     r0,3352(r3)
 18001d0:	38 63 0d 18 	addi    r3,r3,3352
 18001d4:	2f 80 00 00 	cmpwi   cr7,r0,0
 18001d8:	41 9e 00 1c 	beq-    cr7,18001f4 <frame_dummy+0x5c>
 18001dc:	3d 20 00 00 	lis     r9,0
 18001e0:	38 09 00 00 	addi    r0,r9,0
 18001e4:	2f 80 00 00 	cmpwi   cr7,r0,0
 18001e8:	41 9e 00 0c 	beq-    cr7,18001f4 <frame_dummy+0x5c>
 18001ec:	7c 09 03 a6 	mtctr   r0
 18001f0:	4e 80 04 21 	bctrl
 18001f4:	80 01 00 0c 	lwz     r0,12(r1)
 18001f8:	38 21 00 08 	addi    r1,r1,8
 18001fc:	7c 08 03 a6 	mtlr    r0
 1800200:	4e 80 00 20 	blr

01800204 <call_frame_dummy>:
 1800204:	7c 08 02 a6 	mflr    r0
 1800208:	94 21 ff f8 	stwu    r1,-8(r1)
 180020c:	90 01 00 0c 	stw     r0,12(r1)
 1800210:	80 01 00 0c 	lwz     r0,12(r1)
 1800214:	38 21 00 08 	addi    r1,r1,8
 1800218:	7c 08 03 a6 	mtlr    r0
 180021c:	4e 80 00 20 	blr

01800220 <jpeg_fdct_islow>:
 1800220:	94 21 ff a0 	stwu    r1,-96(r1)
 1800224:	93 e1 00 5c 	stw     r31,92(r1)
 1800228:	7c 3f 0b 78 	mr      r31,r1
 180022c:	3c 00 01 81 	lis     r0,385
 1800230:	30 00 0d 60 	addic   r0,r0,3424
 1800234:	90 1f 00 0c 	stw     r0,12(r31)
 1800238:	38 00 00 07 	li      r0,7
 180023c:	90 1f 00 08 	stw     r0,8(r31)
 1800240:	48 00 03 b8 	b       18005f8 <jpeg_fdct_islow+0x3d8>
 1800244:	80 1f 00 0c 	lwz     r0,12(r31)
 1800248:	7c 0b 03 78 	mr      r11,r0
 180024c:	81 2b 00 00 	lwz     r9,0(r11)
 1800250:	80 1f 00 0c 	lwz     r0,12(r31)
 1800254:	30 00 00 1c 	addic   r0,r0,28
 1800258:	7c 0b 03 78 	mr      r11,r0
 180025c:	80 0b 00 00 	lwz     r0,0(r11)
 1800260:	7c 09 02 14 	add     r0,r9,r0
 1800264:	90 1f 00 50 	stw     r0,80(r31)
 1800268:	80 1f 00 0c 	lwz     r0,12(r31)
 180026c:	7c 0b 03 78 	mr      r11,r0
 1800270:	81 2b 00 00 	lwz     r9,0(r11)
 1800274:	80 1f 00 0c 	lwz     r0,12(r31)
 1800278:	30 00 00 1c 	addic   r0,r0,28
 180027c:	7c 0b 03 78 	mr      r11,r0
 1800280:	80 0b 00 00 	lwz     r0,0(r11)
 1800284:	7c 00 48 50 	subf    r0,r0,r9
 1800288:	90 1f 00 34 	stw     r0,52(r31)
 180028c:	80 1f 00 0c 	lwz     r0,12(r31)
 1800290:	30 00 00 04 	addic   r0,r0,4
 1800294:	7c 0b 03 78 	mr      r11,r0
 1800298:	81 2b 00 00 	lwz     r9,0(r11)
 180029c:	80 1f 00 0c 	lwz     r0,12(r31)
 18002a0:	30 00 00 18 	addic   r0,r0,24
 18002a4:	7c 0b 03 78 	mr      r11,r0
 18002a8:	80 0b 00 00 	lwz     r0,0(r11)
 18002ac:	7c 09 02 14 	add     r0,r9,r0
 18002b0:	90 1f 00 4c 	stw     r0,76(r31)
 18002b4:	80 1f 00 0c 	lwz     r0,12(r31)
 18002b8:	30 00 00 04 	addic   r0,r0,4
 18002bc:	7c 0b 03 78 	mr      r11,r0
 18002c0:	81 2b 00 00 	lwz     r9,0(r11)
 18002c4:	80 1f 00 0c 	lwz     r0,12(r31)
 18002c8:	30 00 00 18 	addic   r0,r0,24
 18002cc:	7c 0b 03 78 	mr      r11,r0
 18002d0:	80 0b 00 00 	lwz     r0,0(r11)
 18002d4:	7c 00 48 50 	subf    r0,r0,r9
 18002d8:	90 1f 00 38 	stw     r0,56(r31)
 18002dc:	80 1f 00 0c 	lwz     r0,12(r31)
 18002e0:	30 00 00 08 	addic   r0,r0,8
 18002e4:	7c 0b 03 78 	mr      r11,r0
 18002e8:	81 2b 00 00 	lwz     r9,0(r11)
 18002ec:	80 1f 00 0c 	lwz     r0,12(r31)
 18002f0:	30 00 00 14 	addic   r0,r0,20
 18002f4:	7c 0b 03 78 	mr      r11,r0
 18002f8:	80 0b 00 00 	lwz     r0,0(r11)
 18002fc:	7c 09 02 14 	add     r0,r9,r0
 1800300:	90 1f 00 48 	stw     r0,72(r31)
 1800304:	80 1f 00 0c 	lwz     r0,12(r31)
 1800308:	30 00 00 08 	addic   r0,r0,8
 180030c:	7c 0b 03 78 	mr      r11,r0
 1800310:	81 2b 00 00 	lwz     r9,0(r11)
 1800314:	80 1f 00 0c 	lwz     r0,12(r31)
 1800318:	30 00 00 14 	addic   r0,r0,20
 180031c:	7c 0b 03 78 	mr      r11,r0
 1800320:	80 0b 00 00 	lwz     r0,0(r11)
 1800324:	7c 00 48 50 	subf    r0,r0,r9
 1800328:	90 1f 00 3c 	stw     r0,60(r31)
 180032c:	80 1f 00 0c 	lwz     r0,12(r31)
 1800330:	30 00 00 0c 	addic   r0,r0,12
 1800334:	7c 0b 03 78 	mr      r11,r0
 1800338:	81 2b 00 00 	lwz     r9,0(r11)
 180033c:	80 1f 00 0c 	lwz     r0,12(r31)
 1800340:	30 00 00 10 	addic   r0,r0,16
 1800344:	7c 0b 03 78 	mr      r11,r0
 1800348:	80 0b 00 00 	lwz     r0,0(r11)
 180034c:	7c 09 02 14 	add     r0,r9,r0
 1800350:	90 1f 00 44 	stw     r0,68(r31)
 1800354:	80 1f 00 0c 	lwz     r0,12(r31)
 1800358:	30 00 00 0c 	addic   r0,r0,12
 180035c:	7c 0b 03 78 	mr      r11,r0
 1800360:	81 2b 00 00 	lwz     r9,0(r11)
 1800364:	80 1f 00 0c 	lwz     r0,12(r31)
 1800368:	30 00 00 10 	addic   r0,r0,16
 180036c:	7c 0b 03 78 	mr      r11,r0
 1800370:	80 0b 00 00 	lwz     r0,0(r11)
 1800374:	7c 00 48 50 	subf    r0,r0,r9
 1800378:	90 1f 00 40 	stw     r0,64(r31)
 180037c:	81 3f 00 50 	lwz     r9,80(r31)
 1800380:	80 1f 00 44 	lwz     r0,68(r31)
 1800384:	7c 09 02 14 	add     r0,r9,r0
 1800388:	90 1f 00 30 	stw     r0,48(r31)
 180038c:	81 3f 00 50 	lwz     r9,80(r31)
 1800390:	80 1f 00 44 	lwz     r0,68(r31)
 1800394:	7c 00 48 50 	subf    r0,r0,r9
 1800398:	90 1f 00 24 	stw     r0,36(r31)
 180039c:	81 3f 00 4c 	lwz     r9,76(r31)
 18003a0:	80 1f 00 48 	lwz     r0,72(r31)
 18003a4:	7c 09 02 14 	add     r0,r9,r0
 18003a8:	90 1f 00 2c 	stw     r0,44(r31)
 18003ac:	81 3f 00 4c 	lwz     r9,76(r31)
 18003b0:	80 1f 00 48 	lwz     r0,72(r31)
 18003b4:	7c 00 48 50 	subf    r0,r0,r9
 18003b8:	90 1f 00 28 	stw     r0,40(r31)
 18003bc:	81 3f 00 30 	lwz     r9,48(r31)
 18003c0:	80 1f 00 2c 	lwz     r0,44(r31)
 18003c4:	7c 09 02 14 	add     r0,r9,r0
 18003c8:	54 09 10 3a 	rlwinm  r9,r0,2,0,29
 18003cc:	80 1f 00 0c 	lwz     r0,12(r31)
 18003d0:	7c 0b 03 78 	mr      r11,r0
 18003d4:	91 2b 00 00 	stw     r9,0(r11)
 18003d8:	80 1f 00 0c 	lwz     r0,12(r31)
 18003dc:	30 00 00 10 	addic   r0,r0,16
 18003e0:	81 7f 00 30 	lwz     r11,48(r31)
 18003e4:	81 3f 00 2c 	lwz     r9,44(r31)
 18003e8:	7d 29 58 50 	subf    r9,r9,r11
 18003ec:	55 29 10 3a 	rlwinm  r9,r9,2,0,29
 18003f0:	7c 0b 03 78 	mr      r11,r0
 18003f4:	91 2b 00 00 	stw     r9,0(r11)
 18003f8:	81 3f 00 28 	lwz     r9,40(r31)
 18003fc:	80 1f 00 24 	lwz     r0,36(r31)
 1800400:	7c 09 02 14 	add     r0,r9,r0
 1800404:	1c 00 11 51 	mulli   r0,r0,4433
 1800408:	90 1f 00 20 	stw     r0,32(r31)
 180040c:	80 1f 00 0c 	lwz     r0,12(r31)
 1800410:	30 00 00 08 	addic   r0,r0,8
 1800414:	81 3f 00 24 	lwz     r9,36(r31)
 1800418:	1d 69 18 7e 	mulli   r11,r9,6270
 180041c:	81 3f 00 20 	lwz     r9,32(r31)
 1800420:	7d 2b 4a 14 	add     r9,r11,r9
 1800424:	39 29 04 00 	addi    r9,r9,1024
 1800428:	7d 29 5e 70 	srawi   r9,r9,11
 180042c:	7c 0b 03 78 	mr      r11,r0
 1800430:	91 2b 00 00 	stw     r9,0(r11)
 1800434:	80 1f 00 0c 	lwz     r0,12(r31)
 1800438:	30 00 00 18 	addic   r0,r0,24
 180043c:	81 3f 00 28 	lwz     r9,40(r31)
 1800440:	1d 69 c4 df 	mulli   r11,r9,-15137
 1800444:	81 3f 00 20 	lwz     r9,32(r31)
 1800448:	7d 2b 4a 14 	add     r9,r11,r9
 180044c:	39 29 04 00 	addi    r9,r9,1024
 1800450:	7d 29 5e 70 	srawi   r9,r9,11
 1800454:	7c 0b 03 78 	mr      r11,r0
 1800458:	91 2b 00 00 	stw     r9,0(r11)
 180045c:	81 3f 00 40 	lwz     r9,64(r31)
 1800460:	80 1f 00 34 	lwz     r0,52(r31)
 1800464:	7c 09 02 14 	add     r0,r9,r0
 1800468:	90 1f 00 20 	stw     r0,32(r31)
 180046c:	81 3f 00 3c 	lwz     r9,60(r31)
 1800470:	80 1f 00 38 	lwz     r0,56(r31)
 1800474:	7c 09 02 14 	add     r0,r9,r0
 1800478:	90 1f 00 1c 	stw     r0,28(r31)
 180047c:	81 3f 00 40 	lwz     r9,64(r31)
 1800480:	80 1f 00 38 	lwz     r0,56(r31)
 1800484:	7c 09 02 14 	add     r0,r9,r0
 1800488:	90 1f 00 18 	stw     r0,24(r31)
 180048c:	81 3f 00 3c 	lwz     r9,60(r31)
 1800490:	80 1f 00 34 	lwz     r0,52(r31)
 1800494:	7c 09 02 14 	add     r0,r9,r0
 1800498:	90 1f 00 14 	stw     r0,20(r31)
 180049c:	81 3f 00 18 	lwz     r9,24(r31)
 18004a0:	80 1f 00 14 	lwz     r0,20(r31)
 18004a4:	7c 09 02 14 	add     r0,r9,r0
 18004a8:	1c 00 25 a1 	mulli   r0,r0,9633
 18004ac:	90 1f 00 10 	stw     r0,16(r31)
 18004b0:	80 1f 00 40 	lwz     r0,64(r31)
 18004b4:	1c 00 09 8e 	mulli   r0,r0,2446
 18004b8:	90 1f 00 40 	stw     r0,64(r31)
 18004bc:	80 1f 00 3c 	lwz     r0,60(r31)
 18004c0:	1c 00 41 b3 	mulli   r0,r0,16819
 18004c4:	90 1f 00 3c 	stw     r0,60(r31)
 18004c8:	80 1f 00 38 	lwz     r0,56(r31)
 18004cc:	1c 00 62 54 	mulli   r0,r0,25172
 18004d0:	90 1f 00 38 	stw     r0,56(r31)
 18004d4:	80 1f 00 34 	lwz     r0,52(r31)
 18004d8:	1c 00 30 0b 	mulli   r0,r0,12299
 18004dc:	90 1f 00 34 	stw     r0,52(r31)
 18004e0:	80 1f 00 20 	lwz     r0,32(r31)
 18004e4:	1c 00 e3 33 	mulli   r0,r0,-7373
 18004e8:	90 1f 00 20 	stw     r0,32(r31)
 18004ec:	80 1f 00 1c 	lwz     r0,28(r31)
 18004f0:	1c 00 ad fd 	mulli   r0,r0,-20995
 18004f4:	90 1f 00 1c 	stw     r0,28(r31)
 18004f8:	80 1f 00 18 	lwz     r0,24(r31)
 18004fc:	1c 00 c1 3b 	mulli   r0,r0,-16069
 1800500:	90 1f 00 18 	stw     r0,24(r31)
 1800504:	80 1f 00 14 	lwz     r0,20(r31)
 1800508:	1c 00 f3 84 	mulli   r0,r0,-3196
 180050c:	90 1f 00 14 	stw     r0,20(r31)
 1800510:	81 3f 00 18 	lwz     r9,24(r31)
 1800514:	80 1f 00 10 	lwz     r0,16(r31)
 1800518:	7c 09 02 14 	add     r0,r9,r0
 180051c:	90 1f 00 18 	stw     r0,24(r31)
 1800520:	81 3f 00 14 	lwz     r9,20(r31)
 1800524:	80 1f 00 10 	lwz     r0,16(r31)
 1800528:	7c 09 02 14 	add     r0,r9,r0
 180052c:	90 1f 00 14 	stw     r0,20(r31)
 1800530:	80 1f 00 0c 	lwz     r0,12(r31)
 1800534:	30 00 00 1c 	addic   r0,r0,28
 1800538:	81 7f 00 40 	lwz     r11,64(r31)
 180053c:	81 3f 00 20 	lwz     r9,32(r31)
 1800540:	7d 6b 4a 14 	add     r11,r11,r9
 1800544:	81 3f 00 18 	lwz     r9,24(r31)
 1800548:	7d 2b 4a 14 	add     r9,r11,r9
 180054c:	39 29 04 00 	addi    r9,r9,1024
 1800550:	7d 29 5e 70 	srawi   r9,r9,11
 1800554:	7c 0b 03 78 	mr      r11,r0
 1800558:	91 2b 00 00 	stw     r9,0(r11)
 180055c:	80 1f 00 0c 	lwz     r0,12(r31)
 1800560:	30 00 00 14 	addic   r0,r0,20
 1800564:	81 7f 00 3c 	lwz     r11,60(r31)
 1800568:	81 3f 00 1c 	lwz     r9,28(r31)
 180056c:	7d 6b 4a 14 	add     r11,r11,r9
 1800570:	81 3f 00 14 	lwz     r9,20(r31)
 1800574:	7d 2b 4a 14 	add     r9,r11,r9
 1800578:	39 29 04 00 	addi    r9,r9,1024
 180057c:	7d 29 5e 70 	srawi   r9,r9,11
 1800580:	7c 0b 03 78 	mr      r11,r0
 1800584:	91 2b 00 00 	stw     r9,0(r11)
 1800588:	80 1f 00 0c 	lwz     r0,12(r31)
 180058c:	30 00 00 0c 	addic   r0,r0,12
 1800590:	81 7f 00 38 	lwz     r11,56(r31)
 1800594:	81 3f 00 1c 	lwz     r9,28(r31)
 1800598:	7d 6b 4a 14 	add     r11,r11,r9
 180059c:	81 3f 00 18 	lwz     r9,24(r31)
 18005a0:	7d 2b 4a 14 	add     r9,r11,r9
 18005a4:	39 29 04 00 	addi    r9,r9,1024
 18005a8:	7d 29 5e 70 	srawi   r9,r9,11
 18005ac:	7c 0b 03 78 	mr      r11,r0
 18005b0:	91 2b 00 00 	stw     r9,0(r11)
 18005b4:	80 1f 00 0c 	lwz     r0,12(r31)
 18005b8:	30 00 00 04 	addic   r0,r0,4
 18005bc:	81 7f 00 34 	lwz     r11,52(r31)
 18005c0:	81 3f 00 20 	lwz     r9,32(r31)
 18005c4:	7d 6b 4a 14 	add     r11,r11,r9
 18005c8:	81 3f 00 14 	lwz     r9,20(r31)
 18005cc:	7d 2b 4a 14 	add     r9,r11,r9
 18005d0:	39 29 04 00 	addi    r9,r9,1024
 18005d4:	7d 29 5e 70 	srawi   r9,r9,11
 18005d8:	7c 0b 03 78 	mr      r11,r0
 18005dc:	91 2b 00 00 	stw     r9,0(r11)
 18005e0:	80 1f 00 0c 	lwz     r0,12(r31)
 18005e4:	30 00 00 20 	addic   r0,r0,32
 18005e8:	90 1f 00 0c 	stw     r0,12(r31)
 18005ec:	80 1f 00 08 	lwz     r0,8(r31)
 18005f0:	30 00 ff ff 	addic   r0,r0,-1
 18005f4:	90 1f 00 08 	stw     r0,8(r31)
 18005f8:	80 1f 00 08 	lwz     r0,8(r31)
 18005fc:	2f 80 00 00 	cmpwi   cr7,r0,0
 1800600:	40 9c fc 44 	bge+    cr7,1800244 <jpeg_fdct_islow+0x24>
 1800604:	3c 00 01 81 	lis     r0,385
 1800608:	30 00 0d 60 	addic   r0,r0,3424
 180060c:	90 1f 00 0c 	stw     r0,12(r31)
 1800610:	38 00 00 07 	li      r0,7
 1800614:	90 1f 00 08 	stw     r0,8(r31)
 1800618:	48 00 03 c0 	b       18009d8 <jpeg_fdct_islow+0x7b8>
 180061c:	80 1f 00 0c 	lwz     r0,12(r31)
 1800620:	7c 0b 03 78 	mr      r11,r0
 1800624:	81 2b 00 00 	lwz     r9,0(r11)
 1800628:	80 1f 00 0c 	lwz     r0,12(r31)
 180062c:	30 00 00 e0 	addic   r0,r0,224
 1800630:	7c 0b 03 78 	mr      r11,r0
 1800634:	80 0b 00 00 	lwz     r0,0(r11)
 1800638:	7c 09 02 14 	add     r0,r9,r0
 180063c:	90 1f 00 50 	stw     r0,80(r31)
 1800640:	80 1f 00 0c 	lwz     r0,12(r31)
 1800644:	7c 0b 03 78 	mr      r11,r0
 1800648:	81 2b 00 00 	lwz     r9,0(r11)
 180064c:	80 1f 00 0c 	lwz     r0,12(r31)
 1800650:	30 00 00 e0 	addic   r0,r0,224
 1800654:	7c 0b 03 78 	mr      r11,r0
 1800658:	80 0b 00 00 	lwz     r0,0(r11)
 180065c:	7c 00 48 50 	subf    r0,r0,r9
 1800660:	90 1f 00 34 	stw     r0,52(r31)
 1800664:	80 1f 00 0c 	lwz     r0,12(r31)
 1800668:	30 00 00 20 	addic   r0,r0,32
 180066c:	7c 0b 03 78 	mr      r11,r0
 1800670:	81 2b 00 00 	lwz     r9,0(r11)
 1800674:	80 1f 00 0c 	lwz     r0,12(r31)
 1800678:	30 00 00 c0 	addic   r0,r0,192
 180067c:	7c 0b 03 78 	mr      r11,r0
 1800680:	80 0b 00 00 	lwz     r0,0(r11)
 1800684:	7c 09 02 14 	add     r0,r9,r0
 1800688:	90 1f 00 4c 	stw     r0,76(r31)
 180068c:	80 1f 00 0c 	lwz     r0,12(r31)
 1800690:	30 00 00 20 	addic   r0,r0,32
 1800694:	7c 0b 03 78 	mr      r11,r0
 1800698:	81 2b 00 00 	lwz     r9,0(r11)
 180069c:	80 1f 00 0c 	lwz     r0,12(r31)
 18006a0:	30 00 00 c0 	addic   r0,r0,192
 18006a4:	7c 0b 03 78 	mr      r11,r0
 18006a8:	80 0b 00 00 	lwz     r0,0(r11)
 18006ac:	7c 00 48 50 	subf    r0,r0,r9
 18006b0:	90 1f 00 38 	stw     r0,56(r31)
 18006b4:	80 1f 00 0c 	lwz     r0,12(r31)
 18006b8:	30 00 00 40 	addic   r0,r0,64
 18006bc:	7c 0b 03 78 	mr      r11,r0
 18006c0:	81 2b 00 00 	lwz     r9,0(r11)
 18006c4:	80 1f 00 0c 	lwz     r0,12(r31)
 18006c8:	30 00 00 a0 	addic   r0,r0,160
 18006cc:	7c 0b 03 78 	mr      r11,r0
 18006d0:	80 0b 00 00 	lwz     r0,0(r11)
 18006d4:	7c 09 02 14 	add     r0,r9,r0
 18006d8:	90 1f 00 48 	stw     r0,72(r31)
 18006dc:	80 1f 00 0c 	lwz     r0,12(r31)
 18006e0:	30 00 00 40 	addic   r0,r0,64
 18006e4:	7c 0b 03 78 	mr      r11,r0
 18006e8:	81 2b 00 00 	lwz     r9,0(r11)
 18006ec:	80 1f 00 0c 	lwz     r0,12(r31)
 18006f0:	30 00 00 a0 	addic   r0,r0,160
 18006f4:	7c 0b 03 78 	mr      r11,r0
 18006f8:	80 0b 00 00 	lwz     r0,0(r11)
 18006fc:	7c 00 48 50 	subf    r0,r0,r9
 1800700:	90 1f 00 3c 	stw     r0,60(r31)
 1800704:	80 1f 00 0c 	lwz     r0,12(r31)
 1800708:	30 00 00 60 	addic   r0,r0,96
 180070c:	7c 0b 03 78 	mr      r11,r0
 1800710:	81 2b 00 00 	lwz     r9,0(r11)
 1800714:	80 1f 00 0c 	lwz     r0,12(r31)
 1800718:	30 00 00 80 	addic   r0,r0,128
 180071c:	7c 0b 03 78 	mr      r11,r0
 1800720:	80 0b 00 00 	lwz     r0,0(r11)
 1800724:	7c 09 02 14 	add     r0,r9,r0
 1800728:	90 1f 00 44 	stw     r0,68(r31)
 180072c:	80 1f 00 0c 	lwz     r0,12(r31)
 1800730:	30 00 00 60 	addic   r0,r0,96
 1800734:	7c 0b 03 78 	mr      r11,r0
 1800738:	81 2b 00 00 	lwz     r9,0(r11)
 180073c:	80 1f 00 0c 	lwz     r0,12(r31)
 1800740:	30 00 00 80 	addic   r0,r0,128
 1800744:	7c 0b 03 78 	mr      r11,r0
 1800748:	80 0b 00 00 	lwz     r0,0(r11)
 180074c:	7c 00 48 50 	subf    r0,r0,r9
 1800750:	90 1f 00 40 	stw     r0,64(r31)
 1800754:	81 3f 00 50 	lwz     r9,80(r31)
 1800758:	80 1f 00 44 	lwz     r0,68(r31)
 180075c:	7c 09 02 14 	add     r0,r9,r0
 1800760:	90 1f 00 30 	stw     r0,48(r31)
 1800764:	81 3f 00 50 	lwz     r9,80(r31)
 1800768:	80 1f 00 44 	lwz     r0,68(r31)
 180076c:	7c 00 48 50 	subf    r0,r0,r9
 1800770:	90 1f 00 24 	stw     r0,36(r31)
 1800774:	81 3f 00 4c 	lwz     r9,76(r31)
 1800778:	80 1f 00 48 	lwz     r0,72(r31)
 180077c:	7c 09 02 14 	add     r0,r9,r0
 1800780:	90 1f 00 2c 	stw     r0,44(r31)
 1800784:	81 3f 00 4c 	lwz     r9,76(r31)
 1800788:	80 1f 00 48 	lwz     r0,72(r31)
 180078c:	7c 00 48 50 	subf    r0,r0,r9
 1800790:	90 1f 00 28 	stw     r0,40(r31)
 1800794:	81 3f 00 30 	lwz     r9,48(r31)
 1800798:	80 1f 00 2c 	lwz     r0,44(r31)
 180079c:	7c 09 02 14 	add     r0,r9,r0
 18007a0:	30 00 00 02 	addic   r0,r0,2
 18007a4:	7c 09 16 70 	srawi   r9,r0,2
 18007a8:	80 1f 00 0c 	lwz     r0,12(r31)
 18007ac:	7c 0b 03 78 	mr      r11,r0
 18007b0:	91 2b 00 00 	stw     r9,0(r11)
 18007b4:	80 1f 00 0c 	lwz     r0,12(r31)
 18007b8:	30 00 00 80 	addic   r0,r0,128
 18007bc:	81 7f 00 30 	lwz     r11,48(r31)
 18007c0:	81 3f 00 2c 	lwz     r9,44(r31)
 18007c4:	7d 29 58 50 	subf    r9,r9,r11
 18007c8:	39 29 00 02 	addi    r9,r9,2
 18007cc:	7d 29 16 70 	srawi   r9,r9,2
 18007d0:	7c 0b 03 78 	mr      r11,r0
 18007d4:	91 2b 00 00 	stw     r9,0(r11)
 18007d8:	81 3f 00 28 	lwz     r9,40(r31)
 18007dc:	80 1f 00 24 	lwz     r0,36(r31)
 18007e0:	7c 09 02 14 	add     r0,r9,r0
 18007e4:	1c 00 11 51 	mulli   r0,r0,4433
 18007e8:	90 1f 00 20 	stw     r0,32(r31)
 18007ec:	80 1f 00 0c 	lwz     r0,12(r31)
 18007f0:	30 00 00 40 	addic   r0,r0,64
 18007f4:	81 3f 00 24 	lwz     r9,36(r31)
 18007f8:	1d 69 18 7e 	mulli   r11,r9,6270
 18007fc:	81 3f 00 20 	lwz     r9,32(r31)
 1800800:	7d 2b 4a 14 	add     r9,r11,r9
 1800804:	39 29 40 00 	addi    r9,r9,16384
 1800808:	7d 29 7e 70 	srawi   r9,r9,15
 180080c:	7c 0b 03 78 	mr      r11,r0
 1800810:	91 2b 00 00 	stw     r9,0(r11)
 1800814:	80 1f 00 0c 	lwz     r0,12(r31)
 1800818:	30 00 00 c0 	addic   r0,r0,192
 180081c:	81 3f 00 28 	lwz     r9,40(r31)
 1800820:	1d 69 c4 df 	mulli   r11,r9,-15137
 1800824:	81 3f 00 20 	lwz     r9,32(r31)
 1800828:	7d 2b 4a 14 	add     r9,r11,r9
 180082c:	39 29 40 00 	addi    r9,r9,16384
 1800830:	7d 29 7e 70 	srawi   r9,r9,15
 1800834:	7c 0b 03 78 	mr      r11,r0
 1800838:	91 2b 00 00 	stw     r9,0(r11)
 180083c:	81 3f 00 40 	lwz     r9,64(r31)
 1800840:	80 1f 00 34 	lwz     r0,52(r31)
 1800844:	7c 09 02 14 	add     r0,r9,r0
 1800848:	90 1f 00 20 	stw     r0,32(r31)
 180084c:	81 3f 00 3c 	lwz     r9,60(r31)
 1800850:	80 1f 00 38 	lwz     r0,56(r31)
 1800854:	7c 09 02 14 	add     r0,r9,r0
 1800858:	90 1f 00 1c 	stw     r0,28(r31)
 180085c:	81 3f 00 40 	lwz     r9,64(r31)
 1800860:	80 1f 00 38 	lwz     r0,56(r31)
 1800864:	7c 09 02 14 	add     r0,r9,r0
 1800868:	90 1f 00 18 	stw     r0,24(r31)
 180086c:	81 3f 00 3c 	lwz     r9,60(r31)
 1800870:	80 1f 00 34 	lwz     r0,52(r31)
 1800874:	7c 09 02 14 	add     r0,r9,r0
 1800878:	90 1f 00 14 	stw     r0,20(r31)
 180087c:	81 3f 00 18 	lwz     r9,24(r31)
 1800880:	80 1f 00 14 	lwz     r0,20(r31)
 1800884:	7c 09 02 14 	add     r0,r9,r0
 1800888:	1c 00 25 a1 	mulli   r0,r0,9633
 180088c:	90 1f 00 10 	stw     r0,16(r31)
 1800890:	80 1f 00 40 	lwz     r0,64(r31)
 1800894:	1c 00 09 8e 	mulli   r0,r0,2446
 1800898:	90 1f 00 40 	stw     r0,64(r31)
 180089c:	80 1f 00 3c 	lwz     r0,60(r31)
 18008a0:	1c 00 41 b3 	mulli   r0,r0,16819
 18008a4:	90 1f 00 3c 	stw     r0,60(r31)
 18008a8:	80 1f 00 38 	lwz     r0,56(r31)
 18008ac:	1c 00 62 54 	mulli   r0,r0,25172
 18008b0:	90 1f 00 38 	stw     r0,56(r31)
 18008b4:	80 1f 00 34 	lwz     r0,52(r31)
 18008b8:	1c 00 30 0b 	mulli   r0,r0,12299
 18008bc:	90 1f 00 34 	stw     r0,52(r31)
 18008c0:	80 1f 00 20 	lwz     r0,32(r31)
 18008c4:	1c 00 e3 33 	mulli   r0,r0,-7373
 18008c8:	90 1f 00 20 	stw     r0,32(r31)
 18008cc:	80 1f 00 1c 	lwz     r0,28(r31)
 18008d0:	1c 00 ad fd 	mulli   r0,r0,-20995
 18008d4:	90 1f 00 1c 	stw     r0,28(r31)
 18008d8:	80 1f 00 18 	lwz     r0,24(r31)
 18008dc:	1c 00 c1 3b 	mulli   r0,r0,-16069
 18008e0:	90 1f 00 18 	stw     r0,24(r31)
 18008e4:	80 1f 00 14 	lwz     r0,20(r31)
 18008e8:	1c 00 f3 84 	mulli   r0,r0,-3196
 18008ec:	90 1f 00 14 	stw     r0,20(r31)
 18008f0:	81 3f 00 18 	lwz     r9,24(r31)
 18008f4:	80 1f 00 10 	lwz     r0,16(r31)
 18008f8:	7c 09 02 14 	add     r0,r9,r0
 18008fc:	90 1f 00 18 	stw     r0,24(r31)
 1800900:	81 3f 00 14 	lwz     r9,20(r31)
 1800904:	80 1f 00 10 	lwz     r0,16(r31)
 1800908:	7c 09 02 14 	add     r0,r9,r0
 180090c:	90 1f 00 14 	stw     r0,20(r31)
 1800910:	80 1f 00 0c 	lwz     r0,12(r31)
 1800914:	30 00 00 e0 	addic   r0,r0,224
 1800918:	81 7f 00 40 	lwz     r11,64(r31)
 180091c:	81 3f 00 20 	lwz     r9,32(r31)
 1800920:	7d 6b 4a 14 	add     r11,r11,r9
 1800924:	81 3f 00 18 	lwz     r9,24(r31)
 1800928:	7d 2b 4a 14 	add     r9,r11,r9
 180092c:	39 29 40 00 	addi    r9,r9,16384
 1800930:	7d 29 7e 70 	srawi   r9,r9,15
 1800934:	7c 0b 03 78 	mr      r11,r0
 1800938:	91 2b 00 00 	stw     r9,0(r11)
 180093c:	80 1f 00 0c 	lwz     r0,12(r31)
 1800940:	30 00 00 a0 	addic   r0,r0,160
 1800944:	81 7f 00 3c 	lwz     r11,60(r31)
 1800948:	81 3f 00 1c 	lwz     r9,28(r31)
 180094c:	7d 6b 4a 14 	add     r11,r11,r9
 1800950:	81 3f 00 14 	lwz     r9,20(r31)
 1800954:	7d 2b 4a 14 	add     r9,r11,r9
 1800958:	39 29 40 00 	addi    r9,r9,16384
 180095c:	7d 29 7e 70 	srawi   r9,r9,15
 1800960:	7c 0b 03 78 	mr      r11,r0
 1800964:	91 2b 00 00 	stw     r9,0(r11)
 1800968:	80 1f 00 0c 	lwz     r0,12(r31)
 180096c:	30 00 00 60 	addic   r0,r0,96
 1800970:	81 7f 00 38 	lwz     r11,56(r31)
 1800974:	81 3f 00 1c 	lwz     r9,28(r31)
 1800978:	7d 6b 4a 14 	add     r11,r11,r9
 180097c:	81 3f 00 18 	lwz     r9,24(r31)
 1800980:	7d 2b 4a 14 	add     r9,r11,r9
 1800984:	39 29 40 00 	addi    r9,r9,16384
 1800988:	7d 29 7e 70 	srawi   r9,r9,15
 180098c:	7c 0b 03 78 	mr      r11,r0
 1800990:	91 2b 00 00 	stw     r9,0(r11)
 1800994:	80 1f 00 0c 	lwz     r0,12(r31)
 1800998:	30 00 00 20 	addic   r0,r0,32
 180099c:	81 7f 00 34 	lwz     r11,52(r31)
 18009a0:	81 3f 00 20 	lwz     r9,32(r31)
 18009a4:	7d 6b 4a 14 	add     r11,r11,r9
 18009a8:	81 3f 00 14 	lwz     r9,20(r31)
 18009ac:	7d 2b 4a 14 	add     r9,r11,r9
 18009b0:	39 29 40 00 	addi    r9,r9,16384
 18009b4:	7d 29 7e 70 	srawi   r9,r9,15
 18009b8:	7c 0b 03 78 	mr      r11,r0
 18009bc:	91 2b 00 00 	stw     r9,0(r11)
 18009c0:	80 1f 00 0c 	lwz     r0,12(r31)
 18009c4:	30 00 00 04 	addic   r0,r0,4
 18009c8:	90 1f 00 0c 	stw     r0,12(r31)
 18009cc:	80 1f 00 08 	lwz     r0,8(r31)
 18009d0:	30 00 ff ff 	addic   r0,r0,-1
 18009d4:	90 1f 00 08 	stw     r0,8(r31)
 18009d8:	80 1f 00 08 	lwz     r0,8(r31)
 18009dc:	2f 80 00 00 	cmpwi   cr7,r0,0
 18009e0:	40 9c fc 3c 	bge+    cr7,180061c <jpeg_fdct_islow+0x3fc>
 18009e4:	39 7f 00 60 	addi    r11,r31,96
 18009e8:	83 eb ff fc 	lwz     r31,-4(r11)
 18009ec:	7d 61 5b 78 	mr      r1,r11
 18009f0:	4e 80 00 20 	blr

018009f4 <main>:
 18009f4:	94 21 ff e0 	stwu    r1,-32(r1)
 18009f8:	7c 08 02 a6 	mflr    r0
 18009fc:	90 01 00 24 	stw     r0,36(r1)
 1800a00:	93 e1 00 1c 	stw     r31,28(r1)
 1800a04:	7c 3f 0b 78 	mr      r31,r1
 1800a08:	48 00 01 09 	bl      1800b10 <__eabi>
 1800a0c:	38 00 05 dc 	li      r0,1500
 1800a10:	90 1f 00 08 	stw     r0,8(r31)
 1800a14:	48 00 00 9c 	b       1800ab0 <main+0xbc>
 1800a18:	38 00 00 01 	li      r0,1
 1800a1c:	90 1f 00 0c 	stw     r0,12(r31)
 1800a20:	38 00 00 00 	li      r0,0
 1800a24:	90 1f 00 10 	stw     r0,16(r31)
 1800a28:	48 00 00 6c 	b       1800a94 <main+0xa0>
 1800a2c:	80 1f 00 0c 	lwz     r0,12(r31)
 1800a30:	1c 00 00 85 	mulli   r0,r0,133
 1800a34:	30 00 00 51 	addic   r0,r0,81
 1800a38:	3d 20 80 00 	lis     r9,-32768
 1800a3c:	61 29 80 01 	ori     r9,r9,32769
 1800a40:	7d 20 48 96 	mulhw   r9,r0,r9
 1800a44:	7d 29 02 14 	add     r9,r9,r0
 1800a48:	7d 2b 7e 70 	srawi   r11,r9,15
 1800a4c:	7c 09 fe 70 	srawi   r9,r0,31
 1800a50:	7d 69 58 50 	subf    r11,r9,r11
 1800a54:	7d 69 5b 78 	mr      r9,r11
 1800a58:	55 29 80 1e 	rlwinm  r9,r9,16,0,15
 1800a5c:	7d 2b 48 50 	subf    r9,r11,r9
 1800a60:	7c 09 00 50 	subf    r0,r9,r0
 1800a64:	90 1f 00 0c 	stw     r0,12(r31)
 1800a68:	80 1f 00 10 	lwz     r0,16(r31)
 1800a6c:	3d 20 01 81 	lis     r9,385
 1800a70:	39 29 0d 60 	addi    r9,r9,3424
 1800a74:	54 00 10 3a 	rlwinm  r0,r0,2,0,29
 1800a78:	7c 09 02 14 	add     r0,r9,r0
 1800a7c:	81 3f 00 0c 	lwz     r9,12(r31)
 1800a80:	7c 0b 03 78 	mr      r11,r0
 1800a84:	91 2b 00 00 	stw     r9,0(r11)
 1800a88:	80 1f 00 10 	lwz     r0,16(r31)
 1800a8c:	30 00 00 01 	addic   r0,r0,1
 1800a90:	90 1f 00 10 	stw     r0,16(r31)
 1800a94:	80 1f 00 10 	lwz     r0,16(r31)
 1800a98:	2f 80 00 3f 	cmpwi   cr7,r0,63
 1800a9c:	40 9d ff 90 	ble+    cr7,1800a2c <main+0x38>
 1800aa0:	4b ff f7 81 	bl      1800220 <jpeg_fdct_islow>
 1800aa4:	80 1f 00 08 	lwz     r0,8(r31)
 1800aa8:	30 00 ff ff 	addic   r0,r0,-1
 1800aac:	90 1f 00 08 	stw     r0,8(r31)
 1800ab0:	80 1f 00 08 	lwz     r0,8(r31)
 1800ab4:	2f 80 00 00 	cmpwi   cr7,r0,0
 1800ab8:	40 9e ff 60 	bne+    cr7,1800a18 <main+0x24>
 1800abc:	39 7f 00 20 	addi    r11,r31,32
 1800ac0:	80 0b 00 04 	lwz     r0,4(r11)
 1800ac4:	7c 08 03 a6 	mtlr    r0
 1800ac8:	83 eb ff fc 	lwz     r31,-4(r11)
 1800acc:	7d 61 5b 78 	mr      r1,r11
 1800ad0:	4e 80 00 20 	blr

01800ad4 <_exit>:
 1800ad4:	94 21 ff e8 	stwu    r1,-24(r1)
 1800ad8:	93 e1 00 14 	stw     r31,20(r1)
 1800adc:	7c 3f 0b 78 	mr      r31,r1
 1800ae0:	90 7f 00 08 	stw     r3,8(r31)
 1800ae4:	48 00 00 00 	b       1800ae4 <_exit+0x10>

01800ae8 <_start>:
 1800ae8:	94 21 ff f0 	stwu    r1,-16(r1)
 1800aec:	7c 08 02 a6 	mflr    r0
 1800af0:	90 01 00 14 	stw     r0,20(r1)
 1800af4:	93 e1 00 0c 	stw     r31,12(r1)
 1800af8:	7c 3f 0b 78 	mr      r31,r1
 1800afc:	38 60 00 00 	li      r3,0
 1800b00:	38 80 00 00 	li      r4,0
 1800b04:	4b ff fe f1 	bl      18009f4 <main>
 1800b08:	38 60 00 00 	li      r3,0
 1800b0c:	4b ff ff c9 	bl      1800ad4 <_exit>

01800b10 <__eabi>:
 1800b10:	3d 40 01 81 	lis     r10,385
 1800b14:	3d 60 01 81 	lis     r11,385
 1800b18:	81 2a 0d 3c 	lwz     r9,3388(r10)
 1800b1c:	39 6b 0d 1c 	addi    r11,r11,3356
 1800b20:	29 09 00 00 	cmplwi  cr2,r9,0
 1800b24:	4c 8a 00 20 	bnelr   cr2
 1800b28:	90 2a 0d 3c 	stw     r1,3388(r10)
 1800b2c:	80 6b 00 08 	lwz     r3,8(r11)
 1800b30:	80 8b 00 0c 	lwz     r4,12(r11)
 1800b34:	7c 83 20 00 	cmpw    cr1,r3,r4
 1800b38:	41 86 00 08 	beq-    cr1,1800b40 <__eabi+0x30>
 1800b3c:	81 ab 00 04 	lwz     r13,4(r11)
 1800b40:	80 6b 00 14 	lwz     r3,20(r11)
 1800b44:	80 8b 00 18 	lwz     r4,24(r11)
 1800b48:	7c 83 20 00 	cmpw    cr1,r3,r4
 1800b4c:	41 a6 00 08 	beq+    cr1,1800b54 <__eabi+0x44>
 1800b50:	80 4b 00 10 	lwz     r2,16(r11)
 1800b54:	4b ff f5 40 	b       1800094 <__init>

01800b58 <__eabi_convert>:
 1800b58:	7c 83 20 40 	cmplw   cr1,r3,r4
 1800b5c:	7c a3 20 50 	subf    r5,r3,r4
 1800b60:	4c 84 00 20 	bgelr   cr1
 1800b64:	7c a5 16 70 	srawi   r5,r5,2
 1800b68:	38 63 ff fc 	addi    r3,r3,-4
 1800b6c:	7c a9 03 a6 	mtctr   r5
 1800b70:	84 c3 00 04 	lwzu    r6,4(r3)
 1800b74:	2c 06 00 00 	cmpwi   r6,0
 1800b78:	41 82 00 0c 	beq-    1800b84 <__eabi_convert+0x2c>
 1800b7c:	7c c6 62 14 	add     r6,r6,r12
 1800b80:	90 c3 00 00 	stw     r6,0(r3)
 1800b84:	42 00 ff ec 	bdnz+   1800b70 <__eabi_convert+0x18>
 1800b88:	4e 80 00 20 	blr

01800b8c <__eabi_uconvert>:
 1800b8c:	7c 83 20 40 	cmplw   cr1,r3,r4
 1800b90:	7c a3 20 50 	subf    r5,r3,r4
 1800b94:	4c 84 00 20 	bgelr   cr1
 1800b98:	7c a5 16 70 	srawi   r5,r5,2
 1800b9c:	38 63 ff fc 	addi    r3,r3,-4
 1800ba0:	7c a9 03 a6 	mtctr   r5
 1800ba4:	84 c3 00 04 	lwzu    r6,4(r3)
 1800ba8:	7c c6 62 14 	add     r6,r6,r12
 1800bac:	80 e6 00 00 	lwz     r7,0(r6)
 1800bb0:	90 c3 00 00 	stw     r6,0(r3)
 1800bb4:	7c e7 62 14 	add     r7,r7,r12
 1800bb8:	90 e6 00 00 	stw     r7,0(r6)
 1800bbc:	42 00 ff e8 	bdnz+   1800ba4 <__eabi_uconvert+0x18>
 1800bc0:	4e 80 00 20 	blr

01800bc4 <__do_global_ctors_aux>:
 1800bc4:	7c 08 02 a6 	mflr    r0
 1800bc8:	94 21 ff f0 	stwu    r1,-16(r1)
 1800bcc:	93 e1 00 0c 	stw     r31,12(r1)
 1800bd0:	3f e0 01 81 	lis     r31,385
 1800bd4:	90 01 00 14 	stw     r0,20(r1)
 1800bd8:	3b ff 0d 0c 	addi    r31,r31,3340
 1800bdc:	80 1f ff fc 	lwz     r0,-4(r31)
 1800be0:	2f 80 ff ff 	cmpwi   cr7,r0,-1
 1800be4:	41 9e 00 1c 	beq-    cr7,1800c00 <__do_global_ctors_aux+0x3c>
 1800be8:	3b ff ff fc 	addi    r31,r31,-4
 1800bec:	7c 09 03 a6 	mtctr   r0
 1800bf0:	4e 80 04 21 	bctrl
 1800bf4:	84 1f ff fc 	lwzu    r0,-4(r31)
 1800bf8:	2f 80 ff ff 	cmpwi   cr7,r0,-1
 1800bfc:	40 9e ff f0 	bne+    cr7,1800bec <__do_global_ctors_aux+0x28>
 1800c00:	80 01 00 14 	lwz     r0,20(r1)
 1800c04:	83 e1 00 0c 	lwz     r31,12(r1)
 1800c08:	38 21 00 10 	addi    r1,r1,16
 1800c0c:	7c 08 03 a6 	mtlr    r0
 1800c10:	4e 80 00 20 	blr

01800c14 <call___do_global_ctors_aux>:
 1800c14:	7c 08 02 a6 	mflr    r0
 1800c18:	94 21 ff f8 	stwu    r1,-8(r1)
 1800c1c:	90 01 00 0c 	stw     r0,12(r1)
 1800c20:	80 01 00 0c 	lwz     r0,12(r1)
 1800c24:	38 21 00 08 	addi    r1,r1,8
 1800c28:	7c 08 03 a6 	mtlr    r0
 1800c2c:	4e 80 00 20 	blr

Disassembly of section .fini:

01800c30 <__fini>:
 1800c30:	94 21 ff f0 	stwu    r1,-16(r1)
 1800c34:	7c 08 02 a6 	mflr    r0
 1800c38:	90 01 00 14 	stw     r0,20(r1)
 1800c3c:	4b ff f4 7d 	bl      18000b8 <__do_global_dtors_aux>
 1800c40:	80 01 00 14 	lwz     r0,20(r1)
 1800c44:	7c 08 03 a6 	mtlr    r0
 1800c48:	38 21 00 10 	addi    r1,r1,16
 1800c4c:	4e 80 00 20 	blr
