
/home/vaillant/ppc2/perf/malardalen/ppc-eabi/gcc-4.4.2/qsort-exam/qsort-exam.elf:     file format elf32-powerpc


Disassembly of section .init:

01800094 <__init>:
 1800094:	94 21 ff f0 	stwu    r1,-16(r1)
 1800098:	7c 08 02 a6 	mflr    r0
 180009c:	90 01 00 14 	stw     r0,20(r1)
 18000a0:	48 00 00 f9 	bl      1800198 <frame_dummy>
 18000a4:	48 00 20 81 	bl      1802124 <__do_global_ctors_aux>
 18000a8:	80 01 00 14 	lwz     r0,20(r1)
 18000ac:	7c 08 03 a6 	mtlr    r0
 18000b0:	38 21 00 10 	addi    r1,r1,16
 18000b4:	4e 80 00 20 	blr

Disassembly of section .text:

018000b8 <__do_global_dtors_aux>:
 18000b8:	94 21 ff e8 	stwu    r1,-24(r1)
 18000bc:	7c 08 02 a6 	mflr    r0
 18000c0:	93 e1 00 14 	stw     r31,20(r1)
 18000c4:	3f e0 01 81 	lis     r31,385
 18000c8:	90 01 00 1c 	stw     r0,28(r1)
 18000cc:	88 1f 24 4c 	lbz     r0,9292(r31)
 18000d0:	93 81 00 08 	stw     r28,8(r1)
 18000d4:	2f 80 00 00 	cmpwi   cr7,r0,0
 18000d8:	93 a1 00 0c 	stw     r29,12(r1)
 18000dc:	93 c1 00 10 	stw     r30,16(r1)
 18000e0:	40 9e 00 7c 	bne-    cr7,180015c <__do_global_dtors_aux+0xa4>
 18000e4:	3f 80 01 81 	lis     r28,385
 18000e8:	3f a0 01 81 	lis     r29,385
 18000ec:	3b 9c 22 dc 	addi    r28,r28,8924
 18000f0:	3b bd 22 e0 	addi    r29,r29,8928
 18000f4:	7f bc e8 50 	subf    r29,r28,r29
 18000f8:	3f c0 01 81 	lis     r30,385
 18000fc:	7f bd 16 70 	srawi   r29,r29,2
 1800100:	81 3e 24 50 	lwz     r9,9296(r30)
 1800104:	3b bd ff ff 	addi    r29,r29,-1
 1800108:	7f 89 e8 40 	cmplw   cr7,r9,r29
 180010c:	40 9c 00 2c 	bge-    cr7,1800138 <__do_global_dtors_aux+0x80>
 1800110:	3b de 24 50 	addi    r30,r30,9296
 1800114:	39 29 00 01 	addi    r9,r9,1
 1800118:	55 20 10 3a 	rlwinm  r0,r9,2,0,29
 180011c:	91 3e 00 00 	stw     r9,0(r30)
 1800120:	7c 1c 00 2e 	lwzx    r0,r28,r0
 1800124:	7c 09 03 a6 	mtctr   r0
 1800128:	4e 80 04 21 	bctrl
 180012c:	81 3e 00 00 	lwz     r9,0(r30)
 1800130:	7f 89 e8 40 	cmplw   cr7,r9,r29
 1800134:	41 9c ff e0 	blt+    cr7,1800114 <__do_global_dtors_aux+0x5c>
 1800138:	3d 20 00 00 	lis     r9,0
 180013c:	38 09 00 00 	addi    r0,r9,0
 1800140:	2f 80 00 00 	cmpwi   cr7,r0,0
 1800144:	41 9e 00 10 	beq-    cr7,1800154 <__do_global_dtors_aux+0x9c>
 1800148:	3c 60 01 81 	lis     r3,385
 180014c:	38 63 21 f4 	addi    r3,r3,8692
 1800150:	4a 7f fe b1 	bl      0 <__init-0x1800094>
 1800154:	38 00 00 01 	li      r0,1
 1800158:	98 1f 24 4c 	stb     r0,9292(r31)
 180015c:	80 01 00 1c 	lwz     r0,28(r1)
 1800160:	83 81 00 08 	lwz     r28,8(r1)
 1800164:	7c 08 03 a6 	mtlr    r0
 1800168:	83 a1 00 0c 	lwz     r29,12(r1)
 180016c:	83 c1 00 10 	lwz     r30,16(r1)
 1800170:	83 e1 00 14 	lwz     r31,20(r1)
 1800174:	38 21 00 18 	addi    r1,r1,24
 1800178:	4e 80 00 20 	blr

0180017c <call___do_global_dtors_aux>:
 180017c:	7c 08 02 a6 	mflr    r0
 1800180:	94 21 ff f8 	stwu    r1,-8(r1)
 1800184:	90 01 00 0c 	stw     r0,12(r1)
 1800188:	80 01 00 0c 	lwz     r0,12(r1)
 180018c:	38 21 00 08 	addi    r1,r1,8
 1800190:	7c 08 03 a6 	mtlr    r0
 1800194:	4e 80 00 20 	blr

01800198 <frame_dummy>:
 1800198:	7c 08 02 a6 	mflr    r0
 180019c:	94 21 ff f8 	stwu    r1,-8(r1)
 18001a0:	3d 20 00 00 	lis     r9,0
 18001a4:	90 01 00 0c 	stw     r0,12(r1)
 18001a8:	38 09 00 00 	addi    r0,r9,0
 18001ac:	2f 80 00 00 	cmpwi   cr7,r0,0
 18001b0:	41 9e 00 18 	beq-    cr7,18001c8 <frame_dummy+0x30>
 18001b4:	3c 60 01 81 	lis     r3,385
 18001b8:	3c 80 01 81 	lis     r4,385
 18001bc:	38 63 21 f4 	addi    r3,r3,8692
 18001c0:	38 84 24 54 	addi    r4,r4,9300
 18001c4:	4a 7f fe 3d 	bl      0 <__init-0x1800094>
 18001c8:	3c 60 01 81 	lis     r3,385
 18001cc:	80 03 22 e4 	lwz     r0,8932(r3)
 18001d0:	38 63 22 e4 	addi    r3,r3,8932
 18001d4:	2f 80 00 00 	cmpwi   cr7,r0,0
 18001d8:	41 9e 00 1c 	beq-    cr7,18001f4 <frame_dummy+0x5c>
 18001dc:	3d 20 00 00 	lis     r9,0
 18001e0:	38 09 00 00 	addi    r0,r9,0
 18001e4:	2f 80 00 00 	cmpwi   cr7,r0,0
 18001e8:	41 9e 00 0c 	beq-    cr7,18001f4 <frame_dummy+0x5c>
 18001ec:	7c 09 03 a6 	mtctr   r0
 18001f0:	4e 80 04 21 	bctrl
 18001f4:	80 01 00 0c 	lwz     r0,12(r1)
 18001f8:	38 21 00 08 	addi    r1,r1,8
 18001fc:	7c 08 03 a6 	mtlr    r0
 1800200:	4e 80 00 20 	blr

01800204 <call_frame_dummy>:
 1800204:	7c 08 02 a6 	mflr    r0
 1800208:	94 21 ff f8 	stwu    r1,-8(r1)
 180020c:	90 01 00 0c 	stw     r0,12(r1)
 1800210:	80 01 00 0c 	lwz     r0,12(r1)
 1800214:	38 21 00 08 	addi    r1,r1,8
 1800218:	7c 08 03 a6 	mtlr    r0
 180021c:	4e 80 00 20 	blr

01800220 <sort>:
 1800220:	94 21 ff b8 	stwu    r1,-72(r1)
 1800224:	93 e1 00 44 	stw     r31,68(r1)
 1800228:	7c 3f 0b 78 	mr      r31,r1
 180022c:	90 7f 00 38 	stw     r3,56(r31)
 1800230:	80 1f 00 38 	lwz     r0,56(r31)
 1800234:	90 1f 00 24 	stw     r0,36(r31)
 1800238:	38 00 00 01 	li      r0,1
 180023c:	90 1f 00 18 	stw     r0,24(r31)
 1800240:	38 00 00 00 	li      r0,0
 1800244:	90 1f 00 14 	stw     r0,20(r31)
 1800248:	38 00 00 00 	li      r0,0
 180024c:	90 1f 00 10 	stw     r0,16(r31)
 1800250:	81 3f 00 24 	lwz     r9,36(r31)
 1800254:	80 1f 00 18 	lwz     r0,24(r31)
 1800258:	7c 00 48 50 	subf    r0,r0,r9
 180025c:	2b 80 00 06 	cmplwi  cr7,r0,6
 1800260:	41 9d 01 84 	bgt-    cr7,18003e4 <sort+0x1c4>
 1800264:	80 1f 00 18 	lwz     r0,24(r31)
 1800268:	30 00 00 01 	addic   r0,r0,1
 180026c:	90 1f 00 20 	stw     r0,32(r31)
 1800270:	48 00 00 fc 	b       180036c <sort+0x14c>
 1800274:	80 1f 00 20 	lwz     r0,32(r31)
 1800278:	3d 20 01 81 	lis     r9,385
 180027c:	39 29 23 08 	addi    r9,r9,8968
 1800280:	54 00 10 3a 	rlwinm  r0,r0,2,0,29
 1800284:	7c 09 02 14 	add     r0,r9,r0
 1800288:	7c 09 03 78 	mr      r9,r0
 180028c:	80 09 00 00 	lwz     r0,0(r9)
 1800290:	90 1f 00 0c 	stw     r0,12(r31)
 1800294:	80 1f 00 20 	lwz     r0,32(r31)
 1800298:	30 00 ff ff 	addic   r0,r0,-1
 180029c:	90 1f 00 28 	stw     r0,40(r31)
 18002a0:	48 00 00 84 	b       1800324 <sort+0x104>
 18002a4:	80 1f 00 28 	lwz     r0,40(r31)
 18002a8:	3d 20 01 81 	lis     r9,385
 18002ac:	39 29 23 08 	addi    r9,r9,8968
 18002b0:	54 00 10 3a 	rlwinm  r0,r0,2,0,29
 18002b4:	7c 09 02 14 	add     r0,r9,r0
 18002b8:	7c 0b 03 78 	mr      r11,r0
 18002bc:	c1 ab 00 00 	lfs     f13,0(r11)
 18002c0:	c0 1f 00 0c 	lfs     f0,12(r31)
 18002c4:	ff 8d 00 00 	fcmpu   cr7,f13,f0
 18002c8:	4f dc f3 82 	cror    4*cr7+eq,4*cr7+lt,4*cr7+eq
 18002cc:	7c 00 00 26 	mfcr    r0
 18002d0:	54 00 ff fe 	rlwinm  r0,r0,31,31,31
 18002d4:	54 00 06 3e 	clrlwi  r0,r0,24
 18002d8:	2f 80 00 00 	cmpwi   cr7,r0,0
 18002dc:	40 9e 00 5c 	bne-    cr7,1800338 <sort+0x118>
 18002e0:	80 1f 00 28 	lwz     r0,40(r31)
 18002e4:	30 00 00 01 	addic   r0,r0,1
 18002e8:	81 3f 00 28 	lwz     r9,40(r31)
 18002ec:	3d 60 01 81 	lis     r11,385
 18002f0:	39 6b 23 08 	addi    r11,r11,8968
 18002f4:	55 29 10 3a 	rlwinm  r9,r9,2,0,29
 18002f8:	7d 2b 4a 14 	add     r9,r11,r9
 18002fc:	81 29 00 00 	lwz     r9,0(r9)
 1800300:	3d 60 01 81 	lis     r11,385
 1800304:	39 6b 23 08 	addi    r11,r11,8968
 1800308:	54 00 10 3a 	rlwinm  r0,r0,2,0,29
 180030c:	7c 0b 02 14 	add     r0,r11,r0
 1800310:	7c 0b 03 78 	mr      r11,r0
 1800314:	91 2b 00 00 	stw     r9,0(r11)
 1800318:	80 1f 00 28 	lwz     r0,40(r31)
 180031c:	30 00 ff ff 	addic   r0,r0,-1
 1800320:	90 1f 00 28 	stw     r0,40(r31)
 1800324:	81 3f 00 28 	lwz     r9,40(r31)
 1800328:	80 1f 00 18 	lwz     r0,24(r31)
 180032c:	7f 89 00 40 	cmplw   cr7,r9,r0
 1800330:	40 9c ff 74 	bge+    cr7,18002a4 <sort+0x84>
 1800334:	48 00 00 08 	b       180033c <sort+0x11c>
 1800338:	60 00 00 00 	nop
 180033c:	80 1f 00 28 	lwz     r0,40(r31)
 1800340:	30 00 00 01 	addic   r0,r0,1
 1800344:	3d 20 01 81 	lis     r9,385
 1800348:	39 29 23 08 	addi    r9,r9,8968
 180034c:	54 00 10 3a 	rlwinm  r0,r0,2,0,29
 1800350:	7c 09 02 14 	add     r0,r9,r0
 1800354:	81 3f 00 0c 	lwz     r9,12(r31)
 1800358:	7c 0b 03 78 	mr      r11,r0
 180035c:	91 2b 00 00 	stw     r9,0(r11)
 1800360:	80 1f 00 20 	lwz     r0,32(r31)
 1800364:	30 00 00 01 	addic   r0,r0,1
 1800368:	90 1f 00 20 	stw     r0,32(r31)
 180036c:	81 3f 00 20 	lwz     r9,32(r31)
 1800370:	80 1f 00 24 	lwz     r0,36(r31)
 1800374:	7f 89 00 40 	cmplw   cr7,r9,r0
 1800378:	40 9d fe fc 	ble+    cr7,1800274 <sort+0x54>
 180037c:	80 1f 00 14 	lwz     r0,20(r31)
 1800380:	2f 80 00 00 	cmpwi   cr7,r0,0
 1800384:	41 9e 05 f0 	beq-    cr7,1800974 <sort+0x754>
 1800388:	80 1f 00 14 	lwz     r0,20(r31)
 180038c:	3d 20 01 81 	lis     r9,385
 1800390:	39 29 24 6c 	addi    r9,r9,9324
 1800394:	54 00 10 3a 	rlwinm  r0,r0,2,0,29
 1800398:	7c 09 02 14 	add     r0,r9,r0
 180039c:	7c 09 03 78 	mr      r9,r0
 18003a0:	80 09 00 00 	lwz     r0,0(r9)
 18003a4:	90 1f 00 24 	stw     r0,36(r31)
 18003a8:	80 1f 00 14 	lwz     r0,20(r31)
 18003ac:	30 00 ff ff 	addic   r0,r0,-1
 18003b0:	90 1f 00 14 	stw     r0,20(r31)
 18003b4:	80 1f 00 14 	lwz     r0,20(r31)
 18003b8:	3d 20 01 81 	lis     r9,385
 18003bc:	39 29 24 6c 	addi    r9,r9,9324
 18003c0:	54 00 10 3a 	rlwinm  r0,r0,2,0,29
 18003c4:	7c 09 02 14 	add     r0,r9,r0
 18003c8:	7c 0b 03 78 	mr      r11,r0
 18003cc:	80 0b 00 00 	lwz     r0,0(r11)
 18003d0:	90 1f 00 18 	stw     r0,24(r31)
 18003d4:	80 1f 00 14 	lwz     r0,20(r31)
 18003d8:	30 00 ff ff 	addic   r0,r0,-1
 18003dc:	90 1f 00 14 	stw     r0,20(r31)
 18003e0:	4b ff fe 70 	b       1800250 <sort+0x30>
 18003e4:	81 3f 00 18 	lwz     r9,24(r31)
 18003e8:	80 1f 00 24 	lwz     r0,36(r31)
 18003ec:	7c 09 02 14 	add     r0,r9,r0
 18003f0:	54 00 f8 7e 	rlwinm  r0,r0,31,1,31
 18003f4:	90 1f 00 1c 	stw     r0,28(r31)
 18003f8:	80 1f 00 1c 	lwz     r0,28(r31)
 18003fc:	3d 20 01 81 	lis     r9,385
 1800400:	39 29 23 08 	addi    r9,r9,8968
 1800404:	54 00 10 3a 	rlwinm  r0,r0,2,0,29
 1800408:	7c 09 02 14 	add     r0,r9,r0
 180040c:	7c 09 03 78 	mr      r9,r0
 1800410:	80 09 00 00 	lwz     r0,0(r9)
 1800414:	90 1f 00 08 	stw     r0,8(r31)
 1800418:	80 1f 00 1c 	lwz     r0,28(r31)
 180041c:	81 3f 00 18 	lwz     r9,24(r31)
 1800420:	39 29 00 01 	addi    r9,r9,1
 1800424:	3d 60 01 81 	lis     r11,385
 1800428:	39 6b 23 08 	addi    r11,r11,8968
 180042c:	55 29 10 3a 	rlwinm  r9,r9,2,0,29
 1800430:	7d 2b 4a 14 	add     r9,r11,r9
 1800434:	81 29 00 00 	lwz     r9,0(r9)
 1800438:	3d 60 01 81 	lis     r11,385
 180043c:	39 6b 23 08 	addi    r11,r11,8968
 1800440:	54 00 10 3a 	rlwinm  r0,r0,2,0,29
 1800444:	7c 0b 02 14 	add     r0,r11,r0
 1800448:	7c 0b 03 78 	mr      r11,r0
 180044c:	91 2b 00 00 	stw     r9,0(r11)
 1800450:	80 1f 00 18 	lwz     r0,24(r31)
 1800454:	30 00 00 01 	addic   r0,r0,1
 1800458:	3d 20 01 81 	lis     r9,385
 180045c:	39 29 23 08 	addi    r9,r9,8968
 1800460:	54 00 10 3a 	rlwinm  r0,r0,2,0,29
 1800464:	7c 09 02 14 	add     r0,r9,r0
 1800468:	81 3f 00 08 	lwz     r9,8(r31)
 180046c:	7c 0b 03 78 	mr      r11,r0
 1800470:	91 2b 00 00 	stw     r9,0(r11)
 1800474:	80 1f 00 18 	lwz     r0,24(r31)
 1800478:	3d 20 01 81 	lis     r9,385
 180047c:	39 29 23 08 	addi    r9,r9,8968
 1800480:	54 00 10 3a 	rlwinm  r0,r0,2,0,29
 1800484:	7c 09 02 14 	add     r0,r9,r0
 1800488:	7c 09 03 78 	mr      r9,r0
 180048c:	c1 a9 00 00 	lfs     f13,0(r9)
 1800490:	80 1f 00 24 	lwz     r0,36(r31)
 1800494:	3d 20 01 81 	lis     r9,385
 1800498:	39 29 23 08 	addi    r9,r9,8968
 180049c:	54 00 10 3a 	rlwinm  r0,r0,2,0,29
 18004a0:	7c 09 02 14 	add     r0,r9,r0
 18004a4:	7c 0b 03 78 	mr      r11,r0
 18004a8:	c0 0b 00 00 	lfs     f0,0(r11)
 18004ac:	ff 8d 00 00 	fcmpu   cr7,f13,f0
 18004b0:	7c 00 00 26 	mfcr    r0
 18004b4:	54 00 f7 fe 	rlwinm  r0,r0,30,31,31
 18004b8:	54 00 06 3e 	clrlwi  r0,r0,24
 18004bc:	2f 80 00 00 	cmpwi   cr7,r0,0
 18004c0:	41 9e 00 78 	beq-    cr7,1800538 <sort+0x318>
 18004c4:	80 1f 00 18 	lwz     r0,24(r31)
 18004c8:	3d 20 01 81 	lis     r9,385
 18004cc:	39 29 23 08 	addi    r9,r9,8968
 18004d0:	54 00 10 3a 	rlwinm  r0,r0,2,0,29
 18004d4:	7c 09 02 14 	add     r0,r9,r0
 18004d8:	7c 09 03 78 	mr      r9,r0
 18004dc:	80 09 00 00 	lwz     r0,0(r9)
 18004e0:	90 1f 00 08 	stw     r0,8(r31)
 18004e4:	80 1f 00 18 	lwz     r0,24(r31)
 18004e8:	81 3f 00 24 	lwz     r9,36(r31)
 18004ec:	3d 60 01 81 	lis     r11,385
 18004f0:	39 6b 23 08 	addi    r11,r11,8968
 18004f4:	55 29 10 3a 	rlwinm  r9,r9,2,0,29
 18004f8:	7d 2b 4a 14 	add     r9,r11,r9
 18004fc:	81 29 00 00 	lwz     r9,0(r9)
 1800500:	3d 60 01 81 	lis     r11,385
 1800504:	39 6b 23 08 	addi    r11,r11,8968
 1800508:	54 00 10 3a 	rlwinm  r0,r0,2,0,29
 180050c:	7c 0b 02 14 	add     r0,r11,r0
 1800510:	7c 0b 03 78 	mr      r11,r0
 1800514:	91 2b 00 00 	stw     r9,0(r11)
 1800518:	80 1f 00 24 	lwz     r0,36(r31)
 180051c:	3d 20 01 81 	lis     r9,385
 1800520:	39 29 23 08 	addi    r9,r9,8968
 1800524:	54 00 10 3a 	rlwinm  r0,r0,2,0,29
 1800528:	7c 09 02 14 	add     r0,r9,r0
 180052c:	81 3f 00 08 	lwz     r9,8(r31)
 1800530:	7c 0b 03 78 	mr      r11,r0
 1800534:	91 2b 00 00 	stw     r9,0(r11)
 1800538:	80 1f 00 18 	lwz     r0,24(r31)
 180053c:	30 00 00 01 	addic   r0,r0,1
 1800540:	3d 20 01 81 	lis     r9,385
 1800544:	39 29 23 08 	addi    r9,r9,8968
 1800548:	54 00 10 3a 	rlwinm  r0,r0,2,0,29
 180054c:	7c 09 02 14 	add     r0,r9,r0
 1800550:	7c 09 03 78 	mr      r9,r0
 1800554:	c1 a9 00 00 	lfs     f13,0(r9)
 1800558:	80 1f 00 24 	lwz     r0,36(r31)
 180055c:	3d 20 01 81 	lis     r9,385
 1800560:	39 29 23 08 	addi    r9,r9,8968
 1800564:	54 00 10 3a 	rlwinm  r0,r0,2,0,29
 1800568:	7c 09 02 14 	add     r0,r9,r0
 180056c:	7c 0b 03 78 	mr      r11,r0
 1800570:	c0 0b 00 00 	lfs     f0,0(r11)
 1800574:	ff 8d 00 00 	fcmpu   cr7,f13,f0
 1800578:	7c 00 00 26 	mfcr    r0
 180057c:	54 00 f7 fe 	rlwinm  r0,r0,30,31,31
 1800580:	54 00 06 3e 	clrlwi  r0,r0,24
 1800584:	2f 80 00 00 	cmpwi   cr7,r0,0
 1800588:	41 9e 00 80 	beq-    cr7,1800608 <sort+0x3e8>
 180058c:	80 1f 00 18 	lwz     r0,24(r31)
 1800590:	30 00 00 01 	addic   r0,r0,1
 1800594:	3d 20 01 81 	lis     r9,385
 1800598:	39 29 23 08 	addi    r9,r9,8968
 180059c:	54 00 10 3a 	rlwinm  r0,r0,2,0,29
 18005a0:	7c 09 02 14 	add     r0,r9,r0
 18005a4:	7c 09 03 78 	mr      r9,r0
 18005a8:	80 09 00 00 	lwz     r0,0(r9)
 18005ac:	90 1f 00 08 	stw     r0,8(r31)
 18005b0:	80 1f 00 18 	lwz     r0,24(r31)
 18005b4:	30 00 00 01 	addic   r0,r0,1
 18005b8:	81 3f 00 24 	lwz     r9,36(r31)
 18005bc:	3d 60 01 81 	lis     r11,385
 18005c0:	39 6b 23 08 	addi    r11,r11,8968
 18005c4:	55 29 10 3a 	rlwinm  r9,r9,2,0,29
 18005c8:	7d 2b 4a 14 	add     r9,r11,r9
 18005cc:	81 29 00 00 	lwz     r9,0(r9)
 18005d0:	3d 60 01 81 	lis     r11,385
 18005d4:	39 6b 23 08 	addi    r11,r11,8968
 18005d8:	54 00 10 3a 	rlwinm  r0,r0,2,0,29
 18005dc:	7c 0b 02 14 	add     r0,r11,r0
 18005e0:	7c 0b 03 78 	mr      r11,r0
 18005e4:	91 2b 00 00 	stw     r9,0(r11)
 18005e8:	80 1f 00 24 	lwz     r0,36(r31)
 18005ec:	3d 20 01 81 	lis     r9,385
 18005f0:	39 29 23 08 	addi    r9,r9,8968
 18005f4:	54 00 10 3a 	rlwinm  r0,r0,2,0,29
 18005f8:	7c 09 02 14 	add     r0,r9,r0
 18005fc:	81 3f 00 08 	lwz     r9,8(r31)
 1800600:	7c 0b 03 78 	mr      r11,r0
 1800604:	91 2b 00 00 	stw     r9,0(r11)
 1800608:	80 1f 00 18 	lwz     r0,24(r31)
 180060c:	3d 20 01 81 	lis     r9,385
 1800610:	39 29 23 08 	addi    r9,r9,8968
 1800614:	54 00 10 3a 	rlwinm  r0,r0,2,0,29
 1800618:	7c 09 02 14 	add     r0,r9,r0
 180061c:	7c 09 03 78 	mr      r9,r0
 1800620:	c1 a9 00 00 	lfs     f13,0(r9)
 1800624:	80 1f 00 18 	lwz     r0,24(r31)
 1800628:	30 00 00 01 	addic   r0,r0,1
 180062c:	3d 20 01 81 	lis     r9,385
 1800630:	39 29 23 08 	addi    r9,r9,8968
 1800634:	54 00 10 3a 	rlwinm  r0,r0,2,0,29
 1800638:	7c 09 02 14 	add     r0,r9,r0
 180063c:	7c 0b 03 78 	mr      r11,r0
 1800640:	c0 0b 00 00 	lfs     f0,0(r11)
 1800644:	ff 8d 00 00 	fcmpu   cr7,f13,f0
 1800648:	7c 00 00 26 	mfcr    r0
 180064c:	54 00 f7 fe 	rlwinm  r0,r0,30,31,31
 1800650:	54 00 06 3e 	clrlwi  r0,r0,24
 1800654:	2f 80 00 00 	cmpwi   cr7,r0,0
 1800658:	41 9e 00 80 	beq-    cr7,18006d8 <sort+0x4b8>
 180065c:	80 1f 00 18 	lwz     r0,24(r31)
 1800660:	3d 20 01 81 	lis     r9,385
 1800664:	39 29 23 08 	addi    r9,r9,8968
 1800668:	54 00 10 3a 	rlwinm  r0,r0,2,0,29
 180066c:	7c 09 02 14 	add     r0,r9,r0
 1800670:	7c 09 03 78 	mr      r9,r0
 1800674:	80 09 00 00 	lwz     r0,0(r9)
 1800678:	90 1f 00 08 	stw     r0,8(r31)
 180067c:	80 1f 00 18 	lwz     r0,24(r31)
 1800680:	81 3f 00 18 	lwz     r9,24(r31)
 1800684:	39 29 00 01 	addi    r9,r9,1
 1800688:	3d 60 01 81 	lis     r11,385
 180068c:	39 6b 23 08 	addi    r11,r11,8968
 1800690:	55 29 10 3a 	rlwinm  r9,r9,2,0,29
 1800694:	7d 2b 4a 14 	add     r9,r11,r9
 1800698:	81 29 00 00 	lwz     r9,0(r9)
 180069c:	3d 60 01 81 	lis     r11,385
 18006a0:	39 6b 23 08 	addi    r11,r11,8968
 18006a4:	54 00 10 3a 	rlwinm  r0,r0,2,0,29
 18006a8:	7c 0b 02 14 	add     r0,r11,r0
 18006ac:	7c 0b 03 78 	mr      r11,r0
 18006b0:	91 2b 00 00 	stw     r9,0(r11)
 18006b4:	80 1f 00 18 	lwz     r0,24(r31)
 18006b8:	30 00 00 01 	addic   r0,r0,1
 18006bc:	3d 20 01 81 	lis     r9,385
 18006c0:	39 29 23 08 	addi    r9,r9,8968
 18006c4:	54 00 10 3a 	rlwinm  r0,r0,2,0,29
 18006c8:	7c 09 02 14 	add     r0,r9,r0
 18006cc:	81 3f 00 08 	lwz     r9,8(r31)
 18006d0:	7c 0b 03 78 	mr      r11,r0
 18006d4:	91 2b 00 00 	stw     r9,0(r11)
 18006d8:	80 1f 00 18 	lwz     r0,24(r31)
 18006dc:	30 00 00 01 	addic   r0,r0,1
 18006e0:	90 1f 00 28 	stw     r0,40(r31)
 18006e4:	80 1f 00 24 	lwz     r0,36(r31)
 18006e8:	90 1f 00 20 	stw     r0,32(r31)
 18006ec:	80 1f 00 18 	lwz     r0,24(r31)
 18006f0:	30 00 00 01 	addic   r0,r0,1
 18006f4:	3d 20 01 81 	lis     r9,385
 18006f8:	39 29 23 08 	addi    r9,r9,8968
 18006fc:	54 00 10 3a 	rlwinm  r0,r0,2,0,29
 1800700:	7c 09 02 14 	add     r0,r9,r0
 1800704:	7c 09 03 78 	mr      r9,r0
 1800708:	80 09 00 00 	lwz     r0,0(r9)
 180070c:	90 1f 00 0c 	stw     r0,12(r31)
 1800710:	80 1f 00 28 	lwz     r0,40(r31)
 1800714:	30 00 00 01 	addic   r0,r0,1
 1800718:	90 1f 00 28 	stw     r0,40(r31)
 180071c:	48 00 00 10 	b       180072c <sort+0x50c>
 1800720:	80 1f 00 28 	lwz     r0,40(r31)
 1800724:	30 00 00 01 	addic   r0,r0,1
 1800728:	90 1f 00 28 	stw     r0,40(r31)
 180072c:	80 1f 00 28 	lwz     r0,40(r31)
 1800730:	3d 20 01 81 	lis     r9,385
 1800734:	39 29 23 08 	addi    r9,r9,8968
 1800738:	54 00 10 3a 	rlwinm  r0,r0,2,0,29
 180073c:	7c 09 02 14 	add     r0,r9,r0
 1800740:	7c 0b 03 78 	mr      r11,r0
 1800744:	c1 ab 00 00 	lfs     f13,0(r11)
 1800748:	c0 1f 00 0c 	lfs     f0,12(r31)
 180074c:	ff 8d 00 00 	fcmpu   cr7,f13,f0
 1800750:	7c 00 00 26 	mfcr    r0
 1800754:	54 00 ef fe 	rlwinm  r0,r0,29,31,31
 1800758:	54 00 06 3e 	clrlwi  r0,r0,24
 180075c:	2f 80 00 00 	cmpwi   cr7,r0,0
 1800760:	40 9e ff c0 	bne+    cr7,1800720 <sort+0x500>
 1800764:	80 1f 00 20 	lwz     r0,32(r31)
 1800768:	30 00 ff ff 	addic   r0,r0,-1
 180076c:	90 1f 00 20 	stw     r0,32(r31)
 1800770:	48 00 00 10 	b       1800780 <sort+0x560>
 1800774:	80 1f 00 20 	lwz     r0,32(r31)
 1800778:	30 00 ff ff 	addic   r0,r0,-1
 180077c:	90 1f 00 20 	stw     r0,32(r31)
 1800780:	80 1f 00 20 	lwz     r0,32(r31)
 1800784:	3d 20 01 81 	lis     r9,385
 1800788:	39 29 23 08 	addi    r9,r9,8968
 180078c:	54 00 10 3a 	rlwinm  r0,r0,2,0,29
 1800790:	7c 09 02 14 	add     r0,r9,r0
 1800794:	7c 09 03 78 	mr      r9,r0
 1800798:	c1 a9 00 00 	lfs     f13,0(r9)
 180079c:	c0 1f 00 0c 	lfs     f0,12(r31)
 18007a0:	ff 8d 00 00 	fcmpu   cr7,f13,f0
 18007a4:	7c 00 00 26 	mfcr    r0
 18007a8:	54 00 f7 fe 	rlwinm  r0,r0,30,31,31
 18007ac:	54 00 06 3e 	clrlwi  r0,r0,24
 18007b0:	2f 80 00 00 	cmpwi   cr7,r0,0
 18007b4:	40 9e ff c0 	bne+    cr7,1800774 <sort+0x554>
 18007b8:	81 3f 00 20 	lwz     r9,32(r31)
 18007bc:	80 1f 00 28 	lwz     r0,40(r31)
 18007c0:	7f 89 00 40 	cmplw   cr7,r9,r0
 18007c4:	40 9c 00 90 	bge-    cr7,1800854 <sort+0x634>
 18007c8:	80 1f 00 18 	lwz     r0,24(r31)
 18007cc:	30 00 00 01 	addic   r0,r0,1
 18007d0:	81 3f 00 20 	lwz     r9,32(r31)
 18007d4:	3d 60 01 81 	lis     r11,385
 18007d8:	39 6b 23 08 	addi    r11,r11,8968
 18007dc:	55 29 10 3a 	rlwinm  r9,r9,2,0,29
 18007e0:	7d 2b 4a 14 	add     r9,r11,r9
 18007e4:	81 29 00 00 	lwz     r9,0(r9)
 18007e8:	3d 60 01 81 	lis     r11,385
 18007ec:	39 6b 23 08 	addi    r11,r11,8968
 18007f0:	54 00 10 3a 	rlwinm  r0,r0,2,0,29
 18007f4:	7c 0b 02 14 	add     r0,r11,r0
 18007f8:	7c 0b 03 78 	mr      r11,r0
 18007fc:	91 2b 00 00 	stw     r9,0(r11)
 1800800:	80 1f 00 20 	lwz     r0,32(r31)
 1800804:	3d 20 01 81 	lis     r9,385
 1800808:	39 29 23 08 	addi    r9,r9,8968
 180080c:	54 00 10 3a 	rlwinm  r0,r0,2,0,29
 1800810:	7c 09 02 14 	add     r0,r9,r0
 1800814:	81 3f 00 0c 	lwz     r9,12(r31)
 1800818:	7c 0b 03 78 	mr      r11,r0
 180081c:	91 2b 00 00 	stw     r9,0(r11)
 1800820:	80 1f 00 14 	lwz     r0,20(r31)
 1800824:	30 00 00 02 	addic   r0,r0,2
 1800828:	90 1f 00 14 	stw     r0,20(r31)
 180082c:	81 3f 00 24 	lwz     r9,36(r31)
 1800830:	80 1f 00 28 	lwz     r0,40(r31)
 1800834:	7c 00 48 50 	subf    r0,r0,r9
 1800838:	31 20 00 01 	addic   r9,r0,1
 180083c:	81 7f 00 20 	lwz     r11,32(r31)
 1800840:	80 1f 00 18 	lwz     r0,24(r31)
 1800844:	7c 00 58 50 	subf    r0,r0,r11
 1800848:	7f 89 00 40 	cmplw   cr7,r9,r0
 180084c:	40 9c 00 80 	bge-    cr7,18008cc <sort+0x6ac>
 1800850:	48 00 00 d0 	b       1800920 <sort+0x700>
 1800854:	80 1f 00 28 	lwz     r0,40(r31)
 1800858:	3d 20 01 81 	lis     r9,385
 180085c:	39 29 23 08 	addi    r9,r9,8968
 1800860:	54 00 10 3a 	rlwinm  r0,r0,2,0,29
 1800864:	7c 09 02 14 	add     r0,r9,r0
 1800868:	7c 09 03 78 	mr      r9,r0
 180086c:	80 09 00 00 	lwz     r0,0(r9)
 1800870:	90 1f 00 08 	stw     r0,8(r31)
 1800874:	80 1f 00 28 	lwz     r0,40(r31)
 1800878:	81 3f 00 20 	lwz     r9,32(r31)
 180087c:	3d 60 01 81 	lis     r11,385
 1800880:	39 6b 23 08 	addi    r11,r11,8968
 1800884:	55 29 10 3a 	rlwinm  r9,r9,2,0,29
 1800888:	7d 2b 4a 14 	add     r9,r11,r9
 180088c:	81 29 00 00 	lwz     r9,0(r9)
 1800890:	3d 60 01 81 	lis     r11,385
 1800894:	39 6b 23 08 	addi    r11,r11,8968
 1800898:	54 00 10 3a 	rlwinm  r0,r0,2,0,29
 180089c:	7c 0b 02 14 	add     r0,r11,r0
 18008a0:	7c 0b 03 78 	mr      r11,r0
 18008a4:	91 2b 00 00 	stw     r9,0(r11)
 18008a8:	80 1f 00 20 	lwz     r0,32(r31)
 18008ac:	3d 20 01 81 	lis     r9,385
 18008b0:	39 29 23 08 	addi    r9,r9,8968
 18008b4:	54 00 10 3a 	rlwinm  r0,r0,2,0,29
 18008b8:	7c 09 02 14 	add     r0,r9,r0
 18008bc:	81 3f 00 08 	lwz     r9,8(r31)
 18008c0:	7c 0b 03 78 	mr      r11,r0
 18008c4:	91 2b 00 00 	stw     r9,0(r11)
 18008c8:	4b ff fe 48 	b       1800710 <sort+0x4f0>
 18008cc:	80 1f 00 14 	lwz     r0,20(r31)
 18008d0:	81 3f 00 24 	lwz     r9,36(r31)
 18008d4:	3d 60 01 81 	lis     r11,385
 18008d8:	39 6b 24 6c 	addi    r11,r11,9324
 18008dc:	54 00 10 3a 	rlwinm  r0,r0,2,0,29
 18008e0:	7c 0b 02 14 	add     r0,r11,r0
 18008e4:	7c 0b 03 78 	mr      r11,r0
 18008e8:	91 2b 00 00 	stw     r9,0(r11)
 18008ec:	80 1f 00 14 	lwz     r0,20(r31)
 18008f0:	30 00 ff ff 	addic   r0,r0,-1
 18008f4:	81 3f 00 28 	lwz     r9,40(r31)
 18008f8:	3d 60 01 81 	lis     r11,385
 18008fc:	39 6b 24 6c 	addi    r11,r11,9324
 1800900:	54 00 10 3a 	rlwinm  r0,r0,2,0,29
 1800904:	7c 0b 02 14 	add     r0,r11,r0
 1800908:	7c 0b 03 78 	mr      r11,r0
 180090c:	91 2b 00 00 	stw     r9,0(r11)
 1800910:	80 1f 00 20 	lwz     r0,32(r31)
 1800914:	30 00 ff ff 	addic   r0,r0,-1
 1800918:	90 1f 00 24 	stw     r0,36(r31)
 180091c:	4b ff f9 34 	b       1800250 <sort+0x30>
 1800920:	80 1f 00 14 	lwz     r0,20(r31)
 1800924:	81 3f 00 20 	lwz     r9,32(r31)
 1800928:	39 29 ff ff 	addi    r9,r9,-1
 180092c:	3d 60 01 81 	lis     r11,385
 1800930:	39 6b 24 6c 	addi    r11,r11,9324
 1800934:	54 00 10 3a 	rlwinm  r0,r0,2,0,29
 1800938:	7c 0b 02 14 	add     r0,r11,r0
 180093c:	7c 0b 03 78 	mr      r11,r0
 1800940:	91 2b 00 00 	stw     r9,0(r11)
 1800944:	80 1f 00 14 	lwz     r0,20(r31)
 1800948:	30 00 ff ff 	addic   r0,r0,-1
 180094c:	81 3f 00 18 	lwz     r9,24(r31)
 1800950:	3d 60 01 81 	lis     r11,385
 1800954:	39 6b 24 6c 	addi    r11,r11,9324
 1800958:	54 00 10 3a 	rlwinm  r0,r0,2,0,29
 180095c:	7c 0b 02 14 	add     r0,r11,r0
 1800960:	7c 0b 03 78 	mr      r11,r0
 1800964:	91 2b 00 00 	stw     r9,0(r11)
 1800968:	80 1f 00 28 	lwz     r0,40(r31)
 180096c:	90 1f 00 18 	stw     r0,24(r31)
 1800970:	4b ff f8 e0 	b       1800250 <sort+0x30>
 1800974:	60 00 00 00 	nop
 1800978:	39 7f 00 48 	addi    r11,r31,72
 180097c:	83 eb ff fc 	lwz     r31,-4(r11)
 1800980:	7d 61 5b 78 	mr      r1,r11
 1800984:	4e 80 00 20 	blr

01800988 <sort2>:
 1800988:	94 21 ff b8 	stwu    r1,-72(r1)
 180098c:	93 e1 00 44 	stw     r31,68(r1)
 1800990:	7c 3f 0b 78 	mr      r31,r1
 1800994:	90 7f 00 38 	stw     r3,56(r31)
 1800998:	80 1f 00 38 	lwz     r0,56(r31)
 180099c:	90 1f 00 24 	stw     r0,36(r31)
 18009a0:	38 00 00 01 	li      r0,1
 18009a4:	90 1f 00 18 	stw     r0,24(r31)
 18009a8:	38 00 00 00 	li      r0,0
 18009ac:	90 1f 00 14 	stw     r0,20(r31)
 18009b0:	38 00 00 00 	li      r0,0
 18009b4:	90 1f 00 10 	stw     r0,16(r31)
 18009b8:	81 3f 00 24 	lwz     r9,36(r31)
 18009bc:	80 1f 00 18 	lwz     r0,24(r31)
 18009c0:	7c 00 48 50 	subf    r0,r0,r9
 18009c4:	2b 80 00 06 	cmplwi  cr7,r0,6
 18009c8:	41 9d 01 84 	bgt-    cr7,1800b4c <sort2+0x1c4>
 18009cc:	80 1f 00 18 	lwz     r0,24(r31)
 18009d0:	30 00 00 01 	addic   r0,r0,1
 18009d4:	90 1f 00 20 	stw     r0,32(r31)
 18009d8:	48 00 00 fc 	b       1800ad4 <sort2+0x14c>
 18009dc:	80 1f 00 20 	lwz     r0,32(r31)
 18009e0:	3d 20 01 81 	lis     r9,385
 18009e4:	39 29 23 58 	addi    r9,r9,9048
 18009e8:	54 00 10 3a 	rlwinm  r0,r0,2,0,29
 18009ec:	7c 09 02 14 	add     r0,r9,r0
 18009f0:	7c 09 03 78 	mr      r9,r0
 18009f4:	80 09 00 00 	lwz     r0,0(r9)
 18009f8:	90 1f 00 0c 	stw     r0,12(r31)
 18009fc:	80 1f 00 20 	lwz     r0,32(r31)
 1800a00:	30 00 ff ff 	addic   r0,r0,-1
 1800a04:	90 1f 00 28 	stw     r0,40(r31)
 1800a08:	48 00 00 84 	b       1800a8c <sort2+0x104>
 1800a0c:	80 1f 00 28 	lwz     r0,40(r31)
 1800a10:	3d 20 01 81 	lis     r9,385
 1800a14:	39 29 23 58 	addi    r9,r9,9048
 1800a18:	54 00 10 3a 	rlwinm  r0,r0,2,0,29
 1800a1c:	7c 09 02 14 	add     r0,r9,r0
 1800a20:	7c 0b 03 78 	mr      r11,r0
 1800a24:	c1 ab 00 00 	lfs     f13,0(r11)
 1800a28:	c0 1f 00 0c 	lfs     f0,12(r31)
 1800a2c:	ff 8d 00 00 	fcmpu   cr7,f13,f0
 1800a30:	4f dc f3 82 	cror    4*cr7+eq,4*cr7+lt,4*cr7+eq
 1800a34:	7c 00 00 26 	mfcr    r0
 1800a38:	54 00 ff fe 	rlwinm  r0,r0,31,31,31
 1800a3c:	54 00 06 3e 	clrlwi  r0,r0,24
 1800a40:	2f 80 00 00 	cmpwi   cr7,r0,0
 1800a44:	40 9e 00 5c 	bne-    cr7,1800aa0 <sort2+0x118>
 1800a48:	80 1f 00 28 	lwz     r0,40(r31)
 1800a4c:	30 00 00 01 	addic   r0,r0,1
 1800a50:	81 3f 00 28 	lwz     r9,40(r31)
 1800a54:	3d 60 01 81 	lis     r11,385
 1800a58:	39 6b 23 58 	addi    r11,r11,9048
 1800a5c:	55 29 10 3a 	rlwinm  r9,r9,2,0,29
 1800a60:	7d 2b 4a 14 	add     r9,r11,r9
 1800a64:	81 29 00 00 	lwz     r9,0(r9)
 1800a68:	3d 60 01 81 	lis     r11,385
 1800a6c:	39 6b 23 58 	addi    r11,r11,9048
 1800a70:	54 00 10 3a 	rlwinm  r0,r0,2,0,29
 1800a74:	7c 0b 02 14 	add     r0,r11,r0
 1800a78:	7c 0b 03 78 	mr      r11,r0
 1800a7c:	91 2b 00 00 	stw     r9,0(r11)
 1800a80:	80 1f 00 28 	lwz     r0,40(r31)
 1800a84:	30 00 ff ff 	addic   r0,r0,-1
 1800a88:	90 1f 00 28 	stw     r0,40(r31)
 1800a8c:	81 3f 00 28 	lwz     r9,40(r31)
 1800a90:	80 1f 00 18 	lwz     r0,24(r31)
 1800a94:	7f 89 00 40 	cmplw   cr7,r9,r0
 1800a98:	40 9c ff 74 	bge+    cr7,1800a0c <sort2+0x84>
 1800a9c:	48 00 00 08 	b       1800aa4 <sort2+0x11c>
 1800aa0:	60 00 00 00 	nop
 1800aa4:	80 1f 00 28 	lwz     r0,40(r31)
 1800aa8:	30 00 00 01 	addic   r0,r0,1
 1800aac:	3d 20 01 81 	lis     r9,385
 1800ab0:	39 29 23 58 	addi    r9,r9,9048
 1800ab4:	54 00 10 3a 	rlwinm  r0,r0,2,0,29
 1800ab8:	7c 09 02 14 	add     r0,r9,r0
 1800abc:	81 3f 00 0c 	lwz     r9,12(r31)
 1800ac0:	7c 0b 03 78 	mr      r11,r0
 1800ac4:	91 2b 00 00 	stw     r9,0(r11)
 1800ac8:	80 1f 00 20 	lwz     r0,32(r31)
 1800acc:	30 00 00 01 	addic   r0,r0,1
 1800ad0:	90 1f 00 20 	stw     r0,32(r31)
 1800ad4:	81 3f 00 20 	lwz     r9,32(r31)
 1800ad8:	80 1f 00 24 	lwz     r0,36(r31)
 1800adc:	7f 89 00 40 	cmplw   cr7,r9,r0
 1800ae0:	40 9d fe fc 	ble+    cr7,18009dc <sort2+0x54>
 1800ae4:	80 1f 00 14 	lwz     r0,20(r31)
 1800ae8:	2f 80 00 00 	cmpwi   cr7,r0,0
 1800aec:	41 9e 05 f0 	beq-    cr7,18010dc <sort2+0x754>
 1800af0:	80 1f 00 14 	lwz     r0,20(r31)
 1800af4:	3d 20 01 81 	lis     r9,385
 1800af8:	39 29 24 6c 	addi    r9,r9,9324
 1800afc:	54 00 10 3a 	rlwinm  r0,r0,2,0,29
 1800b00:	7c 09 02 14 	add     r0,r9,r0
 1800b04:	7c 09 03 78 	mr      r9,r0
 1800b08:	80 09 00 00 	lwz     r0,0(r9)
 1800b0c:	90 1f 00 24 	stw     r0,36(r31)
 1800b10:	80 1f 00 14 	lwz     r0,20(r31)
 1800b14:	30 00 ff ff 	addic   r0,r0,-1
 1800b18:	90 1f 00 14 	stw     r0,20(r31)
 1800b1c:	80 1f 00 14 	lwz     r0,20(r31)
 1800b20:	3d 20 01 81 	lis     r9,385
 1800b24:	39 29 24 6c 	addi    r9,r9,9324
 1800b28:	54 00 10 3a 	rlwinm  r0,r0,2,0,29
 1800b2c:	7c 09 02 14 	add     r0,r9,r0
 1800b30:	7c 0b 03 78 	mr      r11,r0
 1800b34:	80 0b 00 00 	lwz     r0,0(r11)
 1800b38:	90 1f 00 18 	stw     r0,24(r31)
 1800b3c:	80 1f 00 14 	lwz     r0,20(r31)
 1800b40:	30 00 ff ff 	addic   r0,r0,-1
 1800b44:	90 1f 00 14 	stw     r0,20(r31)
 1800b48:	4b ff fe 70 	b       18009b8 <sort2+0x30>
 1800b4c:	81 3f 00 18 	lwz     r9,24(r31)
 1800b50:	80 1f 00 24 	lwz     r0,36(r31)
 1800b54:	7c 09 02 14 	add     r0,r9,r0
 1800b58:	54 00 f8 7e 	rlwinm  r0,r0,31,1,31
 1800b5c:	90 1f 00 1c 	stw     r0,28(r31)
 1800b60:	80 1f 00 1c 	lwz     r0,28(r31)
 1800b64:	3d 20 01 81 	lis     r9,385
 1800b68:	39 29 23 58 	addi    r9,r9,9048
 1800b6c:	54 00 10 3a 	rlwinm  r0,r0,2,0,29
 1800b70:	7c 09 02 14 	add     r0,r9,r0
 1800b74:	7c 09 03 78 	mr      r9,r0
 1800b78:	80 09 00 00 	lwz     r0,0(r9)
 1800b7c:	90 1f 00 08 	stw     r0,8(r31)
 1800b80:	80 1f 00 1c 	lwz     r0,28(r31)
 1800b84:	81 3f 00 18 	lwz     r9,24(r31)
 1800b88:	39 29 00 01 	addi    r9,r9,1
 1800b8c:	3d 60 01 81 	lis     r11,385
 1800b90:	39 6b 23 58 	addi    r11,r11,9048
 1800b94:	55 29 10 3a 	rlwinm  r9,r9,2,0,29
 1800b98:	7d 2b 4a 14 	add     r9,r11,r9
 1800b9c:	81 29 00 00 	lwz     r9,0(r9)
 1800ba0:	3d 60 01 81 	lis     r11,385
 1800ba4:	39 6b 23 58 	addi    r11,r11,9048
 1800ba8:	54 00 10 3a 	rlwinm  r0,r0,2,0,29
 1800bac:	7c 0b 02 14 	add     r0,r11,r0
 1800bb0:	7c 0b 03 78 	mr      r11,r0
 1800bb4:	91 2b 00 00 	stw     r9,0(r11)
 1800bb8:	80 1f 00 18 	lwz     r0,24(r31)
 1800bbc:	30 00 00 01 	addic   r0,r0,1
 1800bc0:	3d 20 01 81 	lis     r9,385
 1800bc4:	39 29 23 58 	addi    r9,r9,9048
 1800bc8:	54 00 10 3a 	rlwinm  r0,r0,2,0,29
 1800bcc:	7c 09 02 14 	add     r0,r9,r0
 1800bd0:	81 3f 00 08 	lwz     r9,8(r31)
 1800bd4:	7c 0b 03 78 	mr      r11,r0
 1800bd8:	91 2b 00 00 	stw     r9,0(r11)
 1800bdc:	80 1f 00 18 	lwz     r0,24(r31)
 1800be0:	3d 20 01 81 	lis     r9,385
 1800be4:	39 29 23 58 	addi    r9,r9,9048
 1800be8:	54 00 10 3a 	rlwinm  r0,r0,2,0,29
 1800bec:	7c 09 02 14 	add     r0,r9,r0
 1800bf0:	7c 09 03 78 	mr      r9,r0
 1800bf4:	c1 a9 00 00 	lfs     f13,0(r9)
 1800bf8:	80 1f 00 24 	lwz     r0,36(r31)
 1800bfc:	3d 20 01 81 	lis     r9,385
 1800c00:	39 29 23 58 	addi    r9,r9,9048
 1800c04:	54 00 10 3a 	rlwinm  r0,r0,2,0,29
 1800c08:	7c 09 02 14 	add     r0,r9,r0
 1800c0c:	7c 0b 03 78 	mr      r11,r0
 1800c10:	c0 0b 00 00 	lfs     f0,0(r11)
 1800c14:	ff 8d 00 00 	fcmpu   cr7,f13,f0
 1800c18:	7c 00 00 26 	mfcr    r0
 1800c1c:	54 00 f7 fe 	rlwinm  r0,r0,30,31,31
 1800c20:	54 00 06 3e 	clrlwi  r0,r0,24
 1800c24:	2f 80 00 00 	cmpwi   cr7,r0,0
 1800c28:	41 9e 00 78 	beq-    cr7,1800ca0 <sort2+0x318>
 1800c2c:	80 1f 00 18 	lwz     r0,24(r31)
 1800c30:	3d 20 01 81 	lis     r9,385
 1800c34:	39 29 23 58 	addi    r9,r9,9048
 1800c38:	54 00 10 3a 	rlwinm  r0,r0,2,0,29
 1800c3c:	7c 09 02 14 	add     r0,r9,r0
 1800c40:	7c 09 03 78 	mr      r9,r0
 1800c44:	80 09 00 00 	lwz     r0,0(r9)
 1800c48:	90 1f 00 08 	stw     r0,8(r31)
 1800c4c:	80 1f 00 18 	lwz     r0,24(r31)
 1800c50:	81 3f 00 24 	lwz     r9,36(r31)
 1800c54:	3d 60 01 81 	lis     r11,385
 1800c58:	39 6b 23 58 	addi    r11,r11,9048
 1800c5c:	55 29 10 3a 	rlwinm  r9,r9,2,0,29
 1800c60:	7d 2b 4a 14 	add     r9,r11,r9
 1800c64:	81 29 00 00 	lwz     r9,0(r9)
 1800c68:	3d 60 01 81 	lis     r11,385
 1800c6c:	39 6b 23 58 	addi    r11,r11,9048
 1800c70:	54 00 10 3a 	rlwinm  r0,r0,2,0,29
 1800c74:	7c 0b 02 14 	add     r0,r11,r0
 1800c78:	7c 0b 03 78 	mr      r11,r0
 1800c7c:	91 2b 00 00 	stw     r9,0(r11)
 1800c80:	80 1f 00 24 	lwz     r0,36(r31)
 1800c84:	3d 20 01 81 	lis     r9,385
 1800c88:	39 29 23 58 	addi    r9,r9,9048
 1800c8c:	54 00 10 3a 	rlwinm  r0,r0,2,0,29
 1800c90:	7c 09 02 14 	add     r0,r9,r0
 1800c94:	81 3f 00 08 	lwz     r9,8(r31)
 1800c98:	7c 0b 03 78 	mr      r11,r0
 1800c9c:	91 2b 00 00 	stw     r9,0(r11)
 1800ca0:	80 1f 00 18 	lwz     r0,24(r31)
 1800ca4:	30 00 00 01 	addic   r0,r0,1
 1800ca8:	3d 20 01 81 	lis     r9,385
 1800cac:	39 29 23 58 	addi    r9,r9,9048
 1800cb0:	54 00 10 3a 	rlwinm  r0,r0,2,0,29
 1800cb4:	7c 09 02 14 	add     r0,r9,r0
 1800cb8:	7c 09 03 78 	mr      r9,r0
 1800cbc:	c1 a9 00 00 	lfs     f13,0(r9)
 1800cc0:	80 1f 00 24 	lwz     r0,36(r31)
 1800cc4:	3d 20 01 81 	lis     r9,385
 1800cc8:	39 29 23 58 	addi    r9,r9,9048
 1800ccc:	54 00 10 3a 	rlwinm  r0,r0,2,0,29
 1800cd0:	7c 09 02 14 	add     r0,r9,r0
 1800cd4:	7c 0b 03 78 	mr      r11,r0
 1800cd8:	c0 0b 00 00 	lfs     f0,0(r11)
 1800cdc:	ff 8d 00 00 	fcmpu   cr7,f13,f0
 1800ce0:	7c 00 00 26 	mfcr    r0
 1800ce4:	54 00 f7 fe 	rlwinm  r0,r0,30,31,31
 1800ce8:	54 00 06 3e 	clrlwi  r0,r0,24
 1800cec:	2f 80 00 00 	cmpwi   cr7,r0,0
 1800cf0:	41 9e 00 80 	beq-    cr7,1800d70 <sort2+0x3e8>
 1800cf4:	80 1f 00 18 	lwz     r0,24(r31)
 1800cf8:	30 00 00 01 	addic   r0,r0,1
 1800cfc:	3d 20 01 81 	lis     r9,385
 1800d00:	39 29 23 58 	addi    r9,r9,9048
 1800d04:	54 00 10 3a 	rlwinm  r0,r0,2,0,29
 1800d08:	7c 09 02 14 	add     r0,r9,r0
 1800d0c:	7c 09 03 78 	mr      r9,r0
 1800d10:	80 09 00 00 	lwz     r0,0(r9)
 1800d14:	90 1f 00 08 	stw     r0,8(r31)
 1800d18:	80 1f 00 18 	lwz     r0,24(r31)
 1800d1c:	30 00 00 01 	addic   r0,r0,1
 1800d20:	81 3f 00 24 	lwz     r9,36(r31)
 1800d24:	3d 60 01 81 	lis     r11,385
 1800d28:	39 6b 23 58 	addi    r11,r11,9048
 1800d2c:	55 29 10 3a 	rlwinm  r9,r9,2,0,29
 1800d30:	7d 2b 4a 14 	add     r9,r11,r9
 1800d34:	81 29 00 00 	lwz     r9,0(r9)
 1800d38:	3d 60 01 81 	lis     r11,385
 1800d3c:	39 6b 23 58 	addi    r11,r11,9048
 1800d40:	54 00 10 3a 	rlwinm  r0,r0,2,0,29
 1800d44:	7c 0b 02 14 	add     r0,r11,r0
 1800d48:	7c 0b 03 78 	mr      r11,r0
 1800d4c:	91 2b 00 00 	stw     r9,0(r11)
 1800d50:	80 1f 00 24 	lwz     r0,36(r31)
 1800d54:	3d 20 01 81 	lis     r9,385
 1800d58:	39 29 23 58 	addi    r9,r9,9048
 1800d5c:	54 00 10 3a 	rlwinm  r0,r0,2,0,29
 1800d60:	7c 09 02 14 	add     r0,r9,r0
 1800d64:	81 3f 00 08 	lwz     r9,8(r31)
 1800d68:	7c 0b 03 78 	mr      r11,r0
 1800d6c:	91 2b 00 00 	stw     r9,0(r11)
 1800d70:	80 1f 00 18 	lwz     r0,24(r31)
 1800d74:	3d 20 01 81 	lis     r9,385
 1800d78:	39 29 23 58 	addi    r9,r9,9048
 1800d7c:	54 00 10 3a 	rlwinm  r0,r0,2,0,29
 1800d80:	7c 09 02 14 	add     r0,r9,r0
 1800d84:	7c 09 03 78 	mr      r9,r0
 1800d88:	c1 a9 00 00 	lfs     f13,0(r9)
 1800d8c:	80 1f 00 18 	lwz     r0,24(r31)
 1800d90:	30 00 00 01 	addic   r0,r0,1
 1800d94:	3d 20 01 81 	lis     r9,385
 1800d98:	39 29 23 58 	addi    r9,r9,9048
 1800d9c:	54 00 10 3a 	rlwinm  r0,r0,2,0,29
 1800da0:	7c 09 02 14 	add     r0,r9,r0
 1800da4:	7c 0b 03 78 	mr      r11,r0
 1800da8:	c0 0b 00 00 	lfs     f0,0(r11)
 1800dac:	ff 8d 00 00 	fcmpu   cr7,f13,f0
 1800db0:	7c 00 00 26 	mfcr    r0
 1800db4:	54 00 f7 fe 	rlwinm  r0,r0,30,31,31
 1800db8:	54 00 06 3e 	clrlwi  r0,r0,24
 1800dbc:	2f 80 00 00 	cmpwi   cr7,r0,0
 1800dc0:	41 9e 00 80 	beq-    cr7,1800e40 <sort2+0x4b8>
 1800dc4:	80 1f 00 18 	lwz     r0,24(r31)
 1800dc8:	3d 20 01 81 	lis     r9,385
 1800dcc:	39 29 23 58 	addi    r9,r9,9048
 1800dd0:	54 00 10 3a 	rlwinm  r0,r0,2,0,29
 1800dd4:	7c 09 02 14 	add     r0,r9,r0
 1800dd8:	7c 09 03 78 	mr      r9,r0
 1800ddc:	80 09 00 00 	lwz     r0,0(r9)
 1800de0:	90 1f 00 08 	stw     r0,8(r31)
 1800de4:	80 1f 00 18 	lwz     r0,24(r31)
 1800de8:	81 3f 00 18 	lwz     r9,24(r31)
 1800dec:	39 29 00 01 	addi    r9,r9,1
 1800df0:	3d 60 01 81 	lis     r11,385
 1800df4:	39 6b 23 58 	addi    r11,r11,9048
 1800df8:	55 29 10 3a 	rlwinm  r9,r9,2,0,29
 1800dfc:	7d 2b 4a 14 	add     r9,r11,r9
 1800e00:	81 29 00 00 	lwz     r9,0(r9)
 1800e04:	3d 60 01 81 	lis     r11,385
 1800e08:	39 6b 23 58 	addi    r11,r11,9048
 1800e0c:	54 00 10 3a 	rlwinm  r0,r0,2,0,29
 1800e10:	7c 0b 02 14 	add     r0,r11,r0
 1800e14:	7c 0b 03 78 	mr      r11,r0
 1800e18:	91 2b 00 00 	stw     r9,0(r11)
 1800e1c:	80 1f 00 18 	lwz     r0,24(r31)
 1800e20:	30 00 00 01 	addic   r0,r0,1
 1800e24:	3d 20 01 81 	lis     r9,385
 1800e28:	39 29 23 58 	addi    r9,r9,9048
 1800e2c:	54 00 10 3a 	rlwinm  r0,r0,2,0,29
 1800e30:	7c 09 02 14 	add     r0,r9,r0
 1800e34:	81 3f 00 08 	lwz     r9,8(r31)
 1800e38:	7c 0b 03 78 	mr      r11,r0
 1800e3c:	91 2b 00 00 	stw     r9,0(r11)
 1800e40:	80 1f 00 18 	lwz     r0,24(r31)
 1800e44:	30 00 00 01 	addic   r0,r0,1
 1800e48:	90 1f 00 28 	stw     r0,40(r31)
 1800e4c:	80 1f 00 24 	lwz     r0,36(r31)
 1800e50:	90 1f 00 20 	stw     r0,32(r31)
 1800e54:	80 1f 00 18 	lwz     r0,24(r31)
 1800e58:	30 00 00 01 	addic   r0,r0,1
 1800e5c:	3d 20 01 81 	lis     r9,385
 1800e60:	39 29 23 58 	addi    r9,r9,9048
 1800e64:	54 00 10 3a 	rlwinm  r0,r0,2,0,29
 1800e68:	7c 09 02 14 	add     r0,r9,r0
 1800e6c:	7c 09 03 78 	mr      r9,r0
 1800e70:	80 09 00 00 	lwz     r0,0(r9)
 1800e74:	90 1f 00 0c 	stw     r0,12(r31)
 1800e78:	80 1f 00 28 	lwz     r0,40(r31)
 1800e7c:	30 00 00 01 	addic   r0,r0,1
 1800e80:	90 1f 00 28 	stw     r0,40(r31)
 1800e84:	48 00 00 10 	b       1800e94 <sort2+0x50c>
 1800e88:	80 1f 00 28 	lwz     r0,40(r31)
 1800e8c:	30 00 00 01 	addic   r0,r0,1
 1800e90:	90 1f 00 28 	stw     r0,40(r31)
 1800e94:	80 1f 00 28 	lwz     r0,40(r31)
 1800e98:	3d 20 01 81 	lis     r9,385
 1800e9c:	39 29 23 58 	addi    r9,r9,9048
 1800ea0:	54 00 10 3a 	rlwinm  r0,r0,2,0,29
 1800ea4:	7c 09 02 14 	add     r0,r9,r0
 1800ea8:	7c 0b 03 78 	mr      r11,r0
 1800eac:	c1 ab 00 00 	lfs     f13,0(r11)
 1800eb0:	c0 1f 00 0c 	lfs     f0,12(r31)
 1800eb4:	ff 8d 00 00 	fcmpu   cr7,f13,f0
 1800eb8:	7c 00 00 26 	mfcr    r0
 1800ebc:	54 00 ef fe 	rlwinm  r0,r0,29,31,31
 1800ec0:	54 00 06 3e 	clrlwi  r0,r0,24
 1800ec4:	2f 80 00 00 	cmpwi   cr7,r0,0
 1800ec8:	40 9e ff c0 	bne+    cr7,1800e88 <sort2+0x500>
 1800ecc:	80 1f 00 20 	lwz     r0,32(r31)
 1800ed0:	30 00 ff ff 	addic   r0,r0,-1
 1800ed4:	90 1f 00 20 	stw     r0,32(r31)
 1800ed8:	48 00 00 10 	b       1800ee8 <sort2+0x560>
 1800edc:	80 1f 00 20 	lwz     r0,32(r31)
 1800ee0:	30 00 ff ff 	addic   r0,r0,-1
 1800ee4:	90 1f 00 20 	stw     r0,32(r31)
 1800ee8:	80 1f 00 20 	lwz     r0,32(r31)
 1800eec:	3d 20 01 81 	lis     r9,385
 1800ef0:	39 29 23 58 	addi    r9,r9,9048
 1800ef4:	54 00 10 3a 	rlwinm  r0,r0,2,0,29
 1800ef8:	7c 09 02 14 	add     r0,r9,r0
 1800efc:	7c 09 03 78 	mr      r9,r0
 1800f00:	c1 a9 00 00 	lfs     f13,0(r9)
 1800f04:	c0 1f 00 0c 	lfs     f0,12(r31)
 1800f08:	ff 8d 00 00 	fcmpu   cr7,f13,f0
 1800f0c:	7c 00 00 26 	mfcr    r0
 1800f10:	54 00 f7 fe 	rlwinm  r0,r0,30,31,31
 1800f14:	54 00 06 3e 	clrlwi  r0,r0,24
 1800f18:	2f 80 00 00 	cmpwi   cr7,r0,0
 1800f1c:	40 9e ff c0 	bne+    cr7,1800edc <sort2+0x554>
 1800f20:	81 3f 00 20 	lwz     r9,32(r31)
 1800f24:	80 1f 00 28 	lwz     r0,40(r31)
 1800f28:	7f 89 00 40 	cmplw   cr7,r9,r0
 1800f2c:	40 9c 00 90 	bge-    cr7,1800fbc <sort2+0x634>
 1800f30:	80 1f 00 18 	lwz     r0,24(r31)
 1800f34:	30 00 00 01 	addic   r0,r0,1
 1800f38:	81 3f 00 20 	lwz     r9,32(r31)
 1800f3c:	3d 60 01 81 	lis     r11,385
 1800f40:	39 6b 23 58 	addi    r11,r11,9048
 1800f44:	55 29 10 3a 	rlwinm  r9,r9,2,0,29
 1800f48:	7d 2b 4a 14 	add     r9,r11,r9
 1800f4c:	81 29 00 00 	lwz     r9,0(r9)
 1800f50:	3d 60 01 81 	lis     r11,385
 1800f54:	39 6b 23 58 	addi    r11,r11,9048
 1800f58:	54 00 10 3a 	rlwinm  r0,r0,2,0,29
 1800f5c:	7c 0b 02 14 	add     r0,r11,r0
 1800f60:	7c 0b 03 78 	mr      r11,r0
 1800f64:	91 2b 00 00 	stw     r9,0(r11)
 1800f68:	80 1f 00 20 	lwz     r0,32(r31)
 1800f6c:	3d 20 01 81 	lis     r9,385
 1800f70:	39 29 23 58 	addi    r9,r9,9048
 1800f74:	54 00 10 3a 	rlwinm  r0,r0,2,0,29
 1800f78:	7c 09 02 14 	add     r0,r9,r0
 1800f7c:	81 3f 00 0c 	lwz     r9,12(r31)
 1800f80:	7c 0b 03 78 	mr      r11,r0
 1800f84:	91 2b 00 00 	stw     r9,0(r11)
 1800f88:	80 1f 00 14 	lwz     r0,20(r31)
 1800f8c:	30 00 00 02 	addic   r0,r0,2
 1800f90:	90 1f 00 14 	stw     r0,20(r31)
 1800f94:	81 3f 00 24 	lwz     r9,36(r31)
 1800f98:	80 1f 00 28 	lwz     r0,40(r31)
 1800f9c:	7c 00 48 50 	subf    r0,r0,r9
 1800fa0:	31 20 00 01 	addic   r9,r0,1
 1800fa4:	81 7f 00 20 	lwz     r11,32(r31)
 1800fa8:	80 1f 00 18 	lwz     r0,24(r31)
 1800fac:	7c 00 58 50 	subf    r0,r0,r11
 1800fb0:	7f 89 00 40 	cmplw   cr7,r9,r0
 1800fb4:	40 9c 00 80 	bge-    cr7,1801034 <sort2+0x6ac>
 1800fb8:	48 00 00 d0 	b       1801088 <sort2+0x700>
 1800fbc:	80 1f 00 28 	lwz     r0,40(r31)
 1800fc0:	3d 20 01 81 	lis     r9,385
 1800fc4:	39 29 23 58 	addi    r9,r9,9048
 1800fc8:	54 00 10 3a 	rlwinm  r0,r0,2,0,29
 1800fcc:	7c 09 02 14 	add     r0,r9,r0
 1800fd0:	7c 09 03 78 	mr      r9,r0
 1800fd4:	80 09 00 00 	lwz     r0,0(r9)
 1800fd8:	90 1f 00 08 	stw     r0,8(r31)
 1800fdc:	80 1f 00 28 	lwz     r0,40(r31)
 1800fe0:	81 3f 00 20 	lwz     r9,32(r31)
 1800fe4:	3d 60 01 81 	lis     r11,385
 1800fe8:	39 6b 23 58 	addi    r11,r11,9048
 1800fec:	55 29 10 3a 	rlwinm  r9,r9,2,0,29
 1800ff0:	7d 2b 4a 14 	add     r9,r11,r9
 1800ff4:	81 29 00 00 	lwz     r9,0(r9)
 1800ff8:	3d 60 01 81 	lis     r11,385
 1800ffc:	39 6b 23 58 	addi    r11,r11,9048
 1801000:	54 00 10 3a 	rlwinm  r0,r0,2,0,29
 1801004:	7c 0b 02 14 	add     r0,r11,r0
 1801008:	7c 0b 03 78 	mr      r11,r0
 180100c:	91 2b 00 00 	stw     r9,0(r11)
 1801010:	80 1f 00 20 	lwz     r0,32(r31)
 1801014:	3d 20 01 81 	lis     r9,385
 1801018:	39 29 23 58 	addi    r9,r9,9048
 180101c:	54 00 10 3a 	rlwinm  r0,r0,2,0,29
 1801020:	7c 09 02 14 	add     r0,r9,r0
 1801024:	81 3f 00 08 	lwz     r9,8(r31)
 1801028:	7c 0b 03 78 	mr      r11,r0
 180102c:	91 2b 00 00 	stw     r9,0(r11)
 1801030:	4b ff fe 48 	b       1800e78 <sort2+0x4f0>
 1801034:	80 1f 00 14 	lwz     r0,20(r31)
 1801038:	81 3f 00 24 	lwz     r9,36(r31)
 180103c:	3d 60 01 81 	lis     r11,385
 1801040:	39 6b 24 6c 	addi    r11,r11,9324
 1801044:	54 00 10 3a 	rlwinm  r0,r0,2,0,29
 1801048:	7c 0b 02 14 	add     r0,r11,r0
 180104c:	7c 0b 03 78 	mr      r11,r0
 1801050:	91 2b 00 00 	stw     r9,0(r11)
 1801054:	80 1f 00 14 	lwz     r0,20(r31)
 1801058:	30 00 ff ff 	addic   r0,r0,-1
 180105c:	81 3f 00 28 	lwz     r9,40(r31)
 1801060:	3d 60 01 81 	lis     r11,385
 1801064:	39 6b 24 6c 	addi    r11,r11,9324
 1801068:	54 00 10 3a 	rlwinm  r0,r0,2,0,29
 180106c:	7c 0b 02 14 	add     r0,r11,r0
 1801070:	7c 0b 03 78 	mr      r11,r0
 1801074:	91 2b 00 00 	stw     r9,0(r11)
 1801078:	80 1f 00 20 	lwz     r0,32(r31)
 180107c:	30 00 ff ff 	addic   r0,r0,-1
 1801080:	90 1f 00 24 	stw     r0,36(r31)
 1801084:	4b ff f9 34 	b       18009b8 <sort2+0x30>
 1801088:	80 1f 00 14 	lwz     r0,20(r31)
 180108c:	81 3f 00 20 	lwz     r9,32(r31)
 1801090:	39 29 ff ff 	addi    r9,r9,-1
 1801094:	3d 60 01 81 	lis     r11,385
 1801098:	39 6b 24 6c 	addi    r11,r11,9324
 180109c:	54 00 10 3a 	rlwinm  r0,r0,2,0,29
 18010a0:	7c 0b 02 14 	add     r0,r11,r0
 18010a4:	7c 0b 03 78 	mr      r11,r0
 18010a8:	91 2b 00 00 	stw     r9,0(r11)
 18010ac:	80 1f 00 14 	lwz     r0,20(r31)
 18010b0:	30 00 ff ff 	addic   r0,r0,-1
 18010b4:	81 3f 00 18 	lwz     r9,24(r31)
 18010b8:	3d 60 01 81 	lis     r11,385
 18010bc:	39 6b 24 6c 	addi    r11,r11,9324
 18010c0:	54 00 10 3a 	rlwinm  r0,r0,2,0,29
 18010c4:	7c 0b 02 14 	add     r0,r11,r0
 18010c8:	7c 0b 03 78 	mr      r11,r0
 18010cc:	91 2b 00 00 	stw     r9,0(r11)
 18010d0:	80 1f 00 28 	lwz     r0,40(r31)
 18010d4:	90 1f 00 18 	stw     r0,24(r31)
 18010d8:	4b ff f8 e0 	b       18009b8 <sort2+0x30>
 18010dc:	60 00 00 00 	nop
 18010e0:	39 7f 00 48 	addi    r11,r31,72
 18010e4:	83 eb ff fc 	lwz     r31,-4(r11)
 18010e8:	7d 61 5b 78 	mr      r1,r11
 18010ec:	4e 80 00 20 	blr

018010f0 <sort3>:
 18010f0:	94 21 ff b8 	stwu    r1,-72(r1)
 18010f4:	93 e1 00 44 	stw     r31,68(r1)
 18010f8:	7c 3f 0b 78 	mr      r31,r1
 18010fc:	90 7f 00 38 	stw     r3,56(r31)
 1801100:	80 1f 00 38 	lwz     r0,56(r31)
 1801104:	90 1f 00 24 	stw     r0,36(r31)
 1801108:	38 00 00 01 	li      r0,1
 180110c:	90 1f 00 18 	stw     r0,24(r31)
 1801110:	38 00 00 00 	li      r0,0
 1801114:	90 1f 00 14 	stw     r0,20(r31)
 1801118:	38 00 00 00 	li      r0,0
 180111c:	90 1f 00 10 	stw     r0,16(r31)
 1801120:	81 3f 00 24 	lwz     r9,36(r31)
 1801124:	80 1f 00 18 	lwz     r0,24(r31)
 1801128:	7c 00 48 50 	subf    r0,r0,r9
 180112c:	2b 80 00 06 	cmplwi  cr7,r0,6
 1801130:	41 9d 01 84 	bgt-    cr7,18012b4 <sort3+0x1c4>
 1801134:	80 1f 00 18 	lwz     r0,24(r31)
 1801138:	30 00 00 01 	addic   r0,r0,1
 180113c:	90 1f 00 20 	stw     r0,32(r31)
 1801140:	48 00 00 fc 	b       180123c <sort3+0x14c>
 1801144:	80 1f 00 20 	lwz     r0,32(r31)
 1801148:	3d 20 01 81 	lis     r9,385
 180114c:	39 29 23 a8 	addi    r9,r9,9128
 1801150:	54 00 10 3a 	rlwinm  r0,r0,2,0,29
 1801154:	7c 09 02 14 	add     r0,r9,r0
 1801158:	7c 09 03 78 	mr      r9,r0
 180115c:	80 09 00 00 	lwz     r0,0(r9)
 1801160:	90 1f 00 0c 	stw     r0,12(r31)
 1801164:	80 1f 00 20 	lwz     r0,32(r31)
 1801168:	30 00 ff ff 	addic   r0,r0,-1
 180116c:	90 1f 00 28 	stw     r0,40(r31)
 1801170:	48 00 00 84 	b       18011f4 <sort3+0x104>
 1801174:	80 1f 00 28 	lwz     r0,40(r31)
 1801178:	3d 20 01 81 	lis     r9,385
 180117c:	39 29 23 a8 	addi    r9,r9,9128
 1801180:	54 00 10 3a 	rlwinm  r0,r0,2,0,29
 1801184:	7c 09 02 14 	add     r0,r9,r0
 1801188:	7c 0b 03 78 	mr      r11,r0
 180118c:	c1 ab 00 00 	lfs     f13,0(r11)
 1801190:	c0 1f 00 0c 	lfs     f0,12(r31)
 1801194:	ff 8d 00 00 	fcmpu   cr7,f13,f0
 1801198:	4f dc f3 82 	cror    4*cr7+eq,4*cr7+lt,4*cr7+eq
 180119c:	7c 00 00 26 	mfcr    r0
 18011a0:	54 00 ff fe 	rlwinm  r0,r0,31,31,31
 18011a4:	54 00 06 3e 	clrlwi  r0,r0,24
 18011a8:	2f 80 00 00 	cmpwi   cr7,r0,0
 18011ac:	40 9e 00 5c 	bne-    cr7,1801208 <sort3+0x118>
 18011b0:	80 1f 00 28 	lwz     r0,40(r31)
 18011b4:	30 00 00 01 	addic   r0,r0,1
 18011b8:	81 3f 00 28 	lwz     r9,40(r31)
 18011bc:	3d 60 01 81 	lis     r11,385
 18011c0:	39 6b 23 a8 	addi    r11,r11,9128
 18011c4:	55 29 10 3a 	rlwinm  r9,r9,2,0,29
 18011c8:	7d 2b 4a 14 	add     r9,r11,r9
 18011cc:	81 29 00 00 	lwz     r9,0(r9)
 18011d0:	3d 60 01 81 	lis     r11,385
 18011d4:	39 6b 23 a8 	addi    r11,r11,9128
 18011d8:	54 00 10 3a 	rlwinm  r0,r0,2,0,29
 18011dc:	7c 0b 02 14 	add     r0,r11,r0
 18011e0:	7c 0b 03 78 	mr      r11,r0
 18011e4:	91 2b 00 00 	stw     r9,0(r11)
 18011e8:	80 1f 00 28 	lwz     r0,40(r31)
 18011ec:	30 00 ff ff 	addic   r0,r0,-1
 18011f0:	90 1f 00 28 	stw     r0,40(r31)
 18011f4:	81 3f 00 28 	lwz     r9,40(r31)
 18011f8:	80 1f 00 18 	lwz     r0,24(r31)
 18011fc:	7f 89 00 40 	cmplw   cr7,r9,r0
 1801200:	40 9c ff 74 	bge+    cr7,1801174 <sort3+0x84>
 1801204:	48 00 00 08 	b       180120c <sort3+0x11c>
 1801208:	60 00 00 00 	nop
 180120c:	80 1f 00 28 	lwz     r0,40(r31)
 1801210:	30 00 00 01 	addic   r0,r0,1
 1801214:	3d 20 01 81 	lis     r9,385
 1801218:	39 29 23 a8 	addi    r9,r9,9128
 180121c:	54 00 10 3a 	rlwinm  r0,r0,2,0,29
 1801220:	7c 09 02 14 	add     r0,r9,r0
 1801224:	81 3f 00 0c 	lwz     r9,12(r31)
 1801228:	7c 0b 03 78 	mr      r11,r0
 180122c:	91 2b 00 00 	stw     r9,0(r11)
 1801230:	80 1f 00 20 	lwz     r0,32(r31)
 1801234:	30 00 00 01 	addic   r0,r0,1
 1801238:	90 1f 00 20 	stw     r0,32(r31)
 180123c:	81 3f 00 20 	lwz     r9,32(r31)
 1801240:	80 1f 00 24 	lwz     r0,36(r31)
 1801244:	7f 89 00 40 	cmplw   cr7,r9,r0
 1801248:	40 9d fe fc 	ble+    cr7,1801144 <sort3+0x54>
 180124c:	80 1f 00 14 	lwz     r0,20(r31)
 1801250:	2f 80 00 00 	cmpwi   cr7,r0,0
 1801254:	41 9e 05 f0 	beq-    cr7,1801844 <sort3+0x754>
 1801258:	80 1f 00 14 	lwz     r0,20(r31)
 180125c:	3d 20 01 81 	lis     r9,385
 1801260:	39 29 24 6c 	addi    r9,r9,9324
 1801264:	54 00 10 3a 	rlwinm  r0,r0,2,0,29
 1801268:	7c 09 02 14 	add     r0,r9,r0
 180126c:	7c 09 03 78 	mr      r9,r0
 1801270:	80 09 00 00 	lwz     r0,0(r9)
 1801274:	90 1f 00 24 	stw     r0,36(r31)
 1801278:	80 1f 00 14 	lwz     r0,20(r31)
 180127c:	30 00 ff ff 	addic   r0,r0,-1
 1801280:	90 1f 00 14 	stw     r0,20(r31)
 1801284:	80 1f 00 14 	lwz     r0,20(r31)
 1801288:	3d 20 01 81 	lis     r9,385
 180128c:	39 29 24 6c 	addi    r9,r9,9324
 1801290:	54 00 10 3a 	rlwinm  r0,r0,2,0,29
 1801294:	7c 09 02 14 	add     r0,r9,r0
 1801298:	7c 0b 03 78 	mr      r11,r0
 180129c:	80 0b 00 00 	lwz     r0,0(r11)
 18012a0:	90 1f 00 18 	stw     r0,24(r31)
 18012a4:	80 1f 00 14 	lwz     r0,20(r31)
 18012a8:	30 00 ff ff 	addic   r0,r0,-1
 18012ac:	90 1f 00 14 	stw     r0,20(r31)
 18012b0:	4b ff fe 70 	b       1801120 <sort3+0x30>
 18012b4:	81 3f 00 18 	lwz     r9,24(r31)
 18012b8:	80 1f 00 24 	lwz     r0,36(r31)
 18012bc:	7c 09 02 14 	add     r0,r9,r0
 18012c0:	54 00 f8 7e 	rlwinm  r0,r0,31,1,31
 18012c4:	90 1f 00 1c 	stw     r0,28(r31)
 18012c8:	80 1f 00 1c 	lwz     r0,28(r31)
 18012cc:	3d 20 01 81 	lis     r9,385
 18012d0:	39 29 23 a8 	addi    r9,r9,9128
 18012d4:	54 00 10 3a 	rlwinm  r0,r0,2,0,29
 18012d8:	7c 09 02 14 	add     r0,r9,r0
 18012dc:	7c 09 03 78 	mr      r9,r0
 18012e0:	80 09 00 00 	lwz     r0,0(r9)
 18012e4:	90 1f 00 08 	stw     r0,8(r31)
 18012e8:	80 1f 00 1c 	lwz     r0,28(r31)
 18012ec:	81 3f 00 18 	lwz     r9,24(r31)
 18012f0:	39 29 00 01 	addi    r9,r9,1
 18012f4:	3d 60 01 81 	lis     r11,385
 18012f8:	39 6b 23 a8 	addi    r11,r11,9128
 18012fc:	55 29 10 3a 	rlwinm  r9,r9,2,0,29
 1801300:	7d 2b 4a 14 	add     r9,r11,r9
 1801304:	81 29 00 00 	lwz     r9,0(r9)
 1801308:	3d 60 01 81 	lis     r11,385
 180130c:	39 6b 23 a8 	addi    r11,r11,9128
 1801310:	54 00 10 3a 	rlwinm  r0,r0,2,0,29
 1801314:	7c 0b 02 14 	add     r0,r11,r0
 1801318:	7c 0b 03 78 	mr      r11,r0
 180131c:	91 2b 00 00 	stw     r9,0(r11)
 1801320:	80 1f 00 18 	lwz     r0,24(r31)
 1801324:	30 00 00 01 	addic   r0,r0,1
 1801328:	3d 20 01 81 	lis     r9,385
 180132c:	39 29 23 a8 	addi    r9,r9,9128
 1801330:	54 00 10 3a 	rlwinm  r0,r0,2,0,29
 1801334:	7c 09 02 14 	add     r0,r9,r0
 1801338:	81 3f 00 08 	lwz     r9,8(r31)
 180133c:	7c 0b 03 78 	mr      r11,r0
 1801340:	91 2b 00 00 	stw     r9,0(r11)
 1801344:	80 1f 00 18 	lwz     r0,24(r31)
 1801348:	3d 20 01 81 	lis     r9,385
 180134c:	39 29 23 a8 	addi    r9,r9,9128
 1801350:	54 00 10 3a 	rlwinm  r0,r0,2,0,29
 1801354:	7c 09 02 14 	add     r0,r9,r0
 1801358:	7c 09 03 78 	mr      r9,r0
 180135c:	c1 a9 00 00 	lfs     f13,0(r9)
 1801360:	80 1f 00 24 	lwz     r0,36(r31)
 1801364:	3d 20 01 81 	lis     r9,385
 1801368:	39 29 23 a8 	addi    r9,r9,9128
 180136c:	54 00 10 3a 	rlwinm  r0,r0,2,0,29
 1801370:	7c 09 02 14 	add     r0,r9,r0
 1801374:	7c 0b 03 78 	mr      r11,r0
 1801378:	c0 0b 00 00 	lfs     f0,0(r11)
 180137c:	ff 8d 00 00 	fcmpu   cr7,f13,f0
 1801380:	7c 00 00 26 	mfcr    r0
 1801384:	54 00 f7 fe 	rlwinm  r0,r0,30,31,31
 1801388:	54 00 06 3e 	clrlwi  r0,r0,24
 180138c:	2f 80 00 00 	cmpwi   cr7,r0,0
 1801390:	41 9e 00 78 	beq-    cr7,1801408 <sort3+0x318>
 1801394:	80 1f 00 18 	lwz     r0,24(r31)
 1801398:	3d 20 01 81 	lis     r9,385
 180139c:	39 29 23 a8 	addi    r9,r9,9128
 18013a0:	54 00 10 3a 	rlwinm  r0,r0,2,0,29
 18013a4:	7c 09 02 14 	add     r0,r9,r0
 18013a8:	7c 09 03 78 	mr      r9,r0
 18013ac:	80 09 00 00 	lwz     r0,0(r9)
 18013b0:	90 1f 00 08 	stw     r0,8(r31)
 18013b4:	80 1f 00 18 	lwz     r0,24(r31)
 18013b8:	81 3f 00 24 	lwz     r9,36(r31)
 18013bc:	3d 60 01 81 	lis     r11,385
 18013c0:	39 6b 23 a8 	addi    r11,r11,9128
 18013c4:	55 29 10 3a 	rlwinm  r9,r9,2,0,29
 18013c8:	7d 2b 4a 14 	add     r9,r11,r9
 18013cc:	81 29 00 00 	lwz     r9,0(r9)
 18013d0:	3d 60 01 81 	lis     r11,385
 18013d4:	39 6b 23 a8 	addi    r11,r11,9128
 18013d8:	54 00 10 3a 	rlwinm  r0,r0,2,0,29
 18013dc:	7c 0b 02 14 	add     r0,r11,r0
 18013e0:	7c 0b 03 78 	mr      r11,r0
 18013e4:	91 2b 00 00 	stw     r9,0(r11)
 18013e8:	80 1f 00 24 	lwz     r0,36(r31)
 18013ec:	3d 20 01 81 	lis     r9,385
 18013f0:	39 29 23 a8 	addi    r9,r9,9128
 18013f4:	54 00 10 3a 	rlwinm  r0,r0,2,0,29
 18013f8:	7c 09 02 14 	add     r0,r9,r0
 18013fc:	81 3f 00 08 	lwz     r9,8(r31)
 1801400:	7c 0b 03 78 	mr      r11,r0
 1801404:	91 2b 00 00 	stw     r9,0(r11)
 1801408:	80 1f 00 18 	lwz     r0,24(r31)
 180140c:	30 00 00 01 	addic   r0,r0,1
 1801410:	3d 20 01 81 	lis     r9,385
 1801414:	39 29 23 a8 	addi    r9,r9,9128
 1801418:	54 00 10 3a 	rlwinm  r0,r0,2,0,29
 180141c:	7c 09 02 14 	add     r0,r9,r0
 1801420:	7c 09 03 78 	mr      r9,r0
 1801424:	c1 a9 00 00 	lfs     f13,0(r9)
 1801428:	80 1f 00 24 	lwz     r0,36(r31)
 180142c:	3d 20 01 81 	lis     r9,385
 1801430:	39 29 23 a8 	addi    r9,r9,9128
 1801434:	54 00 10 3a 	rlwinm  r0,r0,2,0,29
 1801438:	7c 09 02 14 	add     r0,r9,r0
 180143c:	7c 0b 03 78 	mr      r11,r0
 1801440:	c0 0b 00 00 	lfs     f0,0(r11)
 1801444:	ff 8d 00 00 	fcmpu   cr7,f13,f0
 1801448:	7c 00 00 26 	mfcr    r0
 180144c:	54 00 f7 fe 	rlwinm  r0,r0,30,31,31
 1801450:	54 00 06 3e 	clrlwi  r0,r0,24
 1801454:	2f 80 00 00 	cmpwi   cr7,r0,0
 1801458:	41 9e 00 80 	beq-    cr7,18014d8 <sort3+0x3e8>
 180145c:	80 1f 00 18 	lwz     r0,24(r31)
 1801460:	30 00 00 01 	addic   r0,r0,1
 1801464:	3d 20 01 81 	lis     r9,385
 1801468:	39 29 23 a8 	addi    r9,r9,9128
 180146c:	54 00 10 3a 	rlwinm  r0,r0,2,0,29
 1801470:	7c 09 02 14 	add     r0,r9,r0
 1801474:	7c 09 03 78 	mr      r9,r0
 1801478:	80 09 00 00 	lwz     r0,0(r9)
 180147c:	90 1f 00 08 	stw     r0,8(r31)
 1801480:	80 1f 00 18 	lwz     r0,24(r31)
 1801484:	30 00 00 01 	addic   r0,r0,1
 1801488:	81 3f 00 24 	lwz     r9,36(r31)
 180148c:	3d 60 01 81 	lis     r11,385
 1801490:	39 6b 23 a8 	addi    r11,r11,9128
 1801494:	55 29 10 3a 	rlwinm  r9,r9,2,0,29
 1801498:	7d 2b 4a 14 	add     r9,r11,r9
 180149c:	81 29 00 00 	lwz     r9,0(r9)
 18014a0:	3d 60 01 81 	lis     r11,385
 18014a4:	39 6b 23 a8 	addi    r11,r11,9128
 18014a8:	54 00 10 3a 	rlwinm  r0,r0,2,0,29
 18014ac:	7c 0b 02 14 	add     r0,r11,r0
 18014b0:	7c 0b 03 78 	mr      r11,r0
 18014b4:	91 2b 00 00 	stw     r9,0(r11)
 18014b8:	80 1f 00 24 	lwz     r0,36(r31)
 18014bc:	3d 20 01 81 	lis     r9,385
 18014c0:	39 29 23 a8 	addi    r9,r9,9128
 18014c4:	54 00 10 3a 	rlwinm  r0,r0,2,0,29
 18014c8:	7c 09 02 14 	add     r0,r9,r0
 18014cc:	81 3f 00 08 	lwz     r9,8(r31)
 18014d0:	7c 0b 03 78 	mr      r11,r0
 18014d4:	91 2b 00 00 	stw     r9,0(r11)
 18014d8:	80 1f 00 18 	lwz     r0,24(r31)
 18014dc:	3d 20 01 81 	lis     r9,385
 18014e0:	39 29 23 a8 	addi    r9,r9,9128
 18014e4:	54 00 10 3a 	rlwinm  r0,r0,2,0,29
 18014e8:	7c 09 02 14 	add     r0,r9,r0
 18014ec:	7c 09 03 78 	mr      r9,r0
 18014f0:	c1 a9 00 00 	lfs     f13,0(r9)
 18014f4:	80 1f 00 18 	lwz     r0,24(r31)
 18014f8:	30 00 00 01 	addic   r0,r0,1
 18014fc:	3d 20 01 81 	lis     r9,385
 1801500:	39 29 23 a8 	addi    r9,r9,9128
 1801504:	54 00 10 3a 	rlwinm  r0,r0,2,0,29
 1801508:	7c 09 02 14 	add     r0,r9,r0
 180150c:	7c 0b 03 78 	mr      r11,r0
 1801510:	c0 0b 00 00 	lfs     f0,0(r11)
 1801514:	ff 8d 00 00 	fcmpu   cr7,f13,f0
 1801518:	7c 00 00 26 	mfcr    r0
 180151c:	54 00 f7 fe 	rlwinm  r0,r0,30,31,31
 1801520:	54 00 06 3e 	clrlwi  r0,r0,24
 1801524:	2f 80 00 00 	cmpwi   cr7,r0,0
 1801528:	41 9e 00 80 	beq-    cr7,18015a8 <sort3+0x4b8>
 180152c:	80 1f 00 18 	lwz     r0,24(r31)
 1801530:	3d 20 01 81 	lis     r9,385
 1801534:	39 29 23 a8 	addi    r9,r9,9128
 1801538:	54 00 10 3a 	rlwinm  r0,r0,2,0,29
 180153c:	7c 09 02 14 	add     r0,r9,r0
 1801540:	7c 09 03 78 	mr      r9,r0
 1801544:	80 09 00 00 	lwz     r0,0(r9)
 1801548:	90 1f 00 08 	stw     r0,8(r31)
 180154c:	80 1f 00 18 	lwz     r0,24(r31)
 1801550:	81 3f 00 18 	lwz     r9,24(r31)
 1801554:	39 29 00 01 	addi    r9,r9,1
 1801558:	3d 60 01 81 	lis     r11,385
 180155c:	39 6b 23 a8 	addi    r11,r11,9128
 1801560:	55 29 10 3a 	rlwinm  r9,r9,2,0,29
 1801564:	7d 2b 4a 14 	add     r9,r11,r9
 1801568:	81 29 00 00 	lwz     r9,0(r9)
 180156c:	3d 60 01 81 	lis     r11,385
 1801570:	39 6b 23 a8 	addi    r11,r11,9128
 1801574:	54 00 10 3a 	rlwinm  r0,r0,2,0,29
 1801578:	7c 0b 02 14 	add     r0,r11,r0
 180157c:	7c 0b 03 78 	mr      r11,r0
 1801580:	91 2b 00 00 	stw     r9,0(r11)
 1801584:	80 1f 00 18 	lwz     r0,24(r31)
 1801588:	30 00 00 01 	addic   r0,r0,1
 180158c:	3d 20 01 81 	lis     r9,385
 1801590:	39 29 23 a8 	addi    r9,r9,9128
 1801594:	54 00 10 3a 	rlwinm  r0,r0,2,0,29
 1801598:	7c 09 02 14 	add     r0,r9,r0
 180159c:	81 3f 00 08 	lwz     r9,8(r31)
 18015a0:	7c 0b 03 78 	mr      r11,r0
 18015a4:	91 2b 00 00 	stw     r9,0(r11)
 18015a8:	80 1f 00 18 	lwz     r0,24(r31)
 18015ac:	30 00 00 01 	addic   r0,r0,1
 18015b0:	90 1f 00 28 	stw     r0,40(r31)
 18015b4:	80 1f 00 24 	lwz     r0,36(r31)
 18015b8:	90 1f 00 20 	stw     r0,32(r31)
 18015bc:	80 1f 00 18 	lwz     r0,24(r31)
 18015c0:	30 00 00 01 	addic   r0,r0,1
 18015c4:	3d 20 01 81 	lis     r9,385
 18015c8:	39 29 23 a8 	addi    r9,r9,9128
 18015cc:	54 00 10 3a 	rlwinm  r0,r0,2,0,29
 18015d0:	7c 09 02 14 	add     r0,r9,r0
 18015d4:	7c 09 03 78 	mr      r9,r0
 18015d8:	80 09 00 00 	lwz     r0,0(r9)
 18015dc:	90 1f 00 0c 	stw     r0,12(r31)
 18015e0:	80 1f 00 28 	lwz     r0,40(r31)
 18015e4:	30 00 00 01 	addic   r0,r0,1
 18015e8:	90 1f 00 28 	stw     r0,40(r31)
 18015ec:	48 00 00 10 	b       18015fc <sort3+0x50c>
 18015f0:	80 1f 00 28 	lwz     r0,40(r31)
 18015f4:	30 00 00 01 	addic   r0,r0,1
 18015f8:	90 1f 00 28 	stw     r0,40(r31)
 18015fc:	80 1f 00 28 	lwz     r0,40(r31)
 1801600:	3d 20 01 81 	lis     r9,385
 1801604:	39 29 23 a8 	addi    r9,r9,9128
 1801608:	54 00 10 3a 	rlwinm  r0,r0,2,0,29
 180160c:	7c 09 02 14 	add     r0,r9,r0
 1801610:	7c 0b 03 78 	mr      r11,r0
 1801614:	c1 ab 00 00 	lfs     f13,0(r11)
 1801618:	c0 1f 00 0c 	lfs     f0,12(r31)
 180161c:	ff 8d 00 00 	fcmpu   cr7,f13,f0
 1801620:	7c 00 00 26 	mfcr    r0
 1801624:	54 00 ef fe 	rlwinm  r0,r0,29,31,31
 1801628:	54 00 06 3e 	clrlwi  r0,r0,24
 180162c:	2f 80 00 00 	cmpwi   cr7,r0,0
 1801630:	40 9e ff c0 	bne+    cr7,18015f0 <sort3+0x500>
 1801634:	80 1f 00 20 	lwz     r0,32(r31)
 1801638:	30 00 ff ff 	addic   r0,r0,-1
 180163c:	90 1f 00 20 	stw     r0,32(r31)
 1801640:	48 00 00 10 	b       1801650 <sort3+0x560>
 1801644:	80 1f 00 20 	lwz     r0,32(r31)
 1801648:	30 00 ff ff 	addic   r0,r0,-1
 180164c:	90 1f 00 20 	stw     r0,32(r31)
 1801650:	80 1f 00 20 	lwz     r0,32(r31)
 1801654:	3d 20 01 81 	lis     r9,385
 1801658:	39 29 23 a8 	addi    r9,r9,9128
 180165c:	54 00 10 3a 	rlwinm  r0,r0,2,0,29
 1801660:	7c 09 02 14 	add     r0,r9,r0
 1801664:	7c 09 03 78 	mr      r9,r0
 1801668:	c1 a9 00 00 	lfs     f13,0(r9)
 180166c:	c0 1f 00 0c 	lfs     f0,12(r31)
 1801670:	ff 8d 00 00 	fcmpu   cr7,f13,f0
 1801674:	7c 00 00 26 	mfcr    r0
 1801678:	54 00 f7 fe 	rlwinm  r0,r0,30,31,31
 180167c:	54 00 06 3e 	clrlwi  r0,r0,24
 1801680:	2f 80 00 00 	cmpwi   cr7,r0,0
 1801684:	40 9e ff c0 	bne+    cr7,1801644 <sort3+0x554>
 1801688:	81 3f 00 20 	lwz     r9,32(r31)
 180168c:	80 1f 00 28 	lwz     r0,40(r31)
 1801690:	7f 89 00 40 	cmplw   cr7,r9,r0
 1801694:	40 9c 00 90 	bge-    cr7,1801724 <sort3+0x634>
 1801698:	80 1f 00 18 	lwz     r0,24(r31)
 180169c:	30 00 00 01 	addic   r0,r0,1
 18016a0:	81 3f 00 20 	lwz     r9,32(r31)
 18016a4:	3d 60 01 81 	lis     r11,385
 18016a8:	39 6b 23 a8 	addi    r11,r11,9128
 18016ac:	55 29 10 3a 	rlwinm  r9,r9,2,0,29
 18016b0:	7d 2b 4a 14 	add     r9,r11,r9
 18016b4:	81 29 00 00 	lwz     r9,0(r9)
 18016b8:	3d 60 01 81 	lis     r11,385
 18016bc:	39 6b 23 a8 	addi    r11,r11,9128
 18016c0:	54 00 10 3a 	rlwinm  r0,r0,2,0,29
 18016c4:	7c 0b 02 14 	add     r0,r11,r0
 18016c8:	7c 0b 03 78 	mr      r11,r0
 18016cc:	91 2b 00 00 	stw     r9,0(r11)
 18016d0:	80 1f 00 20 	lwz     r0,32(r31)
 18016d4:	3d 20 01 81 	lis     r9,385
 18016d8:	39 29 23 a8 	addi    r9,r9,9128
 18016dc:	54 00 10 3a 	rlwinm  r0,r0,2,0,29
 18016e0:	7c 09 02 14 	add     r0,r9,r0
 18016e4:	81 3f 00 0c 	lwz     r9,12(r31)
 18016e8:	7c 0b 03 78 	mr      r11,r0
 18016ec:	91 2b 00 00 	stw     r9,0(r11)
 18016f0:	80 1f 00 14 	lwz     r0,20(r31)
 18016f4:	30 00 00 02 	addic   r0,r0,2
 18016f8:	90 1f 00 14 	stw     r0,20(r31)
 18016fc:	81 3f 00 24 	lwz     r9,36(r31)
 1801700:	80 1f 00 28 	lwz     r0,40(r31)
 1801704:	7c 00 48 50 	subf    r0,r0,r9
 1801708:	31 20 00 01 	addic   r9,r0,1
 180170c:	81 7f 00 20 	lwz     r11,32(r31)
 1801710:	80 1f 00 18 	lwz     r0,24(r31)
 1801714:	7c 00 58 50 	subf    r0,r0,r11
 1801718:	7f 89 00 40 	cmplw   cr7,r9,r0
 180171c:	40 9c 00 80 	bge-    cr7,180179c <sort3+0x6ac>
 1801720:	48 00 00 d0 	b       18017f0 <sort3+0x700>
 1801724:	80 1f 00 28 	lwz     r0,40(r31)
 1801728:	3d 20 01 81 	lis     r9,385
 180172c:	39 29 23 a8 	addi    r9,r9,9128
 1801730:	54 00 10 3a 	rlwinm  r0,r0,2,0,29
 1801734:	7c 09 02 14 	add     r0,r9,r0
 1801738:	7c 09 03 78 	mr      r9,r0
 180173c:	80 09 00 00 	lwz     r0,0(r9)
 1801740:	90 1f 00 08 	stw     r0,8(r31)
 1801744:	80 1f 00 28 	lwz     r0,40(r31)
 1801748:	81 3f 00 20 	lwz     r9,32(r31)
 180174c:	3d 60 01 81 	lis     r11,385
 1801750:	39 6b 23 a8 	addi    r11,r11,9128
 1801754:	55 29 10 3a 	rlwinm  r9,r9,2,0,29
 1801758:	7d 2b 4a 14 	add     r9,r11,r9
 180175c:	81 29 00 00 	lwz     r9,0(r9)
 1801760:	3d 60 01 81 	lis     r11,385
 1801764:	39 6b 23 a8 	addi    r11,r11,9128
 1801768:	54 00 10 3a 	rlwinm  r0,r0,2,0,29
 180176c:	7c 0b 02 14 	add     r0,r11,r0
 1801770:	7c 0b 03 78 	mr      r11,r0
 1801774:	91 2b 00 00 	stw     r9,0(r11)
 1801778:	80 1f 00 20 	lwz     r0,32(r31)
 180177c:	3d 20 01 81 	lis     r9,385
 1801780:	39 29 23 a8 	addi    r9,r9,9128
 1801784:	54 00 10 3a 	rlwinm  r0,r0,2,0,29
 1801788:	7c 09 02 14 	add     r0,r9,r0
 180178c:	81 3f 00 08 	lwz     r9,8(r31)
 1801790:	7c 0b 03 78 	mr      r11,r0
 1801794:	91 2b 00 00 	stw     r9,0(r11)
 1801798:	4b ff fe 48 	b       18015e0 <sort3+0x4f0>
 180179c:	80 1f 00 14 	lwz     r0,20(r31)
 18017a0:	81 3f 00 24 	lwz     r9,36(r31)
 18017a4:	3d 60 01 81 	lis     r11,385
 18017a8:	39 6b 24 6c 	addi    r11,r11,9324
 18017ac:	54 00 10 3a 	rlwinm  r0,r0,2,0,29
 18017b0:	7c 0b 02 14 	add     r0,r11,r0
 18017b4:	7c 0b 03 78 	mr      r11,r0
 18017b8:	91 2b 00 00 	stw     r9,0(r11)
 18017bc:	80 1f 00 14 	lwz     r0,20(r31)
 18017c0:	30 00 ff ff 	addic   r0,r0,-1
 18017c4:	81 3f 00 28 	lwz     r9,40(r31)
 18017c8:	3d 60 01 81 	lis     r11,385
 18017cc:	39 6b 24 6c 	addi    r11,r11,9324
 18017d0:	54 00 10 3a 	rlwinm  r0,r0,2,0,29
 18017d4:	7c 0b 02 14 	add     r0,r11,r0
 18017d8:	7c 0b 03 78 	mr      r11,r0
 18017dc:	91 2b 00 00 	stw     r9,0(r11)
 18017e0:	80 1f 00 20 	lwz     r0,32(r31)
 18017e4:	30 00 ff ff 	addic   r0,r0,-1
 18017e8:	90 1f 00 24 	stw     r0,36(r31)
 18017ec:	4b ff f9 34 	b       1801120 <sort3+0x30>
 18017f0:	80 1f 00 14 	lwz     r0,20(r31)
 18017f4:	81 3f 00 20 	lwz     r9,32(r31)
 18017f8:	39 29 ff ff 	addi    r9,r9,-1
 18017fc:	3d 60 01 81 	lis     r11,385
 1801800:	39 6b 24 6c 	addi    r11,r11,9324
 1801804:	54 00 10 3a 	rlwinm  r0,r0,2,0,29
 1801808:	7c 0b 02 14 	add     r0,r11,r0
 180180c:	7c 0b 03 78 	mr      r11,r0
 1801810:	91 2b 00 00 	stw     r9,0(r11)
 1801814:	80 1f 00 14 	lwz     r0,20(r31)
 1801818:	30 00 ff ff 	addic   r0,r0,-1
 180181c:	81 3f 00 18 	lwz     r9,24(r31)
 1801820:	3d 60 01 81 	lis     r11,385
 1801824:	39 6b 24 6c 	addi    r11,r11,9324
 1801828:	54 00 10 3a 	rlwinm  r0,r0,2,0,29
 180182c:	7c 0b 02 14 	add     r0,r11,r0
 1801830:	7c 0b 03 78 	mr      r11,r0
 1801834:	91 2b 00 00 	stw     r9,0(r11)
 1801838:	80 1f 00 28 	lwz     r0,40(r31)
 180183c:	90 1f 00 18 	stw     r0,24(r31)
 1801840:	4b ff f8 e0 	b       1801120 <sort3+0x30>
 1801844:	60 00 00 00 	nop
 1801848:	39 7f 00 48 	addi    r11,r31,72
 180184c:	83 eb ff fc 	lwz     r31,-4(r11)
 1801850:	7d 61 5b 78 	mr      r1,r11
 1801854:	4e 80 00 20 	blr

01801858 <sort4>:
 1801858:	94 21 ff b8 	stwu    r1,-72(r1)
 180185c:	93 e1 00 44 	stw     r31,68(r1)
 1801860:	7c 3f 0b 78 	mr      r31,r1
 1801864:	90 7f 00 38 	stw     r3,56(r31)
 1801868:	80 1f 00 38 	lwz     r0,56(r31)
 180186c:	90 1f 00 24 	stw     r0,36(r31)
 1801870:	38 00 00 01 	li      r0,1
 1801874:	90 1f 00 18 	stw     r0,24(r31)
 1801878:	38 00 00 00 	li      r0,0
 180187c:	90 1f 00 14 	stw     r0,20(r31)
 1801880:	38 00 00 00 	li      r0,0
 1801884:	90 1f 00 10 	stw     r0,16(r31)
 1801888:	81 3f 00 24 	lwz     r9,36(r31)
 180188c:	80 1f 00 18 	lwz     r0,24(r31)
 1801890:	7c 00 48 50 	subf    r0,r0,r9
 1801894:	2b 80 00 06 	cmplwi  cr7,r0,6
 1801898:	41 9d 01 84 	bgt-    cr7,1801a1c <sort4+0x1c4>
 180189c:	80 1f 00 18 	lwz     r0,24(r31)
 18018a0:	30 00 00 01 	addic   r0,r0,1
 18018a4:	90 1f 00 20 	stw     r0,32(r31)
 18018a8:	48 00 00 fc 	b       18019a4 <sort4+0x14c>
 18018ac:	80 1f 00 20 	lwz     r0,32(r31)
 18018b0:	3d 20 01 81 	lis     r9,385
 18018b4:	39 29 23 f8 	addi    r9,r9,9208
 18018b8:	54 00 10 3a 	rlwinm  r0,r0,2,0,29
 18018bc:	7c 09 02 14 	add     r0,r9,r0
 18018c0:	7c 09 03 78 	mr      r9,r0
 18018c4:	80 09 00 00 	lwz     r0,0(r9)
 18018c8:	90 1f 00 0c 	stw     r0,12(r31)
 18018cc:	80 1f 00 20 	lwz     r0,32(r31)
 18018d0:	30 00 ff ff 	addic   r0,r0,-1
 18018d4:	90 1f 00 28 	stw     r0,40(r31)
 18018d8:	48 00 00 84 	b       180195c <sort4+0x104>
 18018dc:	80 1f 00 28 	lwz     r0,40(r31)
 18018e0:	3d 20 01 81 	lis     r9,385
 18018e4:	39 29 23 f8 	addi    r9,r9,9208
 18018e8:	54 00 10 3a 	rlwinm  r0,r0,2,0,29
 18018ec:	7c 09 02 14 	add     r0,r9,r0
 18018f0:	7c 0b 03 78 	mr      r11,r0
 18018f4:	c1 ab 00 00 	lfs     f13,0(r11)
 18018f8:	c0 1f 00 0c 	lfs     f0,12(r31)
 18018fc:	ff 8d 00 00 	fcmpu   cr7,f13,f0
 1801900:	4f dc f3 82 	cror    4*cr7+eq,4*cr7+lt,4*cr7+eq
 1801904:	7c 00 00 26 	mfcr    r0
 1801908:	54 00 ff fe 	rlwinm  r0,r0,31,31,31
 180190c:	54 00 06 3e 	clrlwi  r0,r0,24
 1801910:	2f 80 00 00 	cmpwi   cr7,r0,0
 1801914:	40 9e 00 5c 	bne-    cr7,1801970 <sort4+0x118>
 1801918:	80 1f 00 28 	lwz     r0,40(r31)
 180191c:	30 00 00 01 	addic   r0,r0,1
 1801920:	81 3f 00 28 	lwz     r9,40(r31)
 1801924:	3d 60 01 81 	lis     r11,385
 1801928:	39 6b 23 f8 	addi    r11,r11,9208
 180192c:	55 29 10 3a 	rlwinm  r9,r9,2,0,29
 1801930:	7d 2b 4a 14 	add     r9,r11,r9
 1801934:	81 29 00 00 	lwz     r9,0(r9)
 1801938:	3d 60 01 81 	lis     r11,385
 180193c:	39 6b 23 f8 	addi    r11,r11,9208
 1801940:	54 00 10 3a 	rlwinm  r0,r0,2,0,29
 1801944:	7c 0b 02 14 	add     r0,r11,r0
 1801948:	7c 0b 03 78 	mr      r11,r0
 180194c:	91 2b 00 00 	stw     r9,0(r11)
 1801950:	80 1f 00 28 	lwz     r0,40(r31)
 1801954:	30 00 ff ff 	addic   r0,r0,-1
 1801958:	90 1f 00 28 	stw     r0,40(r31)
 180195c:	81 3f 00 28 	lwz     r9,40(r31)
 1801960:	80 1f 00 18 	lwz     r0,24(r31)
 1801964:	7f 89 00 40 	cmplw   cr7,r9,r0
 1801968:	40 9c ff 74 	bge+    cr7,18018dc <sort4+0x84>
 180196c:	48 00 00 08 	b       1801974 <sort4+0x11c>
 1801970:	60 00 00 00 	nop
 1801974:	80 1f 00 28 	lwz     r0,40(r31)
 1801978:	30 00 00 01 	addic   r0,r0,1
 180197c:	3d 20 01 81 	lis     r9,385
 1801980:	39 29 23 f8 	addi    r9,r9,9208
 1801984:	54 00 10 3a 	rlwinm  r0,r0,2,0,29
 1801988:	7c 09 02 14 	add     r0,r9,r0
 180198c:	81 3f 00 0c 	lwz     r9,12(r31)
 1801990:	7c 0b 03 78 	mr      r11,r0
 1801994:	91 2b 00 00 	stw     r9,0(r11)
 1801998:	80 1f 00 20 	lwz     r0,32(r31)
 180199c:	30 00 00 01 	addic   r0,r0,1
 18019a0:	90 1f 00 20 	stw     r0,32(r31)
 18019a4:	81 3f 00 20 	lwz     r9,32(r31)
 18019a8:	80 1f 00 24 	lwz     r0,36(r31)
 18019ac:	7f 89 00 40 	cmplw   cr7,r9,r0
 18019b0:	40 9d fe fc 	ble+    cr7,18018ac <sort4+0x54>
 18019b4:	80 1f 00 14 	lwz     r0,20(r31)
 18019b8:	2f 80 00 00 	cmpwi   cr7,r0,0
 18019bc:	41 9e 05 f0 	beq-    cr7,1801fac <sort4+0x754>
 18019c0:	80 1f 00 14 	lwz     r0,20(r31)
 18019c4:	3d 20 01 81 	lis     r9,385
 18019c8:	39 29 24 6c 	addi    r9,r9,9324
 18019cc:	54 00 10 3a 	rlwinm  r0,r0,2,0,29
 18019d0:	7c 09 02 14 	add     r0,r9,r0
 18019d4:	7c 09 03 78 	mr      r9,r0
 18019d8:	80 09 00 00 	lwz     r0,0(r9)
 18019dc:	90 1f 00 24 	stw     r0,36(r31)
 18019e0:	80 1f 00 14 	lwz     r0,20(r31)
 18019e4:	30 00 ff ff 	addic   r0,r0,-1
 18019e8:	90 1f 00 14 	stw     r0,20(r31)
 18019ec:	80 1f 00 14 	lwz     r0,20(r31)
 18019f0:	3d 20 01 81 	lis     r9,385
 18019f4:	39 29 24 6c 	addi    r9,r9,9324
 18019f8:	54 00 10 3a 	rlwinm  r0,r0,2,0,29
 18019fc:	7c 09 02 14 	add     r0,r9,r0
 1801a00:	7c 0b 03 78 	mr      r11,r0
 1801a04:	80 0b 00 00 	lwz     r0,0(r11)
 1801a08:	90 1f 00 18 	stw     r0,24(r31)
 1801a0c:	80 1f 00 14 	lwz     r0,20(r31)
 1801a10:	30 00 ff ff 	addic   r0,r0,-1
 1801a14:	90 1f 00 14 	stw     r0,20(r31)
 1801a18:	4b ff fe 70 	b       1801888 <sort4+0x30>
 1801a1c:	81 3f 00 18 	lwz     r9,24(r31)
 1801a20:	80 1f 00 24 	lwz     r0,36(r31)
 1801a24:	7c 09 02 14 	add     r0,r9,r0
 1801a28:	54 00 f8 7e 	rlwinm  r0,r0,31,1,31
 1801a2c:	90 1f 00 1c 	stw     r0,28(r31)
 1801a30:	80 1f 00 1c 	lwz     r0,28(r31)
 1801a34:	3d 20 01 81 	lis     r9,385
 1801a38:	39 29 23 f8 	addi    r9,r9,9208
 1801a3c:	54 00 10 3a 	rlwinm  r0,r0,2,0,29
 1801a40:	7c 09 02 14 	add     r0,r9,r0
 1801a44:	7c 09 03 78 	mr      r9,r0
 1801a48:	80 09 00 00 	lwz     r0,0(r9)
 1801a4c:	90 1f 00 08 	stw     r0,8(r31)
 1801a50:	80 1f 00 1c 	lwz     r0,28(r31)
 1801a54:	81 3f 00 18 	lwz     r9,24(r31)
 1801a58:	39 29 00 01 	addi    r9,r9,1
 1801a5c:	3d 60 01 81 	lis     r11,385
 1801a60:	39 6b 23 f8 	addi    r11,r11,9208
 1801a64:	55 29 10 3a 	rlwinm  r9,r9,2,0,29
 1801a68:	7d 2b 4a 14 	add     r9,r11,r9
 1801a6c:	81 29 00 00 	lwz     r9,0(r9)
 1801a70:	3d 60 01 81 	lis     r11,385
 1801a74:	39 6b 23 f8 	addi    r11,r11,9208
 1801a78:	54 00 10 3a 	rlwinm  r0,r0,2,0,29
 1801a7c:	7c 0b 02 14 	add     r0,r11,r0
 1801a80:	7c 0b 03 78 	mr      r11,r0
 1801a84:	91 2b 00 00 	stw     r9,0(r11)
 1801a88:	80 1f 00 18 	lwz     r0,24(r31)
 1801a8c:	30 00 00 01 	addic   r0,r0,1
 1801a90:	3d 20 01 81 	lis     r9,385
 1801a94:	39 29 23 f8 	addi    r9,r9,9208
 1801a98:	54 00 10 3a 	rlwinm  r0,r0,2,0,29
 1801a9c:	7c 09 02 14 	add     r0,r9,r0
 1801aa0:	81 3f 00 08 	lwz     r9,8(r31)
 1801aa4:	7c 0b 03 78 	mr      r11,r0
 1801aa8:	91 2b 00 00 	stw     r9,0(r11)
 1801aac:	80 1f 00 18 	lwz     r0,24(r31)
 1801ab0:	3d 20 01 81 	lis     r9,385
 1801ab4:	39 29 23 f8 	addi    r9,r9,9208
 1801ab8:	54 00 10 3a 	rlwinm  r0,r0,2,0,29
 1801abc:	7c 09 02 14 	add     r0,r9,r0
 1801ac0:	7c 09 03 78 	mr      r9,r0
 1801ac4:	c1 a9 00 00 	lfs     f13,0(r9)
 1801ac8:	80 1f 00 24 	lwz     r0,36(r31)
 1801acc:	3d 20 01 81 	lis     r9,385
 1801ad0:	39 29 23 f8 	addi    r9,r9,9208
 1801ad4:	54 00 10 3a 	rlwinm  r0,r0,2,0,29
 1801ad8:	7c 09 02 14 	add     r0,r9,r0
 1801adc:	7c 0b 03 78 	mr      r11,r0
 1801ae0:	c0 0b 00 00 	lfs     f0,0(r11)
 1801ae4:	ff 8d 00 00 	fcmpu   cr7,f13,f0
 1801ae8:	7c 00 00 26 	mfcr    r0
 1801aec:	54 00 f7 fe 	rlwinm  r0,r0,30,31,31
 1801af0:	54 00 06 3e 	clrlwi  r0,r0,24
 1801af4:	2f 80 00 00 	cmpwi   cr7,r0,0
 1801af8:	41 9e 00 78 	beq-    cr7,1801b70 <sort4+0x318>
 1801afc:	80 1f 00 18 	lwz     r0,24(r31)
 1801b00:	3d 20 01 81 	lis     r9,385
 1801b04:	39 29 23 f8 	addi    r9,r9,9208
 1801b08:	54 00 10 3a 	rlwinm  r0,r0,2,0,29
 1801b0c:	7c 09 02 14 	add     r0,r9,r0
 1801b10:	7c 09 03 78 	mr      r9,r0
 1801b14:	80 09 00 00 	lwz     r0,0(r9)
 1801b18:	90 1f 00 08 	stw     r0,8(r31)
 1801b1c:	80 1f 00 18 	lwz     r0,24(r31)
 1801b20:	81 3f 00 24 	lwz     r9,36(r31)
 1801b24:	3d 60 01 81 	lis     r11,385
 1801b28:	39 6b 23 f8 	addi    r11,r11,9208
 1801b2c:	55 29 10 3a 	rlwinm  r9,r9,2,0,29
 1801b30:	7d 2b 4a 14 	add     r9,r11,r9
 1801b34:	81 29 00 00 	lwz     r9,0(r9)
 1801b38:	3d 60 01 81 	lis     r11,385
 1801b3c:	39 6b 23 f8 	addi    r11,r11,9208
 1801b40:	54 00 10 3a 	rlwinm  r0,r0,2,0,29
 1801b44:	7c 0b 02 14 	add     r0,r11,r0
 1801b48:	7c 0b 03 78 	mr      r11,r0
 1801b4c:	91 2b 00 00 	stw     r9,0(r11)
 1801b50:	80 1f 00 24 	lwz     r0,36(r31)
 1801b54:	3d 20 01 81 	lis     r9,385
 1801b58:	39 29 23 f8 	addi    r9,r9,9208
 1801b5c:	54 00 10 3a 	rlwinm  r0,r0,2,0,29
 1801b60:	7c 09 02 14 	add     r0,r9,r0
 1801b64:	81 3f 00 08 	lwz     r9,8(r31)
 1801b68:	7c 0b 03 78 	mr      r11,r0
 1801b6c:	91 2b 00 00 	stw     r9,0(r11)
 1801b70:	80 1f 00 18 	lwz     r0,24(r31)
 1801b74:	30 00 00 01 	addic   r0,r0,1
 1801b78:	3d 20 01 81 	lis     r9,385
 1801b7c:	39 29 23 f8 	addi    r9,r9,9208
 1801b80:	54 00 10 3a 	rlwinm  r0,r0,2,0,29
 1801b84:	7c 09 02 14 	add     r0,r9,r0
 1801b88:	7c 09 03 78 	mr      r9,r0
 1801b8c:	c1 a9 00 00 	lfs     f13,0(r9)
 1801b90:	80 1f 00 24 	lwz     r0,36(r31)
 1801b94:	3d 20 01 81 	lis     r9,385
 1801b98:	39 29 23 f8 	addi    r9,r9,9208
 1801b9c:	54 00 10 3a 	rlwinm  r0,r0,2,0,29
 1801ba0:	7c 09 02 14 	add     r0,r9,r0
 1801ba4:	7c 0b 03 78 	mr      r11,r0
 1801ba8:	c0 0b 00 00 	lfs     f0,0(r11)
 1801bac:	ff 8d 00 00 	fcmpu   cr7,f13,f0
 1801bb0:	7c 00 00 26 	mfcr    r0
 1801bb4:	54 00 f7 fe 	rlwinm  r0,r0,30,31,31
 1801bb8:	54 00 06 3e 	clrlwi  r0,r0,24
 1801bbc:	2f 80 00 00 	cmpwi   cr7,r0,0
 1801bc0:	41 9e 00 80 	beq-    cr7,1801c40 <sort4+0x3e8>
 1801bc4:	80 1f 00 18 	lwz     r0,24(r31)
 1801bc8:	30 00 00 01 	addic   r0,r0,1
 1801bcc:	3d 20 01 81 	lis     r9,385
 1801bd0:	39 29 23 f8 	addi    r9,r9,9208
 1801bd4:	54 00 10 3a 	rlwinm  r0,r0,2,0,29
 1801bd8:	7c 09 02 14 	add     r0,r9,r0
 1801bdc:	7c 09 03 78 	mr      r9,r0
 1801be0:	80 09 00 00 	lwz     r0,0(r9)
 1801be4:	90 1f 00 08 	stw     r0,8(r31)
 1801be8:	80 1f 00 18 	lwz     r0,24(r31)
 1801bec:	30 00 00 01 	addic   r0,r0,1
 1801bf0:	81 3f 00 24 	lwz     r9,36(r31)
 1801bf4:	3d 60 01 81 	lis     r11,385
 1801bf8:	39 6b 23 f8 	addi    r11,r11,9208
 1801bfc:	55 29 10 3a 	rlwinm  r9,r9,2,0,29
 1801c00:	7d 2b 4a 14 	add     r9,r11,r9
 1801c04:	81 29 00 00 	lwz     r9,0(r9)
 1801c08:	3d 60 01 81 	lis     r11,385
 1801c0c:	39 6b 23 f8 	addi    r11,r11,9208
 1801c10:	54 00 10 3a 	rlwinm  r0,r0,2,0,29
 1801c14:	7c 0b 02 14 	add     r0,r11,r0
 1801c18:	7c 0b 03 78 	mr      r11,r0
 1801c1c:	91 2b 00 00 	stw     r9,0(r11)
 1801c20:	80 1f 00 24 	lwz     r0,36(r31)
 1801c24:	3d 20 01 81 	lis     r9,385
 1801c28:	39 29 23 f8 	addi    r9,r9,9208
 1801c2c:	54 00 10 3a 	rlwinm  r0,r0,2,0,29
 1801c30:	7c 09 02 14 	add     r0,r9,r0
 1801c34:	81 3f 00 08 	lwz     r9,8(r31)
 1801c38:	7c 0b 03 78 	mr      r11,r0
 1801c3c:	91 2b 00 00 	stw     r9,0(r11)
 1801c40:	80 1f 00 18 	lwz     r0,24(r31)
 1801c44:	3d 20 01 81 	lis     r9,385
 1801c48:	39 29 23 f8 	addi    r9,r9,9208
 1801c4c:	54 00 10 3a 	rlwinm  r0,r0,2,0,29
 1801c50:	7c 09 02 14 	add     r0,r9,r0
 1801c54:	7c 09 03 78 	mr      r9,r0
 1801c58:	c1 a9 00 00 	lfs     f13,0(r9)
 1801c5c:	80 1f 00 18 	lwz     r0,24(r31)
 1801c60:	30 00 00 01 	addic   r0,r0,1
 1801c64:	3d 20 01 81 	lis     r9,385
 1801c68:	39 29 23 f8 	addi    r9,r9,9208
 1801c6c:	54 00 10 3a 	rlwinm  r0,r0,2,0,29
 1801c70:	7c 09 02 14 	add     r0,r9,r0
 1801c74:	7c 0b 03 78 	mr      r11,r0
 1801c78:	c0 0b 00 00 	lfs     f0,0(r11)
 1801c7c:	ff 8d 00 00 	fcmpu   cr7,f13,f0
 1801c80:	7c 00 00 26 	mfcr    r0
 1801c84:	54 00 f7 fe 	rlwinm  r0,r0,30,31,31
 1801c88:	54 00 06 3e 	clrlwi  r0,r0,24
 1801c8c:	2f 80 00 00 	cmpwi   cr7,r0,0
 1801c90:	41 9e 00 80 	beq-    cr7,1801d10 <sort4+0x4b8>
 1801c94:	80 1f 00 18 	lwz     r0,24(r31)
 1801c98:	3d 20 01 81 	lis     r9,385
 1801c9c:	39 29 23 f8 	addi    r9,r9,9208
 1801ca0:	54 00 10 3a 	rlwinm  r0,r0,2,0,29
 1801ca4:	7c 09 02 14 	add     r0,r9,r0
 1801ca8:	7c 09 03 78 	mr      r9,r0
 1801cac:	80 09 00 00 	lwz     r0,0(r9)
 1801cb0:	90 1f 00 08 	stw     r0,8(r31)
 1801cb4:	80 1f 00 18 	lwz     r0,24(r31)
 1801cb8:	81 3f 00 18 	lwz     r9,24(r31)
 1801cbc:	39 29 00 01 	addi    r9,r9,1
 1801cc0:	3d 60 01 81 	lis     r11,385
 1801cc4:	39 6b 23 f8 	addi    r11,r11,9208
 1801cc8:	55 29 10 3a 	rlwinm  r9,r9,2,0,29
 1801ccc:	7d 2b 4a 14 	add     r9,r11,r9
 1801cd0:	81 29 00 00 	lwz     r9,0(r9)
 1801cd4:	3d 60 01 81 	lis     r11,385
 1801cd8:	39 6b 23 f8 	addi    r11,r11,9208
 1801cdc:	54 00 10 3a 	rlwinm  r0,r0,2,0,29
 1801ce0:	7c 0b 02 14 	add     r0,r11,r0
 1801ce4:	7c 0b 03 78 	mr      r11,r0
 1801ce8:	91 2b 00 00 	stw     r9,0(r11)
 1801cec:	80 1f 00 18 	lwz     r0,24(r31)
 1801cf0:	30 00 00 01 	addic   r0,r0,1
 1801cf4:	3d 20 01 81 	lis     r9,385
 1801cf8:	39 29 23 f8 	addi    r9,r9,9208
 1801cfc:	54 00 10 3a 	rlwinm  r0,r0,2,0,29
 1801d00:	7c 09 02 14 	add     r0,r9,r0
 1801d04:	81 3f 00 08 	lwz     r9,8(r31)
 1801d08:	7c 0b 03 78 	mr      r11,r0
 1801d0c:	91 2b 00 00 	stw     r9,0(r11)
 1801d10:	80 1f 00 18 	lwz     r0,24(r31)
 1801d14:	30 00 00 01 	addic   r0,r0,1
 1801d18:	90 1f 00 28 	stw     r0,40(r31)
 1801d1c:	80 1f 00 24 	lwz     r0,36(r31)
 1801d20:	90 1f 00 20 	stw     r0,32(r31)
 1801d24:	80 1f 00 18 	lwz     r0,24(r31)
 1801d28:	30 00 00 01 	addic   r0,r0,1
 1801d2c:	3d 20 01 81 	lis     r9,385
 1801d30:	39 29 23 f8 	addi    r9,r9,9208
 1801d34:	54 00 10 3a 	rlwinm  r0,r0,2,0,29
 1801d38:	7c 09 02 14 	add     r0,r9,r0
 1801d3c:	7c 09 03 78 	mr      r9,r0
 1801d40:	80 09 00 00 	lwz     r0,0(r9)
 1801d44:	90 1f 00 0c 	stw     r0,12(r31)
 1801d48:	80 1f 00 28 	lwz     r0,40(r31)
 1801d4c:	30 00 00 01 	addic   r0,r0,1
 1801d50:	90 1f 00 28 	stw     r0,40(r31)
 1801d54:	48 00 00 10 	b       1801d64 <sort4+0x50c>
 1801d58:	80 1f 00 28 	lwz     r0,40(r31)
 1801d5c:	30 00 00 01 	addic   r0,r0,1
 1801d60:	90 1f 00 28 	stw     r0,40(r31)
 1801d64:	80 1f 00 28 	lwz     r0,40(r31)
 1801d68:	3d 20 01 81 	lis     r9,385
 1801d6c:	39 29 23 f8 	addi    r9,r9,9208
 1801d70:	54 00 10 3a 	rlwinm  r0,r0,2,0,29
 1801d74:	7c 09 02 14 	add     r0,r9,r0
 1801d78:	7c 0b 03 78 	mr      r11,r0
 1801d7c:	c1 ab 00 00 	lfs     f13,0(r11)
 1801d80:	c0 1f 00 0c 	lfs     f0,12(r31)
 1801d84:	ff 8d 00 00 	fcmpu   cr7,f13,f0
 1801d88:	7c 00 00 26 	mfcr    r0
 1801d8c:	54 00 ef fe 	rlwinm  r0,r0,29,31,31
 1801d90:	54 00 06 3e 	clrlwi  r0,r0,24
 1801d94:	2f 80 00 00 	cmpwi   cr7,r0,0
 1801d98:	40 9e ff c0 	bne+    cr7,1801d58 <sort4+0x500>
 1801d9c:	80 1f 00 20 	lwz     r0,32(r31)
 1801da0:	30 00 ff ff 	addic   r0,r0,-1
 1801da4:	90 1f 00 20 	stw     r0,32(r31)
 1801da8:	48 00 00 10 	b       1801db8 <sort4+0x560>
 1801dac:	80 1f 00 20 	lwz     r0,32(r31)
 1801db0:	30 00 ff ff 	addic   r0,r0,-1
 1801db4:	90 1f 00 20 	stw     r0,32(r31)
 1801db8:	80 1f 00 20 	lwz     r0,32(r31)
 1801dbc:	3d 20 01 81 	lis     r9,385
 1801dc0:	39 29 23 f8 	addi    r9,r9,9208
 1801dc4:	54 00 10 3a 	rlwinm  r0,r0,2,0,29
 1801dc8:	7c 09 02 14 	add     r0,r9,r0
 1801dcc:	7c 09 03 78 	mr      r9,r0
 1801dd0:	c1 a9 00 00 	lfs     f13,0(r9)
 1801dd4:	c0 1f 00 0c 	lfs     f0,12(r31)
 1801dd8:	ff 8d 00 00 	fcmpu   cr7,f13,f0
 1801ddc:	7c 00 00 26 	mfcr    r0
 1801de0:	54 00 f7 fe 	rlwinm  r0,r0,30,31,31
 1801de4:	54 00 06 3e 	clrlwi  r0,r0,24
 1801de8:	2f 80 00 00 	cmpwi   cr7,r0,0
 1801dec:	40 9e ff c0 	bne+    cr7,1801dac <sort4+0x554>
 1801df0:	81 3f 00 20 	lwz     r9,32(r31)
 1801df4:	80 1f 00 28 	lwz     r0,40(r31)
 1801df8:	7f 89 00 40 	cmplw   cr7,r9,r0
 1801dfc:	40 9c 00 90 	bge-    cr7,1801e8c <sort4+0x634>
 1801e00:	80 1f 00 18 	lwz     r0,24(r31)
 1801e04:	30 00 00 01 	addic   r0,r0,1
 1801e08:	81 3f 00 20 	lwz     r9,32(r31)
 1801e0c:	3d 60 01 81 	lis     r11,385
 1801e10:	39 6b 23 f8 	addi    r11,r11,9208
 1801e14:	55 29 10 3a 	rlwinm  r9,r9,2,0,29
 1801e18:	7d 2b 4a 14 	add     r9,r11,r9
 1801e1c:	81 29 00 00 	lwz     r9,0(r9)
 1801e20:	3d 60 01 81 	lis     r11,385
 1801e24:	39 6b 23 f8 	addi    r11,r11,9208
 1801e28:	54 00 10 3a 	rlwinm  r0,r0,2,0,29
 1801e2c:	7c 0b 02 14 	add     r0,r11,r0
 1801e30:	7c 0b 03 78 	mr      r11,r0
 1801e34:	91 2b 00 00 	stw     r9,0(r11)
 1801e38:	80 1f 00 20 	lwz     r0,32(r31)
 1801e3c:	3d 20 01 81 	lis     r9,385
 1801e40:	39 29 23 f8 	addi    r9,r9,9208
 1801e44:	54 00 10 3a 	rlwinm  r0,r0,2,0,29
 1801e48:	7c 09 02 14 	add     r0,r9,r0
 1801e4c:	81 3f 00 0c 	lwz     r9,12(r31)
 1801e50:	7c 0b 03 78 	mr      r11,r0
 1801e54:	91 2b 00 00 	stw     r9,0(r11)
 1801e58:	80 1f 00 14 	lwz     r0,20(r31)
 1801e5c:	30 00 00 02 	addic   r0,r0,2
 1801e60:	90 1f 00 14 	stw     r0,20(r31)
 1801e64:	81 3f 00 24 	lwz     r9,36(r31)
 1801e68:	80 1f 00 28 	lwz     r0,40(r31)
 1801e6c:	7c 00 48 50 	subf    r0,r0,r9
 1801e70:	31 20 00 01 	addic   r9,r0,1
 1801e74:	81 7f 00 20 	lwz     r11,32(r31)
 1801e78:	80 1f 00 18 	lwz     r0,24(r31)
 1801e7c:	7c 00 58 50 	subf    r0,r0,r11
 1801e80:	7f 89 00 40 	cmplw   cr7,r9,r0
 1801e84:	40 9c 00 80 	bge-    cr7,1801f04 <sort4+0x6ac>
 1801e88:	48 00 00 d0 	b       1801f58 <sort4+0x700>
 1801e8c:	80 1f 00 28 	lwz     r0,40(r31)
 1801e90:	3d 20 01 81 	lis     r9,385
 1801e94:	39 29 23 f8 	addi    r9,r9,9208
 1801e98:	54 00 10 3a 	rlwinm  r0,r0,2,0,29
 1801e9c:	7c 09 02 14 	add     r0,r9,r0
 1801ea0:	7c 09 03 78 	mr      r9,r0
 1801ea4:	80 09 00 00 	lwz     r0,0(r9)
 1801ea8:	90 1f 00 08 	stw     r0,8(r31)
 1801eac:	80 1f 00 28 	lwz     r0,40(r31)
 1801eb0:	81 3f 00 20 	lwz     r9,32(r31)
 1801eb4:	3d 60 01 81 	lis     r11,385
 1801eb8:	39 6b 23 f8 	addi    r11,r11,9208
 1801ebc:	55 29 10 3a 	rlwinm  r9,r9,2,0,29
 1801ec0:	7d 2b 4a 14 	add     r9,r11,r9
 1801ec4:	81 29 00 00 	lwz     r9,0(r9)
 1801ec8:	3d 60 01 81 	lis     r11,385
 1801ecc:	39 6b 23 f8 	addi    r11,r11,9208
 1801ed0:	54 00 10 3a 	rlwinm  r0,r0,2,0,29
 1801ed4:	7c 0b 02 14 	add     r0,r11,r0
 1801ed8:	7c 0b 03 78 	mr      r11,r0
 1801edc:	91 2b 00 00 	stw     r9,0(r11)
 1801ee0:	80 1f 00 20 	lwz     r0,32(r31)
 1801ee4:	3d 20 01 81 	lis     r9,385
 1801ee8:	39 29 23 f8 	addi    r9,r9,9208
 1801eec:	54 00 10 3a 	rlwinm  r0,r0,2,0,29
 1801ef0:	7c 09 02 14 	add     r0,r9,r0
 1801ef4:	81 3f 00 08 	lwz     r9,8(r31)
 1801ef8:	7c 0b 03 78 	mr      r11,r0
 1801efc:	91 2b 00 00 	stw     r9,0(r11)
 1801f00:	4b ff fe 48 	b       1801d48 <sort4+0x4f0>
 1801f04:	80 1f 00 14 	lwz     r0,20(r31)
 1801f08:	81 3f 00 24 	lwz     r9,36(r31)
 1801f0c:	3d 60 01 81 	lis     r11,385
 1801f10:	39 6b 24 6c 	addi    r11,r11,9324
 1801f14:	54 00 10 3a 	rlwinm  r0,r0,2,0,29
 1801f18:	7c 0b 02 14 	add     r0,r11,r0
 1801f1c:	7c 0b 03 78 	mr      r11,r0
 1801f20:	91 2b 00 00 	stw     r9,0(r11)
 1801f24:	80 1f 00 14 	lwz     r0,20(r31)
 1801f28:	30 00 ff ff 	addic   r0,r0,-1
 1801f2c:	81 3f 00 28 	lwz     r9,40(r31)
 1801f30:	3d 60 01 81 	lis     r11,385
 1801f34:	39 6b 24 6c 	addi    r11,r11,9324
 1801f38:	54 00 10 3a 	rlwinm  r0,r0,2,0,29
 1801f3c:	7c 0b 02 14 	add     r0,r11,r0
 1801f40:	7c 0b 03 78 	mr      r11,r0
 1801f44:	91 2b 00 00 	stw     r9,0(r11)
 1801f48:	80 1f 00 20 	lwz     r0,32(r31)
 1801f4c:	30 00 ff ff 	addic   r0,r0,-1
 1801f50:	90 1f 00 24 	stw     r0,36(r31)
 1801f54:	4b ff f9 34 	b       1801888 <sort4+0x30>
 1801f58:	80 1f 00 14 	lwz     r0,20(r31)
 1801f5c:	81 3f 00 20 	lwz     r9,32(r31)
 1801f60:	39 29 ff ff 	addi    r9,r9,-1
 1801f64:	3d 60 01 81 	lis     r11,385
 1801f68:	39 6b 24 6c 	addi    r11,r11,9324
 1801f6c:	54 00 10 3a 	rlwinm  r0,r0,2,0,29
 1801f70:	7c 0b 02 14 	add     r0,r11,r0
 1801f74:	7c 0b 03 78 	mr      r11,r0
 1801f78:	91 2b 00 00 	stw     r9,0(r11)
 1801f7c:	80 1f 00 14 	lwz     r0,20(r31)
 1801f80:	30 00 ff ff 	addic   r0,r0,-1
 1801f84:	81 3f 00 18 	lwz     r9,24(r31)
 1801f88:	3d 60 01 81 	lis     r11,385
 1801f8c:	39 6b 24 6c 	addi    r11,r11,9324
 1801f90:	54 00 10 3a 	rlwinm  r0,r0,2,0,29
 1801f94:	7c 0b 02 14 	add     r0,r11,r0
 1801f98:	7c 0b 03 78 	mr      r11,r0
 1801f9c:	91 2b 00 00 	stw     r9,0(r11)
 1801fa0:	80 1f 00 28 	lwz     r0,40(r31)
 1801fa4:	90 1f 00 18 	stw     r0,24(r31)
 1801fa8:	4b ff f8 e0 	b       1801888 <sort4+0x30>
 1801fac:	60 00 00 00 	nop
 1801fb0:	39 7f 00 48 	addi    r11,r31,72
 1801fb4:	83 eb ff fc 	lwz     r31,-4(r11)
 1801fb8:	7d 61 5b 78 	mr      r1,r11
 1801fbc:	4e 80 00 20 	blr

01801fc0 <main>:
 1801fc0:	94 21 ff e0 	stwu    r1,-32(r1)
 1801fc4:	7c 08 02 a6 	mflr    r0
 1801fc8:	90 01 00 24 	stw     r0,36(r1)
 1801fcc:	93 e1 00 1c 	stw     r31,28(r1)
 1801fd0:	7c 3f 0b 78 	mr      r31,r1
 1801fd4:	48 00 00 9d 	bl      1802070 <__eabi>
 1801fd8:	38 00 03 e8 	li      r0,1000
 1801fdc:	90 1f 00 08 	stw     r0,8(r31)
 1801fe0:	48 00 00 30 	b       1802010 <main+0x50>
 1801fe4:	38 60 00 14 	li      r3,20
 1801fe8:	4b ff e2 39 	bl      1800220 <sort>
 1801fec:	38 60 00 14 	li      r3,20
 1801ff0:	4b ff e9 99 	bl      1800988 <sort2>
 1801ff4:	38 60 00 14 	li      r3,20
 1801ff8:	4b ff f0 f9 	bl      18010f0 <sort3>
 1801ffc:	38 60 00 14 	li      r3,20
 1802000:	4b ff f8 59 	bl      1801858 <sort4>
 1802004:	80 1f 00 08 	lwz     r0,8(r31)
 1802008:	30 00 ff ff 	addic   r0,r0,-1
 180200c:	90 1f 00 08 	stw     r0,8(r31)
 1802010:	80 1f 00 08 	lwz     r0,8(r31)
 1802014:	2f 80 00 00 	cmpwi   cr7,r0,0
 1802018:	40 9e ff cc 	bne+    cr7,1801fe4 <main+0x24>
 180201c:	39 7f 00 20 	addi    r11,r31,32
 1802020:	80 0b 00 04 	lwz     r0,4(r11)
 1802024:	7c 08 03 a6 	mtlr    r0
 1802028:	83 eb ff fc 	lwz     r31,-4(r11)
 180202c:	7d 61 5b 78 	mr      r1,r11
 1802030:	4e 80 00 20 	blr

01802034 <_exit>:
 1802034:	94 21 ff e8 	stwu    r1,-24(r1)
 1802038:	93 e1 00 14 	stw     r31,20(r1)
 180203c:	7c 3f 0b 78 	mr      r31,r1
 1802040:	90 7f 00 08 	stw     r3,8(r31)
 1802044:	48 00 00 00 	b       1802044 <_exit+0x10>

01802048 <_start>:
 1802048:	94 21 ff f0 	stwu    r1,-16(r1)
 180204c:	7c 08 02 a6 	mflr    r0
 1802050:	90 01 00 14 	stw     r0,20(r1)
 1802054:	93 e1 00 0c 	stw     r31,12(r1)
 1802058:	7c 3f 0b 78 	mr      r31,r1
 180205c:	38 60 00 00 	li      r3,0
 1802060:	38 80 00 00 	li      r4,0
 1802064:	4b ff ff 5d 	bl      1801fc0 <main>
 1802068:	38 60 00 00 	li      r3,0
 180206c:	4b ff ff c9 	bl      1802034 <_exit>

01802070 <__eabi>:
 1802070:	3d 40 01 81 	lis     r10,385
 1802074:	3d 60 01 81 	lis     r11,385
 1802078:	81 2a 24 48 	lwz     r9,9288(r10)
 180207c:	39 6b 22 e8 	addi    r11,r11,8936
 1802080:	29 09 00 00 	cmplwi  cr2,r9,0
 1802084:	4c 8a 00 20 	bnelr   cr2
 1802088:	90 2a 24 48 	stw     r1,9288(r10)
 180208c:	80 6b 00 08 	lwz     r3,8(r11)
 1802090:	80 8b 00 0c 	lwz     r4,12(r11)
 1802094:	7c 83 20 00 	cmpw    cr1,r3,r4
 1802098:	41 86 00 08 	beq-    cr1,18020a0 <__eabi+0x30>
 180209c:	81 ab 00 04 	lwz     r13,4(r11)
 18020a0:	80 6b 00 14 	lwz     r3,20(r11)
 18020a4:	80 8b 00 18 	lwz     r4,24(r11)
 18020a8:	7c 83 20 00 	cmpw    cr1,r3,r4
 18020ac:	41 a6 00 08 	beq+    cr1,18020b4 <__eabi+0x44>
 18020b0:	80 4b 00 10 	lwz     r2,16(r11)
 18020b4:	4b ff df e0 	b       1800094 <__init>

018020b8 <__eabi_convert>:
 18020b8:	7c 83 20 40 	cmplw   cr1,r3,r4
 18020bc:	7c a3 20 50 	subf    r5,r3,r4
 18020c0:	4c 84 00 20 	bgelr   cr1
 18020c4:	7c a5 16 70 	srawi   r5,r5,2
 18020c8:	38 63 ff fc 	addi    r3,r3,-4
 18020cc:	7c a9 03 a6 	mtctr   r5
 18020d0:	84 c3 00 04 	lwzu    r6,4(r3)
 18020d4:	2c 06 00 00 	cmpwi   r6,0
 18020d8:	41 82 00 0c 	beq-    18020e4 <__eabi_convert+0x2c>
 18020dc:	7c c6 62 14 	add     r6,r6,r12
 18020e0:	90 c3 00 00 	stw     r6,0(r3)
 18020e4:	42 00 ff ec 	bdnz+   18020d0 <__eabi_convert+0x18>
 18020e8:	4e 80 00 20 	blr

018020ec <__eabi_uconvert>:
 18020ec:	7c 83 20 40 	cmplw   cr1,r3,r4
 18020f0:	7c a3 20 50 	subf    r5,r3,r4
 18020f4:	4c 84 00 20 	bgelr   cr1
 18020f8:	7c a5 16 70 	srawi   r5,r5,2
 18020fc:	38 63 ff fc 	addi    r3,r3,-4
 1802100:	7c a9 03 a6 	mtctr   r5
 1802104:	84 c3 00 04 	lwzu    r6,4(r3)
 1802108:	7c c6 62 14 	add     r6,r6,r12
 180210c:	80 e6 00 00 	lwz     r7,0(r6)
 1802110:	90 c3 00 00 	stw     r6,0(r3)
 1802114:	7c e7 62 14 	add     r7,r7,r12
 1802118:	90 e6 00 00 	stw     r7,0(r6)
 180211c:	42 00 ff e8 	bdnz+   1802104 <__eabi_uconvert+0x18>
 1802120:	4e 80 00 20 	blr

01802124 <__do_global_ctors_aux>:
 1802124:	7c 08 02 a6 	mflr    r0
 1802128:	94 21 ff f0 	stwu    r1,-16(r1)
 180212c:	93 e1 00 0c 	stw     r31,12(r1)
 1802130:	3f e0 01 81 	lis     r31,385
 1802134:	90 01 00 14 	stw     r0,20(r1)
 1802138:	3b ff 22 d8 	addi    r31,r31,8920
 180213c:	80 1f ff fc 	lwz     r0,-4(r31)
 1802140:	2f 80 ff ff 	cmpwi   cr7,r0,-1
 1802144:	41 9e 00 1c 	beq-    cr7,1802160 <__do_global_ctors_aux+0x3c>
 1802148:	3b ff ff fc 	addi    r31,r31,-4
 180214c:	7c 09 03 a6 	mtctr   r0
 1802150:	4e 80 04 21 	bctrl
 1802154:	84 1f ff fc 	lwzu    r0,-4(r31)
 1802158:	2f 80 ff ff 	cmpwi   cr7,r0,-1
 180215c:	40 9e ff f0 	bne+    cr7,180214c <__do_global_ctors_aux+0x28>
 1802160:	80 01 00 14 	lwz     r0,20(r1)
 1802164:	83 e1 00 0c 	lwz     r31,12(r1)
 1802168:	38 21 00 10 	addi    r1,r1,16
 180216c:	7c 08 03 a6 	mtlr    r0
 1802170:	4e 80 00 20 	blr

01802174 <call___do_global_ctors_aux>:
 1802174:	7c 08 02 a6 	mflr    r0
 1802178:	94 21 ff f8 	stwu    r1,-8(r1)
 180217c:	90 01 00 0c 	stw     r0,12(r1)
 1802180:	80 01 00 0c 	lwz     r0,12(r1)
 1802184:	38 21 00 08 	addi    r1,r1,8
 1802188:	7c 08 03 a6 	mtlr    r0
 180218c:	4e 80 00 20 	blr

Disassembly of section .fini:

01802190 <__fini>:
 1802190:	94 21 ff f0 	stwu    r1,-16(r1)
 1802194:	7c 08 02 a6 	mflr    r0
 1802198:	90 01 00 14 	stw     r0,20(r1)
 180219c:	4b ff df 1d 	bl      18000b8 <__do_global_dtors_aux>
 18021a0:	80 01 00 14 	lwz     r0,20(r1)
 18021a4:	7c 08 03 a6 	mtlr    r0
 18021a8:	38 21 00 10 	addi    r1,r1,16
 18021ac:	4e 80 00 20 	blr
