
/home/vaillant/ppc2/perf/malardalen/ppc-eabi/gcc-4.4.2/crc/crc.elf:     file format elf32-powerpc


Disassembly of section .init:

01800094 <__init>:
 1800094:	94 21 ff f0 	stwu    r1,-16(r1)
 1800098:	7c 08 02 a6 	mflr    r0
 180009c:	90 01 00 14 	stw     r0,20(r1)
 18000a0:	48 00 00 f9 	bl      1800198 <frame_dummy>
 18000a4:	48 00 07 8d 	bl      1800830 <__do_global_ctors_aux>
 18000a8:	80 01 00 14 	lwz     r0,20(r1)
 18000ac:	7c 08 03 a6 	mtlr    r0
 18000b0:	38 21 00 10 	addi    r1,r1,16
 18000b4:	4e 80 00 20 	blr

Disassembly of section .text:

018000b8 <__do_global_dtors_aux>:
 18000b8:	94 21 ff e8 	stwu    r1,-24(r1)
 18000bc:	7c 08 02 a6 	mflr    r0
 18000c0:	93 e1 00 14 	stw     r31,20(r1)
 18000c4:	3f e0 01 81 	lis     r31,385
 18000c8:	90 01 00 1c 	stw     r0,28(r1)
 18000cc:	88 1f 0a e4 	lbz     r0,2788(r31)
 18000d0:	93 81 00 08 	stw     r28,8(r1)
 18000d4:	2f 80 00 00 	cmpwi   cr7,r0,0
 18000d8:	93 a1 00 0c 	stw     r29,12(r1)
 18000dc:	93 c1 00 10 	stw     r30,16(r1)
 18000e0:	40 9e 00 7c 	bne-    cr7,180015c <__do_global_dtors_aux+0xa4>
 18000e4:	3f 80 01 81 	lis     r28,385
 18000e8:	3f a0 01 81 	lis     r29,385
 18000ec:	3b 9c 09 a4 	addi    r28,r28,2468
 18000f0:	3b bd 09 a8 	addi    r29,r29,2472
 18000f4:	7f bc e8 50 	subf    r29,r28,r29
 18000f8:	3f c0 01 81 	lis     r30,385
 18000fc:	7f bd 16 70 	srawi   r29,r29,2
 1800100:	81 3e 0a e8 	lwz     r9,2792(r30)
 1800104:	3b bd ff ff 	addi    r29,r29,-1
 1800108:	7f 89 e8 40 	cmplw   cr7,r9,r29
 180010c:	40 9c 00 2c 	bge-    cr7,1800138 <__do_global_dtors_aux+0x80>
 1800110:	3b de 0a e8 	addi    r30,r30,2792
 1800114:	39 29 00 01 	addi    r9,r9,1
 1800118:	55 20 10 3a 	rlwinm  r0,r9,2,0,29
 180011c:	91 3e 00 00 	stw     r9,0(r30)
 1800120:	7c 1c 00 2e 	lwzx    r0,r28,r0
 1800124:	7c 09 03 a6 	mtctr   r0
 1800128:	4e 80 04 21 	bctrl
 180012c:	81 3e 00 00 	lwz     r9,0(r30)
 1800130:	7f 89 e8 40 	cmplw   cr7,r9,r29
 1800134:	41 9c ff e0 	blt+    cr7,1800114 <__do_global_dtors_aux+0x5c>
 1800138:	3d 20 00 00 	lis     r9,0
 180013c:	38 09 00 00 	addi    r0,r9,0
 1800140:	2f 80 00 00 	cmpwi   cr7,r0,0
 1800144:	41 9e 00 10 	beq-    cr7,1800154 <__do_global_dtors_aux+0x9c>
 1800148:	3c 60 01 81 	lis     r3,385
 180014c:	38 63 08 f0 	addi    r3,r3,2288
 1800150:	4a 7f fe b1 	bl      0 <__init-0x1800094>
 1800154:	38 00 00 01 	li      r0,1
 1800158:	98 1f 0a e4 	stb     r0,2788(r31)
 180015c:	80 01 00 1c 	lwz     r0,28(r1)
 1800160:	83 81 00 08 	lwz     r28,8(r1)
 1800164:	7c 08 03 a6 	mtlr    r0
 1800168:	83 a1 00 0c 	lwz     r29,12(r1)
 180016c:	83 c1 00 10 	lwz     r30,16(r1)
 1800170:	83 e1 00 14 	lwz     r31,20(r1)
 1800174:	38 21 00 18 	addi    r1,r1,24
 1800178:	4e 80 00 20 	blr

0180017c <call___do_global_dtors_aux>:
 180017c:	7c 08 02 a6 	mflr    r0
 1800180:	94 21 ff f8 	stwu    r1,-8(r1)
 1800184:	90 01 00 0c 	stw     r0,12(r1)
 1800188:	80 01 00 0c 	lwz     r0,12(r1)
 180018c:	38 21 00 08 	addi    r1,r1,8
 1800190:	7c 08 03 a6 	mtlr    r0
 1800194:	4e 80 00 20 	blr

01800198 <frame_dummy>:
 1800198:	7c 08 02 a6 	mflr    r0
 180019c:	94 21 ff f8 	stwu    r1,-8(r1)
 18001a0:	3d 20 00 00 	lis     r9,0
 18001a4:	90 01 00 0c 	stw     r0,12(r1)
 18001a8:	38 09 00 00 	addi    r0,r9,0
 18001ac:	2f 80 00 00 	cmpwi   cr7,r0,0
 18001b0:	41 9e 00 18 	beq-    cr7,18001c8 <frame_dummy+0x30>
 18001b4:	3c 60 01 81 	lis     r3,385
 18001b8:	3c 80 01 81 	lis     r4,385
 18001bc:	38 63 08 f0 	addi    r3,r3,2288
 18001c0:	38 84 0a ec 	addi    r4,r4,2796
 18001c4:	4a 7f fe 3d 	bl      0 <__init-0x1800094>
 18001c8:	3c 60 01 81 	lis     r3,385
 18001cc:	80 03 09 ac 	lwz     r0,2476(r3)
 18001d0:	38 63 09 ac 	addi    r3,r3,2476
 18001d4:	2f 80 00 00 	cmpwi   cr7,r0,0
 18001d8:	41 9e 00 1c 	beq-    cr7,18001f4 <frame_dummy+0x5c>
 18001dc:	3d 20 00 00 	lis     r9,0
 18001e0:	38 09 00 00 	addi    r0,r9,0
 18001e4:	2f 80 00 00 	cmpwi   cr7,r0,0
 18001e8:	41 9e 00 0c 	beq-    cr7,18001f4 <frame_dummy+0x5c>
 18001ec:	7c 09 03 a6 	mtctr   r0
 18001f0:	4e 80 04 21 	bctrl
 18001f4:	80 01 00 0c 	lwz     r0,12(r1)
 18001f8:	38 21 00 08 	addi    r1,r1,8
 18001fc:	7c 08 03 a6 	mtlr    r0
 1800200:	4e 80 00 20 	blr

01800204 <call_frame_dummy>:
 1800204:	7c 08 02 a6 	mflr    r0
 1800208:	94 21 ff f8 	stwu    r1,-8(r1)
 180020c:	90 01 00 0c 	stw     r0,12(r1)
 1800210:	80 01 00 0c 	lwz     r0,12(r1)
 1800214:	38 21 00 08 	addi    r1,r1,8
 1800218:	7c 08 03 a6 	mtlr    r0
 180021c:	4e 80 00 20 	blr

01800220 <icrc1>:
 1800220:	94 21 ff d8 	stwu    r1,-40(r1)
 1800224:	93 e1 00 24 	stw     r31,36(r1)
 1800228:	7c 3f 0b 78 	mr      r31,r1
 180022c:	7c 69 1b 78 	mr      r9,r3
 1800230:	7c 80 23 78 	mr      r0,r4
 1800234:	b1 3f 00 18 	sth     r9,24(r31)
 1800238:	98 1f 00 1a 	stb     r0,26(r31)
 180023c:	88 1f 00 1a 	lbz     r0,26(r31)
 1800240:	54 00 06 3e 	clrlwi  r0,r0,24
 1800244:	54 00 40 2e 	rlwinm  r0,r0,8,0,23
 1800248:	7c 09 07 34 	extsh   r9,r0
 180024c:	a0 1f 00 18 	lhz     r0,24(r31)
 1800250:	7c 00 07 34 	extsh   r0,r0
 1800254:	7d 20 02 78 	xor     r0,r9,r0
 1800258:	7c 00 07 34 	extsh   r0,r0
 180025c:	b0 1f 00 08 	sth     r0,8(r31)
 1800260:	38 00 00 00 	li      r0,0
 1800264:	90 1f 00 0c 	stw     r0,12(r31)
 1800268:	48 00 00 48 	b       18002b0 <icrc1+0x90>
 180026c:	a0 1f 00 08 	lhz     r0,8(r31)
 1800270:	7c 00 07 34 	extsh   r0,r0
 1800274:	2f 80 00 00 	cmpwi   cr7,r0,0
 1800278:	40 9c 00 20 	bge-    cr7,1800298 <icrc1+0x78>
 180027c:	a0 1f 00 08 	lhz     r0,8(r31)
 1800280:	54 00 08 3c 	rlwinm  r0,r0,1,0,30
 1800284:	b0 1f 00 08 	sth     r0,8(r31)
 1800288:	a0 1f 00 08 	lhz     r0,8(r31)
 180028c:	68 00 10 21 	xori    r0,r0,4129
 1800290:	b0 1f 00 08 	sth     r0,8(r31)
 1800294:	48 00 00 10 	b       18002a4 <icrc1+0x84>
 1800298:	a0 1f 00 08 	lhz     r0,8(r31)
 180029c:	54 00 08 3c 	rlwinm  r0,r0,1,0,30
 18002a0:	b0 1f 00 08 	sth     r0,8(r31)
 18002a4:	80 1f 00 0c 	lwz     r0,12(r31)
 18002a8:	30 00 00 01 	addic   r0,r0,1
 18002ac:	90 1f 00 0c 	stw     r0,12(r31)
 18002b0:	80 1f 00 0c 	lwz     r0,12(r31)
 18002b4:	2f 80 00 07 	cmpwi   cr7,r0,7
 18002b8:	40 9d ff b4 	ble+    cr7,180026c <icrc1+0x4c>
 18002bc:	a0 1f 00 08 	lhz     r0,8(r31)
 18002c0:	54 00 04 3e 	clrlwi  r0,r0,16
 18002c4:	7c 03 03 78 	mr      r3,r0
 18002c8:	39 7f 00 28 	addi    r11,r31,40
 18002cc:	83 eb ff fc 	lwz     r31,-4(r11)
 18002d0:	7d 61 5b 78 	mr      r1,r11
 18002d4:	4e 80 00 20 	blr

018002d8 <icrc>:
 18002d8:	94 21 ff d0 	stwu    r1,-48(r1)
 18002dc:	7c 08 02 a6 	mflr    r0
 18002e0:	90 01 00 34 	stw     r0,52(r1)
 18002e4:	93 c1 00 28 	stw     r30,40(r1)
 18002e8:	93 e1 00 2c 	stw     r31,44(r1)
 18002ec:	7c 3f 0b 78 	mr      r31,r1
 18002f0:	7c 69 1b 78 	mr      r9,r3
 18002f4:	90 9f 00 1c 	stw     r4,28(r31)
 18002f8:	7c a0 2b 78 	mr      r0,r5
 18002fc:	90 df 00 24 	stw     r6,36(r31)
 1800300:	b1 3f 00 18 	sth     r9,24(r31)
 1800304:	b0 1f 00 20 	sth     r0,32(r31)
 1800308:	a0 1f 00 18 	lhz     r0,24(r31)
 180030c:	b0 1f 00 08 	sth     r0,8(r31)
 1800310:	3c 00 01 81 	lis     r0,385
 1800314:	7c 09 03 78 	mr      r9,r0
 1800318:	a0 09 0b 04 	lhz     r0,2820(r9)
 180031c:	54 00 04 3e 	clrlwi  r0,r0,16
 1800320:	2f 80 00 00 	cmpwi   cr7,r0,0
 1800324:	40 9e 00 e4 	bne-    cr7,1800408 <icrc+0x130>
 1800328:	3c 00 01 81 	lis     r0,385
 180032c:	39 20 00 01 	li      r9,1
 1800330:	7c 0b 03 78 	mr      r11,r0
 1800334:	b1 2b 0b 04 	sth     r9,2820(r11)
 1800338:	38 00 00 00 	li      r0,0
 180033c:	b0 1f 00 0a 	sth     r0,10(r31)
 1800340:	48 00 00 b8 	b       18003f8 <icrc+0x120>
 1800344:	a0 1f 00 0a 	lhz     r0,10(r31)
 1800348:	54 1e 04 3e 	clrlwi  r30,r0,16
 180034c:	a0 1f 00 0a 	lhz     r0,10(r31)
 1800350:	54 00 40 2e 	rlwinm  r0,r0,8,0,23
 1800354:	54 00 04 3e 	clrlwi  r0,r0,16
 1800358:	7c 03 03 78 	mr      r3,r0
 180035c:	38 80 00 00 	li      r4,0
 1800360:	4b ff fe c1 	bl      1800220 <icrc1>
 1800364:	7c 60 1b 78 	mr      r0,r3
 1800368:	7c 09 03 78 	mr      r9,r0
 180036c:	3c 00 01 81 	lis     r0,385
 1800370:	31 60 0b 06 	addic   r11,r0,2822
 1800374:	57 c0 08 3c 	rlwinm  r0,r30,1,0,30
 1800378:	7c 0b 02 14 	add     r0,r11,r0
 180037c:	7c 0b 03 78 	mr      r11,r0
 1800380:	b1 2b 00 00 	sth     r9,0(r11)
 1800384:	a0 1f 00 0a 	lhz     r0,10(r31)
 1800388:	54 00 04 3e 	clrlwi  r0,r0,16
 180038c:	a1 3f 00 0a 	lhz     r9,10(r31)
 1800390:	55 29 04 3e 	clrlwi  r9,r9,16
 1800394:	55 29 07 3e 	clrlwi  r9,r9,28
 1800398:	3d 60 01 81 	lis     r11,385
 180039c:	39 6b 0a d0 	addi    r11,r11,2768
 18003a0:	7d 2b 48 ae 	lbzx    r9,r11,r9
 18003a4:	55 29 06 3e 	clrlwi  r9,r9,24
 18003a8:	55 29 20 36 	rlwinm  r9,r9,4,0,27
 18003ac:	7d 2b 07 74 	extsb   r11,r9
 18003b0:	a1 3f 00 0a 	lhz     r9,10(r31)
 18003b4:	55 29 04 3e 	clrlwi  r9,r9,16
 18003b8:	55 29 e1 3e 	rlwinm  r9,r9,28,4,31
 18003bc:	55 29 04 3e 	clrlwi  r9,r9,16
 18003c0:	3d 40 01 81 	lis     r10,385
 18003c4:	39 4a 0a d0 	addi    r10,r10,2768
 18003c8:	7d 2a 48 ae 	lbzx    r9,r10,r9
 18003cc:	55 29 06 3e 	clrlwi  r9,r9,24
 18003d0:	7d 29 07 74 	extsb   r9,r9
 18003d4:	7d 69 4b 78 	or      r9,r11,r9
 18003d8:	7d 29 07 74 	extsb   r9,r9
 18003dc:	55 2b 06 3e 	clrlwi  r11,r9,24
 18003e0:	3d 20 01 81 	lis     r9,385
 18003e4:	39 29 0d 08 	addi    r9,r9,3336
 18003e8:	7d 69 01 ae 	stbx    r11,r9,r0
 18003ec:	a0 1f 00 0a 	lhz     r0,10(r31)
 18003f0:	30 00 00 01 	addic   r0,r0,1
 18003f4:	b0 1f 00 0a 	sth     r0,10(r31)
 18003f8:	a0 1f 00 0a 	lhz     r0,10(r31)
 18003fc:	54 00 04 3e 	clrlwi  r0,r0,16
 1800400:	2b 80 00 ff 	cmplwi  cr7,r0,255
 1800404:	40 9d ff 40 	ble+    cr7,1800344 <icrc+0x6c>
 1800408:	a0 1f 00 20 	lhz     r0,32(r31)
 180040c:	7c 00 07 34 	extsh   r0,r0
 1800410:	2f 80 00 00 	cmpwi   cr7,r0,0
 1800414:	41 9c 00 30 	blt-    cr7,1800444 <icrc+0x16c>
 1800418:	a0 1f 00 20 	lhz     r0,32(r31)
 180041c:	54 00 06 3e 	clrlwi  r0,r0,24
 1800420:	7c 09 03 78 	mr      r9,r0
 1800424:	a0 1f 00 20 	lhz     r0,32(r31)
 1800428:	54 00 06 3e 	clrlwi  r0,r0,24
 180042c:	54 00 40 2e 	rlwinm  r0,r0,8,0,23
 1800430:	7c 00 07 34 	extsh   r0,r0
 1800434:	7d 20 03 78 	or      r0,r9,r0
 1800438:	7c 00 07 34 	extsh   r0,r0
 180043c:	b0 1f 00 08 	sth     r0,8(r31)
 1800440:	48 00 00 64 	b       18004a4 <icrc+0x1cc>
 1800444:	80 1f 00 24 	lwz     r0,36(r31)
 1800448:	2f 80 00 00 	cmpwi   cr7,r0,0
 180044c:	40 9c 00 58 	bge-    cr7,18004a4 <icrc+0x1cc>
 1800450:	a0 1f 00 08 	lhz     r0,8(r31)
 1800454:	54 00 04 3e 	clrlwi  r0,r0,16
 1800458:	54 00 c2 3e 	rlwinm  r0,r0,24,8,31
 180045c:	54 00 04 3e 	clrlwi  r0,r0,16
 1800460:	54 00 06 3e 	clrlwi  r0,r0,24
 1800464:	3d 20 01 81 	lis     r9,385
 1800468:	39 29 0d 08 	addi    r9,r9,3336
 180046c:	7c 09 00 ae 	lbzx    r0,r9,r0
 1800470:	54 00 06 3e 	clrlwi  r0,r0,24
 1800474:	7c 09 03 78 	mr      r9,r0
 1800478:	a0 1f 00 08 	lhz     r0,8(r31)
 180047c:	54 00 06 3e 	clrlwi  r0,r0,24
 1800480:	3d 60 01 81 	lis     r11,385
 1800484:	39 6b 0d 08 	addi    r11,r11,3336
 1800488:	7c 0b 00 ae 	lbzx    r0,r11,r0
 180048c:	54 00 06 3e 	clrlwi  r0,r0,24
 1800490:	54 00 40 2e 	rlwinm  r0,r0,8,0,23
 1800494:	7c 00 07 34 	extsh   r0,r0
 1800498:	7d 20 03 78 	or      r0,r9,r0
 180049c:	7c 00 07 34 	extsh   r0,r0
 18004a0:	b0 1f 00 08 	sth     r0,8(r31)
 18004a4:	38 00 00 01 	li      r0,1
 18004a8:	b0 1f 00 0a 	sth     r0,10(r31)
 18004ac:	48 00 00 e4 	b       1800590 <icrc+0x2b8>
 18004b0:	80 1f 00 24 	lwz     r0,36(r31)
 18004b4:	2f 80 00 00 	cmpwi   cr7,r0,0
 18004b8:	40 9c 00 50 	bge-    cr7,1800508 <icrc+0x230>
 18004bc:	a0 1f 00 0a 	lhz     r0,10(r31)
 18004c0:	54 00 04 3e 	clrlwi  r0,r0,16
 18004c4:	3d 20 01 81 	lis     r9,385
 18004c8:	39 29 09 d0 	addi    r9,r9,2512
 18004cc:	7c 09 00 ae 	lbzx    r0,r9,r0
 18004d0:	54 00 06 3e 	clrlwi  r0,r0,24
 18004d4:	3d 20 01 81 	lis     r9,385
 18004d8:	39 29 0d 08 	addi    r9,r9,3336
 18004dc:	7c 09 00 ae 	lbzx    r0,r9,r0
 18004e0:	54 09 06 3e 	clrlwi  r9,r0,24
 18004e4:	a0 1f 00 08 	lhz     r0,8(r31)
 18004e8:	54 00 04 3e 	clrlwi  r0,r0,16
 18004ec:	54 00 c2 3e 	rlwinm  r0,r0,24,8,31
 18004f0:	54 00 04 3e 	clrlwi  r0,r0,16
 18004f4:	54 00 06 3e 	clrlwi  r0,r0,24
 18004f8:	7d 20 02 78 	xor     r0,r9,r0
 18004fc:	54 00 06 3e 	clrlwi  r0,r0,24
 1800500:	b0 1f 00 0e 	sth     r0,14(r31)
 1800504:	48 00 00 3c 	b       1800540 <icrc+0x268>
 1800508:	a0 1f 00 0a 	lhz     r0,10(r31)
 180050c:	54 00 04 3e 	clrlwi  r0,r0,16
 1800510:	3d 20 01 81 	lis     r9,385
 1800514:	39 29 09 d0 	addi    r9,r9,2512
 1800518:	7c 09 00 ae 	lbzx    r0,r9,r0
 180051c:	54 09 06 3e 	clrlwi  r9,r0,24
 1800520:	a0 1f 00 08 	lhz     r0,8(r31)
 1800524:	54 00 04 3e 	clrlwi  r0,r0,16
 1800528:	54 00 c2 3e 	rlwinm  r0,r0,24,8,31
 180052c:	54 00 04 3e 	clrlwi  r0,r0,16
 1800530:	54 00 06 3e 	clrlwi  r0,r0,24
 1800534:	7d 20 02 78 	xor     r0,r9,r0
 1800538:	54 00 06 3e 	clrlwi  r0,r0,24
 180053c:	b0 1f 00 0e 	sth     r0,14(r31)
 1800540:	a0 1f 00 0e 	lhz     r0,14(r31)
 1800544:	54 00 04 3e 	clrlwi  r0,r0,16
 1800548:	3d 20 01 81 	lis     r9,385
 180054c:	39 29 0b 06 	addi    r9,r9,2822
 1800550:	54 00 08 3c 	rlwinm  r0,r0,1,0,30
 1800554:	7c 09 02 14 	add     r0,r9,r0
 1800558:	7c 09 03 78 	mr      r9,r0
 180055c:	a0 09 00 00 	lhz     r0,0(r9)
 1800560:	54 00 04 3e 	clrlwi  r0,r0,16
 1800564:	7c 09 07 34 	extsh   r9,r0
 1800568:	a0 1f 00 08 	lhz     r0,8(r31)
 180056c:	54 00 06 3e 	clrlwi  r0,r0,24
 1800570:	54 00 40 2e 	rlwinm  r0,r0,8,0,23
 1800574:	7c 00 07 34 	extsh   r0,r0
 1800578:	7d 20 02 78 	xor     r0,r9,r0
 180057c:	7c 00 07 34 	extsh   r0,r0
 1800580:	b0 1f 00 08 	sth     r0,8(r31)
 1800584:	a0 1f 00 0a 	lhz     r0,10(r31)
 1800588:	30 00 00 01 	addic   r0,r0,1
 180058c:	b0 1f 00 0a 	sth     r0,10(r31)
 1800590:	a0 1f 00 0a 	lhz     r0,10(r31)
 1800594:	54 09 04 3e 	clrlwi  r9,r0,16
 1800598:	80 1f 00 1c 	lwz     r0,28(r31)
 180059c:	7f 89 00 40 	cmplw   cr7,r9,r0
 18005a0:	40 9d ff 10 	ble+    cr7,18004b0 <icrc+0x1d8>
 18005a4:	80 1f 00 24 	lwz     r0,36(r31)
 18005a8:	2f 80 00 00 	cmpwi   cr7,r0,0
 18005ac:	41 9c 00 10 	blt-    cr7,18005bc <icrc+0x2e4>
 18005b0:	a0 1f 00 08 	lhz     r0,8(r31)
 18005b4:	b0 1f 00 0c 	sth     r0,12(r31)
 18005b8:	48 00 00 58 	b       1800610 <icrc+0x338>
 18005bc:	a0 1f 00 08 	lhz     r0,8(r31)
 18005c0:	54 00 04 3e 	clrlwi  r0,r0,16
 18005c4:	54 00 c2 3e 	rlwinm  r0,r0,24,8,31
 18005c8:	54 00 04 3e 	clrlwi  r0,r0,16
 18005cc:	54 00 06 3e 	clrlwi  r0,r0,24
 18005d0:	3d 20 01 81 	lis     r9,385
 18005d4:	39 29 0d 08 	addi    r9,r9,3336
 18005d8:	7c 09 00 ae 	lbzx    r0,r9,r0
 18005dc:	54 00 06 3e 	clrlwi  r0,r0,24
 18005e0:	7c 09 03 78 	mr      r9,r0
 18005e4:	a0 1f 00 08 	lhz     r0,8(r31)
 18005e8:	54 00 06 3e 	clrlwi  r0,r0,24
 18005ec:	3d 60 01 81 	lis     r11,385
 18005f0:	39 6b 0d 08 	addi    r11,r11,3336
 18005f4:	7c 0b 00 ae 	lbzx    r0,r11,r0
 18005f8:	54 00 06 3e 	clrlwi  r0,r0,24
 18005fc:	54 00 40 2e 	rlwinm  r0,r0,8,0,23
 1800600:	7c 00 07 34 	extsh   r0,r0
 1800604:	7d 20 03 78 	or      r0,r9,r0
 1800608:	7c 00 07 34 	extsh   r0,r0
 180060c:	b0 1f 00 0c 	sth     r0,12(r31)
 1800610:	a0 1f 00 0c 	lhz     r0,12(r31)
 1800614:	54 00 04 3e 	clrlwi  r0,r0,16
 1800618:	7c 03 03 78 	mr      r3,r0
 180061c:	39 7f 00 30 	addi    r11,r31,48
 1800620:	80 0b 00 04 	lwz     r0,4(r11)
 1800624:	7c 08 03 a6 	mtlr    r0
 1800628:	83 cb ff f8 	lwz     r30,-8(r11)
 180062c:	83 eb ff fc 	lwz     r31,-4(r11)
 1800630:	7d 61 5b 78 	mr      r1,r11
 1800634:	4e 80 00 20 	blr

01800638 <main>:
 1800638:	94 21 ff e0 	stwu    r1,-32(r1)
 180063c:	7c 08 02 a6 	mflr    r0
 1800640:	90 01 00 24 	stw     r0,36(r1)
 1800644:	93 e1 00 1c 	stw     r31,28(r1)
 1800648:	7c 3f 0b 78 	mr      r31,r1
 180064c:	48 00 01 31 	bl      180077c <__eabi>
 1800650:	38 00 07 d0 	li      r0,2000
 1800654:	90 1f 00 08 	stw     r0,8(r31)
 1800658:	48 00 00 bc 	b       1800714 <main+0xdc>
 180065c:	38 00 00 28 	li      r0,40
 1800660:	90 1f 00 0c 	stw     r0,12(r31)
 1800664:	80 1f 00 0c 	lwz     r0,12(r31)
 1800668:	30 00 00 01 	addic   r0,r0,1
 180066c:	3d 20 01 81 	lis     r9,385
 1800670:	39 29 09 d0 	addi    r9,r9,2512
 1800674:	39 60 00 00 	li      r11,0
 1800678:	7d 69 01 ae 	stbx    r11,r9,r0
 180067c:	38 60 00 00 	li      r3,0
 1800680:	80 9f 00 0c 	lwz     r4,12(r31)
 1800684:	38 a0 00 00 	li      r5,0
 1800688:	38 c0 00 01 	li      r6,1
 180068c:	4b ff fc 4d 	bl      18002d8 <icrc>
 1800690:	7c 60 1b 78 	mr      r0,r3
 1800694:	b0 1f 00 12 	sth     r0,18(r31)
 1800698:	80 1f 00 0c 	lwz     r0,12(r31)
 180069c:	30 00 00 01 	addic   r0,r0,1
 18006a0:	a1 3f 00 12 	lhz     r9,18(r31)
 18006a4:	55 29 04 3e 	clrlwi  r9,r9,16
 18006a8:	55 29 c2 3e 	rlwinm  r9,r9,24,8,31
 18006ac:	55 29 04 3e 	clrlwi  r9,r9,16
 18006b0:	55 2b 06 3e 	clrlwi  r11,r9,24
 18006b4:	3d 20 01 81 	lis     r9,385
 18006b8:	39 29 09 d0 	addi    r9,r9,2512
 18006bc:	7d 69 01 ae 	stbx    r11,r9,r0
 18006c0:	80 1f 00 0c 	lwz     r0,12(r31)
 18006c4:	30 00 00 02 	addic   r0,r0,2
 18006c8:	a1 3f 00 12 	lhz     r9,18(r31)
 18006cc:	55 2b 06 3e 	clrlwi  r11,r9,24
 18006d0:	3d 20 01 81 	lis     r9,385
 18006d4:	39 29 09 d0 	addi    r9,r9,2512
 18006d8:	7d 69 01 ae 	stbx    r11,r9,r0
 18006dc:	80 1f 00 0c 	lwz     r0,12(r31)
 18006e0:	30 00 00 02 	addic   r0,r0,2
 18006e4:	a1 3f 00 12 	lhz     r9,18(r31)
 18006e8:	55 29 04 3e 	clrlwi  r9,r9,16
 18006ec:	7d 23 4b 78 	mr      r3,r9
 18006f0:	7c 04 03 78 	mr      r4,r0
 18006f4:	38 a0 00 00 	li      r5,0
 18006f8:	38 c0 00 01 	li      r6,1
 18006fc:	4b ff fb dd 	bl      18002d8 <icrc>
 1800700:	7c 60 1b 78 	mr      r0,r3
 1800704:	b0 1f 00 10 	sth     r0,16(r31)
 1800708:	80 1f 00 08 	lwz     r0,8(r31)
 180070c:	30 00 ff ff 	addic   r0,r0,-1
 1800710:	90 1f 00 08 	stw     r0,8(r31)
 1800714:	80 1f 00 08 	lwz     r0,8(r31)
 1800718:	2f 80 00 00 	cmpwi   cr7,r0,0
 180071c:	40 9e ff 40 	bne+    cr7,180065c <main+0x24>
 1800720:	38 00 00 00 	li      r0,0
 1800724:	7c 03 03 78 	mr      r3,r0
 1800728:	39 7f 00 20 	addi    r11,r31,32
 180072c:	80 0b 00 04 	lwz     r0,4(r11)
 1800730:	7c 08 03 a6 	mtlr    r0
 1800734:	83 eb ff fc 	lwz     r31,-4(r11)
 1800738:	7d 61 5b 78 	mr      r1,r11
 180073c:	4e 80 00 20 	blr

01800740 <_exit>:
 1800740:	94 21 ff e8 	stwu    r1,-24(r1)
 1800744:	93 e1 00 14 	stw     r31,20(r1)
 1800748:	7c 3f 0b 78 	mr      r31,r1
 180074c:	90 7f 00 08 	stw     r3,8(r31)
 1800750:	48 00 00 00 	b       1800750 <_exit+0x10>

01800754 <_start>:
 1800754:	94 21 ff f0 	stwu    r1,-16(r1)
 1800758:	7c 08 02 a6 	mflr    r0
 180075c:	90 01 00 14 	stw     r0,20(r1)
 1800760:	93 e1 00 0c 	stw     r31,12(r1)
 1800764:	7c 3f 0b 78 	mr      r31,r1
 1800768:	38 60 00 00 	li      r3,0
 180076c:	38 80 00 00 	li      r4,0
 1800770:	4b ff fe c9 	bl      1800638 <main>
 1800774:	38 60 00 00 	li      r3,0
 1800778:	4b ff ff c9 	bl      1800740 <_exit>

0180077c <__eabi>:
 180077c:	3d 40 01 81 	lis     r10,385
 1800780:	3d 60 01 81 	lis     r11,385
 1800784:	81 2a 0a e0 	lwz     r9,2784(r10)
 1800788:	39 6b 09 b0 	addi    r11,r11,2480
 180078c:	29 09 00 00 	cmplwi  cr2,r9,0
 1800790:	4c 8a 00 20 	bnelr   cr2
 1800794:	90 2a 0a e0 	stw     r1,2784(r10)
 1800798:	80 6b 00 08 	lwz     r3,8(r11)
 180079c:	80 8b 00 0c 	lwz     r4,12(r11)
 18007a0:	7c 83 20 00 	cmpw    cr1,r3,r4
 18007a4:	41 86 00 08 	beq-    cr1,18007ac <__eabi+0x30>
 18007a8:	81 ab 00 04 	lwz     r13,4(r11)
 18007ac:	80 6b 00 14 	lwz     r3,20(r11)
 18007b0:	80 8b 00 18 	lwz     r4,24(r11)
 18007b4:	7c 83 20 00 	cmpw    cr1,r3,r4
 18007b8:	41 a6 00 08 	beq+    cr1,18007c0 <__eabi+0x44>
 18007bc:	80 4b 00 10 	lwz     r2,16(r11)
 18007c0:	4b ff f8 d4 	b       1800094 <__init>

018007c4 <__eabi_convert>:
 18007c4:	7c 83 20 40 	cmplw   cr1,r3,r4
 18007c8:	7c a3 20 50 	subf    r5,r3,r4
 18007cc:	4c 84 00 20 	bgelr   cr1
 18007d0:	7c a5 16 70 	srawi   r5,r5,2
 18007d4:	38 63 ff fc 	addi    r3,r3,-4
 18007d8:	7c a9 03 a6 	mtctr   r5
 18007dc:	84 c3 00 04 	lwzu    r6,4(r3)
 18007e0:	2c 06 00 00 	cmpwi   r6,0
 18007e4:	41 82 00 0c 	beq-    18007f0 <__eabi_convert+0x2c>
 18007e8:	7c c6 62 14 	add     r6,r6,r12
 18007ec:	90 c3 00 00 	stw     r6,0(r3)
 18007f0:	42 00 ff ec 	bdnz+   18007dc <__eabi_convert+0x18>
 18007f4:	4e 80 00 20 	blr

018007f8 <__eabi_uconvert>:
 18007f8:	7c 83 20 40 	cmplw   cr1,r3,r4
 18007fc:	7c a3 20 50 	subf    r5,r3,r4
 1800800:	4c 84 00 20 	bgelr   cr1
 1800804:	7c a5 16 70 	srawi   r5,r5,2
 1800808:	38 63 ff fc 	addi    r3,r3,-4
 180080c:	7c a9 03 a6 	mtctr   r5
 1800810:	84 c3 00 04 	lwzu    r6,4(r3)
 1800814:	7c c6 62 14 	add     r6,r6,r12
 1800818:	80 e6 00 00 	lwz     r7,0(r6)
 180081c:	90 c3 00 00 	stw     r6,0(r3)
 1800820:	7c e7 62 14 	add     r7,r7,r12
 1800824:	90 e6 00 00 	stw     r7,0(r6)
 1800828:	42 00 ff e8 	bdnz+   1800810 <__eabi_uconvert+0x18>
 180082c:	4e 80 00 20 	blr

01800830 <__do_global_ctors_aux>:
 1800830:	7c 08 02 a6 	mflr    r0
 1800834:	94 21 ff f0 	stwu    r1,-16(r1)
 1800838:	93 e1 00 0c 	stw     r31,12(r1)
 180083c:	3f e0 01 81 	lis     r31,385
 1800840:	90 01 00 14 	stw     r0,20(r1)
 1800844:	3b ff 09 a0 	addi    r31,r31,2464
 1800848:	80 1f ff fc 	lwz     r0,-4(r31)
 180084c:	2f 80 ff ff 	cmpwi   cr7,r0,-1
 1800850:	41 9e 00 1c 	beq-    cr7,180086c <__do_global_ctors_aux+0x3c>
 1800854:	3b ff ff fc 	addi    r31,r31,-4
 1800858:	7c 09 03 a6 	mtctr   r0
 180085c:	4e 80 04 21 	bctrl
 1800860:	84 1f ff fc 	lwzu    r0,-4(r31)
 1800864:	2f 80 ff ff 	cmpwi   cr7,r0,-1
 1800868:	40 9e ff f0 	bne+    cr7,1800858 <__do_global_ctors_aux+0x28>
 180086c:	80 01 00 14 	lwz     r0,20(r1)
 1800870:	83 e1 00 0c 	lwz     r31,12(r1)
 1800874:	38 21 00 10 	addi    r1,r1,16
 1800878:	7c 08 03 a6 	mtlr    r0
 180087c:	4e 80 00 20 	blr

01800880 <call___do_global_ctors_aux>:
 1800880:	7c 08 02 a6 	mflr    r0
 1800884:	94 21 ff f8 	stwu    r1,-8(r1)
 1800888:	90 01 00 0c 	stw     r0,12(r1)
 180088c:	80 01 00 0c 	lwz     r0,12(r1)
 1800890:	38 21 00 08 	addi    r1,r1,8
 1800894:	7c 08 03 a6 	mtlr    r0
 1800898:	4e 80 00 20 	blr

Disassembly of section .fini:

0180089c <__fini>:
 180089c:	94 21 ff f0 	stwu    r1,-16(r1)
 18008a0:	7c 08 02 a6 	mflr    r0
 18008a4:	90 01 00 14 	stw     r0,20(r1)
 18008a8:	4b ff f8 11 	bl      18000b8 <__do_global_dtors_aux>
 18008ac:	80 01 00 14 	lwz     r0,20(r1)
 18008b0:	7c 08 03 a6 	mtlr    r0
 18008b4:	38 21 00 10 	addi    r1,r1,16
 18008b8:	4e 80 00 20 	blr
