
/home/vaillant/ppc2/perf/malardalen/ppc-eabi/gcc-4.4.2/cover/cover.elf:     file format elf32-powerpc


Disassembly of section .init:

01800094 <__init>:
 1800094:	94 21 ff f0 	stwu    r1,-16(r1)
 1800098:	7c 08 02 a6 	mflr    r0
 180009c:	90 01 00 14 	stw     r0,20(r1)
 18000a0:	48 00 00 f9 	bl      1800198 <frame_dummy>
 18000a4:	48 00 10 b1 	bl      1801154 <__do_global_ctors_aux>
 18000a8:	80 01 00 14 	lwz     r0,20(r1)
 18000ac:	7c 08 03 a6 	mtlr    r0
 18000b0:	38 21 00 10 	addi    r1,r1,16
 18000b4:	4e 80 00 20 	blr

Disassembly of section .text:

018000b8 <__do_global_dtors_aux>:
 18000b8:	94 21 ff e8 	stwu    r1,-24(r1)
 18000bc:	7c 08 02 a6 	mflr    r0
 18000c0:	93 e1 00 14 	stw     r31,20(r1)
 18000c4:	3f e0 01 81 	lis     r31,385
 18000c8:	90 01 00 1c 	stw     r0,28(r1)
 18000cc:	88 1f 16 10 	lbz     r0,5648(r31)
 18000d0:	93 81 00 08 	stw     r28,8(r1)
 18000d4:	2f 80 00 00 	cmpwi   cr7,r0,0
 18000d8:	93 a1 00 0c 	stw     r29,12(r1)
 18000dc:	93 c1 00 10 	stw     r30,16(r1)
 18000e0:	40 9e 00 7c 	bne-    cr7,180015c <__do_global_dtors_aux+0xa4>
 18000e4:	3f 80 01 81 	lis     r28,385
 18000e8:	3f a0 01 81 	lis     r29,385
 18000ec:	3b 9c 15 e0 	addi    r28,r28,5600
 18000f0:	3b bd 15 e4 	addi    r29,r29,5604
 18000f4:	7f bc e8 50 	subf    r29,r28,r29
 18000f8:	3f c0 01 81 	lis     r30,385
 18000fc:	7f bd 16 70 	srawi   r29,r29,2
 1800100:	81 3e 16 14 	lwz     r9,5652(r30)
 1800104:	3b bd ff ff 	addi    r29,r29,-1
 1800108:	7f 89 e8 40 	cmplw   cr7,r9,r29
 180010c:	40 9c 00 2c 	bge-    cr7,1800138 <__do_global_dtors_aux+0x80>
 1800110:	3b de 16 14 	addi    r30,r30,5652
 1800114:	39 29 00 01 	addi    r9,r9,1
 1800118:	55 20 10 3a 	rlwinm  r0,r9,2,0,29
 180011c:	91 3e 00 00 	stw     r9,0(r30)
 1800120:	7c 1c 00 2e 	lwzx    r0,r28,r0
 1800124:	7c 09 03 a6 	mtctr   r0
 1800128:	4e 80 04 21 	bctrl
 180012c:	81 3e 00 00 	lwz     r9,0(r30)
 1800130:	7f 89 e8 40 	cmplw   cr7,r9,r29
 1800134:	41 9c ff e0 	blt+    cr7,1800114 <__do_global_dtors_aux+0x5c>
 1800138:	3d 20 00 00 	lis     r9,0
 180013c:	38 09 00 00 	addi    r0,r9,0
 1800140:	2f 80 00 00 	cmpwi   cr7,r0,0
 1800144:	41 9e 00 10 	beq-    cr7,1800154 <__do_global_dtors_aux+0x9c>
 1800148:	3c 60 01 81 	lis     r3,385
 180014c:	38 63 15 14 	addi    r3,r3,5396
 1800150:	4a 7f fe b1 	bl      0 <__init-0x1800094>
 1800154:	38 00 00 01 	li      r0,1
 1800158:	98 1f 16 10 	stb     r0,5648(r31)
 180015c:	80 01 00 1c 	lwz     r0,28(r1)
 1800160:	83 81 00 08 	lwz     r28,8(r1)
 1800164:	7c 08 03 a6 	mtlr    r0
 1800168:	83 a1 00 0c 	lwz     r29,12(r1)
 180016c:	83 c1 00 10 	lwz     r30,16(r1)
 1800170:	83 e1 00 14 	lwz     r31,20(r1)
 1800174:	38 21 00 18 	addi    r1,r1,24
 1800178:	4e 80 00 20 	blr

0180017c <call___do_global_dtors_aux>:
 180017c:	7c 08 02 a6 	mflr    r0
 1800180:	94 21 ff f8 	stwu    r1,-8(r1)
 1800184:	90 01 00 0c 	stw     r0,12(r1)
 1800188:	80 01 00 0c 	lwz     r0,12(r1)
 180018c:	38 21 00 08 	addi    r1,r1,8
 1800190:	7c 08 03 a6 	mtlr    r0
 1800194:	4e 80 00 20 	blr

01800198 <frame_dummy>:
 1800198:	7c 08 02 a6 	mflr    r0
 180019c:	94 21 ff f8 	stwu    r1,-8(r1)
 18001a0:	3d 20 00 00 	lis     r9,0
 18001a4:	90 01 00 0c 	stw     r0,12(r1)
 18001a8:	38 09 00 00 	addi    r0,r9,0
 18001ac:	2f 80 00 00 	cmpwi   cr7,r0,0
 18001b0:	41 9e 00 18 	beq-    cr7,18001c8 <frame_dummy+0x30>
 18001b4:	3c 60 01 81 	lis     r3,385
 18001b8:	3c 80 01 81 	lis     r4,385
 18001bc:	38 63 15 14 	addi    r3,r3,5396
 18001c0:	38 84 16 18 	addi    r4,r4,5656
 18001c4:	4a 7f fe 3d 	bl      0 <__init-0x1800094>
 18001c8:	3c 60 01 81 	lis     r3,385
 18001cc:	80 03 15 e8 	lwz     r0,5608(r3)
 18001d0:	38 63 15 e8 	addi    r3,r3,5608
 18001d4:	2f 80 00 00 	cmpwi   cr7,r0,0
 18001d8:	41 9e 00 1c 	beq-    cr7,18001f4 <frame_dummy+0x5c>
 18001dc:	3d 20 00 00 	lis     r9,0
 18001e0:	38 09 00 00 	addi    r0,r9,0
 18001e4:	2f 80 00 00 	cmpwi   cr7,r0,0
 18001e8:	41 9e 00 0c 	beq-    cr7,18001f4 <frame_dummy+0x5c>
 18001ec:	7c 09 03 a6 	mtctr   r0
 18001f0:	4e 80 04 21 	bctrl
 18001f4:	80 01 00 0c 	lwz     r0,12(r1)
 18001f8:	38 21 00 08 	addi    r1,r1,8
 18001fc:	7c 08 03 a6 	mtlr    r0
 1800200:	4e 80 00 20 	blr

01800204 <call_frame_dummy>:
 1800204:	7c 08 02 a6 	mflr    r0
 1800208:	94 21 ff f8 	stwu    r1,-8(r1)
 180020c:	90 01 00 0c 	stw     r0,12(r1)
 1800210:	80 01 00 0c 	lwz     r0,12(r1)
 1800214:	38 21 00 08 	addi    r1,r1,8
 1800218:	7c 08 03 a6 	mtlr    r0
 180021c:	4e 80 00 20 	blr

01800220 <swi120>:
 1800220:	94 21 ff d8 	stwu    r1,-40(r1)
 1800224:	93 e1 00 24 	stw     r31,36(r1)
 1800228:	7c 3f 0b 78 	mr      r31,r1
 180022c:	90 7f 00 18 	stw     r3,24(r31)
 1800230:	38 00 00 00 	li      r0,0
 1800234:	90 1f 00 08 	stw     r0,8(r31)
 1800238:	48 00 07 d8 	b       1800a10 <swi120+0x7f0>
 180023c:	80 1f 00 08 	lwz     r0,8(r31)
 1800240:	2b 80 00 77 	cmplwi  cr7,r0,119
 1800244:	41 9d 07 b4 	bgt-    cr7,18009f8 <swi120+0x7d8>
 1800248:	80 1f 00 08 	lwz     r0,8(r31)
 180024c:	54 09 10 3a 	rlwinm  r9,r0,2,0,29
 1800250:	3c 00 01 80 	lis     r0,384
 1800254:	30 00 11 e0 	addic   r0,r0,4576
 1800258:	7c 09 02 14 	add     r0,r9,r0
 180025c:	7c 0b 03 78 	mr      r11,r0
 1800260:	81 2b 00 00 	lwz     r9,0(r11)
 1800264:	3c 00 01 80 	lis     r0,384
 1800268:	30 00 11 e0 	addic   r0,r0,4576
 180026c:	7c 09 02 14 	add     r0,r9,r0
 1800270:	7c 09 03 a6 	mtctr   r0
 1800274:	4e 80 04 20 	bctr
 1800278:	80 1f 00 18 	lwz     r0,24(r31)
 180027c:	30 00 00 01 	addic   r0,r0,1
 1800280:	90 1f 00 18 	stw     r0,24(r31)
 1800284:	48 00 07 80 	b       1800a04 <swi120+0x7e4>
 1800288:	80 1f 00 18 	lwz     r0,24(r31)
 180028c:	30 00 00 01 	addic   r0,r0,1
 1800290:	90 1f 00 18 	stw     r0,24(r31)
 1800294:	48 00 07 70 	b       1800a04 <swi120+0x7e4>
 1800298:	80 1f 00 18 	lwz     r0,24(r31)
 180029c:	30 00 00 01 	addic   r0,r0,1
 18002a0:	90 1f 00 18 	stw     r0,24(r31)
 18002a4:	48 00 07 60 	b       1800a04 <swi120+0x7e4>
 18002a8:	80 1f 00 18 	lwz     r0,24(r31)
 18002ac:	30 00 00 01 	addic   r0,r0,1
 18002b0:	90 1f 00 18 	stw     r0,24(r31)
 18002b4:	48 00 07 50 	b       1800a04 <swi120+0x7e4>
 18002b8:	80 1f 00 18 	lwz     r0,24(r31)
 18002bc:	30 00 00 01 	addic   r0,r0,1
 18002c0:	90 1f 00 18 	stw     r0,24(r31)
 18002c4:	48 00 07 40 	b       1800a04 <swi120+0x7e4>
 18002c8:	80 1f 00 18 	lwz     r0,24(r31)
 18002cc:	30 00 00 01 	addic   r0,r0,1
 18002d0:	90 1f 00 18 	stw     r0,24(r31)
 18002d4:	48 00 07 30 	b       1800a04 <swi120+0x7e4>
 18002d8:	80 1f 00 18 	lwz     r0,24(r31)
 18002dc:	30 00 00 01 	addic   r0,r0,1
 18002e0:	90 1f 00 18 	stw     r0,24(r31)
 18002e4:	48 00 07 20 	b       1800a04 <swi120+0x7e4>
 18002e8:	80 1f 00 18 	lwz     r0,24(r31)
 18002ec:	30 00 00 01 	addic   r0,r0,1
 18002f0:	90 1f 00 18 	stw     r0,24(r31)
 18002f4:	48 00 07 10 	b       1800a04 <swi120+0x7e4>
 18002f8:	80 1f 00 18 	lwz     r0,24(r31)
 18002fc:	30 00 00 01 	addic   r0,r0,1
 1800300:	90 1f 00 18 	stw     r0,24(r31)
 1800304:	48 00 07 00 	b       1800a04 <swi120+0x7e4>
 1800308:	80 1f 00 18 	lwz     r0,24(r31)
 180030c:	30 00 00 01 	addic   r0,r0,1
 1800310:	90 1f 00 18 	stw     r0,24(r31)
 1800314:	48 00 06 f0 	b       1800a04 <swi120+0x7e4>
 1800318:	80 1f 00 18 	lwz     r0,24(r31)
 180031c:	30 00 00 01 	addic   r0,r0,1
 1800320:	90 1f 00 18 	stw     r0,24(r31)
 1800324:	48 00 06 e0 	b       1800a04 <swi120+0x7e4>
 1800328:	80 1f 00 18 	lwz     r0,24(r31)
 180032c:	30 00 00 01 	addic   r0,r0,1
 1800330:	90 1f 00 18 	stw     r0,24(r31)
 1800334:	48 00 06 d0 	b       1800a04 <swi120+0x7e4>
 1800338:	80 1f 00 18 	lwz     r0,24(r31)
 180033c:	30 00 00 01 	addic   r0,r0,1
 1800340:	90 1f 00 18 	stw     r0,24(r31)
 1800344:	48 00 06 c0 	b       1800a04 <swi120+0x7e4>
 1800348:	80 1f 00 18 	lwz     r0,24(r31)
 180034c:	30 00 00 01 	addic   r0,r0,1
 1800350:	90 1f 00 18 	stw     r0,24(r31)
 1800354:	48 00 06 b0 	b       1800a04 <swi120+0x7e4>
 1800358:	80 1f 00 18 	lwz     r0,24(r31)
 180035c:	30 00 00 01 	addic   r0,r0,1
 1800360:	90 1f 00 18 	stw     r0,24(r31)
 1800364:	48 00 06 a0 	b       1800a04 <swi120+0x7e4>
 1800368:	80 1f 00 18 	lwz     r0,24(r31)
 180036c:	30 00 00 01 	addic   r0,r0,1
 1800370:	90 1f 00 18 	stw     r0,24(r31)
 1800374:	48 00 06 90 	b       1800a04 <swi120+0x7e4>
 1800378:	80 1f 00 18 	lwz     r0,24(r31)
 180037c:	30 00 00 01 	addic   r0,r0,1
 1800380:	90 1f 00 18 	stw     r0,24(r31)
 1800384:	48 00 06 80 	b       1800a04 <swi120+0x7e4>
 1800388:	80 1f 00 18 	lwz     r0,24(r31)
 180038c:	30 00 00 01 	addic   r0,r0,1
 1800390:	90 1f 00 18 	stw     r0,24(r31)
 1800394:	48 00 06 70 	b       1800a04 <swi120+0x7e4>
 1800398:	80 1f 00 18 	lwz     r0,24(r31)
 180039c:	30 00 00 01 	addic   r0,r0,1
 18003a0:	90 1f 00 18 	stw     r0,24(r31)
 18003a4:	48 00 06 60 	b       1800a04 <swi120+0x7e4>
 18003a8:	80 1f 00 18 	lwz     r0,24(r31)
 18003ac:	30 00 00 01 	addic   r0,r0,1
 18003b0:	90 1f 00 18 	stw     r0,24(r31)
 18003b4:	48 00 06 50 	b       1800a04 <swi120+0x7e4>
 18003b8:	80 1f 00 18 	lwz     r0,24(r31)
 18003bc:	30 00 00 01 	addic   r0,r0,1
 18003c0:	90 1f 00 18 	stw     r0,24(r31)
 18003c4:	48 00 06 40 	b       1800a04 <swi120+0x7e4>
 18003c8:	80 1f 00 18 	lwz     r0,24(r31)
 18003cc:	30 00 00 01 	addic   r0,r0,1
 18003d0:	90 1f 00 18 	stw     r0,24(r31)
 18003d4:	48 00 06 30 	b       1800a04 <swi120+0x7e4>
 18003d8:	80 1f 00 18 	lwz     r0,24(r31)
 18003dc:	30 00 00 01 	addic   r0,r0,1
 18003e0:	90 1f 00 18 	stw     r0,24(r31)
 18003e4:	48 00 06 20 	b       1800a04 <swi120+0x7e4>
 18003e8:	80 1f 00 18 	lwz     r0,24(r31)
 18003ec:	30 00 00 01 	addic   r0,r0,1
 18003f0:	90 1f 00 18 	stw     r0,24(r31)
 18003f4:	48 00 06 10 	b       1800a04 <swi120+0x7e4>
 18003f8:	80 1f 00 18 	lwz     r0,24(r31)
 18003fc:	30 00 00 01 	addic   r0,r0,1
 1800400:	90 1f 00 18 	stw     r0,24(r31)
 1800404:	48 00 06 00 	b       1800a04 <swi120+0x7e4>
 1800408:	80 1f 00 18 	lwz     r0,24(r31)
 180040c:	30 00 00 01 	addic   r0,r0,1
 1800410:	90 1f 00 18 	stw     r0,24(r31)
 1800414:	48 00 05 f0 	b       1800a04 <swi120+0x7e4>
 1800418:	80 1f 00 18 	lwz     r0,24(r31)
 180041c:	30 00 00 01 	addic   r0,r0,1
 1800420:	90 1f 00 18 	stw     r0,24(r31)
 1800424:	48 00 05 e0 	b       1800a04 <swi120+0x7e4>
 1800428:	80 1f 00 18 	lwz     r0,24(r31)
 180042c:	30 00 00 01 	addic   r0,r0,1
 1800430:	90 1f 00 18 	stw     r0,24(r31)
 1800434:	48 00 05 d0 	b       1800a04 <swi120+0x7e4>
 1800438:	80 1f 00 18 	lwz     r0,24(r31)
 180043c:	30 00 00 01 	addic   r0,r0,1
 1800440:	90 1f 00 18 	stw     r0,24(r31)
 1800444:	48 00 05 c0 	b       1800a04 <swi120+0x7e4>
 1800448:	80 1f 00 18 	lwz     r0,24(r31)
 180044c:	30 00 00 01 	addic   r0,r0,1
 1800450:	90 1f 00 18 	stw     r0,24(r31)
 1800454:	48 00 05 b0 	b       1800a04 <swi120+0x7e4>
 1800458:	80 1f 00 18 	lwz     r0,24(r31)
 180045c:	30 00 00 01 	addic   r0,r0,1
 1800460:	90 1f 00 18 	stw     r0,24(r31)
 1800464:	48 00 05 a0 	b       1800a04 <swi120+0x7e4>
 1800468:	80 1f 00 18 	lwz     r0,24(r31)
 180046c:	30 00 00 01 	addic   r0,r0,1
 1800470:	90 1f 00 18 	stw     r0,24(r31)
 1800474:	48 00 05 90 	b       1800a04 <swi120+0x7e4>
 1800478:	80 1f 00 18 	lwz     r0,24(r31)
 180047c:	30 00 00 01 	addic   r0,r0,1
 1800480:	90 1f 00 18 	stw     r0,24(r31)
 1800484:	48 00 05 80 	b       1800a04 <swi120+0x7e4>
 1800488:	80 1f 00 18 	lwz     r0,24(r31)
 180048c:	30 00 00 01 	addic   r0,r0,1
 1800490:	90 1f 00 18 	stw     r0,24(r31)
 1800494:	48 00 05 70 	b       1800a04 <swi120+0x7e4>
 1800498:	80 1f 00 18 	lwz     r0,24(r31)
 180049c:	30 00 00 01 	addic   r0,r0,1
 18004a0:	90 1f 00 18 	stw     r0,24(r31)
 18004a4:	48 00 05 60 	b       1800a04 <swi120+0x7e4>
 18004a8:	80 1f 00 18 	lwz     r0,24(r31)
 18004ac:	30 00 00 01 	addic   r0,r0,1
 18004b0:	90 1f 00 18 	stw     r0,24(r31)
 18004b4:	48 00 05 50 	b       1800a04 <swi120+0x7e4>
 18004b8:	80 1f 00 18 	lwz     r0,24(r31)
 18004bc:	30 00 00 01 	addic   r0,r0,1
 18004c0:	90 1f 00 18 	stw     r0,24(r31)
 18004c4:	48 00 05 40 	b       1800a04 <swi120+0x7e4>
 18004c8:	80 1f 00 18 	lwz     r0,24(r31)
 18004cc:	30 00 00 01 	addic   r0,r0,1
 18004d0:	90 1f 00 18 	stw     r0,24(r31)
 18004d4:	48 00 05 30 	b       1800a04 <swi120+0x7e4>
 18004d8:	80 1f 00 18 	lwz     r0,24(r31)
 18004dc:	30 00 00 01 	addic   r0,r0,1
 18004e0:	90 1f 00 18 	stw     r0,24(r31)
 18004e4:	48 00 05 20 	b       1800a04 <swi120+0x7e4>
 18004e8:	80 1f 00 18 	lwz     r0,24(r31)
 18004ec:	30 00 00 01 	addic   r0,r0,1
 18004f0:	90 1f 00 18 	stw     r0,24(r31)
 18004f4:	48 00 05 10 	b       1800a04 <swi120+0x7e4>
 18004f8:	80 1f 00 18 	lwz     r0,24(r31)
 18004fc:	30 00 00 01 	addic   r0,r0,1
 1800500:	90 1f 00 18 	stw     r0,24(r31)
 1800504:	48 00 05 00 	b       1800a04 <swi120+0x7e4>
 1800508:	80 1f 00 18 	lwz     r0,24(r31)
 180050c:	30 00 00 01 	addic   r0,r0,1
 1800510:	90 1f 00 18 	stw     r0,24(r31)
 1800514:	48 00 04 f0 	b       1800a04 <swi120+0x7e4>
 1800518:	80 1f 00 18 	lwz     r0,24(r31)
 180051c:	30 00 00 01 	addic   r0,r0,1
 1800520:	90 1f 00 18 	stw     r0,24(r31)
 1800524:	48 00 04 e0 	b       1800a04 <swi120+0x7e4>
 1800528:	80 1f 00 18 	lwz     r0,24(r31)
 180052c:	30 00 00 01 	addic   r0,r0,1
 1800530:	90 1f 00 18 	stw     r0,24(r31)
 1800534:	48 00 04 d0 	b       1800a04 <swi120+0x7e4>
 1800538:	80 1f 00 18 	lwz     r0,24(r31)
 180053c:	30 00 00 01 	addic   r0,r0,1
 1800540:	90 1f 00 18 	stw     r0,24(r31)
 1800544:	48 00 04 c0 	b       1800a04 <swi120+0x7e4>
 1800548:	80 1f 00 18 	lwz     r0,24(r31)
 180054c:	30 00 00 01 	addic   r0,r0,1
 1800550:	90 1f 00 18 	stw     r0,24(r31)
 1800554:	48 00 04 b0 	b       1800a04 <swi120+0x7e4>
 1800558:	80 1f 00 18 	lwz     r0,24(r31)
 180055c:	30 00 00 01 	addic   r0,r0,1
 1800560:	90 1f 00 18 	stw     r0,24(r31)
 1800564:	48 00 04 a0 	b       1800a04 <swi120+0x7e4>
 1800568:	80 1f 00 18 	lwz     r0,24(r31)
 180056c:	30 00 00 01 	addic   r0,r0,1
 1800570:	90 1f 00 18 	stw     r0,24(r31)
 1800574:	48 00 04 90 	b       1800a04 <swi120+0x7e4>
 1800578:	80 1f 00 18 	lwz     r0,24(r31)
 180057c:	30 00 00 01 	addic   r0,r0,1
 1800580:	90 1f 00 18 	stw     r0,24(r31)
 1800584:	48 00 04 80 	b       1800a04 <swi120+0x7e4>
 1800588:	80 1f 00 18 	lwz     r0,24(r31)
 180058c:	30 00 00 01 	addic   r0,r0,1
 1800590:	90 1f 00 18 	stw     r0,24(r31)
 1800594:	48 00 04 70 	b       1800a04 <swi120+0x7e4>
 1800598:	80 1f 00 18 	lwz     r0,24(r31)
 180059c:	30 00 00 01 	addic   r0,r0,1
 18005a0:	90 1f 00 18 	stw     r0,24(r31)
 18005a4:	48 00 04 60 	b       1800a04 <swi120+0x7e4>
 18005a8:	80 1f 00 18 	lwz     r0,24(r31)
 18005ac:	30 00 00 01 	addic   r0,r0,1
 18005b0:	90 1f 00 18 	stw     r0,24(r31)
 18005b4:	48 00 04 50 	b       1800a04 <swi120+0x7e4>
 18005b8:	80 1f 00 18 	lwz     r0,24(r31)
 18005bc:	30 00 00 01 	addic   r0,r0,1
 18005c0:	90 1f 00 18 	stw     r0,24(r31)
 18005c4:	48 00 04 40 	b       1800a04 <swi120+0x7e4>
 18005c8:	80 1f 00 18 	lwz     r0,24(r31)
 18005cc:	30 00 00 01 	addic   r0,r0,1
 18005d0:	90 1f 00 18 	stw     r0,24(r31)
 18005d4:	48 00 04 30 	b       1800a04 <swi120+0x7e4>
 18005d8:	80 1f 00 18 	lwz     r0,24(r31)
 18005dc:	30 00 00 01 	addic   r0,r0,1
 18005e0:	90 1f 00 18 	stw     r0,24(r31)
 18005e4:	48 00 04 20 	b       1800a04 <swi120+0x7e4>
 18005e8:	80 1f 00 18 	lwz     r0,24(r31)
 18005ec:	30 00 00 01 	addic   r0,r0,1
 18005f0:	90 1f 00 18 	stw     r0,24(r31)
 18005f4:	48 00 04 10 	b       1800a04 <swi120+0x7e4>
 18005f8:	80 1f 00 18 	lwz     r0,24(r31)
 18005fc:	30 00 00 01 	addic   r0,r0,1
 1800600:	90 1f 00 18 	stw     r0,24(r31)
 1800604:	48 00 04 00 	b       1800a04 <swi120+0x7e4>
 1800608:	80 1f 00 18 	lwz     r0,24(r31)
 180060c:	30 00 00 01 	addic   r0,r0,1
 1800610:	90 1f 00 18 	stw     r0,24(r31)
 1800614:	48 00 03 f0 	b       1800a04 <swi120+0x7e4>
 1800618:	80 1f 00 18 	lwz     r0,24(r31)
 180061c:	30 00 00 01 	addic   r0,r0,1
 1800620:	90 1f 00 18 	stw     r0,24(r31)
 1800624:	48 00 03 e0 	b       1800a04 <swi120+0x7e4>
 1800628:	80 1f 00 18 	lwz     r0,24(r31)
 180062c:	30 00 00 01 	addic   r0,r0,1
 1800630:	90 1f 00 18 	stw     r0,24(r31)
 1800634:	48 00 03 d0 	b       1800a04 <swi120+0x7e4>
 1800638:	80 1f 00 18 	lwz     r0,24(r31)
 180063c:	30 00 00 01 	addic   r0,r0,1
 1800640:	90 1f 00 18 	stw     r0,24(r31)
 1800644:	48 00 03 c0 	b       1800a04 <swi120+0x7e4>
 1800648:	80 1f 00 18 	lwz     r0,24(r31)
 180064c:	30 00 00 01 	addic   r0,r0,1
 1800650:	90 1f 00 18 	stw     r0,24(r31)
 1800654:	48 00 03 b0 	b       1800a04 <swi120+0x7e4>
 1800658:	80 1f 00 18 	lwz     r0,24(r31)
 180065c:	30 00 00 01 	addic   r0,r0,1
 1800660:	90 1f 00 18 	stw     r0,24(r31)
 1800664:	48 00 03 a0 	b       1800a04 <swi120+0x7e4>
 1800668:	80 1f 00 18 	lwz     r0,24(r31)
 180066c:	30 00 00 01 	addic   r0,r0,1
 1800670:	90 1f 00 18 	stw     r0,24(r31)
 1800674:	48 00 03 90 	b       1800a04 <swi120+0x7e4>
 1800678:	80 1f 00 18 	lwz     r0,24(r31)
 180067c:	30 00 00 01 	addic   r0,r0,1
 1800680:	90 1f 00 18 	stw     r0,24(r31)
 1800684:	48 00 03 80 	b       1800a04 <swi120+0x7e4>
 1800688:	80 1f 00 18 	lwz     r0,24(r31)
 180068c:	30 00 00 01 	addic   r0,r0,1
 1800690:	90 1f 00 18 	stw     r0,24(r31)
 1800694:	48 00 03 70 	b       1800a04 <swi120+0x7e4>
 1800698:	80 1f 00 18 	lwz     r0,24(r31)
 180069c:	30 00 00 01 	addic   r0,r0,1
 18006a0:	90 1f 00 18 	stw     r0,24(r31)
 18006a4:	48 00 03 60 	b       1800a04 <swi120+0x7e4>
 18006a8:	80 1f 00 18 	lwz     r0,24(r31)
 18006ac:	30 00 00 01 	addic   r0,r0,1
 18006b0:	90 1f 00 18 	stw     r0,24(r31)
 18006b4:	48 00 03 50 	b       1800a04 <swi120+0x7e4>
 18006b8:	80 1f 00 18 	lwz     r0,24(r31)
 18006bc:	30 00 00 01 	addic   r0,r0,1
 18006c0:	90 1f 00 18 	stw     r0,24(r31)
 18006c4:	48 00 03 40 	b       1800a04 <swi120+0x7e4>
 18006c8:	80 1f 00 18 	lwz     r0,24(r31)
 18006cc:	30 00 00 01 	addic   r0,r0,1
 18006d0:	90 1f 00 18 	stw     r0,24(r31)
 18006d4:	48 00 03 30 	b       1800a04 <swi120+0x7e4>
 18006d8:	80 1f 00 18 	lwz     r0,24(r31)
 18006dc:	30 00 00 01 	addic   r0,r0,1
 18006e0:	90 1f 00 18 	stw     r0,24(r31)
 18006e4:	48 00 03 20 	b       1800a04 <swi120+0x7e4>
 18006e8:	80 1f 00 18 	lwz     r0,24(r31)
 18006ec:	30 00 00 01 	addic   r0,r0,1
 18006f0:	90 1f 00 18 	stw     r0,24(r31)
 18006f4:	48 00 03 10 	b       1800a04 <swi120+0x7e4>
 18006f8:	80 1f 00 18 	lwz     r0,24(r31)
 18006fc:	30 00 00 01 	addic   r0,r0,1
 1800700:	90 1f 00 18 	stw     r0,24(r31)
 1800704:	48 00 03 00 	b       1800a04 <swi120+0x7e4>
 1800708:	80 1f 00 18 	lwz     r0,24(r31)
 180070c:	30 00 00 01 	addic   r0,r0,1
 1800710:	90 1f 00 18 	stw     r0,24(r31)
 1800714:	48 00 02 f0 	b       1800a04 <swi120+0x7e4>
 1800718:	80 1f 00 18 	lwz     r0,24(r31)
 180071c:	30 00 00 01 	addic   r0,r0,1
 1800720:	90 1f 00 18 	stw     r0,24(r31)
 1800724:	48 00 02 e0 	b       1800a04 <swi120+0x7e4>
 1800728:	80 1f 00 18 	lwz     r0,24(r31)
 180072c:	30 00 00 01 	addic   r0,r0,1
 1800730:	90 1f 00 18 	stw     r0,24(r31)
 1800734:	48 00 02 d0 	b       1800a04 <swi120+0x7e4>
 1800738:	80 1f 00 18 	lwz     r0,24(r31)
 180073c:	30 00 00 01 	addic   r0,r0,1
 1800740:	90 1f 00 18 	stw     r0,24(r31)
 1800744:	48 00 02 c0 	b       1800a04 <swi120+0x7e4>
 1800748:	80 1f 00 18 	lwz     r0,24(r31)
 180074c:	30 00 00 01 	addic   r0,r0,1
 1800750:	90 1f 00 18 	stw     r0,24(r31)
 1800754:	48 00 02 b0 	b       1800a04 <swi120+0x7e4>
 1800758:	80 1f 00 18 	lwz     r0,24(r31)
 180075c:	30 00 00 01 	addic   r0,r0,1
 1800760:	90 1f 00 18 	stw     r0,24(r31)
 1800764:	48 00 02 a0 	b       1800a04 <swi120+0x7e4>
 1800768:	80 1f 00 18 	lwz     r0,24(r31)
 180076c:	30 00 00 01 	addic   r0,r0,1
 1800770:	90 1f 00 18 	stw     r0,24(r31)
 1800774:	48 00 02 90 	b       1800a04 <swi120+0x7e4>
 1800778:	80 1f 00 18 	lwz     r0,24(r31)
 180077c:	30 00 00 01 	addic   r0,r0,1
 1800780:	90 1f 00 18 	stw     r0,24(r31)
 1800784:	48 00 02 80 	b       1800a04 <swi120+0x7e4>
 1800788:	80 1f 00 18 	lwz     r0,24(r31)
 180078c:	30 00 00 01 	addic   r0,r0,1
 1800790:	90 1f 00 18 	stw     r0,24(r31)
 1800794:	48 00 02 70 	b       1800a04 <swi120+0x7e4>
 1800798:	80 1f 00 18 	lwz     r0,24(r31)
 180079c:	30 00 00 01 	addic   r0,r0,1
 18007a0:	90 1f 00 18 	stw     r0,24(r31)
 18007a4:	48 00 02 60 	b       1800a04 <swi120+0x7e4>
 18007a8:	80 1f 00 18 	lwz     r0,24(r31)
 18007ac:	30 00 00 01 	addic   r0,r0,1
 18007b0:	90 1f 00 18 	stw     r0,24(r31)
 18007b4:	48 00 02 50 	b       1800a04 <swi120+0x7e4>
 18007b8:	80 1f 00 18 	lwz     r0,24(r31)
 18007bc:	30 00 00 01 	addic   r0,r0,1
 18007c0:	90 1f 00 18 	stw     r0,24(r31)
 18007c4:	48 00 02 40 	b       1800a04 <swi120+0x7e4>
 18007c8:	80 1f 00 18 	lwz     r0,24(r31)
 18007cc:	30 00 00 01 	addic   r0,r0,1
 18007d0:	90 1f 00 18 	stw     r0,24(r31)
 18007d4:	48 00 02 30 	b       1800a04 <swi120+0x7e4>
 18007d8:	80 1f 00 18 	lwz     r0,24(r31)
 18007dc:	30 00 00 01 	addic   r0,r0,1
 18007e0:	90 1f 00 18 	stw     r0,24(r31)
 18007e4:	48 00 02 20 	b       1800a04 <swi120+0x7e4>
 18007e8:	80 1f 00 18 	lwz     r0,24(r31)
 18007ec:	30 00 00 01 	addic   r0,r0,1
 18007f0:	90 1f 00 18 	stw     r0,24(r31)
 18007f4:	48 00 02 10 	b       1800a04 <swi120+0x7e4>
 18007f8:	80 1f 00 18 	lwz     r0,24(r31)
 18007fc:	30 00 00 01 	addic   r0,r0,1
 1800800:	90 1f 00 18 	stw     r0,24(r31)
 1800804:	48 00 02 00 	b       1800a04 <swi120+0x7e4>
 1800808:	80 1f 00 18 	lwz     r0,24(r31)
 180080c:	30 00 00 01 	addic   r0,r0,1
 1800810:	90 1f 00 18 	stw     r0,24(r31)
 1800814:	48 00 01 f0 	b       1800a04 <swi120+0x7e4>
 1800818:	80 1f 00 18 	lwz     r0,24(r31)
 180081c:	30 00 00 01 	addic   r0,r0,1
 1800820:	90 1f 00 18 	stw     r0,24(r31)
 1800824:	48 00 01 e0 	b       1800a04 <swi120+0x7e4>
 1800828:	80 1f 00 18 	lwz     r0,24(r31)
 180082c:	30 00 00 01 	addic   r0,r0,1
 1800830:	90 1f 00 18 	stw     r0,24(r31)
 1800834:	48 00 01 d0 	b       1800a04 <swi120+0x7e4>
 1800838:	80 1f 00 18 	lwz     r0,24(r31)
 180083c:	30 00 00 01 	addic   r0,r0,1
 1800840:	90 1f 00 18 	stw     r0,24(r31)
 1800844:	48 00 01 c0 	b       1800a04 <swi120+0x7e4>
 1800848:	80 1f 00 18 	lwz     r0,24(r31)
 180084c:	30 00 00 01 	addic   r0,r0,1
 1800850:	90 1f 00 18 	stw     r0,24(r31)
 1800854:	48 00 01 b0 	b       1800a04 <swi120+0x7e4>
 1800858:	80 1f 00 18 	lwz     r0,24(r31)
 180085c:	30 00 00 01 	addic   r0,r0,1
 1800860:	90 1f 00 18 	stw     r0,24(r31)
 1800864:	48 00 01 a0 	b       1800a04 <swi120+0x7e4>
 1800868:	80 1f 00 18 	lwz     r0,24(r31)
 180086c:	30 00 00 01 	addic   r0,r0,1
 1800870:	90 1f 00 18 	stw     r0,24(r31)
 1800874:	48 00 01 90 	b       1800a04 <swi120+0x7e4>
 1800878:	80 1f 00 18 	lwz     r0,24(r31)
 180087c:	30 00 00 01 	addic   r0,r0,1
 1800880:	90 1f 00 18 	stw     r0,24(r31)
 1800884:	48 00 01 80 	b       1800a04 <swi120+0x7e4>
 1800888:	80 1f 00 18 	lwz     r0,24(r31)
 180088c:	30 00 00 01 	addic   r0,r0,1
 1800890:	90 1f 00 18 	stw     r0,24(r31)
 1800894:	48 00 01 70 	b       1800a04 <swi120+0x7e4>
 1800898:	80 1f 00 18 	lwz     r0,24(r31)
 180089c:	30 00 00 01 	addic   r0,r0,1
 18008a0:	90 1f 00 18 	stw     r0,24(r31)
 18008a4:	48 00 01 60 	b       1800a04 <swi120+0x7e4>
 18008a8:	80 1f 00 18 	lwz     r0,24(r31)
 18008ac:	30 00 00 01 	addic   r0,r0,1
 18008b0:	90 1f 00 18 	stw     r0,24(r31)
 18008b4:	48 00 01 50 	b       1800a04 <swi120+0x7e4>
 18008b8:	80 1f 00 18 	lwz     r0,24(r31)
 18008bc:	30 00 00 01 	addic   r0,r0,1
 18008c0:	90 1f 00 18 	stw     r0,24(r31)
 18008c4:	48 00 01 40 	b       1800a04 <swi120+0x7e4>
 18008c8:	80 1f 00 18 	lwz     r0,24(r31)
 18008cc:	30 00 00 01 	addic   r0,r0,1
 18008d0:	90 1f 00 18 	stw     r0,24(r31)
 18008d4:	48 00 01 30 	b       1800a04 <swi120+0x7e4>
 18008d8:	80 1f 00 18 	lwz     r0,24(r31)
 18008dc:	30 00 00 01 	addic   r0,r0,1
 18008e0:	90 1f 00 18 	stw     r0,24(r31)
 18008e4:	48 00 01 20 	b       1800a04 <swi120+0x7e4>
 18008e8:	80 1f 00 18 	lwz     r0,24(r31)
 18008ec:	30 00 00 01 	addic   r0,r0,1
 18008f0:	90 1f 00 18 	stw     r0,24(r31)
 18008f4:	48 00 01 10 	b       1800a04 <swi120+0x7e4>
 18008f8:	80 1f 00 18 	lwz     r0,24(r31)
 18008fc:	30 00 00 01 	addic   r0,r0,1
 1800900:	90 1f 00 18 	stw     r0,24(r31)
 1800904:	48 00 01 00 	b       1800a04 <swi120+0x7e4>
 1800908:	80 1f 00 18 	lwz     r0,24(r31)
 180090c:	30 00 00 01 	addic   r0,r0,1
 1800910:	90 1f 00 18 	stw     r0,24(r31)
 1800914:	48 00 00 f0 	b       1800a04 <swi120+0x7e4>
 1800918:	80 1f 00 18 	lwz     r0,24(r31)
 180091c:	30 00 00 01 	addic   r0,r0,1
 1800920:	90 1f 00 18 	stw     r0,24(r31)
 1800924:	48 00 00 e0 	b       1800a04 <swi120+0x7e4>
 1800928:	80 1f 00 18 	lwz     r0,24(r31)
 180092c:	30 00 00 01 	addic   r0,r0,1
 1800930:	90 1f 00 18 	stw     r0,24(r31)
 1800934:	48 00 00 d0 	b       1800a04 <swi120+0x7e4>
 1800938:	80 1f 00 18 	lwz     r0,24(r31)
 180093c:	30 00 00 01 	addic   r0,r0,1
 1800940:	90 1f 00 18 	stw     r0,24(r31)
 1800944:	48 00 00 c0 	b       1800a04 <swi120+0x7e4>
 1800948:	80 1f 00 18 	lwz     r0,24(r31)
 180094c:	30 00 00 01 	addic   r0,r0,1
 1800950:	90 1f 00 18 	stw     r0,24(r31)
 1800954:	48 00 00 b0 	b       1800a04 <swi120+0x7e4>
 1800958:	80 1f 00 18 	lwz     r0,24(r31)
 180095c:	30 00 00 01 	addic   r0,r0,1
 1800960:	90 1f 00 18 	stw     r0,24(r31)
 1800964:	48 00 00 a0 	b       1800a04 <swi120+0x7e4>
 1800968:	80 1f 00 18 	lwz     r0,24(r31)
 180096c:	30 00 00 01 	addic   r0,r0,1
 1800970:	90 1f 00 18 	stw     r0,24(r31)
 1800974:	48 00 00 90 	b       1800a04 <swi120+0x7e4>
 1800978:	80 1f 00 18 	lwz     r0,24(r31)
 180097c:	30 00 00 01 	addic   r0,r0,1
 1800980:	90 1f 00 18 	stw     r0,24(r31)
 1800984:	48 00 00 80 	b       1800a04 <swi120+0x7e4>
 1800988:	80 1f 00 18 	lwz     r0,24(r31)
 180098c:	30 00 00 01 	addic   r0,r0,1
 1800990:	90 1f 00 18 	stw     r0,24(r31)
 1800994:	48 00 00 70 	b       1800a04 <swi120+0x7e4>
 1800998:	80 1f 00 18 	lwz     r0,24(r31)
 180099c:	30 00 00 01 	addic   r0,r0,1
 18009a0:	90 1f 00 18 	stw     r0,24(r31)
 18009a4:	48 00 00 60 	b       1800a04 <swi120+0x7e4>
 18009a8:	80 1f 00 18 	lwz     r0,24(r31)
 18009ac:	30 00 00 01 	addic   r0,r0,1
 18009b0:	90 1f 00 18 	stw     r0,24(r31)
 18009b4:	48 00 00 50 	b       1800a04 <swi120+0x7e4>
 18009b8:	80 1f 00 18 	lwz     r0,24(r31)
 18009bc:	30 00 00 01 	addic   r0,r0,1
 18009c0:	90 1f 00 18 	stw     r0,24(r31)
 18009c4:	48 00 00 40 	b       1800a04 <swi120+0x7e4>
 18009c8:	80 1f 00 18 	lwz     r0,24(r31)
 18009cc:	30 00 00 01 	addic   r0,r0,1
 18009d0:	90 1f 00 18 	stw     r0,24(r31)
 18009d4:	48 00 00 30 	b       1800a04 <swi120+0x7e4>
 18009d8:	80 1f 00 18 	lwz     r0,24(r31)
 18009dc:	30 00 00 01 	addic   r0,r0,1
 18009e0:	90 1f 00 18 	stw     r0,24(r31)
 18009e4:	48 00 00 20 	b       1800a04 <swi120+0x7e4>
 18009e8:	80 1f 00 18 	lwz     r0,24(r31)
 18009ec:	30 00 00 01 	addic   r0,r0,1
 18009f0:	90 1f 00 18 	stw     r0,24(r31)
 18009f4:	48 00 00 10 	b       1800a04 <swi120+0x7e4>
 18009f8:	80 1f 00 18 	lwz     r0,24(r31)
 18009fc:	30 00 ff ff 	addic   r0,r0,-1
 1800a00:	90 1f 00 18 	stw     r0,24(r31)
 1800a04:	80 1f 00 08 	lwz     r0,8(r31)
 1800a08:	30 00 00 01 	addic   r0,r0,1
 1800a0c:	90 1f 00 08 	stw     r0,8(r31)
 1800a10:	80 1f 00 08 	lwz     r0,8(r31)
 1800a14:	2f 80 00 77 	cmpwi   cr7,r0,119
 1800a18:	40 9d f8 24 	ble+    cr7,180023c <swi120+0x1c>
 1800a1c:	80 1f 00 18 	lwz     r0,24(r31)
 1800a20:	7c 03 03 78 	mr      r3,r0
 1800a24:	39 7f 00 28 	addi    r11,r31,40
 1800a28:	83 eb ff fc 	lwz     r31,-4(r11)
 1800a2c:	7d 61 5b 78 	mr      r1,r11
 1800a30:	4e 80 00 20 	blr

01800a34 <swi50>:
 1800a34:	94 21 ff d8 	stwu    r1,-40(r1)
 1800a38:	93 e1 00 24 	stw     r31,36(r1)
 1800a3c:	7c 3f 0b 78 	mr      r31,r1
 1800a40:	90 7f 00 18 	stw     r3,24(r31)
 1800a44:	38 00 00 00 	li      r0,0
 1800a48:	90 1f 00 08 	stw     r0,8(r31)
 1800a4c:	48 00 04 18 	b       1800e64 <swi50+0x430>
 1800a50:	80 1f 00 08 	lwz     r0,8(r31)
 1800a54:	2b 80 00 3b 	cmplwi  cr7,r0,59
 1800a58:	41 9d 03 f4 	bgt-    cr7,1800e4c <swi50+0x418>
 1800a5c:	80 1f 00 08 	lwz     r0,8(r31)
 1800a60:	54 09 10 3a 	rlwinm  r9,r0,2,0,29
 1800a64:	3c 00 01 80 	lis     r0,384
 1800a68:	30 00 13 c0 	addic   r0,r0,5056
 1800a6c:	7c 09 02 14 	add     r0,r9,r0
 1800a70:	7c 0b 03 78 	mr      r11,r0
 1800a74:	81 2b 00 00 	lwz     r9,0(r11)
 1800a78:	3c 00 01 80 	lis     r0,384
 1800a7c:	30 00 13 c0 	addic   r0,r0,5056
 1800a80:	7c 09 02 14 	add     r0,r9,r0
 1800a84:	7c 09 03 a6 	mtctr   r0
 1800a88:	4e 80 04 20 	bctr
 1800a8c:	80 1f 00 18 	lwz     r0,24(r31)
 1800a90:	30 00 00 01 	addic   r0,r0,1
 1800a94:	90 1f 00 18 	stw     r0,24(r31)
 1800a98:	48 00 03 c0 	b       1800e58 <swi50+0x424>
 1800a9c:	80 1f 00 18 	lwz     r0,24(r31)
 1800aa0:	30 00 00 01 	addic   r0,r0,1
 1800aa4:	90 1f 00 18 	stw     r0,24(r31)
 1800aa8:	48 00 03 b0 	b       1800e58 <swi50+0x424>
 1800aac:	80 1f 00 18 	lwz     r0,24(r31)
 1800ab0:	30 00 00 01 	addic   r0,r0,1
 1800ab4:	90 1f 00 18 	stw     r0,24(r31)
 1800ab8:	48 00 03 a0 	b       1800e58 <swi50+0x424>
 1800abc:	80 1f 00 18 	lwz     r0,24(r31)
 1800ac0:	30 00 00 01 	addic   r0,r0,1
 1800ac4:	90 1f 00 18 	stw     r0,24(r31)
 1800ac8:	48 00 03 90 	b       1800e58 <swi50+0x424>
 1800acc:	80 1f 00 18 	lwz     r0,24(r31)
 1800ad0:	30 00 00 01 	addic   r0,r0,1
 1800ad4:	90 1f 00 18 	stw     r0,24(r31)
 1800ad8:	48 00 03 80 	b       1800e58 <swi50+0x424>
 1800adc:	80 1f 00 18 	lwz     r0,24(r31)
 1800ae0:	30 00 00 01 	addic   r0,r0,1
 1800ae4:	90 1f 00 18 	stw     r0,24(r31)
 1800ae8:	48 00 03 70 	b       1800e58 <swi50+0x424>
 1800aec:	80 1f 00 18 	lwz     r0,24(r31)
 1800af0:	30 00 00 01 	addic   r0,r0,1
 1800af4:	90 1f 00 18 	stw     r0,24(r31)
 1800af8:	48 00 03 60 	b       1800e58 <swi50+0x424>
 1800afc:	80 1f 00 18 	lwz     r0,24(r31)
 1800b00:	30 00 00 01 	addic   r0,r0,1
 1800b04:	90 1f 00 18 	stw     r0,24(r31)
 1800b08:	48 00 03 50 	b       1800e58 <swi50+0x424>
 1800b0c:	80 1f 00 18 	lwz     r0,24(r31)
 1800b10:	30 00 00 01 	addic   r0,r0,1
 1800b14:	90 1f 00 18 	stw     r0,24(r31)
 1800b18:	48 00 03 40 	b       1800e58 <swi50+0x424>
 1800b1c:	80 1f 00 18 	lwz     r0,24(r31)
 1800b20:	30 00 00 01 	addic   r0,r0,1
 1800b24:	90 1f 00 18 	stw     r0,24(r31)
 1800b28:	48 00 03 30 	b       1800e58 <swi50+0x424>
 1800b2c:	80 1f 00 18 	lwz     r0,24(r31)
 1800b30:	30 00 00 01 	addic   r0,r0,1
 1800b34:	90 1f 00 18 	stw     r0,24(r31)
 1800b38:	48 00 03 20 	b       1800e58 <swi50+0x424>
 1800b3c:	80 1f 00 18 	lwz     r0,24(r31)
 1800b40:	30 00 00 01 	addic   r0,r0,1
 1800b44:	90 1f 00 18 	stw     r0,24(r31)
 1800b48:	48 00 03 10 	b       1800e58 <swi50+0x424>
 1800b4c:	80 1f 00 18 	lwz     r0,24(r31)
 1800b50:	30 00 00 01 	addic   r0,r0,1
 1800b54:	90 1f 00 18 	stw     r0,24(r31)
 1800b58:	48 00 03 00 	b       1800e58 <swi50+0x424>
 1800b5c:	80 1f 00 18 	lwz     r0,24(r31)
 1800b60:	30 00 00 01 	addic   r0,r0,1
 1800b64:	90 1f 00 18 	stw     r0,24(r31)
 1800b68:	48 00 02 f0 	b       1800e58 <swi50+0x424>
 1800b6c:	80 1f 00 18 	lwz     r0,24(r31)
 1800b70:	30 00 00 01 	addic   r0,r0,1
 1800b74:	90 1f 00 18 	stw     r0,24(r31)
 1800b78:	48 00 02 e0 	b       1800e58 <swi50+0x424>
 1800b7c:	80 1f 00 18 	lwz     r0,24(r31)
 1800b80:	30 00 00 01 	addic   r0,r0,1
 1800b84:	90 1f 00 18 	stw     r0,24(r31)
 1800b88:	48 00 02 d0 	b       1800e58 <swi50+0x424>
 1800b8c:	80 1f 00 18 	lwz     r0,24(r31)
 1800b90:	30 00 00 01 	addic   r0,r0,1
 1800b94:	90 1f 00 18 	stw     r0,24(r31)
 1800b98:	48 00 02 c0 	b       1800e58 <swi50+0x424>
 1800b9c:	80 1f 00 18 	lwz     r0,24(r31)
 1800ba0:	30 00 00 01 	addic   r0,r0,1
 1800ba4:	90 1f 00 18 	stw     r0,24(r31)
 1800ba8:	48 00 02 b0 	b       1800e58 <swi50+0x424>
 1800bac:	80 1f 00 18 	lwz     r0,24(r31)
 1800bb0:	30 00 00 01 	addic   r0,r0,1
 1800bb4:	90 1f 00 18 	stw     r0,24(r31)
 1800bb8:	48 00 02 a0 	b       1800e58 <swi50+0x424>
 1800bbc:	80 1f 00 18 	lwz     r0,24(r31)
 1800bc0:	30 00 00 01 	addic   r0,r0,1
 1800bc4:	90 1f 00 18 	stw     r0,24(r31)
 1800bc8:	48 00 02 90 	b       1800e58 <swi50+0x424>
 1800bcc:	80 1f 00 18 	lwz     r0,24(r31)
 1800bd0:	30 00 00 01 	addic   r0,r0,1
 1800bd4:	90 1f 00 18 	stw     r0,24(r31)
 1800bd8:	48 00 02 80 	b       1800e58 <swi50+0x424>
 1800bdc:	80 1f 00 18 	lwz     r0,24(r31)
 1800be0:	30 00 00 01 	addic   r0,r0,1
 1800be4:	90 1f 00 18 	stw     r0,24(r31)
 1800be8:	48 00 02 70 	b       1800e58 <swi50+0x424>
 1800bec:	80 1f 00 18 	lwz     r0,24(r31)
 1800bf0:	30 00 00 01 	addic   r0,r0,1
 1800bf4:	90 1f 00 18 	stw     r0,24(r31)
 1800bf8:	48 00 02 60 	b       1800e58 <swi50+0x424>
 1800bfc:	80 1f 00 18 	lwz     r0,24(r31)
 1800c00:	30 00 00 01 	addic   r0,r0,1
 1800c04:	90 1f 00 18 	stw     r0,24(r31)
 1800c08:	48 00 02 50 	b       1800e58 <swi50+0x424>
 1800c0c:	80 1f 00 18 	lwz     r0,24(r31)
 1800c10:	30 00 00 01 	addic   r0,r0,1
 1800c14:	90 1f 00 18 	stw     r0,24(r31)
 1800c18:	48 00 02 40 	b       1800e58 <swi50+0x424>
 1800c1c:	80 1f 00 18 	lwz     r0,24(r31)
 1800c20:	30 00 00 01 	addic   r0,r0,1
 1800c24:	90 1f 00 18 	stw     r0,24(r31)
 1800c28:	48 00 02 30 	b       1800e58 <swi50+0x424>
 1800c2c:	80 1f 00 18 	lwz     r0,24(r31)
 1800c30:	30 00 00 01 	addic   r0,r0,1
 1800c34:	90 1f 00 18 	stw     r0,24(r31)
 1800c38:	48 00 02 20 	b       1800e58 <swi50+0x424>
 1800c3c:	80 1f 00 18 	lwz     r0,24(r31)
 1800c40:	30 00 00 01 	addic   r0,r0,1
 1800c44:	90 1f 00 18 	stw     r0,24(r31)
 1800c48:	48 00 02 10 	b       1800e58 <swi50+0x424>
 1800c4c:	80 1f 00 18 	lwz     r0,24(r31)
 1800c50:	30 00 00 01 	addic   r0,r0,1
 1800c54:	90 1f 00 18 	stw     r0,24(r31)
 1800c58:	48 00 02 00 	b       1800e58 <swi50+0x424>
 1800c5c:	80 1f 00 18 	lwz     r0,24(r31)
 1800c60:	30 00 00 01 	addic   r0,r0,1
 1800c64:	90 1f 00 18 	stw     r0,24(r31)
 1800c68:	48 00 01 f0 	b       1800e58 <swi50+0x424>
 1800c6c:	80 1f 00 18 	lwz     r0,24(r31)
 1800c70:	30 00 00 01 	addic   r0,r0,1
 1800c74:	90 1f 00 18 	stw     r0,24(r31)
 1800c78:	48 00 01 e0 	b       1800e58 <swi50+0x424>
 1800c7c:	80 1f 00 18 	lwz     r0,24(r31)
 1800c80:	30 00 00 01 	addic   r0,r0,1
 1800c84:	90 1f 00 18 	stw     r0,24(r31)
 1800c88:	48 00 01 d0 	b       1800e58 <swi50+0x424>
 1800c8c:	80 1f 00 18 	lwz     r0,24(r31)
 1800c90:	30 00 00 01 	addic   r0,r0,1
 1800c94:	90 1f 00 18 	stw     r0,24(r31)
 1800c98:	48 00 01 c0 	b       1800e58 <swi50+0x424>
 1800c9c:	80 1f 00 18 	lwz     r0,24(r31)
 1800ca0:	30 00 00 01 	addic   r0,r0,1
 1800ca4:	90 1f 00 18 	stw     r0,24(r31)
 1800ca8:	48 00 01 b0 	b       1800e58 <swi50+0x424>
 1800cac:	80 1f 00 18 	lwz     r0,24(r31)
 1800cb0:	30 00 00 01 	addic   r0,r0,1
 1800cb4:	90 1f 00 18 	stw     r0,24(r31)
 1800cb8:	48 00 01 a0 	b       1800e58 <swi50+0x424>
 1800cbc:	80 1f 00 18 	lwz     r0,24(r31)
 1800cc0:	30 00 00 01 	addic   r0,r0,1
 1800cc4:	90 1f 00 18 	stw     r0,24(r31)
 1800cc8:	48 00 01 90 	b       1800e58 <swi50+0x424>
 1800ccc:	80 1f 00 18 	lwz     r0,24(r31)
 1800cd0:	30 00 00 01 	addic   r0,r0,1
 1800cd4:	90 1f 00 18 	stw     r0,24(r31)
 1800cd8:	48 00 01 80 	b       1800e58 <swi50+0x424>
 1800cdc:	80 1f 00 18 	lwz     r0,24(r31)
 1800ce0:	30 00 00 01 	addic   r0,r0,1
 1800ce4:	90 1f 00 18 	stw     r0,24(r31)
 1800ce8:	48 00 01 70 	b       1800e58 <swi50+0x424>
 1800cec:	80 1f 00 18 	lwz     r0,24(r31)
 1800cf0:	30 00 00 01 	addic   r0,r0,1
 1800cf4:	90 1f 00 18 	stw     r0,24(r31)
 1800cf8:	48 00 01 60 	b       1800e58 <swi50+0x424>
 1800cfc:	80 1f 00 18 	lwz     r0,24(r31)
 1800d00:	30 00 00 01 	addic   r0,r0,1
 1800d04:	90 1f 00 18 	stw     r0,24(r31)
 1800d08:	48 00 01 50 	b       1800e58 <swi50+0x424>
 1800d0c:	80 1f 00 18 	lwz     r0,24(r31)
 1800d10:	30 00 00 01 	addic   r0,r0,1
 1800d14:	90 1f 00 18 	stw     r0,24(r31)
 1800d18:	48 00 01 40 	b       1800e58 <swi50+0x424>
 1800d1c:	80 1f 00 18 	lwz     r0,24(r31)
 1800d20:	30 00 00 01 	addic   r0,r0,1
 1800d24:	90 1f 00 18 	stw     r0,24(r31)
 1800d28:	48 00 01 30 	b       1800e58 <swi50+0x424>
 1800d2c:	80 1f 00 18 	lwz     r0,24(r31)
 1800d30:	30 00 00 01 	addic   r0,r0,1
 1800d34:	90 1f 00 18 	stw     r0,24(r31)
 1800d38:	48 00 01 20 	b       1800e58 <swi50+0x424>
 1800d3c:	80 1f 00 18 	lwz     r0,24(r31)
 1800d40:	30 00 00 01 	addic   r0,r0,1
 1800d44:	90 1f 00 18 	stw     r0,24(r31)
 1800d48:	48 00 01 10 	b       1800e58 <swi50+0x424>
 1800d4c:	80 1f 00 18 	lwz     r0,24(r31)
 1800d50:	30 00 00 01 	addic   r0,r0,1
 1800d54:	90 1f 00 18 	stw     r0,24(r31)
 1800d58:	48 00 01 00 	b       1800e58 <swi50+0x424>
 1800d5c:	80 1f 00 18 	lwz     r0,24(r31)
 1800d60:	30 00 00 01 	addic   r0,r0,1
 1800d64:	90 1f 00 18 	stw     r0,24(r31)
 1800d68:	48 00 00 f0 	b       1800e58 <swi50+0x424>
 1800d6c:	80 1f 00 18 	lwz     r0,24(r31)
 1800d70:	30 00 00 01 	addic   r0,r0,1
 1800d74:	90 1f 00 18 	stw     r0,24(r31)
 1800d78:	48 00 00 e0 	b       1800e58 <swi50+0x424>
 1800d7c:	80 1f 00 18 	lwz     r0,24(r31)
 1800d80:	30 00 00 01 	addic   r0,r0,1
 1800d84:	90 1f 00 18 	stw     r0,24(r31)
 1800d88:	48 00 00 d0 	b       1800e58 <swi50+0x424>
 1800d8c:	80 1f 00 18 	lwz     r0,24(r31)
 1800d90:	30 00 00 01 	addic   r0,r0,1
 1800d94:	90 1f 00 18 	stw     r0,24(r31)
 1800d98:	48 00 00 c0 	b       1800e58 <swi50+0x424>
 1800d9c:	80 1f 00 18 	lwz     r0,24(r31)
 1800da0:	30 00 00 01 	addic   r0,r0,1
 1800da4:	90 1f 00 18 	stw     r0,24(r31)
 1800da8:	48 00 00 b0 	b       1800e58 <swi50+0x424>
 1800dac:	80 1f 00 18 	lwz     r0,24(r31)
 1800db0:	30 00 00 01 	addic   r0,r0,1
 1800db4:	90 1f 00 18 	stw     r0,24(r31)
 1800db8:	48 00 00 a0 	b       1800e58 <swi50+0x424>
 1800dbc:	80 1f 00 18 	lwz     r0,24(r31)
 1800dc0:	30 00 00 01 	addic   r0,r0,1
 1800dc4:	90 1f 00 18 	stw     r0,24(r31)
 1800dc8:	48 00 00 90 	b       1800e58 <swi50+0x424>
 1800dcc:	80 1f 00 18 	lwz     r0,24(r31)
 1800dd0:	30 00 00 01 	addic   r0,r0,1
 1800dd4:	90 1f 00 18 	stw     r0,24(r31)
 1800dd8:	48 00 00 80 	b       1800e58 <swi50+0x424>
 1800ddc:	80 1f 00 18 	lwz     r0,24(r31)
 1800de0:	30 00 00 01 	addic   r0,r0,1
 1800de4:	90 1f 00 18 	stw     r0,24(r31)
 1800de8:	48 00 00 70 	b       1800e58 <swi50+0x424>
 1800dec:	80 1f 00 18 	lwz     r0,24(r31)
 1800df0:	30 00 00 01 	addic   r0,r0,1
 1800df4:	90 1f 00 18 	stw     r0,24(r31)
 1800df8:	48 00 00 60 	b       1800e58 <swi50+0x424>
 1800dfc:	80 1f 00 18 	lwz     r0,24(r31)
 1800e00:	30 00 00 01 	addic   r0,r0,1
 1800e04:	90 1f 00 18 	stw     r0,24(r31)
 1800e08:	48 00 00 50 	b       1800e58 <swi50+0x424>
 1800e0c:	80 1f 00 18 	lwz     r0,24(r31)
 1800e10:	30 00 00 01 	addic   r0,r0,1
 1800e14:	90 1f 00 18 	stw     r0,24(r31)
 1800e18:	48 00 00 40 	b       1800e58 <swi50+0x424>
 1800e1c:	80 1f 00 18 	lwz     r0,24(r31)
 1800e20:	30 00 00 01 	addic   r0,r0,1
 1800e24:	90 1f 00 18 	stw     r0,24(r31)
 1800e28:	48 00 00 30 	b       1800e58 <swi50+0x424>
 1800e2c:	80 1f 00 18 	lwz     r0,24(r31)
 1800e30:	30 00 00 01 	addic   r0,r0,1
 1800e34:	90 1f 00 18 	stw     r0,24(r31)
 1800e38:	48 00 00 20 	b       1800e58 <swi50+0x424>
 1800e3c:	80 1f 00 18 	lwz     r0,24(r31)
 1800e40:	30 00 00 01 	addic   r0,r0,1
 1800e44:	90 1f 00 18 	stw     r0,24(r31)
 1800e48:	48 00 00 10 	b       1800e58 <swi50+0x424>
 1800e4c:	80 1f 00 18 	lwz     r0,24(r31)
 1800e50:	30 00 ff ff 	addic   r0,r0,-1
 1800e54:	90 1f 00 18 	stw     r0,24(r31)
 1800e58:	80 1f 00 08 	lwz     r0,8(r31)
 1800e5c:	30 00 00 01 	addic   r0,r0,1
 1800e60:	90 1f 00 08 	stw     r0,8(r31)
 1800e64:	80 1f 00 08 	lwz     r0,8(r31)
 1800e68:	2f 80 00 31 	cmpwi   cr7,r0,49
 1800e6c:	40 9d fb e4 	ble+    cr7,1800a50 <swi50+0x1c>
 1800e70:	80 1f 00 18 	lwz     r0,24(r31)
 1800e74:	7c 03 03 78 	mr      r3,r0
 1800e78:	39 7f 00 28 	addi    r11,r31,40
 1800e7c:	83 eb ff fc 	lwz     r31,-4(r11)
 1800e80:	7d 61 5b 78 	mr      r1,r11
 1800e84:	4e 80 00 20 	blr

01800e88 <swi10>:
 1800e88:	94 21 ff d8 	stwu    r1,-40(r1)
 1800e8c:	93 e1 00 24 	stw     r31,36(r1)
 1800e90:	7c 3f 0b 78 	mr      r31,r1
 1800e94:	90 7f 00 18 	stw     r3,24(r31)
 1800e98:	38 00 00 00 	li      r0,0
 1800e9c:	90 1f 00 08 	stw     r0,8(r31)
 1800ea0:	48 00 00 f8 	b       1800f98 <swi10+0x110>
 1800ea4:	80 1f 00 08 	lwz     r0,8(r31)
 1800ea8:	2b 80 00 09 	cmplwi  cr7,r0,9
 1800eac:	41 9d 00 d4 	bgt-    cr7,1800f80 <swi10+0xf8>
 1800eb0:	80 1f 00 08 	lwz     r0,8(r31)
 1800eb4:	54 09 10 3a 	rlwinm  r9,r0,2,0,29
 1800eb8:	3c 00 01 80 	lis     r0,384
 1800ebc:	30 00 14 b0 	addic   r0,r0,5296
 1800ec0:	7c 09 02 14 	add     r0,r9,r0
 1800ec4:	7c 0b 03 78 	mr      r11,r0
 1800ec8:	81 2b 00 00 	lwz     r9,0(r11)
 1800ecc:	3c 00 01 80 	lis     r0,384
 1800ed0:	30 00 14 b0 	addic   r0,r0,5296
 1800ed4:	7c 09 02 14 	add     r0,r9,r0
 1800ed8:	7c 09 03 a6 	mtctr   r0
 1800edc:	4e 80 04 20 	bctr
 1800ee0:	80 1f 00 18 	lwz     r0,24(r31)
 1800ee4:	30 00 00 01 	addic   r0,r0,1
 1800ee8:	90 1f 00 18 	stw     r0,24(r31)
 1800eec:	48 00 00 a0 	b       1800f8c <swi10+0x104>
 1800ef0:	80 1f 00 18 	lwz     r0,24(r31)
 1800ef4:	30 00 00 01 	addic   r0,r0,1
 1800ef8:	90 1f 00 18 	stw     r0,24(r31)
 1800efc:	48 00 00 90 	b       1800f8c <swi10+0x104>
 1800f00:	80 1f 00 18 	lwz     r0,24(r31)
 1800f04:	30 00 00 01 	addic   r0,r0,1
 1800f08:	90 1f 00 18 	stw     r0,24(r31)
 1800f0c:	48 00 00 80 	b       1800f8c <swi10+0x104>
 1800f10:	80 1f 00 18 	lwz     r0,24(r31)
 1800f14:	30 00 00 01 	addic   r0,r0,1
 1800f18:	90 1f 00 18 	stw     r0,24(r31)
 1800f1c:	48 00 00 70 	b       1800f8c <swi10+0x104>
 1800f20:	80 1f 00 18 	lwz     r0,24(r31)
 1800f24:	30 00 00 01 	addic   r0,r0,1
 1800f28:	90 1f 00 18 	stw     r0,24(r31)
 1800f2c:	48 00 00 60 	b       1800f8c <swi10+0x104>
 1800f30:	80 1f 00 18 	lwz     r0,24(r31)
 1800f34:	30 00 00 01 	addic   r0,r0,1
 1800f38:	90 1f 00 18 	stw     r0,24(r31)
 1800f3c:	48 00 00 50 	b       1800f8c <swi10+0x104>
 1800f40:	80 1f 00 18 	lwz     r0,24(r31)
 1800f44:	30 00 00 01 	addic   r0,r0,1
 1800f48:	90 1f 00 18 	stw     r0,24(r31)
 1800f4c:	48 00 00 40 	b       1800f8c <swi10+0x104>
 1800f50:	80 1f 00 18 	lwz     r0,24(r31)
 1800f54:	30 00 00 01 	addic   r0,r0,1
 1800f58:	90 1f 00 18 	stw     r0,24(r31)
 1800f5c:	48 00 00 30 	b       1800f8c <swi10+0x104>
 1800f60:	80 1f 00 18 	lwz     r0,24(r31)
 1800f64:	30 00 00 01 	addic   r0,r0,1
 1800f68:	90 1f 00 18 	stw     r0,24(r31)
 1800f6c:	48 00 00 20 	b       1800f8c <swi10+0x104>
 1800f70:	80 1f 00 18 	lwz     r0,24(r31)
 1800f74:	30 00 00 01 	addic   r0,r0,1
 1800f78:	90 1f 00 18 	stw     r0,24(r31)
 1800f7c:	48 00 00 10 	b       1800f8c <swi10+0x104>
 1800f80:	80 1f 00 18 	lwz     r0,24(r31)
 1800f84:	30 00 ff ff 	addic   r0,r0,-1
 1800f88:	90 1f 00 18 	stw     r0,24(r31)
 1800f8c:	80 1f 00 08 	lwz     r0,8(r31)
 1800f90:	30 00 00 01 	addic   r0,r0,1
 1800f94:	90 1f 00 08 	stw     r0,8(r31)
 1800f98:	80 1f 00 08 	lwz     r0,8(r31)
 1800f9c:	2f 80 00 09 	cmpwi   cr7,r0,9
 1800fa0:	40 9d ff 04 	ble+    cr7,1800ea4 <swi10+0x1c>
 1800fa4:	80 1f 00 18 	lwz     r0,24(r31)
 1800fa8:	7c 03 03 78 	mr      r3,r0
 1800fac:	39 7f 00 28 	addi    r11,r31,40
 1800fb0:	83 eb ff fc 	lwz     r31,-4(r11)
 1800fb4:	7d 61 5b 78 	mr      r1,r11
 1800fb8:	4e 80 00 20 	blr

01800fbc <main>:
 1800fbc:	94 21 ff e0 	stwu    r1,-32(r1)
 1800fc0:	7c 08 02 a6 	mflr    r0
 1800fc4:	90 01 00 24 	stw     r0,36(r1)
 1800fc8:	93 e1 00 1c 	stw     r31,28(r1)
 1800fcc:	7c 3f 0b 78 	mr      r31,r1
 1800fd0:	48 00 00 d1 	bl      18010a0 <__eabi>
 1800fd4:	38 00 00 00 	li      r0,0
 1800fd8:	90 1f 00 0c 	stw     r0,12(r31)
 1800fdc:	38 00 08 fc 	li      r0,2300
 1800fe0:	90 1f 00 08 	stw     r0,8(r31)
 1800fe4:	48 00 00 54 	b       1801038 <main+0x7c>
 1800fe8:	38 00 00 00 	li      r0,0
 1800fec:	90 1f 00 0c 	stw     r0,12(r31)
 1800ff0:	80 1f 00 0c 	lwz     r0,12(r31)
 1800ff4:	7c 03 03 78 	mr      r3,r0
 1800ff8:	4b ff fe 91 	bl      1800e88 <swi10>
 1800ffc:	7c 60 1b 78 	mr      r0,r3
 1801000:	90 1f 00 0c 	stw     r0,12(r31)
 1801004:	80 1f 00 0c 	lwz     r0,12(r31)
 1801008:	7c 03 03 78 	mr      r3,r0
 180100c:	4b ff fa 29 	bl      1800a34 <swi50>
 1801010:	7c 60 1b 78 	mr      r0,r3
 1801014:	90 1f 00 0c 	stw     r0,12(r31)
 1801018:	80 1f 00 0c 	lwz     r0,12(r31)
 180101c:	7c 03 03 78 	mr      r3,r0
 1801020:	4b ff f2 01 	bl      1800220 <swi120>
 1801024:	7c 60 1b 78 	mr      r0,r3
 1801028:	90 1f 00 0c 	stw     r0,12(r31)
 180102c:	80 1f 00 08 	lwz     r0,8(r31)
 1801030:	30 00 ff ff 	addic   r0,r0,-1
 1801034:	90 1f 00 08 	stw     r0,8(r31)
 1801038:	80 1f 00 08 	lwz     r0,8(r31)
 180103c:	2f 80 00 00 	cmpwi   cr7,r0,0
 1801040:	40 9e ff a8 	bne+    cr7,1800fe8 <main+0x2c>
 1801044:	80 1f 00 0c 	lwz     r0,12(r31)
 1801048:	7c 03 03 78 	mr      r3,r0
 180104c:	39 7f 00 20 	addi    r11,r31,32
 1801050:	80 0b 00 04 	lwz     r0,4(r11)
 1801054:	7c 08 03 a6 	mtlr    r0
 1801058:	83 eb ff fc 	lwz     r31,-4(r11)
 180105c:	7d 61 5b 78 	mr      r1,r11
 1801060:	4e 80 00 20 	blr

01801064 <_exit>:
 1801064:	94 21 ff e8 	stwu    r1,-24(r1)
 1801068:	93 e1 00 14 	stw     r31,20(r1)
 180106c:	7c 3f 0b 78 	mr      r31,r1
 1801070:	90 7f 00 08 	stw     r3,8(r31)
 1801074:	48 00 00 00 	b       1801074 <_exit+0x10>

01801078 <_start>:
 1801078:	94 21 ff f0 	stwu    r1,-16(r1)
 180107c:	7c 08 02 a6 	mflr    r0
 1801080:	90 01 00 14 	stw     r0,20(r1)
 1801084:	93 e1 00 0c 	stw     r31,12(r1)
 1801088:	7c 3f 0b 78 	mr      r31,r1
 180108c:	38 60 00 00 	li      r3,0
 1801090:	38 80 00 00 	li      r4,0
 1801094:	4b ff ff 29 	bl      1800fbc <main>
 1801098:	38 60 00 00 	li      r3,0
 180109c:	4b ff ff c9 	bl      1801064 <_exit>

018010a0 <__eabi>:
 18010a0:	3d 40 01 81 	lis     r10,385
 18010a4:	3d 60 01 81 	lis     r11,385
 18010a8:	81 2a 16 0c 	lwz     r9,5644(r10)
 18010ac:	39 6b 15 ec 	addi    r11,r11,5612
 18010b0:	29 09 00 00 	cmplwi  cr2,r9,0
 18010b4:	4c 8a 00 20 	bnelr   cr2
 18010b8:	90 2a 16 0c 	stw     r1,5644(r10)
 18010bc:	80 6b 00 08 	lwz     r3,8(r11)
 18010c0:	80 8b 00 0c 	lwz     r4,12(r11)
 18010c4:	7c 83 20 00 	cmpw    cr1,r3,r4
 18010c8:	41 86 00 08 	beq-    cr1,18010d0 <__eabi+0x30>
 18010cc:	81 ab 00 04 	lwz     r13,4(r11)
 18010d0:	80 6b 00 14 	lwz     r3,20(r11)
 18010d4:	80 8b 00 18 	lwz     r4,24(r11)
 18010d8:	7c 83 20 00 	cmpw    cr1,r3,r4
 18010dc:	41 a6 00 08 	beq+    cr1,18010e4 <__eabi+0x44>
 18010e0:	80 4b 00 10 	lwz     r2,16(r11)
 18010e4:	4b ff ef b0 	b       1800094 <__init>

018010e8 <__eabi_convert>:
 18010e8:	7c 83 20 40 	cmplw   cr1,r3,r4
 18010ec:	7c a3 20 50 	subf    r5,r3,r4
 18010f0:	4c 84 00 20 	bgelr   cr1
 18010f4:	7c a5 16 70 	srawi   r5,r5,2
 18010f8:	38 63 ff fc 	addi    r3,r3,-4
 18010fc:	7c a9 03 a6 	mtctr   r5
 1801100:	84 c3 00 04 	lwzu    r6,4(r3)
 1801104:	2c 06 00 00 	cmpwi   r6,0
 1801108:	41 82 00 0c 	beq-    1801114 <__eabi_convert+0x2c>
 180110c:	7c c6 62 14 	add     r6,r6,r12
 1801110:	90 c3 00 00 	stw     r6,0(r3)
 1801114:	42 00 ff ec 	bdnz+   1801100 <__eabi_convert+0x18>
 1801118:	4e 80 00 20 	blr

0180111c <__eabi_uconvert>:
 180111c:	7c 83 20 40 	cmplw   cr1,r3,r4
 1801120:	7c a3 20 50 	subf    r5,r3,r4
 1801124:	4c 84 00 20 	bgelr   cr1
 1801128:	7c a5 16 70 	srawi   r5,r5,2
 180112c:	38 63 ff fc 	addi    r3,r3,-4
 1801130:	7c a9 03 a6 	mtctr   r5
 1801134:	84 c3 00 04 	lwzu    r6,4(r3)
 1801138:	7c c6 62 14 	add     r6,r6,r12
 180113c:	80 e6 00 00 	lwz     r7,0(r6)
 1801140:	90 c3 00 00 	stw     r6,0(r3)
 1801144:	7c e7 62 14 	add     r7,r7,r12
 1801148:	90 e6 00 00 	stw     r7,0(r6)
 180114c:	42 00 ff e8 	bdnz+   1801134 <__eabi_uconvert+0x18>
 1801150:	4e 80 00 20 	blr

01801154 <__do_global_ctors_aux>:
 1801154:	7c 08 02 a6 	mflr    r0
 1801158:	94 21 ff f0 	stwu    r1,-16(r1)
 180115c:	93 e1 00 0c 	stw     r31,12(r1)
 1801160:	3f e0 01 81 	lis     r31,385
 1801164:	90 01 00 14 	stw     r0,20(r1)
 1801168:	3b ff 15 dc 	addi    r31,r31,5596
 180116c:	80 1f ff fc 	lwz     r0,-4(r31)
 1801170:	2f 80 ff ff 	cmpwi   cr7,r0,-1
 1801174:	41 9e 00 1c 	beq-    cr7,1801190 <__do_global_ctors_aux+0x3c>
 1801178:	3b ff ff fc 	addi    r31,r31,-4
 180117c:	7c 09 03 a6 	mtctr   r0
 1801180:	4e 80 04 21 	bctrl
 1801184:	84 1f ff fc 	lwzu    r0,-4(r31)
 1801188:	2f 80 ff ff 	cmpwi   cr7,r0,-1
 180118c:	40 9e ff f0 	bne+    cr7,180117c <__do_global_ctors_aux+0x28>
 1801190:	80 01 00 14 	lwz     r0,20(r1)
 1801194:	83 e1 00 0c 	lwz     r31,12(r1)
 1801198:	38 21 00 10 	addi    r1,r1,16
 180119c:	7c 08 03 a6 	mtlr    r0
 18011a0:	4e 80 00 20 	blr

018011a4 <call___do_global_ctors_aux>:
 18011a4:	7c 08 02 a6 	mflr    r0
 18011a8:	94 21 ff f8 	stwu    r1,-8(r1)
 18011ac:	90 01 00 0c 	stw     r0,12(r1)
 18011b0:	80 01 00 0c 	lwz     r0,12(r1)
 18011b4:	38 21 00 08 	addi    r1,r1,8
 18011b8:	7c 08 03 a6 	mtlr    r0
 18011bc:	4e 80 00 20 	blr

Disassembly of section .fini:

018011c0 <__fini>:
 18011c0:	94 21 ff f0 	stwu    r1,-16(r1)
 18011c4:	7c 08 02 a6 	mflr    r0
 18011c8:	90 01 00 14 	stw     r0,20(r1)
 18011cc:	4b ff ee ed 	bl      18000b8 <__do_global_dtors_aux>
 18011d0:	80 01 00 14 	lwz     r0,20(r1)
 18011d4:	7c 08 03 a6 	mtlr    r0
 18011d8:	38 21 00 10 	addi    r1,r1,16
 18011dc:	4e 80 00 20 	blr
