
/home/vaillant/ppc2/perf/malardalen/ppc-eabi/gcc-4.4.2/fir/fir.elf:     file format elf32-powerpc


Disassembly of section .init:

01800094 <__init>:
 1800094:	94 21 ff f0 	stwu    r1,-16(r1)
 1800098:	7c 08 02 a6 	mflr    r0
 180009c:	90 01 00 14 	stw     r0,20(r1)
 18000a0:	48 00 00 f9 	bl      1800198 <frame_dummy>
 18000a4:	48 00 04 bd 	bl      1800560 <__do_global_ctors_aux>
 18000a8:	80 01 00 14 	lwz     r0,20(r1)
 18000ac:	7c 08 03 a6 	mtlr    r0
 18000b0:	38 21 00 10 	addi    r1,r1,16
 18000b4:	4e 80 00 20 	blr

Disassembly of section .text:

018000b8 <__do_global_dtors_aux>:
 18000b8:	94 21 ff e8 	stwu    r1,-24(r1)
 18000bc:	7c 08 02 a6 	mflr    r0
 18000c0:	93 e1 00 14 	stw     r31,20(r1)
 18000c4:	3f e0 01 81 	lis     r31,385
 18000c8:	90 01 00 1c 	stw     r0,28(r1)
 18000cc:	88 1f 1d a4 	lbz     r0,7588(r31)
 18000d0:	93 81 00 08 	stw     r28,8(r1)
 18000d4:	2f 80 00 00 	cmpwi   cr7,r0,0
 18000d8:	93 a1 00 0c 	stw     r29,12(r1)
 18000dc:	93 c1 00 10 	stw     r30,16(r1)
 18000e0:	40 9e 00 7c 	bne-    cr7,180015c <__do_global_dtors_aux+0xa4>
 18000e4:	3f 80 01 81 	lis     r28,385
 18000e8:	3f a0 01 81 	lis     r29,385
 18000ec:	3b 9c 06 b0 	addi    r28,r28,1712
 18000f0:	3b bd 06 b4 	addi    r29,r29,1716
 18000f4:	7f bc e8 50 	subf    r29,r28,r29
 18000f8:	3f c0 01 81 	lis     r30,385
 18000fc:	7f bd 16 70 	srawi   r29,r29,2
 1800100:	81 3e 1d a8 	lwz     r9,7592(r30)
 1800104:	3b bd ff ff 	addi    r29,r29,-1
 1800108:	7f 89 e8 40 	cmplw   cr7,r9,r29
 180010c:	40 9c 00 2c 	bge-    cr7,1800138 <__do_global_dtors_aux+0x80>
 1800110:	3b de 1d a8 	addi    r30,r30,7592
 1800114:	39 29 00 01 	addi    r9,r9,1
 1800118:	55 20 10 3a 	rlwinm  r0,r9,2,0,29
 180011c:	91 3e 00 00 	stw     r9,0(r30)
 1800120:	7c 1c 00 2e 	lwzx    r0,r28,r0
 1800124:	7c 09 03 a6 	mtctr   r0
 1800128:	4e 80 04 21 	bctrl
 180012c:	81 3e 00 00 	lwz     r9,0(r30)
 1800130:	7f 89 e8 40 	cmplw   cr7,r9,r29
 1800134:	41 9c ff e0 	blt+    cr7,1800114 <__do_global_dtors_aux+0x5c>
 1800138:	3d 20 00 00 	lis     r9,0
 180013c:	38 09 00 00 	addi    r0,r9,0
 1800140:	2f 80 00 00 	cmpwi   cr7,r0,0
 1800144:	41 9e 00 10 	beq-    cr7,1800154 <__do_global_dtors_aux+0x9c>
 1800148:	3c 60 01 81 	lis     r3,385
 180014c:	38 63 06 18 	addi    r3,r3,1560
 1800150:	4a 7f fe b1 	bl      0 <__init-0x1800094>
 1800154:	38 00 00 01 	li      r0,1
 1800158:	98 1f 1d a4 	stb     r0,7588(r31)
 180015c:	80 01 00 1c 	lwz     r0,28(r1)
 1800160:	83 81 00 08 	lwz     r28,8(r1)
 1800164:	7c 08 03 a6 	mtlr    r0
 1800168:	83 a1 00 0c 	lwz     r29,12(r1)
 180016c:	83 c1 00 10 	lwz     r30,16(r1)
 1800170:	83 e1 00 14 	lwz     r31,20(r1)
 1800174:	38 21 00 18 	addi    r1,r1,24
 1800178:	4e 80 00 20 	blr

0180017c <call___do_global_dtors_aux>:
 180017c:	7c 08 02 a6 	mflr    r0
 1800180:	94 21 ff f8 	stwu    r1,-8(r1)
 1800184:	90 01 00 0c 	stw     r0,12(r1)
 1800188:	80 01 00 0c 	lwz     r0,12(r1)
 180018c:	38 21 00 08 	addi    r1,r1,8
 1800190:	7c 08 03 a6 	mtlr    r0
 1800194:	4e 80 00 20 	blr

01800198 <frame_dummy>:
 1800198:	7c 08 02 a6 	mflr    r0
 180019c:	94 21 ff f8 	stwu    r1,-8(r1)
 18001a0:	3d 20 00 00 	lis     r9,0
 18001a4:	90 01 00 0c 	stw     r0,12(r1)
 18001a8:	38 09 00 00 	addi    r0,r9,0
 18001ac:	2f 80 00 00 	cmpwi   cr7,r0,0
 18001b0:	41 9e 00 18 	beq-    cr7,18001c8 <frame_dummy+0x30>
 18001b4:	3c 60 01 81 	lis     r3,385
 18001b8:	3c 80 01 81 	lis     r4,385
 18001bc:	38 63 06 18 	addi    r3,r3,1560
 18001c0:	38 84 1d ac 	addi    r4,r4,7596
 18001c4:	4a 7f fe 3d 	bl      0 <__init-0x1800094>
 18001c8:	3c 60 01 81 	lis     r3,385
 18001cc:	80 03 06 b8 	lwz     r0,1720(r3)
 18001d0:	38 63 06 b8 	addi    r3,r3,1720
 18001d4:	2f 80 00 00 	cmpwi   cr7,r0,0
 18001d8:	41 9e 00 1c 	beq-    cr7,18001f4 <frame_dummy+0x5c>
 18001dc:	3d 20 00 00 	lis     r9,0
 18001e0:	38 09 00 00 	addi    r0,r9,0
 18001e4:	2f 80 00 00 	cmpwi   cr7,r0,0
 18001e8:	41 9e 00 0c 	beq-    cr7,18001f4 <frame_dummy+0x5c>
 18001ec:	7c 09 03 a6 	mtctr   r0
 18001f0:	4e 80 04 21 	bctrl
 18001f4:	80 01 00 0c 	lwz     r0,12(r1)
 18001f8:	38 21 00 08 	addi    r1,r1,8
 18001fc:	7c 08 03 a6 	mtlr    r0
 1800200:	4e 80 00 20 	blr

01800204 <call_frame_dummy>:
 1800204:	7c 08 02 a6 	mflr    r0
 1800208:	94 21 ff f8 	stwu    r1,-8(r1)
 180020c:	90 01 00 0c 	stw     r0,12(r1)
 1800210:	80 01 00 0c 	lwz     r0,12(r1)
 1800214:	38 21 00 08 	addi    r1,r1,8
 1800218:	7c 08 03 a6 	mtlr    r0
 180021c:	4e 80 00 20 	blr

01800220 <main>:
 1800220:	94 21 f4 a0 	stwu    r1,-2912(r1)
 1800224:	7c 08 02 a6 	mflr    r0
 1800228:	90 01 0b 64 	stw     r0,2916(r1)
 180022c:	93 e1 0b 5c 	stw     r31,2908(r1)
 1800230:	7c 3f 0b 78 	mr      r31,r1
 1800234:	48 00 02 79 	bl      18004ac <__eabi>
 1800238:	38 00 07 6c 	li      r0,1900
 180023c:	90 1f 00 08 	stw     r0,8(r31)
 1800240:	48 00 00 38 	b       1800278 <main+0x58>
 1800244:	38 1f 00 0c 	addi    r0,r31,12
 1800248:	3d 20 01 81 	lis     r9,385
 180024c:	38 69 07 6c 	addi    r3,r9,1900
 1800250:	7c 04 03 78 	mr      r4,r0
 1800254:	38 a0 00 0a 	li      r5,10
 1800258:	3c 00 01 81 	lis     r0,385
 180025c:	30 c0 06 dc 	addic   r6,r0,1756
 1800260:	38 e0 00 23 	li      r7,35
 1800264:	39 00 01 1d 	li      r8,285
 1800268:	48 00 00 35 	bl      180029c <fir_filter_int>
 180026c:	80 1f 00 08 	lwz     r0,8(r31)
 1800270:	30 00 ff ff 	addic   r0,r0,-1
 1800274:	90 1f 00 08 	stw     r0,8(r31)
 1800278:	80 1f 00 08 	lwz     r0,8(r31)
 180027c:	2f 80 00 00 	cmpwi   cr7,r0,0
 1800280:	40 9e ff c4 	bne+    cr7,1800244 <main+0x24>
 1800284:	39 7f 0b 60 	addi    r11,r31,2912
 1800288:	80 0b 00 04 	lwz     r0,4(r11)
 180028c:	7c 08 03 a6 	mtlr    r0
 1800290:	83 eb ff fc 	lwz     r31,-4(r11)
 1800294:	7d 61 5b 78 	mr      r1,r11
 1800298:	4e 80 00 20 	blr

0180029c <fir_filter_int>:
 180029c:	94 21 ff a8 	stwu    r1,-88(r1)
 18002a0:	93 e1 00 54 	stw     r31,84(r1)
 18002a4:	7c 3f 0b 78 	mr      r31,r1
 18002a8:	90 7f 00 38 	stw     r3,56(r31)
 18002ac:	90 9f 00 3c 	stw     r4,60(r31)
 18002b0:	90 bf 00 40 	stw     r5,64(r31)
 18002b4:	90 df 00 44 	stw     r6,68(r31)
 18002b8:	90 ff 00 48 	stw     r7,72(r31)
 18002bc:	91 1f 00 4c 	stw     r8,76(r31)
 18002c0:	80 1f 00 44 	lwz     r0,68(r31)
 18002c4:	90 1f 00 10 	stw     r0,16(r31)
 18002c8:	80 1f 00 48 	lwz     r0,72(r31)
 18002cc:	30 00 00 01 	addic   r0,r0,1
 18002d0:	7c 00 0e 70 	srawi   r0,r0,1
 18002d4:	90 1f 00 24 	stw     r0,36(r31)
 18002d8:	80 1f 00 40 	lwz     r0,64(r31)
 18002dc:	30 00 ff ff 	addic   r0,r0,-1
 18002e0:	54 00 10 3a 	rlwinm  r0,r0,2,0,29
 18002e4:	81 3f 00 38 	lwz     r9,56(r31)
 18002e8:	7c 09 02 14 	add     r0,r9,r0
 18002ec:	90 1f 00 08 	stw     r0,8(r31)
 18002f0:	80 1f 00 24 	lwz     r0,36(r31)
 18002f4:	30 00 ff ff 	addic   r0,r0,-1
 18002f8:	54 00 10 3a 	rlwinm  r0,r0,2,0,29
 18002fc:	81 3f 00 38 	lwz     r9,56(r31)
 1800300:	7c 09 02 14 	add     r0,r9,r0
 1800304:	90 1f 00 18 	stw     r0,24(r31)
 1800308:	80 1f 00 24 	lwz     r0,36(r31)
 180030c:	90 1f 00 20 	stw     r0,32(r31)
 1800310:	38 00 00 00 	li      r0,0
 1800314:	90 1f 00 2c 	stw     r0,44(r31)
 1800318:	48 00 01 38 	b       1800450 <fir_filter_int+0x1b4>
 180031c:	80 1f 00 18 	lwz     r0,24(r31)
 1800320:	90 1f 00 14 	stw     r0,20(r31)
 1800324:	80 1f 00 10 	lwz     r0,16(r31)
 1800328:	90 1f 00 0c 	stw     r0,12(r31)
 180032c:	80 1f 00 0c 	lwz     r0,12(r31)
 1800330:	7c 0b 03 78 	mr      r11,r0
 1800334:	81 2b 00 00 	lwz     r9,0(r11)
 1800338:	80 1f 00 14 	lwz     r0,20(r31)
 180033c:	7c 0b 03 78 	mr      r11,r0
 1800340:	80 0b 00 00 	lwz     r0,0(r11)
 1800344:	7c 09 01 d6 	mullw   r0,r9,r0
 1800348:	90 1f 00 1c 	stw     r0,28(r31)
 180034c:	80 1f 00 0c 	lwz     r0,12(r31)
 1800350:	30 00 00 04 	addic   r0,r0,4
 1800354:	90 1f 00 0c 	stw     r0,12(r31)
 1800358:	80 1f 00 14 	lwz     r0,20(r31)
 180035c:	30 00 ff fc 	addic   r0,r0,-4
 1800360:	90 1f 00 14 	stw     r0,20(r31)
 1800364:	38 00 00 01 	li      r0,1
 1800368:	90 1f 00 28 	stw     r0,40(r31)
 180036c:	48 00 00 50 	b       18003bc <fir_filter_int+0x120>
 1800370:	80 1f 00 0c 	lwz     r0,12(r31)
 1800374:	7c 0b 03 78 	mr      r11,r0
 1800378:	81 2b 00 00 	lwz     r9,0(r11)
 180037c:	80 1f 00 14 	lwz     r0,20(r31)
 1800380:	7c 0b 03 78 	mr      r11,r0
 1800384:	80 0b 00 00 	lwz     r0,0(r11)
 1800388:	7c 09 01 d6 	mullw   r0,r9,r0
 180038c:	81 3f 00 1c 	lwz     r9,28(r31)
 1800390:	7c 09 02 14 	add     r0,r9,r0
 1800394:	90 1f 00 1c 	stw     r0,28(r31)
 1800398:	80 1f 00 0c 	lwz     r0,12(r31)
 180039c:	30 00 00 04 	addic   r0,r0,4
 18003a0:	90 1f 00 0c 	stw     r0,12(r31)
 18003a4:	80 1f 00 14 	lwz     r0,20(r31)
 18003a8:	30 00 ff fc 	addic   r0,r0,-4
 18003ac:	90 1f 00 14 	stw     r0,20(r31)
 18003b0:	80 1f 00 28 	lwz     r0,40(r31)
 18003b4:	30 00 00 01 	addic   r0,r0,1
 18003b8:	90 1f 00 28 	stw     r0,40(r31)
 18003bc:	81 3f 00 28 	lwz     r9,40(r31)
 18003c0:	80 1f 00 20 	lwz     r0,32(r31)
 18003c4:	7f 89 00 00 	cmpw    cr7,r9,r0
 18003c8:	41 9c ff a8 	blt+    cr7,1800370 <fir_filter_int+0xd4>
 18003cc:	81 3f 00 1c 	lwz     r9,28(r31)
 18003d0:	80 1f 00 4c 	lwz     r0,76(r31)
 18003d4:	7d 29 03 d6 	divw    r9,r9,r0
 18003d8:	80 1f 00 3c 	lwz     r0,60(r31)
 18003dc:	7c 0b 03 78 	mr      r11,r0
 18003e0:	91 2b 00 00 	stw     r9,0(r11)
 18003e4:	80 1f 00 3c 	lwz     r0,60(r31)
 18003e8:	30 00 00 04 	addic   r0,r0,4
 18003ec:	90 1f 00 3c 	stw     r0,60(r31)
 18003f0:	81 3f 00 18 	lwz     r9,24(r31)
 18003f4:	80 1f 00 08 	lwz     r0,8(r31)
 18003f8:	7f 89 00 00 	cmpw    cr7,r9,r0
 18003fc:	40 9e 00 20 	bne-    cr7,180041c <fir_filter_int+0x180>
 1800400:	80 1f 00 20 	lwz     r0,32(r31)
 1800404:	30 00 ff ff 	addic   r0,r0,-1
 1800408:	90 1f 00 20 	stw     r0,32(r31)
 180040c:	80 1f 00 10 	lwz     r0,16(r31)
 1800410:	30 00 00 04 	addic   r0,r0,4
 1800414:	90 1f 00 10 	stw     r0,16(r31)
 1800418:	48 00 00 2c 	b       1800444 <fir_filter_int+0x1a8>
 180041c:	81 3f 00 20 	lwz     r9,32(r31)
 1800420:	80 1f 00 48 	lwz     r0,72(r31)
 1800424:	7f 89 00 00 	cmpw    cr7,r9,r0
 1800428:	40 9c 00 10 	bge-    cr7,1800438 <fir_filter_int+0x19c>
 180042c:	80 1f 00 20 	lwz     r0,32(r31)
 1800430:	30 00 00 01 	addic   r0,r0,1
 1800434:	90 1f 00 20 	stw     r0,32(r31)
 1800438:	80 1f 00 18 	lwz     r0,24(r31)
 180043c:	30 00 00 04 	addic   r0,r0,4
 1800440:	90 1f 00 18 	stw     r0,24(r31)
 1800444:	80 1f 00 2c 	lwz     r0,44(r31)
 1800448:	30 00 00 01 	addic   r0,r0,1
 180044c:	90 1f 00 2c 	stw     r0,44(r31)
 1800450:	81 3f 00 2c 	lwz     r9,44(r31)
 1800454:	80 1f 00 40 	lwz     r0,64(r31)
 1800458:	7f 89 00 00 	cmpw    cr7,r9,r0
 180045c:	41 9c fe c0 	blt+    cr7,180031c <fir_filter_int+0x80>
 1800460:	39 7f 00 58 	addi    r11,r31,88
 1800464:	83 eb ff fc 	lwz     r31,-4(r11)
 1800468:	7d 61 5b 78 	mr      r1,r11
 180046c:	4e 80 00 20 	blr

01800470 <_exit>:
 1800470:	94 21 ff e8 	stwu    r1,-24(r1)
 1800474:	93 e1 00 14 	stw     r31,20(r1)
 1800478:	7c 3f 0b 78 	mr      r31,r1
 180047c:	90 7f 00 08 	stw     r3,8(r31)
 1800480:	48 00 00 00 	b       1800480 <_exit+0x10>

01800484 <_start>:
 1800484:	94 21 ff f0 	stwu    r1,-16(r1)
 1800488:	7c 08 02 a6 	mflr    r0
 180048c:	90 01 00 14 	stw     r0,20(r1)
 1800490:	93 e1 00 0c 	stw     r31,12(r1)
 1800494:	7c 3f 0b 78 	mr      r31,r1
 1800498:	38 60 00 00 	li      r3,0
 180049c:	38 80 00 00 	li      r4,0
 18004a0:	4b ff fd 81 	bl      1800220 <main>
 18004a4:	38 60 00 00 	li      r3,0
 18004a8:	4b ff ff c9 	bl      1800470 <_exit>

018004ac <__eabi>:
 18004ac:	3d 40 01 81 	lis     r10,385
 18004b0:	3d 60 01 81 	lis     r11,385
 18004b4:	81 2a 1d a0 	lwz     r9,7584(r10)
 18004b8:	39 6b 06 bc 	addi    r11,r11,1724
 18004bc:	29 09 00 00 	cmplwi  cr2,r9,0
 18004c0:	4c 8a 00 20 	bnelr   cr2
 18004c4:	90 2a 1d a0 	stw     r1,7584(r10)
 18004c8:	80 6b 00 08 	lwz     r3,8(r11)
 18004cc:	80 8b 00 0c 	lwz     r4,12(r11)
 18004d0:	7c 83 20 00 	cmpw    cr1,r3,r4
 18004d4:	41 86 00 08 	beq-    cr1,18004dc <__eabi+0x30>
 18004d8:	81 ab 00 04 	lwz     r13,4(r11)
 18004dc:	80 6b 00 14 	lwz     r3,20(r11)
 18004e0:	80 8b 00 18 	lwz     r4,24(r11)
 18004e4:	7c 83 20 00 	cmpw    cr1,r3,r4
 18004e8:	41 a6 00 08 	beq+    cr1,18004f0 <__eabi+0x44>
 18004ec:	80 4b 00 10 	lwz     r2,16(r11)
 18004f0:	4b ff fb a4 	b       1800094 <__init>

018004f4 <__eabi_convert>:
 18004f4:	7c 83 20 40 	cmplw   cr1,r3,r4
 18004f8:	7c a3 20 50 	subf    r5,r3,r4
 18004fc:	4c 84 00 20 	bgelr   cr1
 1800500:	7c a5 16 70 	srawi   r5,r5,2
 1800504:	38 63 ff fc 	addi    r3,r3,-4
 1800508:	7c a9 03 a6 	mtctr   r5
 180050c:	84 c3 00 04 	lwzu    r6,4(r3)
 1800510:	2c 06 00 00 	cmpwi   r6,0
 1800514:	41 82 00 0c 	beq-    1800520 <__eabi_convert+0x2c>
 1800518:	7c c6 62 14 	add     r6,r6,r12
 180051c:	90 c3 00 00 	stw     r6,0(r3)
 1800520:	42 00 ff ec 	bdnz+   180050c <__eabi_convert+0x18>
 1800524:	4e 80 00 20 	blr

01800528 <__eabi_uconvert>:
 1800528:	7c 83 20 40 	cmplw   cr1,r3,r4
 180052c:	7c a3 20 50 	subf    r5,r3,r4
 1800530:	4c 84 00 20 	bgelr   cr1
 1800534:	7c a5 16 70 	srawi   r5,r5,2
 1800538:	38 63 ff fc 	addi    r3,r3,-4
 180053c:	7c a9 03 a6 	mtctr   r5
 1800540:	84 c3 00 04 	lwzu    r6,4(r3)
 1800544:	7c c6 62 14 	add     r6,r6,r12
 1800548:	80 e6 00 00 	lwz     r7,0(r6)
 180054c:	90 c3 00 00 	stw     r6,0(r3)
 1800550:	7c e7 62 14 	add     r7,r7,r12
 1800554:	90 e6 00 00 	stw     r7,0(r6)
 1800558:	42 00 ff e8 	bdnz+   1800540 <__eabi_uconvert+0x18>
 180055c:	4e 80 00 20 	blr

01800560 <__do_global_ctors_aux>:
 1800560:	7c 08 02 a6 	mflr    r0
 1800564:	94 21 ff f0 	stwu    r1,-16(r1)
 1800568:	93 e1 00 0c 	stw     r31,12(r1)
 180056c:	3f e0 01 81 	lis     r31,385
 1800570:	90 01 00 14 	stw     r0,20(r1)
 1800574:	3b ff 06 ac 	addi    r31,r31,1708
 1800578:	80 1f ff fc 	lwz     r0,-4(r31)
 180057c:	2f 80 ff ff 	cmpwi   cr7,r0,-1
 1800580:	41 9e 00 1c 	beq-    cr7,180059c <__do_global_ctors_aux+0x3c>
 1800584:	3b ff ff fc 	addi    r31,r31,-4
 1800588:	7c 09 03 a6 	mtctr   r0
 180058c:	4e 80 04 21 	bctrl
 1800590:	84 1f ff fc 	lwzu    r0,-4(r31)
 1800594:	2f 80 ff ff 	cmpwi   cr7,r0,-1
 1800598:	40 9e ff f0 	bne+    cr7,1800588 <__do_global_ctors_aux+0x28>
 180059c:	80 01 00 14 	lwz     r0,20(r1)
 18005a0:	83 e1 00 0c 	lwz     r31,12(r1)
 18005a4:	38 21 00 10 	addi    r1,r1,16
 18005a8:	7c 08 03 a6 	mtlr    r0
 18005ac:	4e 80 00 20 	blr

018005b0 <call___do_global_ctors_aux>:
 18005b0:	7c 08 02 a6 	mflr    r0
 18005b4:	94 21 ff f8 	stwu    r1,-8(r1)
 18005b8:	90 01 00 0c 	stw     r0,12(r1)
 18005bc:	80 01 00 0c 	lwz     r0,12(r1)
 18005c0:	38 21 00 08 	addi    r1,r1,8
 18005c4:	7c 08 03 a6 	mtlr    r0
 18005c8:	4e 80 00 20 	blr

Disassembly of section .fini:

018005cc <__fini>:
 18005cc:	94 21 ff f0 	stwu    r1,-16(r1)
 18005d0:	7c 08 02 a6 	mflr    r0
 18005d4:	90 01 00 14 	stw     r0,20(r1)
 18005d8:	4b ff fa e1 	bl      18000b8 <__do_global_dtors_aux>
 18005dc:	80 01 00 14 	lwz     r0,20(r1)
 18005e0:	7c 08 03 a6 	mtlr    r0
 18005e4:	38 21 00 10 	addi    r1,r1,16
 18005e8:	4e 80 00 20 	blr
