
/home/vaillant/ppc2/perf/src_tests/malardalen/ppc-eabi/gcc-4.4.2/all_malardalen/all_malardalen.elf:     file format elf32-powerpc


Disassembly of section .init:

01800094 <__init>:
 1800094:	94 21 ff f0 	stwu    r1,-16(r1)
 1800098:	7c 08 02 a6 	mflr    r0
 180009c:	90 01 00 14 	stw     r0,20(r1)
 18000a0:	48 00 00 f9 	bl      1800198 <frame_dummy>
 18000a4:	48 01 f2 49 	bl      181f2ec <__do_global_ctors_aux>
 18000a8:	80 01 00 14 	lwz     r0,20(r1)
 18000ac:	7c 08 03 a6 	mtlr    r0
 18000b0:	38 21 00 10 	addi    r1,r1,16
 18000b4:	4e 80 00 20 	blr

Disassembly of section .text:

018000b8 <__do_global_dtors_aux>:
 18000b8:	94 21 ff e8 	stwu    r1,-24(r1)
 18000bc:	7c 08 02 a6 	mflr    r0
 18000c0:	93 e1 00 14 	stw     r31,20(r1)
 18000c4:	3f e0 01 82 	lis     r31,386
 18000c8:	90 01 00 1c 	stw     r0,28(r1)
 18000cc:	88 1f 47 88 	lbz     r0,18312(r31)
 18000d0:	93 81 00 08 	stw     r28,8(r1)
 18000d4:	2f 80 00 00 	cmpwi   cr7,r0,0
 18000d8:	93 a1 00 0c 	stw     r29,12(r1)
 18000dc:	93 c1 00 10 	stw     r30,16(r1)
 18000e0:	40 9e 00 7c 	bne-    cr7,180015c <__do_global_dtors_aux+0xa4>
 18000e4:	3f 80 01 82 	lis     r28,386
 18000e8:	3f a0 01 82 	lis     r29,386
 18000ec:	3b 9c 0d a8 	addi    r28,r28,3496
 18000f0:	3b bd 0d ac 	addi    r29,r29,3500
 18000f4:	7f bc e8 50 	subf    r29,r28,r29
 18000f8:	3f c0 01 82 	lis     r30,386
 18000fc:	7f bd 16 70 	srawi   r29,r29,2
 1800100:	81 3e 47 8c 	lwz     r9,18316(r30)
 1800104:	3b bd ff ff 	addi    r29,r29,-1
 1800108:	7f 89 e8 40 	cmplw   cr7,r9,r29
 180010c:	40 9c 00 2c 	bge-    cr7,1800138 <__do_global_dtors_aux+0x80>
 1800110:	3b de 47 8c 	addi    r30,r30,18316
 1800114:	39 29 00 01 	addi    r9,r9,1
 1800118:	55 20 10 3a 	rlwinm  r0,r9,2,0,29
 180011c:	91 3e 00 00 	stw     r9,0(r30)
 1800120:	7c 1c 00 2e 	lwzx    r0,r28,r0
 1800124:	7c 09 03 a6 	mtctr   r0
 1800128:	4e 80 04 21 	bctrl
 180012c:	81 3e 00 00 	lwz     r9,0(r30)
 1800130:	7f 89 e8 40 	cmplw   cr7,r9,r29
 1800134:	41 9c ff e0 	blt+    cr7,1800114 <__do_global_dtors_aux+0x5c>
 1800138:	3d 20 00 00 	lis     r9,0
 180013c:	38 09 00 00 	addi    r0,r9,0
 1800140:	2f 80 00 00 	cmpwi   cr7,r0,0
 1800144:	41 9e 00 10 	beq-    cr7,1800154 <__do_global_dtors_aux+0x9c>
 1800148:	3c 60 01 82 	lis     r3,386
 180014c:	38 63 00 00 	addi    r3,r3,0
 1800150:	4a 7f fe b1 	bl      0 <__init-0x1800094>
 1800154:	38 00 00 01 	li      r0,1
 1800158:	98 1f 47 88 	stb     r0,18312(r31)
 180015c:	80 01 00 1c 	lwz     r0,28(r1)
 1800160:	83 81 00 08 	lwz     r28,8(r1)
 1800164:	7c 08 03 a6 	mtlr    r0
 1800168:	83 a1 00 0c 	lwz     r29,12(r1)
 180016c:	83 c1 00 10 	lwz     r30,16(r1)
 1800170:	83 e1 00 14 	lwz     r31,20(r1)
 1800174:	38 21 00 18 	addi    r1,r1,24
 1800178:	4e 80 00 20 	blr

0180017c <call___do_global_dtors_aux>:
 180017c:	7c 08 02 a6 	mflr    r0
 1800180:	94 21 ff f8 	stwu    r1,-8(r1)
 1800184:	90 01 00 0c 	stw     r0,12(r1)
 1800188:	80 01 00 0c 	lwz     r0,12(r1)
 180018c:	38 21 00 08 	addi    r1,r1,8
 1800190:	7c 08 03 a6 	mtlr    r0
 1800194:	4e 80 00 20 	blr

01800198 <frame_dummy>:
 1800198:	7c 08 02 a6 	mflr    r0
 180019c:	94 21 ff f8 	stwu    r1,-8(r1)
 18001a0:	3d 20 00 00 	lis     r9,0
 18001a4:	90 01 00 0c 	stw     r0,12(r1)
 18001a8:	38 09 00 00 	addi    r0,r9,0
 18001ac:	2f 80 00 00 	cmpwi   cr7,r0,0
 18001b0:	41 9e 00 18 	beq-    cr7,18001c8 <frame_dummy+0x30>
 18001b4:	3c 60 01 82 	lis     r3,386
 18001b8:	3c 80 01 82 	lis     r4,386
 18001bc:	38 63 00 00 	addi    r3,r3,0
 18001c0:	38 84 47 90 	addi    r4,r4,18320
 18001c4:	4a 7f fe 3d 	bl      0 <__init-0x1800094>
 18001c8:	3c 60 01 82 	lis     r3,386
 18001cc:	80 03 0d b0 	lwz     r0,3504(r3)
 18001d0:	38 63 0d b0 	addi    r3,r3,3504
 18001d4:	2f 80 00 00 	cmpwi   cr7,r0,0
 18001d8:	41 9e 00 1c 	beq-    cr7,18001f4 <frame_dummy+0x5c>
 18001dc:	3d 20 00 00 	lis     r9,0
 18001e0:	38 09 00 00 	addi    r0,r9,0
 18001e4:	2f 80 00 00 	cmpwi   cr7,r0,0
 18001e8:	41 9e 00 0c 	beq-    cr7,18001f4 <frame_dummy+0x5c>
 18001ec:	7c 09 03 a6 	mtctr   r0
 18001f0:	4e 80 04 21 	bctrl
 18001f4:	80 01 00 0c 	lwz     r0,12(r1)
 18001f8:	38 21 00 08 	addi    r1,r1,8
 18001fc:	7c 08 03 a6 	mtlr    r0
 1800200:	4e 80 00 20 	blr

01800204 <call_frame_dummy>:
 1800204:	7c 08 02 a6 	mflr    r0
 1800208:	94 21 ff f8 	stwu    r1,-8(r1)
 180020c:	90 01 00 0c 	stw     r0,12(r1)
 1800210:	80 01 00 0c 	lwz     r0,12(r1)
 1800214:	38 21 00 08 	addi    r1,r1,8
 1800218:	7c 08 03 a6 	mtlr    r0
 180021c:	4e 80 00 20 	blr

01800220 <my_abs>:
 1800220:	94 21 ff d8 	stwu    r1,-40(r1)
 1800224:	93 e1 00 24 	stw     r31,36(r1)
 1800228:	7c 3f 0b 78 	mr      r31,r1
 180022c:	90 7f 00 18 	stw     r3,24(r31)
 1800230:	80 1f 00 18 	lwz     r0,24(r31)
 1800234:	2f 80 00 00 	cmpwi   cr7,r0,0
 1800238:	41 9c 00 10 	blt-    cr7,1800248 <my_abs+0x28>
 180023c:	80 1f 00 18 	lwz     r0,24(r31)
 1800240:	90 1f 00 08 	stw     r0,8(r31)
 1800244:	48 00 00 10 	b       1800254 <my_abs+0x34>
 1800248:	80 1f 00 18 	lwz     r0,24(r31)
 180024c:	7c 00 00 d0 	neg     r0,r0
 1800250:	90 1f 00 08 	stw     r0,8(r31)
 1800254:	80 1f 00 08 	lwz     r0,8(r31)
 1800258:	7c 03 03 78 	mr      r3,r0
 180025c:	39 7f 00 28 	addi    r11,r31,40
 1800260:	83 eb ff fc 	lwz     r31,-4(r11)
 1800264:	7d 61 5b 78 	mr      r1,r11
 1800268:	4e 80 00 20 	blr

0180026c <my_fabs>:
 180026c:	94 21 ff d8 	stwu    r1,-40(r1)
 1800270:	93 e1 00 24 	stw     r31,36(r1)
 1800274:	7c 3f 0b 78 	mr      r31,r1
 1800278:	90 7f 00 18 	stw     r3,24(r31)
 180027c:	80 1f 00 18 	lwz     r0,24(r31)
 1800280:	2f 80 00 00 	cmpwi   cr7,r0,0
 1800284:	41 9c 00 10 	blt-    cr7,1800294 <my_fabs+0x28>
 1800288:	80 1f 00 18 	lwz     r0,24(r31)
 180028c:	90 1f 00 08 	stw     r0,8(r31)
 1800290:	48 00 00 10 	b       18002a0 <my_fabs+0x34>
 1800294:	80 1f 00 18 	lwz     r0,24(r31)
 1800298:	7c 00 00 d0 	neg     r0,r0
 180029c:	90 1f 00 08 	stw     r0,8(r31)
 18002a0:	80 1f 00 08 	lwz     r0,8(r31)
 18002a4:	7c 03 03 78 	mr      r3,r0
 18002a8:	39 7f 00 28 	addi    r11,r31,40
 18002ac:	83 eb ff fc 	lwz     r31,-4(r11)
 18002b0:	7d 61 5b 78 	mr      r1,r11
 18002b4:	4e 80 00 20 	blr

018002b8 <my_sin>:
 18002b8:	94 21 ff d8 	stwu    r1,-40(r1)
 18002bc:	7c 08 02 a6 	mflr    r0
 18002c0:	90 01 00 2c 	stw     r0,44(r1)
 18002c4:	93 e1 00 24 	stw     r31,36(r1)
 18002c8:	7c 3f 0b 78 	mr      r31,r1
 18002cc:	90 7f 00 18 	stw     r3,24(r31)
 18002d0:	38 00 00 00 	li      r0,0
 18002d4:	90 1f 00 0c 	stw     r0,12(r31)
 18002d8:	38 00 00 01 	li      r0,1
 18002dc:	90 1f 00 08 	stw     r0,8(r31)
 18002e0:	48 00 00 10 	b       18002f0 <my_sin+0x38>
 18002e4:	80 1f 00 18 	lwz     r0,24(r31)
 18002e8:	30 00 e7 76 	addic   r0,r0,-6282
 18002ec:	90 1f 00 18 	stw     r0,24(r31)
 18002f0:	80 1f 00 18 	lwz     r0,24(r31)
 18002f4:	2f 80 18 8a 	cmpwi   cr7,r0,6282
 18002f8:	41 9d ff ec 	bgt+    cr7,18002e4 <my_sin+0x2c>
 18002fc:	48 00 00 10 	b       180030c <my_sin+0x54>
 1800300:	80 1f 00 18 	lwz     r0,24(r31)
 1800304:	30 00 18 8a 	addic   r0,r0,6282
 1800308:	90 1f 00 18 	stw     r0,24(r31)
 180030c:	81 3f 00 18 	lwz     r9,24(r31)
 1800310:	38 00 e7 76 	li      r0,-6282
 1800314:	7f 89 00 00 	cmpw    cr7,r9,r0
 1800318:	41 9c ff e8 	blt+    cr7,1800300 <my_sin+0x48>
 180031c:	80 1f 00 18 	lwz     r0,24(r31)
 1800320:	90 1f 00 10 	stw     r0,16(r31)
 1800324:	80 1f 00 10 	lwz     r0,16(r31)
 1800328:	90 1f 00 0c 	stw     r0,12(r31)
 180032c:	81 3f 00 18 	lwz     r9,24(r31)
 1800330:	80 1f 00 18 	lwz     r0,24(r31)
 1800334:	7c 09 01 d6 	mullw   r0,r9,r0
 1800338:	7d 20 00 d0 	neg     r9,r0
 180033c:	80 1f 00 10 	lwz     r0,16(r31)
 1800340:	7d 29 01 d6 	mullw   r9,r9,r0
 1800344:	80 1f 00 08 	lwz     r0,8(r31)
 1800348:	54 0b 08 3c 	rlwinm  r11,r0,1,0,30
 180034c:	80 1f 00 08 	lwz     r0,8(r31)
 1800350:	54 00 08 3c 	rlwinm  r0,r0,1,0,30
 1800354:	30 00 00 01 	addic   r0,r0,1
 1800358:	7c 0b 01 d6 	mullw   r0,r11,r0
 180035c:	7c 09 03 d6 	divw    r0,r9,r0
 1800360:	90 1f 00 10 	stw     r0,16(r31)
 1800364:	81 3f 00 0c 	lwz     r9,12(r31)
 1800368:	80 1f 00 10 	lwz     r0,16(r31)
 180036c:	7c 09 02 14 	add     r0,r9,r0
 1800370:	90 1f 00 0c 	stw     r0,12(r31)
 1800374:	80 1f 00 08 	lwz     r0,8(r31)
 1800378:	30 00 00 01 	addic   r0,r0,1
 180037c:	90 1f 00 08 	stw     r0,8(r31)
 1800380:	48 00 00 58 	b       18003d8 <my_sin+0x120>
 1800384:	81 3f 00 18 	lwz     r9,24(r31)
 1800388:	80 1f 00 18 	lwz     r0,24(r31)
 180038c:	7c 09 01 d6 	mullw   r0,r9,r0
 1800390:	7d 20 00 d0 	neg     r9,r0
 1800394:	80 1f 00 10 	lwz     r0,16(r31)
 1800398:	7d 29 01 d6 	mullw   r9,r9,r0
 180039c:	80 1f 00 08 	lwz     r0,8(r31)
 18003a0:	54 0b 08 3c 	rlwinm  r11,r0,1,0,30
 18003a4:	80 1f 00 08 	lwz     r0,8(r31)
 18003a8:	54 00 08 3c 	rlwinm  r0,r0,1,0,30
 18003ac:	30 00 00 01 	addic   r0,r0,1
 18003b0:	7c 0b 01 d6 	mullw   r0,r11,r0
 18003b4:	7c 09 03 d6 	divw    r0,r9,r0
 18003b8:	90 1f 00 10 	stw     r0,16(r31)
 18003bc:	81 3f 00 0c 	lwz     r9,12(r31)
 18003c0:	80 1f 00 10 	lwz     r0,16(r31)
 18003c4:	7c 09 02 14 	add     r0,r9,r0
 18003c8:	90 1f 00 0c 	stw     r0,12(r31)
 18003cc:	80 1f 00 08 	lwz     r0,8(r31)
 18003d0:	30 00 00 01 	addic   r0,r0,1
 18003d4:	90 1f 00 08 	stw     r0,8(r31)
 18003d8:	80 7f 00 10 	lwz     r3,16(r31)
 18003dc:	4b ff fe 91 	bl      180026c <my_fabs>
 18003e0:	7c 60 1b 78 	mr      r0,r3
 18003e4:	2f 80 00 00 	cmpwi   cr7,r0,0
 18003e8:	41 9d ff 9c 	bgt+    cr7,1800384 <my_sin+0xcc>
 18003ec:	80 1f 00 0c 	lwz     r0,12(r31)
 18003f0:	7c 03 03 78 	mr      r3,r0
 18003f4:	39 7f 00 28 	addi    r11,r31,40
 18003f8:	80 0b 00 04 	lwz     r0,4(r11)
 18003fc:	7c 08 03 a6 	mtlr    r0
 1800400:	83 eb ff fc 	lwz     r31,-4(r11)
 1800404:	7d 61 5b 78 	mr      r1,r11
 1800408:	4e 80 00 20 	blr

0180040c <my_cos>:
 180040c:	94 21 ff e8 	stwu    r1,-24(r1)
 1800410:	7c 08 02 a6 	mflr    r0
 1800414:	90 01 00 1c 	stw     r0,28(r1)
 1800418:	93 e1 00 14 	stw     r31,20(r1)
 180041c:	7c 3f 0b 78 	mr      r31,r1
 1800420:	90 7f 00 08 	stw     r3,8(r31)
 1800424:	80 1f 00 08 	lwz     r0,8(r31)
 1800428:	20 00 06 22 	subfic  r0,r0,1570
 180042c:	7c 03 03 78 	mr      r3,r0
 1800430:	4b ff fe 89 	bl      18002b8 <my_sin>
 1800434:	7c 60 1b 78 	mr      r0,r3
 1800438:	7c 03 03 78 	mr      r3,r0
 180043c:	39 7f 00 18 	addi    r11,r31,24
 1800440:	80 0b 00 04 	lwz     r0,4(r11)
 1800444:	7c 08 03 a6 	mtlr    r0
 1800448:	83 eb ff fc 	lwz     r31,-4(r11)
 180044c:	7d 61 5b 78 	mr      r1,r11
 1800450:	4e 80 00 20 	blr

01800454 <encode>:
 1800454:	94 21 ff c8 	stwu    r1,-56(r1)
 1800458:	7c 08 02 a6 	mflr    r0
 180045c:	90 01 00 3c 	stw     r0,60(r1)
 1800460:	93 e1 00 34 	stw     r31,52(r1)
 1800464:	7c 3f 0b 78 	mr      r31,r1
 1800468:	90 7f 00 28 	stw     r3,40(r31)
 180046c:	90 9f 00 2c 	stw     r4,44(r31)
 1800470:	3c 00 01 82 	lis     r0,386
 1800474:	30 00 0d d8 	addic   r0,r0,3544
 1800478:	90 1f 00 1c 	stw     r0,28(r31)
 180047c:	3c 00 01 83 	lis     r0,387
 1800480:	30 00 1f d0 	addic   r0,r0,8144
 1800484:	90 1f 00 18 	stw     r0,24(r31)
 1800488:	80 1f 00 18 	lwz     r0,24(r31)
 180048c:	7c 07 03 78 	mr      r7,r0
 1800490:	81 27 00 00 	lwz     r9,0(r7)
 1800494:	80 1f 00 1c 	lwz     r0,28(r31)
 1800498:	7c 08 03 78 	mr      r8,r0
 180049c:	80 08 00 00 	lwz     r0,0(r8)
 18004a0:	7c 09 01 d6 	mullw   r0,r9,r0
 18004a4:	90 1f 00 10 	stw     r0,16(r31)
 18004a8:	80 1f 00 18 	lwz     r0,24(r31)
 18004ac:	30 00 00 04 	addic   r0,r0,4
 18004b0:	90 1f 00 18 	stw     r0,24(r31)
 18004b4:	80 1f 00 1c 	lwz     r0,28(r31)
 18004b8:	30 00 00 04 	addic   r0,r0,4
 18004bc:	90 1f 00 1c 	stw     r0,28(r31)
 18004c0:	80 1f 00 18 	lwz     r0,24(r31)
 18004c4:	7c 0b 03 78 	mr      r11,r0
 18004c8:	81 2b 00 00 	lwz     r9,0(r11)
 18004cc:	80 1f 00 1c 	lwz     r0,28(r31)
 18004d0:	7c 07 03 78 	mr      r7,r0
 18004d4:	80 07 00 00 	lwz     r0,0(r7)
 18004d8:	7c 09 01 d6 	mullw   r0,r9,r0
 18004dc:	90 1f 00 0c 	stw     r0,12(r31)
 18004e0:	80 1f 00 18 	lwz     r0,24(r31)
 18004e4:	30 00 00 04 	addic   r0,r0,4
 18004e8:	90 1f 00 18 	stw     r0,24(r31)
 18004ec:	80 1f 00 1c 	lwz     r0,28(r31)
 18004f0:	30 00 00 04 	addic   r0,r0,4
 18004f4:	90 1f 00 1c 	stw     r0,28(r31)
 18004f8:	38 00 00 00 	li      r0,0
 18004fc:	90 1f 00 20 	stw     r0,32(r31)
 1800500:	48 00 00 90 	b       1800590 <encode+0x13c>
 1800504:	80 1f 00 18 	lwz     r0,24(r31)
 1800508:	7c 08 03 78 	mr      r8,r0
 180050c:	81 28 00 00 	lwz     r9,0(r8)
 1800510:	80 1f 00 1c 	lwz     r0,28(r31)
 1800514:	7c 0b 03 78 	mr      r11,r0
 1800518:	80 0b 00 00 	lwz     r0,0(r11)
 180051c:	7c 09 01 d6 	mullw   r0,r9,r0
 1800520:	81 3f 00 10 	lwz     r9,16(r31)
 1800524:	7c 09 02 14 	add     r0,r9,r0
 1800528:	90 1f 00 10 	stw     r0,16(r31)
 180052c:	80 1f 00 18 	lwz     r0,24(r31)
 1800530:	30 00 00 04 	addic   r0,r0,4
 1800534:	90 1f 00 18 	stw     r0,24(r31)
 1800538:	80 1f 00 1c 	lwz     r0,28(r31)
 180053c:	30 00 00 04 	addic   r0,r0,4
 1800540:	90 1f 00 1c 	stw     r0,28(r31)
 1800544:	80 1f 00 18 	lwz     r0,24(r31)
 1800548:	7c 07 03 78 	mr      r7,r0
 180054c:	81 27 00 00 	lwz     r9,0(r7)
 1800550:	80 1f 00 1c 	lwz     r0,28(r31)
 1800554:	7c 08 03 78 	mr      r8,r0
 1800558:	80 08 00 00 	lwz     r0,0(r8)
 180055c:	7c 09 01 d6 	mullw   r0,r9,r0
 1800560:	81 3f 00 0c 	lwz     r9,12(r31)
 1800564:	7c 09 02 14 	add     r0,r9,r0
 1800568:	90 1f 00 0c 	stw     r0,12(r31)
 180056c:	80 1f 00 18 	lwz     r0,24(r31)
 1800570:	30 00 00 04 	addic   r0,r0,4
 1800574:	90 1f 00 18 	stw     r0,24(r31)
 1800578:	80 1f 00 1c 	lwz     r0,28(r31)
 180057c:	30 00 00 04 	addic   r0,r0,4
 1800580:	90 1f 00 1c 	stw     r0,28(r31)
 1800584:	80 1f 00 20 	lwz     r0,32(r31)
 1800588:	30 00 00 01 	addic   r0,r0,1
 180058c:	90 1f 00 20 	stw     r0,32(r31)
 1800590:	80 1f 00 20 	lwz     r0,32(r31)
 1800594:	2f 80 00 09 	cmpwi   cr7,r0,9
 1800598:	40 9d ff 6c 	ble+    cr7,1800504 <encode+0xb0>
 180059c:	80 1f 00 18 	lwz     r0,24(r31)
 18005a0:	7c 0b 03 78 	mr      r11,r0
 18005a4:	81 2b 00 00 	lwz     r9,0(r11)
 18005a8:	80 1f 00 1c 	lwz     r0,28(r31)
 18005ac:	7c 07 03 78 	mr      r7,r0
 18005b0:	80 07 00 00 	lwz     r0,0(r7)
 18005b4:	7c 09 01 d6 	mullw   r0,r9,r0
 18005b8:	81 3f 00 10 	lwz     r9,16(r31)
 18005bc:	7c 09 02 14 	add     r0,r9,r0
 18005c0:	90 1f 00 10 	stw     r0,16(r31)
 18005c4:	80 1f 00 18 	lwz     r0,24(r31)
 18005c8:	30 00 00 04 	addic   r0,r0,4
 18005cc:	90 1f 00 18 	stw     r0,24(r31)
 18005d0:	80 1f 00 1c 	lwz     r0,28(r31)
 18005d4:	30 00 00 04 	addic   r0,r0,4
 18005d8:	90 1f 00 1c 	stw     r0,28(r31)
 18005dc:	80 1f 00 18 	lwz     r0,24(r31)
 18005e0:	7c 08 03 78 	mr      r8,r0
 18005e4:	81 28 00 00 	lwz     r9,0(r8)
 18005e8:	80 1f 00 1c 	lwz     r0,28(r31)
 18005ec:	7c 0b 03 78 	mr      r11,r0
 18005f0:	80 0b 00 00 	lwz     r0,0(r11)
 18005f4:	7c 09 01 d6 	mullw   r0,r9,r0
 18005f8:	81 3f 00 0c 	lwz     r9,12(r31)
 18005fc:	7c 09 02 14 	add     r0,r9,r0
 1800600:	90 1f 00 0c 	stw     r0,12(r31)
 1800604:	80 1f 00 1c 	lwz     r0,28(r31)
 1800608:	30 00 00 04 	addic   r0,r0,4
 180060c:	90 1f 00 1c 	stw     r0,28(r31)
 1800610:	80 1f 00 18 	lwz     r0,24(r31)
 1800614:	30 00 ff f8 	addic   r0,r0,-8
 1800618:	90 1f 00 14 	stw     r0,20(r31)
 180061c:	38 00 00 00 	li      r0,0
 1800620:	90 1f 00 20 	stw     r0,32(r31)
 1800624:	48 00 00 40 	b       1800664 <encode+0x210>
 1800628:	80 1f 00 14 	lwz     r0,20(r31)
 180062c:	7c 07 03 78 	mr      r7,r0
 1800630:	81 27 00 00 	lwz     r9,0(r7)
 1800634:	80 1f 00 18 	lwz     r0,24(r31)
 1800638:	7c 08 03 78 	mr      r8,r0
 180063c:	91 28 00 00 	stw     r9,0(r8)
 1800640:	80 1f 00 18 	lwz     r0,24(r31)
 1800644:	30 00 ff fc 	addic   r0,r0,-4
 1800648:	90 1f 00 18 	stw     r0,24(r31)
 180064c:	80 1f 00 14 	lwz     r0,20(r31)
 1800650:	30 00 ff fc 	addic   r0,r0,-4
 1800654:	90 1f 00 14 	stw     r0,20(r31)
 1800658:	80 1f 00 20 	lwz     r0,32(r31)
 180065c:	30 00 00 01 	addic   r0,r0,1
 1800660:	90 1f 00 20 	stw     r0,32(r31)
 1800664:	80 1f 00 20 	lwz     r0,32(r31)
 1800668:	2f 80 00 15 	cmpwi   cr7,r0,21
 180066c:	40 9d ff bc 	ble+    cr7,1800628 <encode+0x1d4>
 1800670:	80 1f 00 18 	lwz     r0,24(r31)
 1800674:	81 3f 00 28 	lwz     r9,40(r31)
 1800678:	7c 0b 03 78 	mr      r11,r0
 180067c:	91 2b 00 00 	stw     r9,0(r11)
 1800680:	80 1f 00 18 	lwz     r0,24(r31)
 1800684:	30 00 ff fc 	addic   r0,r0,-4
 1800688:	90 1f 00 18 	stw     r0,24(r31)
 180068c:	80 1f 00 18 	lwz     r0,24(r31)
 1800690:	81 3f 00 2c 	lwz     r9,44(r31)
 1800694:	7c 07 03 78 	mr      r7,r0
 1800698:	91 27 00 00 	stw     r9,0(r7)
 180069c:	81 3f 00 10 	lwz     r9,16(r31)
 18006a0:	80 1f 00 0c 	lwz     r0,12(r31)
 18006a4:	7c 09 02 14 	add     r0,r9,r0
 18006a8:	7c 09 7e 70 	srawi   r9,r0,15
 18006ac:	3c 00 01 82 	lis     r0,386
 18006b0:	7c 08 03 78 	mr      r8,r0
 18006b4:	91 28 47 48 	stw     r9,18248(r8)
 18006b8:	81 3f 00 10 	lwz     r9,16(r31)
 18006bc:	80 1f 00 0c 	lwz     r0,12(r31)
 18006c0:	7c 00 48 50 	subf    r0,r0,r9
 18006c4:	7c 09 7e 70 	srawi   r9,r0,15
 18006c8:	3c 00 01 82 	lis     r0,386
 18006cc:	7c 0b 03 78 	mr      r11,r0
 18006d0:	91 2b 45 e0 	stw     r9,17888(r11)
 18006d4:	3c 00 01 83 	lis     r0,387
 18006d8:	30 60 29 18 	addic   r3,r0,10520
 18006dc:	3c 00 01 82 	lis     r0,386
 18006e0:	30 80 4f 40 	addic   r4,r0,20288
 18006e4:	48 00 14 e5 	bl      1801bc8 <filtez>
 18006e8:	7c 69 1b 78 	mr      r9,r3
 18006ec:	3c 00 01 82 	lis     r0,386
 18006f0:	7c 07 03 78 	mr      r7,r0
 18006f4:	91 27 45 88 	stw     r9,17800(r7)
 18006f8:	3c 00 01 82 	lis     r0,386
 18006fc:	7c 08 03 78 	mr      r8,r0
 1800700:	81 48 47 30 	lwz     r10,18224(r8)
 1800704:	3c 00 01 82 	lis     r0,386
 1800708:	7c 09 03 78 	mr      r9,r0
 180070c:	81 69 47 70 	lwz     r11,18288(r9)
 1800710:	3c 00 01 82 	lis     r0,386
 1800714:	7c 07 03 78 	mr      r7,r0
 1800718:	81 27 46 0c 	lwz     r9,17932(r7)
 180071c:	3c 00 01 82 	lis     r0,386
 1800720:	7c 08 03 78 	mr      r8,r0
 1800724:	80 08 47 04 	lwz     r0,18180(r8)
 1800728:	7d 43 53 78 	mr      r3,r10
 180072c:	7d 64 5b 78 	mr      r4,r11
 1800730:	7d 25 4b 78 	mr      r5,r9
 1800734:	7c 06 03 78 	mr      r6,r0
 1800738:	48 00 15 5d 	bl      1801c94 <filtep>
 180073c:	7c 69 1b 78 	mr      r9,r3
 1800740:	3c 00 01 82 	lis     r0,386
 1800744:	7c 0b 03 78 	mr      r11,r0
 1800748:	91 2b 44 d8 	stw     r9,17624(r11)
 180074c:	3c 00 01 82 	lis     r0,386
 1800750:	7c 07 03 78 	mr      r7,r0
 1800754:	81 27 45 88 	lwz     r9,17800(r7)
 1800758:	3c 00 01 82 	lis     r0,386
 180075c:	7c 08 03 78 	mr      r8,r0
 1800760:	80 08 44 d8 	lwz     r0,17624(r8)
 1800764:	7d 29 02 14 	add     r9,r9,r0
 1800768:	3c 00 01 82 	lis     r0,386
 180076c:	7c 0b 03 78 	mr      r11,r0
 1800770:	91 2b 45 70 	stw     r9,17776(r11)
 1800774:	3c 00 01 82 	lis     r0,386
 1800778:	7c 07 03 78 	mr      r7,r0
 180077c:	81 27 47 48 	lwz     r9,18248(r7)
 1800780:	3c 00 01 82 	lis     r0,386
 1800784:	7c 08 03 78 	mr      r8,r0
 1800788:	80 08 45 70 	lwz     r0,17776(r8)
 180078c:	7d 20 48 50 	subf    r9,r0,r9
 1800790:	3c 00 01 82 	lis     r0,386
 1800794:	7c 0b 03 78 	mr      r11,r0
 1800798:	91 2b 46 5c 	stw     r9,18012(r11)
 180079c:	3c 00 01 82 	lis     r0,386
 18007a0:	7c 07 03 78 	mr      r7,r0
 18007a4:	81 27 46 5c 	lwz     r9,18012(r7)
 18007a8:	3c 00 01 82 	lis     r0,386
 18007ac:	7c 08 03 78 	mr      r8,r0
 18007b0:	80 08 45 3c 	lwz     r0,17724(r8)
 18007b4:	7d 23 4b 78 	mr      r3,r9
 18007b8:	7c 04 03 78 	mr      r4,r0
 18007bc:	48 00 15 51 	bl      1801d0c <quantl>
 18007c0:	7c 69 1b 78 	mr      r9,r3
 18007c4:	3c 00 01 82 	lis     r0,386
 18007c8:	7c 0b 03 78 	mr      r11,r0
 18007cc:	91 2b 46 30 	stw     r9,17968(r11)
 18007d0:	3c 00 01 82 	lis     r0,386
 18007d4:	7c 07 03 78 	mr      r7,r0
 18007d8:	80 07 46 30 	lwz     r0,17968(r7)
 18007dc:	7c 00 16 70 	srawi   r0,r0,2
 18007e0:	3d 20 01 82 	lis     r9,386
 18007e4:	39 29 0e 38 	addi    r9,r9,3640
 18007e8:	54 00 10 3a 	rlwinm  r0,r0,2,0,29
 18007ec:	7c 09 02 14 	add     r0,r9,r0
 18007f0:	7c 08 03 78 	mr      r8,r0
 18007f4:	81 28 00 00 	lwz     r9,0(r8)
 18007f8:	3c 00 01 82 	lis     r0,386
 18007fc:	7c 0b 03 78 	mr      r11,r0
 1800800:	80 0b 45 3c 	lwz     r0,17724(r11)
 1800804:	7c 09 01 d6 	mullw   r0,r9,r0
 1800808:	7c 09 7e 70 	srawi   r9,r0,15
 180080c:	3c 00 01 82 	lis     r0,386
 1800810:	7c 07 03 78 	mr      r7,r0
 1800814:	91 27 46 88 	stw     r9,18056(r7)
 1800818:	3c 00 01 82 	lis     r0,386
 180081c:	7c 08 03 78 	mr      r8,r0
 1800820:	81 28 46 30 	lwz     r9,17968(r8)
 1800824:	3c 00 01 82 	lis     r0,386
 1800828:	7c 0b 03 78 	mr      r11,r0
 180082c:	80 0b 44 f8 	lwz     r0,17656(r11)
 1800830:	7d 23 4b 78 	mr      r3,r9
 1800834:	7c 04 03 78 	mr      r4,r0
 1800838:	48 00 15 d9 	bl      1801e10 <logscl>
 180083c:	7c 69 1b 78 	mr      r9,r3
 1800840:	3c 00 01 82 	lis     r0,386
 1800844:	7c 07 03 78 	mr      r7,r0
 1800848:	91 27 44 f8 	stw     r9,17656(r7)
 180084c:	3c 00 01 82 	lis     r0,386
 1800850:	7c 08 03 78 	mr      r8,r0
 1800854:	80 08 44 f8 	lwz     r0,17656(r8)
 1800858:	7c 03 03 78 	mr      r3,r0
 180085c:	38 80 00 08 	li      r4,8
 1800860:	48 00 16 41 	bl      1801ea0 <scalel>
 1800864:	7c 69 1b 78 	mr      r9,r3
 1800868:	3c 00 01 82 	lis     r0,386
 180086c:	7c 0b 03 78 	mr      r11,r0
 1800870:	91 2b 45 3c 	stw     r9,17724(r11)
 1800874:	3c 00 01 82 	lis     r0,386
 1800878:	7c 07 03 78 	mr      r7,r0
 180087c:	81 27 46 88 	lwz     r9,18056(r7)
 1800880:	3c 00 01 82 	lis     r0,386
 1800884:	7c 08 03 78 	mr      r8,r0
 1800888:	80 08 45 88 	lwz     r0,17800(r8)
 180088c:	7d 29 02 14 	add     r9,r9,r0
 1800890:	3c 00 01 82 	lis     r0,386
 1800894:	7c 0b 03 78 	mr      r11,r0
 1800898:	91 2b 47 4c 	stw     r9,18252(r11)
 180089c:	3c 00 01 82 	lis     r0,386
 18008a0:	7c 07 03 78 	mr      r7,r0
 18008a4:	80 07 46 88 	lwz     r0,18056(r7)
 18008a8:	7c 03 03 78 	mr      r3,r0
 18008ac:	3c 00 01 82 	lis     r0,386
 18008b0:	30 80 4f 40 	addic   r4,r0,20288
 18008b4:	3c 00 01 83 	lis     r0,387
 18008b8:	30 a0 29 18 	addic   r5,r0,10520
 18008bc:	48 00 16 65 	bl      1801f20 <upzero>
 18008c0:	3c 00 01 82 	lis     r0,386
 18008c4:	7c 09 03 78 	mr      r9,r0
 18008c8:	81 09 47 70 	lwz     r8,18288(r9)
 18008cc:	3c 00 01 82 	lis     r0,386
 18008d0:	7c 0b 03 78 	mr      r11,r0
 18008d4:	81 4b 47 04 	lwz     r10,18180(r11)
 18008d8:	3c 00 01 82 	lis     r0,386
 18008dc:	7c 07 03 78 	mr      r7,r0
 18008e0:	81 67 47 4c 	lwz     r11,18252(r7)
 18008e4:	3c 00 01 82 	lis     r0,386
 18008e8:	7c 07 03 78 	mr      r7,r0
 18008ec:	81 27 46 e4 	lwz     r9,18148(r7)
 18008f0:	3c 00 01 82 	lis     r0,386
 18008f4:	7c 07 03 78 	mr      r7,r0
 18008f8:	80 07 46 c4 	lwz     r0,18116(r7)
 18008fc:	7d 03 43 78 	mr      r3,r8
 1800900:	7d 44 53 78 	mr      r4,r10
 1800904:	7d 65 5b 78 	mr      r5,r11
 1800908:	7d 26 4b 78 	mr      r6,r9
 180090c:	7c 07 03 78 	mr      r7,r0
 1800910:	48 00 17 c5 	bl      18020d4 <uppol2>
 1800914:	7c 69 1b 78 	mr      r9,r3
 1800918:	3c 00 01 82 	lis     r0,386
 180091c:	7c 08 03 78 	mr      r8,r0
 1800920:	91 28 47 04 	stw     r9,18180(r8)
 1800924:	3c 00 01 82 	lis     r0,386
 1800928:	7c 09 03 78 	mr      r9,r0
 180092c:	81 49 47 70 	lwz     r10,18288(r9)
 1800930:	3c 00 01 82 	lis     r0,386
 1800934:	7c 07 03 78 	mr      r7,r0
 1800938:	81 67 47 04 	lwz     r11,18180(r7)
 180093c:	3c 00 01 82 	lis     r0,386
 1800940:	7c 08 03 78 	mr      r8,r0
 1800944:	81 28 47 4c 	lwz     r9,18252(r8)
 1800948:	3c 00 01 82 	lis     r0,386
 180094c:	7c 07 03 78 	mr      r7,r0
 1800950:	80 07 46 e4 	lwz     r0,18148(r7)
 1800954:	7d 43 53 78 	mr      r3,r10
 1800958:	7d 64 5b 78 	mr      r4,r11
 180095c:	7d 25 4b 78 	mr      r5,r9
 1800960:	7c 06 03 78 	mr      r6,r0
 1800964:	48 00 18 55 	bl      18021b8 <uppol1>
 1800968:	7c 69 1b 78 	mr      r9,r3
 180096c:	3c 00 01 82 	lis     r0,386
 1800970:	7c 08 03 78 	mr      r8,r0
 1800974:	91 28 47 70 	stw     r9,18288(r8)
 1800978:	3c 00 01 82 	lis     r0,386
 180097c:	7c 0b 03 78 	mr      r11,r0
 1800980:	81 2b 45 70 	lwz     r9,17776(r11)
 1800984:	3c 00 01 82 	lis     r0,386
 1800988:	7c 07 03 78 	mr      r7,r0
 180098c:	80 07 46 88 	lwz     r0,18056(r7)
 1800990:	7d 29 02 14 	add     r9,r9,r0
 1800994:	3c 00 01 82 	lis     r0,386
 1800998:	7c 08 03 78 	mr      r8,r0
 180099c:	91 28 45 58 	stw     r9,17752(r8)
 18009a0:	3c 00 01 82 	lis     r0,386
 18009a4:	7c 0b 03 78 	mr      r11,r0
 18009a8:	81 2b 47 30 	lwz     r9,18224(r11)
 18009ac:	3c 00 01 82 	lis     r0,386
 18009b0:	7c 07 03 78 	mr      r7,r0
 18009b4:	91 27 46 0c 	stw     r9,17932(r7)
 18009b8:	3c 00 01 82 	lis     r0,386
 18009bc:	7c 08 03 78 	mr      r8,r0
 18009c0:	81 28 45 58 	lwz     r9,17752(r8)
 18009c4:	3c 00 01 82 	lis     r0,386
 18009c8:	7c 0b 03 78 	mr      r11,r0
 18009cc:	91 2b 47 30 	stw     r9,18224(r11)
 18009d0:	3c 00 01 82 	lis     r0,386
 18009d4:	7c 07 03 78 	mr      r7,r0
 18009d8:	81 27 46 e4 	lwz     r9,18148(r7)
 18009dc:	3c 00 01 82 	lis     r0,386
 18009e0:	7c 08 03 78 	mr      r8,r0
 18009e4:	91 28 46 c4 	stw     r9,18116(r8)
 18009e8:	3c 00 01 82 	lis     r0,386
 18009ec:	7c 0b 03 78 	mr      r11,r0
 18009f0:	81 2b 47 4c 	lwz     r9,18252(r11)
 18009f4:	3c 00 01 82 	lis     r0,386
 18009f8:	7c 07 03 78 	mr      r7,r0
 18009fc:	91 27 46 e4 	stw     r9,18148(r7)
 1800a00:	3c 00 01 83 	lis     r0,387
 1800a04:	30 60 29 ac 	addic   r3,r0,10668
 1800a08:	3c 00 01 83 	lis     r0,387
 1800a0c:	30 80 fe 74 	addic   r4,r0,-396
 1800a10:	48 00 11 b9 	bl      1801bc8 <filtez>
 1800a14:	7c 69 1b 78 	mr      r9,r3
 1800a18:	3c 00 01 82 	lis     r0,386
 1800a1c:	7c 08 03 78 	mr      r8,r0
 1800a20:	91 28 44 dc 	stw     r9,17628(r8)
 1800a24:	3c 00 01 82 	lis     r0,386
 1800a28:	7c 09 03 78 	mr      r9,r0
 1800a2c:	81 49 46 a4 	lwz     r10,18084(r9)
 1800a30:	3c 00 01 82 	lis     r0,386
 1800a34:	7c 07 03 78 	mr      r7,r0
 1800a38:	81 67 45 54 	lwz     r11,17748(r7)
 1800a3c:	3c 00 01 82 	lis     r0,386
 1800a40:	7c 08 03 78 	mr      r8,r0
 1800a44:	81 28 44 d0 	lwz     r9,17616(r8)
 1800a48:	3c 00 01 82 	lis     r0,386
 1800a4c:	7c 07 03 78 	mr      r7,r0
 1800a50:	80 07 46 1c 	lwz     r0,17948(r7)
 1800a54:	7d 43 53 78 	mr      r3,r10
 1800a58:	7d 64 5b 78 	mr      r4,r11
 1800a5c:	7d 25 4b 78 	mr      r5,r9
 1800a60:	7c 06 03 78 	mr      r6,r0
 1800a64:	48 00 12 31 	bl      1801c94 <filtep>
 1800a68:	7c 69 1b 78 	mr      r9,r3
 1800a6c:	3c 00 01 82 	lis     r0,386
 1800a70:	7c 08 03 78 	mr      r8,r0
 1800a74:	91 28 46 84 	stw     r9,18052(r8)
 1800a78:	3c 00 01 82 	lis     r0,386
 1800a7c:	7c 0b 03 78 	mr      r11,r0
 1800a80:	81 2b 46 84 	lwz     r9,18052(r11)
 1800a84:	3c 00 01 82 	lis     r0,386
 1800a88:	7c 07 03 78 	mr      r7,r0
 1800a8c:	80 07 44 dc 	lwz     r0,17628(r7)
 1800a90:	7d 29 02 14 	add     r9,r9,r0
 1800a94:	3c 00 01 82 	lis     r0,386
 1800a98:	7c 08 03 78 	mr      r8,r0
 1800a9c:	91 28 45 38 	stw     r9,17720(r8)
 1800aa0:	3c 00 01 82 	lis     r0,386
 1800aa4:	7c 0b 03 78 	mr      r11,r0
 1800aa8:	81 2b 45 e0 	lwz     r9,17888(r11)
 1800aac:	3c 00 01 82 	lis     r0,386
 1800ab0:	7c 07 03 78 	mr      r7,r0
 1800ab4:	80 07 45 38 	lwz     r0,17720(r7)
 1800ab8:	7d 20 48 50 	subf    r9,r0,r9
 1800abc:	3c 00 01 82 	lis     r0,386
 1800ac0:	7c 08 03 78 	mr      r8,r0
 1800ac4:	91 28 45 40 	stw     r9,17728(r8)
 1800ac8:	3c 00 01 82 	lis     r0,386
 1800acc:	7c 09 03 78 	mr      r9,r0
 1800ad0:	80 09 45 40 	lwz     r0,17728(r9)
 1800ad4:	2f 80 00 00 	cmpwi   cr7,r0,0
 1800ad8:	41 9c 00 18 	blt-    cr7,1800af0 <encode+0x69c>
 1800adc:	3c 00 01 82 	lis     r0,386
 1800ae0:	39 20 00 03 	li      r9,3
 1800ae4:	7c 0b 03 78 	mr      r11,r0
 1800ae8:	91 2b 44 ec 	stw     r9,17644(r11)
 1800aec:	48 00 00 14 	b       1800b00 <encode+0x6ac>
 1800af0:	3c 00 01 82 	lis     r0,386
 1800af4:	39 20 00 01 	li      r9,1
 1800af8:	7c 07 03 78 	mr      r7,r0
 1800afc:	91 27 44 ec 	stw     r9,17644(r7)
 1800b00:	3c 00 01 82 	lis     r0,386
 1800b04:	7c 08 03 78 	mr      r8,r0
 1800b08:	80 08 45 cc 	lwz     r0,17868(r8)
 1800b0c:	1c 00 02 34 	mulli   r0,r0,564
 1800b10:	7c 00 66 70 	srawi   r0,r0,12
 1800b14:	90 1f 00 08 	stw     r0,8(r31)
 1800b18:	3c 00 01 82 	lis     r0,386
 1800b1c:	7c 09 03 78 	mr      r9,r0
 1800b20:	80 09 45 40 	lwz     r0,17728(r9)
 1800b24:	7c 03 03 78 	mr      r3,r0
 1800b28:	4b ff f6 f9 	bl      1800220 <my_abs>
 1800b2c:	7c 69 1b 78 	mr      r9,r3
 1800b30:	80 1f 00 08 	lwz     r0,8(r31)
 1800b34:	7f 89 00 00 	cmpw    cr7,r9,r0
 1800b38:	40 9d 00 20 	ble-    cr7,1800b58 <encode+0x704>
 1800b3c:	3c 00 01 82 	lis     r0,386
 1800b40:	7c 0b 03 78 	mr      r11,r0
 1800b44:	80 0b 44 ec 	lwz     r0,17644(r11)
 1800b48:	31 20 ff ff 	addic   r9,r0,-1
 1800b4c:	3c 00 01 82 	lis     r0,386
 1800b50:	7c 07 03 78 	mr      r7,r0
 1800b54:	91 27 44 ec 	stw     r9,17644(r7)
 1800b58:	3c 00 01 82 	lis     r0,386
 1800b5c:	7c 08 03 78 	mr      r8,r0
 1800b60:	80 08 44 ec 	lwz     r0,17644(r8)
 1800b64:	3d 20 01 82 	lis     r9,386
 1800b68:	39 29 12 48 	addi    r9,r9,4680
 1800b6c:	54 00 10 3a 	rlwinm  r0,r0,2,0,29
 1800b70:	7c 09 02 14 	add     r0,r9,r0
 1800b74:	7c 0b 03 78 	mr      r11,r0
 1800b78:	81 2b 00 00 	lwz     r9,0(r11)
 1800b7c:	3c 00 01 82 	lis     r0,386
 1800b80:	7c 07 03 78 	mr      r7,r0
 1800b84:	80 07 45 cc 	lwz     r0,17868(r7)
 1800b88:	7c 09 01 d6 	mullw   r0,r9,r0
 1800b8c:	7c 09 7e 70 	srawi   r9,r0,15
 1800b90:	3c 00 01 82 	lis     r0,386
 1800b94:	7c 08 03 78 	mr      r8,r0
 1800b98:	91 28 45 28 	stw     r9,17704(r8)
 1800b9c:	3c 00 01 82 	lis     r0,386
 1800ba0:	7c 0b 03 78 	mr      r11,r0
 1800ba4:	81 2b 44 ec 	lwz     r9,17644(r11)
 1800ba8:	3c 00 01 82 	lis     r0,386
 1800bac:	7c 07 03 78 	mr      r7,r0
 1800bb0:	80 07 47 2c 	lwz     r0,18220(r7)
 1800bb4:	7d 23 4b 78 	mr      r3,r9
 1800bb8:	7c 04 03 78 	mr      r4,r0
 1800bbc:	48 00 16 b5 	bl      1802270 <logsch>
 1800bc0:	7c 69 1b 78 	mr      r9,r3
 1800bc4:	3c 00 01 82 	lis     r0,386
 1800bc8:	7c 08 03 78 	mr      r8,r0
 1800bcc:	91 28 47 2c 	stw     r9,18220(r8)
 1800bd0:	3c 00 01 82 	lis     r0,386
 1800bd4:	7c 09 03 78 	mr      r9,r0
 1800bd8:	80 09 47 2c 	lwz     r0,18220(r9)
 1800bdc:	7c 03 03 78 	mr      r3,r0
 1800be0:	38 80 00 0a 	li      r4,10
 1800be4:	48 00 12 bd 	bl      1801ea0 <scalel>
 1800be8:	7c 69 1b 78 	mr      r9,r3
 1800bec:	3c 00 01 82 	lis     r0,386
 1800bf0:	7c 0b 03 78 	mr      r11,r0
 1800bf4:	91 2b 45 cc 	stw     r9,17868(r11)
 1800bf8:	3c 00 01 82 	lis     r0,386
 1800bfc:	7c 07 03 78 	mr      r7,r0
 1800c00:	81 27 45 28 	lwz     r9,17704(r7)
 1800c04:	3c 00 01 82 	lis     r0,386
 1800c08:	7c 08 03 78 	mr      r8,r0
 1800c0c:	80 08 44 dc 	lwz     r0,17628(r8)
 1800c10:	7d 29 02 14 	add     r9,r9,r0
 1800c14:	3c 00 01 82 	lis     r0,386
 1800c18:	7c 0b 03 78 	mr      r11,r0
 1800c1c:	91 2b 45 24 	stw     r9,17700(r11)
 1800c20:	3c 00 01 82 	lis     r0,386
 1800c24:	7c 07 03 78 	mr      r7,r0
 1800c28:	80 07 45 28 	lwz     r0,17704(r7)
 1800c2c:	7c 03 03 78 	mr      r3,r0
 1800c30:	3c 00 01 83 	lis     r0,387
 1800c34:	30 80 fe 74 	addic   r4,r0,-396
 1800c38:	3c 00 01 83 	lis     r0,387
 1800c3c:	30 a0 29 ac 	addic   r5,r0,10668
 1800c40:	48 00 12 e1 	bl      1801f20 <upzero>
 1800c44:	3c 00 01 82 	lis     r0,386
 1800c48:	7c 09 03 78 	mr      r9,r0
 1800c4c:	81 09 45 54 	lwz     r8,17748(r9)
 1800c50:	3c 00 01 82 	lis     r0,386
 1800c54:	7c 0b 03 78 	mr      r11,r0
 1800c58:	81 4b 46 1c 	lwz     r10,17948(r11)
 1800c5c:	3c 00 01 82 	lis     r0,386
 1800c60:	7c 07 03 78 	mr      r7,r0
 1800c64:	81 67 45 24 	lwz     r11,17700(r7)
 1800c68:	3c 00 01 82 	lis     r0,386
 1800c6c:	7c 07 03 78 	mr      r7,r0
 1800c70:	81 27 46 98 	lwz     r9,18072(r7)
 1800c74:	3c 00 01 82 	lis     r0,386
 1800c78:	7c 07 03 78 	mr      r7,r0
 1800c7c:	80 07 46 10 	lwz     r0,17936(r7)
 1800c80:	7d 03 43 78 	mr      r3,r8
 1800c84:	7d 44 53 78 	mr      r4,r10
 1800c88:	7d 65 5b 78 	mr      r5,r11
 1800c8c:	7d 26 4b 78 	mr      r6,r9
 1800c90:	7c 07 03 78 	mr      r7,r0
 1800c94:	48 00 14 41 	bl      18020d4 <uppol2>
 1800c98:	7c 69 1b 78 	mr      r9,r3
 1800c9c:	3c 00 01 82 	lis     r0,386
 1800ca0:	7c 08 03 78 	mr      r8,r0
 1800ca4:	91 28 46 1c 	stw     r9,17948(r8)
 1800ca8:	3c 00 01 82 	lis     r0,386
 1800cac:	7c 09 03 78 	mr      r9,r0
 1800cb0:	81 49 45 54 	lwz     r10,17748(r9)
 1800cb4:	3c 00 01 82 	lis     r0,386
 1800cb8:	7c 07 03 78 	mr      r7,r0
 1800cbc:	81 67 46 1c 	lwz     r11,17948(r7)
 1800cc0:	3c 00 01 82 	lis     r0,386
 1800cc4:	7c 08 03 78 	mr      r8,r0
 1800cc8:	81 28 45 24 	lwz     r9,17700(r8)
 1800ccc:	3c 00 01 82 	lis     r0,386
 1800cd0:	7c 07 03 78 	mr      r7,r0
 1800cd4:	80 07 46 98 	lwz     r0,18072(r7)
 1800cd8:	7d 43 53 78 	mr      r3,r10
 1800cdc:	7d 64 5b 78 	mr      r4,r11
 1800ce0:	7d 25 4b 78 	mr      r5,r9
 1800ce4:	7c 06 03 78 	mr      r6,r0
 1800ce8:	48 00 14 d1 	bl      18021b8 <uppol1>
 1800cec:	7c 69 1b 78 	mr      r9,r3
 1800cf0:	3c 00 01 82 	lis     r0,386
 1800cf4:	7c 08 03 78 	mr      r8,r0
 1800cf8:	91 28 45 54 	stw     r9,17748(r8)
 1800cfc:	3c 00 01 82 	lis     r0,386
 1800d00:	7c 0b 03 78 	mr      r11,r0
 1800d04:	81 2b 45 38 	lwz     r9,17720(r11)
 1800d08:	3c 00 01 82 	lis     r0,386
 1800d0c:	7c 07 03 78 	mr      r7,r0
 1800d10:	80 07 45 28 	lwz     r0,17704(r7)
 1800d14:	7d 29 02 14 	add     r9,r9,r0
 1800d18:	3c 00 01 82 	lis     r0,386
 1800d1c:	7c 08 03 78 	mr      r8,r0
 1800d20:	91 28 45 48 	stw     r9,17736(r8)
 1800d24:	3c 00 01 82 	lis     r0,386
 1800d28:	7c 0b 03 78 	mr      r11,r0
 1800d2c:	81 2b 46 a4 	lwz     r9,18084(r11)
 1800d30:	3c 00 01 82 	lis     r0,386
 1800d34:	7c 07 03 78 	mr      r7,r0
 1800d38:	91 27 44 d0 	stw     r9,17616(r7)
 1800d3c:	3c 00 01 82 	lis     r0,386
 1800d40:	7c 08 03 78 	mr      r8,r0
 1800d44:	81 28 45 48 	lwz     r9,17736(r8)
 1800d48:	3c 00 01 82 	lis     r0,386
 1800d4c:	7c 0b 03 78 	mr      r11,r0
 1800d50:	91 2b 46 a4 	stw     r9,18084(r11)
 1800d54:	3c 00 01 82 	lis     r0,386
 1800d58:	7c 07 03 78 	mr      r7,r0
 1800d5c:	81 27 46 98 	lwz     r9,18072(r7)
 1800d60:	3c 00 01 82 	lis     r0,386
 1800d64:	7c 08 03 78 	mr      r8,r0
 1800d68:	91 28 46 10 	stw     r9,17936(r8)
 1800d6c:	3c 00 01 82 	lis     r0,386
 1800d70:	7c 0b 03 78 	mr      r11,r0
 1800d74:	81 2b 45 24 	lwz     r9,17700(r11)
 1800d78:	3c 00 01 82 	lis     r0,386
 1800d7c:	7c 07 03 78 	mr      r7,r0
 1800d80:	91 27 46 98 	stw     r9,18072(r7)
 1800d84:	3c 00 01 82 	lis     r0,386
 1800d88:	7c 08 03 78 	mr      r8,r0
 1800d8c:	80 08 44 ec 	lwz     r0,17644(r8)
 1800d90:	54 09 30 32 	rlwinm  r9,r0,6,0,25
 1800d94:	3c 00 01 82 	lis     r0,386
 1800d98:	7c 0b 03 78 	mr      r11,r0
 1800d9c:	80 0b 46 30 	lwz     r0,17968(r11)
 1800da0:	7d 20 03 78 	or      r0,r9,r0
 1800da4:	7c 03 03 78 	mr      r3,r0
 1800da8:	39 7f 00 38 	addi    r11,r31,56
 1800dac:	80 0b 00 04 	lwz     r0,4(r11)
 1800db0:	7c 08 03 a6 	mtlr    r0
 1800db4:	83 eb ff fc 	lwz     r31,-4(r11)
 1800db8:	7d 61 5b 78 	mr      r1,r11
 1800dbc:	4e 80 00 20 	blr

01800dc0 <decode>:
 1800dc0:	94 21 ff c8 	stwu    r1,-56(r1)
 1800dc4:	7c 08 02 a6 	mflr    r0
 1800dc8:	90 01 00 3c 	stw     r0,60(r1)
 1800dcc:	93 e1 00 34 	stw     r31,52(r1)
 1800dd0:	7c 3f 0b 78 	mr      r31,r1
 1800dd4:	90 7f 00 28 	stw     r3,40(r31)
 1800dd8:	80 1f 00 28 	lwz     r0,40(r31)
 1800ddc:	54 09 06 be 	clrlwi  r9,r0,26
 1800de0:	3c 00 01 82 	lis     r0,386
 1800de4:	7c 07 03 78 	mr      r7,r0
 1800de8:	91 27 46 34 	stw     r9,17972(r7)
 1800dec:	80 1f 00 28 	lwz     r0,40(r31)
 1800df0:	7c 09 36 70 	srawi   r9,r0,6
 1800df4:	3c 00 01 82 	lis     r0,386
 1800df8:	7c 08 03 78 	mr      r8,r0
 1800dfc:	91 28 44 ec 	stw     r9,17644(r8)
 1800e00:	3c 00 01 83 	lis     r0,387
 1800e04:	30 60 29 30 	addic   r3,r0,10544
 1800e08:	3c 00 01 82 	lis     r0,386
 1800e0c:	30 80 4f 58 	addic   r4,r0,20312
 1800e10:	48 00 0d b9 	bl      1801bc8 <filtez>
 1800e14:	7c 69 1b 78 	mr      r9,r3
 1800e18:	3c 00 01 82 	lis     r0,386
 1800e1c:	7c 0b 03 78 	mr      r11,r0
 1800e20:	91 2b 45 b8 	stw     r9,17848(r11)
 1800e24:	3c 00 01 82 	lis     r0,386
 1800e28:	7c 07 03 78 	mr      r7,r0
 1800e2c:	81 47 45 d8 	lwz     r10,17880(r7)
 1800e30:	3c 00 01 82 	lis     r0,386
 1800e34:	7c 08 03 78 	mr      r8,r0
 1800e38:	81 68 47 3c 	lwz     r11,18236(r8)
 1800e3c:	3c 00 01 82 	lis     r0,386
 1800e40:	7c 07 03 78 	mr      r7,r0
 1800e44:	81 27 45 d4 	lwz     r9,17876(r7)
 1800e48:	3c 00 01 82 	lis     r0,386
 1800e4c:	7c 08 03 78 	mr      r8,r0
 1800e50:	80 08 46 dc 	lwz     r0,18140(r8)
 1800e54:	7d 43 53 78 	mr      r3,r10
 1800e58:	7d 64 5b 78 	mr      r4,r11
 1800e5c:	7d 25 4b 78 	mr      r5,r9
 1800e60:	7c 06 03 78 	mr      r6,r0
 1800e64:	48 00 0e 31 	bl      1801c94 <filtep>
 1800e68:	7c 69 1b 78 	mr      r9,r3
 1800e6c:	3c 00 01 82 	lis     r0,386
 1800e70:	7c 0b 03 78 	mr      r11,r0
 1800e74:	91 2b 46 60 	stw     r9,18016(r11)
 1800e78:	3c 00 01 82 	lis     r0,386
 1800e7c:	7c 07 03 78 	mr      r7,r0
 1800e80:	81 27 46 60 	lwz     r9,18016(r7)
 1800e84:	3c 00 01 82 	lis     r0,386
 1800e88:	7c 08 03 78 	mr      r8,r0
 1800e8c:	80 08 45 b8 	lwz     r0,17848(r8)
 1800e90:	7d 29 02 14 	add     r9,r9,r0
 1800e94:	3c 00 01 82 	lis     r0,386
 1800e98:	7c 0b 03 78 	mr      r11,r0
 1800e9c:	91 2b 45 ec 	stw     r9,17900(r11)
 1800ea0:	3c 00 01 82 	lis     r0,386
 1800ea4:	7c 07 03 78 	mr      r7,r0
 1800ea8:	80 07 46 34 	lwz     r0,17972(r7)
 1800eac:	7c 00 16 70 	srawi   r0,r0,2
 1800eb0:	3d 20 01 82 	lis     r9,386
 1800eb4:	39 29 0e 38 	addi    r9,r9,3640
 1800eb8:	54 00 10 3a 	rlwinm  r0,r0,2,0,29
 1800ebc:	7c 09 02 14 	add     r0,r9,r0
 1800ec0:	7c 08 03 78 	mr      r8,r0
 1800ec4:	81 28 00 00 	lwz     r9,0(r8)
 1800ec8:	3c 00 01 82 	lis     r0,386
 1800ecc:	7c 0b 03 78 	mr      r11,r0
 1800ed0:	80 0b 46 d8 	lwz     r0,18136(r11)
 1800ed4:	7c 09 01 d6 	mullw   r0,r9,r0
 1800ed8:	7c 09 7e 70 	srawi   r9,r0,15
 1800edc:	3c 00 01 82 	lis     r0,386
 1800ee0:	7c 07 03 78 	mr      r7,r0
 1800ee4:	91 27 46 14 	stw     r9,17940(r7)
 1800ee8:	3c 00 01 82 	lis     r0,386
 1800eec:	7c 08 03 78 	mr      r8,r0
 1800ef0:	80 08 46 30 	lwz     r0,17968(r8)
 1800ef4:	3d 20 01 82 	lis     r9,386
 1800ef8:	39 29 0e f8 	addi    r9,r9,3832
 1800efc:	54 00 10 3a 	rlwinm  r0,r0,2,0,29
 1800f00:	7c 09 02 14 	add     r0,r9,r0
 1800f04:	7c 0b 03 78 	mr      r11,r0
 1800f08:	81 2b 00 00 	lwz     r9,0(r11)
 1800f0c:	3c 00 01 82 	lis     r0,386
 1800f10:	7c 07 03 78 	mr      r7,r0
 1800f14:	80 07 46 d8 	lwz     r0,18136(r7)
 1800f18:	7c 09 01 d6 	mullw   r0,r9,r0
 1800f1c:	7c 09 7e 70 	srawi   r9,r0,15
 1800f20:	3c 00 01 82 	lis     r0,386
 1800f24:	7c 08 03 78 	mr      r8,r0
 1800f28:	91 28 46 8c 	stw     r9,18060(r8)
 1800f2c:	3c 00 01 82 	lis     r0,386
 1800f30:	7c 0b 03 78 	mr      r11,r0
 1800f34:	81 2b 46 8c 	lwz     r9,18060(r11)
 1800f38:	3c 00 01 82 	lis     r0,386
 1800f3c:	7c 07 03 78 	mr      r7,r0
 1800f40:	80 07 45 ec 	lwz     r0,17900(r7)
 1800f44:	7d 29 02 14 	add     r9,r9,r0
 1800f48:	3c 00 01 82 	lis     r0,386
 1800f4c:	7c 08 03 78 	mr      r8,r0
 1800f50:	91 28 44 b8 	stw     r9,17592(r8)
 1800f54:	3c 00 01 82 	lis     r0,386
 1800f58:	7c 0b 03 78 	mr      r11,r0
 1800f5c:	81 2b 46 34 	lwz     r9,17972(r11)
 1800f60:	3c 00 01 82 	lis     r0,386
 1800f64:	7c 07 03 78 	mr      r7,r0
 1800f68:	80 07 46 78 	lwz     r0,18040(r7)
 1800f6c:	7d 23 4b 78 	mr      r3,r9
 1800f70:	7c 04 03 78 	mr      r4,r0
 1800f74:	48 00 0e 9d 	bl      1801e10 <logscl>
 1800f78:	7c 69 1b 78 	mr      r9,r3
 1800f7c:	3c 00 01 82 	lis     r0,386
 1800f80:	7c 08 03 78 	mr      r8,r0
 1800f84:	91 28 46 78 	stw     r9,18040(r8)
 1800f88:	3c 00 01 82 	lis     r0,386
 1800f8c:	7c 09 03 78 	mr      r9,r0
 1800f90:	80 09 46 78 	lwz     r0,18040(r9)
 1800f94:	7c 03 03 78 	mr      r3,r0
 1800f98:	38 80 00 08 	li      r4,8
 1800f9c:	48 00 0f 05 	bl      1801ea0 <scalel>
 1800fa0:	7c 69 1b 78 	mr      r9,r3
 1800fa4:	3c 00 01 82 	lis     r0,386
 1800fa8:	7c 0b 03 78 	mr      r11,r0
 1800fac:	91 2b 46 d8 	stw     r9,18136(r11)
 1800fb0:	3c 00 01 82 	lis     r0,386
 1800fb4:	7c 07 03 78 	mr      r7,r0
 1800fb8:	81 27 46 14 	lwz     r9,17940(r7)
 1800fbc:	3c 00 01 82 	lis     r0,386
 1800fc0:	7c 08 03 78 	mr      r8,r0
 1800fc4:	80 08 45 b8 	lwz     r0,17848(r8)
 1800fc8:	7d 29 02 14 	add     r9,r9,r0
 1800fcc:	3c 00 01 82 	lis     r0,386
 1800fd0:	7c 0b 03 78 	mr      r11,r0
 1800fd4:	91 2b 46 fc 	stw     r9,18172(r11)
 1800fd8:	3c 00 01 82 	lis     r0,386
 1800fdc:	7c 07 03 78 	mr      r7,r0
 1800fe0:	80 07 46 14 	lwz     r0,17940(r7)
 1800fe4:	7c 03 03 78 	mr      r3,r0
 1800fe8:	3c 00 01 82 	lis     r0,386
 1800fec:	30 80 4f 58 	addic   r4,r0,20312
 1800ff0:	3c 00 01 83 	lis     r0,387
 1800ff4:	30 a0 29 30 	addic   r5,r0,10544
 1800ff8:	48 00 0f 29 	bl      1801f20 <upzero>
 1800ffc:	3c 00 01 82 	lis     r0,386
 1801000:	7c 09 03 78 	mr      r9,r0
 1801004:	81 09 47 3c 	lwz     r8,18236(r9)
 1801008:	3c 00 01 82 	lis     r0,386
 180100c:	7c 0b 03 78 	mr      r11,r0
 1801010:	81 4b 46 dc 	lwz     r10,18140(r11)
 1801014:	3c 00 01 82 	lis     r0,386
 1801018:	7c 07 03 78 	mr      r7,r0
 180101c:	81 67 46 fc 	lwz     r11,18172(r7)
 1801020:	3c 00 01 82 	lis     r0,386
 1801024:	7c 07 03 78 	mr      r7,r0
 1801028:	81 27 44 f4 	lwz     r9,17652(r7)
 180102c:	3c 00 01 82 	lis     r0,386
 1801030:	7c 07 03 78 	mr      r7,r0
 1801034:	80 07 44 c4 	lwz     r0,17604(r7)
 1801038:	7d 03 43 78 	mr      r3,r8
 180103c:	7d 44 53 78 	mr      r4,r10
 1801040:	7d 65 5b 78 	mr      r5,r11
 1801044:	7d 26 4b 78 	mr      r6,r9
 1801048:	7c 07 03 78 	mr      r7,r0
 180104c:	48 00 10 89 	bl      18020d4 <uppol2>
 1801050:	7c 69 1b 78 	mr      r9,r3
 1801054:	3c 00 01 82 	lis     r0,386
 1801058:	7c 08 03 78 	mr      r8,r0
 180105c:	91 28 46 dc 	stw     r9,18140(r8)
 1801060:	3c 00 01 82 	lis     r0,386
 1801064:	7c 09 03 78 	mr      r9,r0
 1801068:	81 49 47 3c 	lwz     r10,18236(r9)
 180106c:	3c 00 01 82 	lis     r0,386
 1801070:	7c 07 03 78 	mr      r7,r0
 1801074:	81 67 46 dc 	lwz     r11,18140(r7)
 1801078:	3c 00 01 82 	lis     r0,386
 180107c:	7c 08 03 78 	mr      r8,r0
 1801080:	81 28 46 fc 	lwz     r9,18172(r8)
 1801084:	3c 00 01 82 	lis     r0,386
 1801088:	7c 07 03 78 	mr      r7,r0
 180108c:	80 07 44 f4 	lwz     r0,17652(r7)
 1801090:	7d 43 53 78 	mr      r3,r10
 1801094:	7d 64 5b 78 	mr      r4,r11
 1801098:	7d 25 4b 78 	mr      r5,r9
 180109c:	7c 06 03 78 	mr      r6,r0
 18010a0:	48 00 11 19 	bl      18021b8 <uppol1>
 18010a4:	7c 69 1b 78 	mr      r9,r3
 18010a8:	3c 00 01 82 	lis     r0,386
 18010ac:	7c 08 03 78 	mr      r8,r0
 18010b0:	91 28 47 3c 	stw     r9,18236(r8)
 18010b4:	3c 00 01 82 	lis     r0,386
 18010b8:	7c 0b 03 78 	mr      r11,r0
 18010bc:	81 2b 45 ec 	lwz     r9,17900(r11)
 18010c0:	3c 00 01 82 	lis     r0,386
 18010c4:	7c 07 03 78 	mr      r7,r0
 18010c8:	80 07 46 14 	lwz     r0,17940(r7)
 18010cc:	7d 29 02 14 	add     r9,r9,r0
 18010d0:	3c 00 01 82 	lis     r0,386
 18010d4:	7c 08 03 78 	mr      r8,r0
 18010d8:	91 28 44 e4 	stw     r9,17636(r8)
 18010dc:	3c 00 01 82 	lis     r0,386
 18010e0:	7c 0b 03 78 	mr      r11,r0
 18010e4:	81 2b 45 d8 	lwz     r9,17880(r11)
 18010e8:	3c 00 01 82 	lis     r0,386
 18010ec:	7c 07 03 78 	mr      r7,r0
 18010f0:	91 27 45 d4 	stw     r9,17876(r7)
 18010f4:	3c 00 01 82 	lis     r0,386
 18010f8:	7c 08 03 78 	mr      r8,r0
 18010fc:	81 28 44 e4 	lwz     r9,17636(r8)
 1801100:	3c 00 01 82 	lis     r0,386
 1801104:	7c 0b 03 78 	mr      r11,r0
 1801108:	91 2b 45 d8 	stw     r9,17880(r11)
 180110c:	3c 00 01 82 	lis     r0,386
 1801110:	7c 07 03 78 	mr      r7,r0
 1801114:	81 27 44 f4 	lwz     r9,17652(r7)
 1801118:	3c 00 01 82 	lis     r0,386
 180111c:	7c 08 03 78 	mr      r8,r0
 1801120:	91 28 44 c4 	stw     r9,17604(r8)
 1801124:	3c 00 01 82 	lis     r0,386
 1801128:	7c 0b 03 78 	mr      r11,r0
 180112c:	81 2b 46 fc 	lwz     r9,18172(r11)
 1801130:	3c 00 01 82 	lis     r0,386
 1801134:	7c 07 03 78 	mr      r7,r0
 1801138:	91 27 44 f4 	stw     r9,17652(r7)
 180113c:	3c 00 01 83 	lis     r0,387
 1801140:	30 60 20 30 	addic   r3,r0,8240
 1801144:	3c 00 01 83 	lis     r0,387
 1801148:	30 80 ad d0 	addic   r4,r0,-21040
 180114c:	48 00 0a 7d 	bl      1801bc8 <filtez>
 1801150:	7c 69 1b 78 	mr      r9,r3
 1801154:	3c 00 01 82 	lis     r0,386
 1801158:	7c 08 03 78 	mr      r8,r0
 180115c:	91 28 46 74 	stw     r9,18036(r8)
 1801160:	3c 00 01 82 	lis     r0,386
 1801164:	7c 09 03 78 	mr      r9,r0
 1801168:	81 49 47 0c 	lwz     r10,18188(r9)
 180116c:	3c 00 01 82 	lis     r0,386
 1801170:	7c 07 03 78 	mr      r7,r0
 1801174:	81 67 45 90 	lwz     r11,17808(r7)
 1801178:	3c 00 01 82 	lis     r0,386
 180117c:	7c 08 03 78 	mr      r8,r0
 1801180:	81 28 47 00 	lwz     r9,18176(r8)
 1801184:	3c 00 01 82 	lis     r0,386
 1801188:	7c 07 03 78 	mr      r7,r0
 180118c:	80 07 47 54 	lwz     r0,18260(r7)
 1801190:	7d 43 53 78 	mr      r3,r10
 1801194:	7d 64 5b 78 	mr      r4,r11
 1801198:	7d 25 4b 78 	mr      r5,r9
 180119c:	7c 06 03 78 	mr      r6,r0
 18011a0:	48 00 0a f5 	bl      1801c94 <filtep>
 18011a4:	7c 69 1b 78 	mr      r9,r3
 18011a8:	3c 00 01 82 	lis     r0,386
 18011ac:	7c 08 03 78 	mr      r8,r0
 18011b0:	91 28 45 30 	stw     r9,17712(r8)
 18011b4:	3c 00 01 82 	lis     r0,386
 18011b8:	7c 0b 03 78 	mr      r11,r0
 18011bc:	81 2b 45 30 	lwz     r9,17712(r11)
 18011c0:	3c 00 01 82 	lis     r0,386
 18011c4:	7c 07 03 78 	mr      r7,r0
 18011c8:	80 07 46 74 	lwz     r0,18036(r7)
 18011cc:	7d 29 02 14 	add     r9,r9,r0
 18011d0:	3c 00 01 82 	lis     r0,386
 18011d4:	7c 08 03 78 	mr      r8,r0
 18011d8:	91 28 46 a8 	stw     r9,18088(r8)
 18011dc:	3c 00 01 82 	lis     r0,386
 18011e0:	7c 09 03 78 	mr      r9,r0
 18011e4:	80 09 44 ec 	lwz     r0,17644(r9)
 18011e8:	3d 20 01 82 	lis     r9,386
 18011ec:	39 29 12 48 	addi    r9,r9,4680
 18011f0:	54 00 10 3a 	rlwinm  r0,r0,2,0,29
 18011f4:	7c 09 02 14 	add     r0,r9,r0
 18011f8:	7c 0b 03 78 	mr      r11,r0
 18011fc:	81 2b 00 00 	lwz     r9,0(r11)
 1801200:	3c 00 01 82 	lis     r0,386
 1801204:	7c 07 03 78 	mr      r7,r0
 1801208:	80 07 45 f8 	lwz     r0,17912(r7)
 180120c:	7c 09 01 d6 	mullw   r0,r9,r0
 1801210:	7c 09 7e 70 	srawi   r9,r0,15
 1801214:	3c 00 01 82 	lis     r0,386
 1801218:	7c 08 03 78 	mr      r8,r0
 180121c:	91 28 45 c0 	stw     r9,17856(r8)
 1801220:	3c 00 01 82 	lis     r0,386
 1801224:	7c 0b 03 78 	mr      r11,r0
 1801228:	81 2b 44 ec 	lwz     r9,17644(r11)
 180122c:	3c 00 01 82 	lis     r0,386
 1801230:	7c 07 03 78 	mr      r7,r0
 1801234:	80 07 44 fc 	lwz     r0,17660(r7)
 1801238:	7d 23 4b 78 	mr      r3,r9
 180123c:	7c 04 03 78 	mr      r4,r0
 1801240:	48 00 10 31 	bl      1802270 <logsch>
 1801244:	7c 69 1b 78 	mr      r9,r3
 1801248:	3c 00 01 82 	lis     r0,386
 180124c:	7c 08 03 78 	mr      r8,r0
 1801250:	91 28 44 fc 	stw     r9,17660(r8)
 1801254:	3c 00 01 82 	lis     r0,386
 1801258:	7c 09 03 78 	mr      r9,r0
 180125c:	80 09 44 fc 	lwz     r0,17660(r9)
 1801260:	7c 03 03 78 	mr      r3,r0
 1801264:	38 80 00 0a 	li      r4,10
 1801268:	48 00 0c 39 	bl      1801ea0 <scalel>
 180126c:	7c 69 1b 78 	mr      r9,r3
 1801270:	3c 00 01 82 	lis     r0,386
 1801274:	7c 0b 03 78 	mr      r11,r0
 1801278:	91 2b 45 f8 	stw     r9,17912(r11)
 180127c:	3c 00 01 82 	lis     r0,386
 1801280:	7c 07 03 78 	mr      r7,r0
 1801284:	81 27 45 c0 	lwz     r9,17856(r7)
 1801288:	3c 00 01 82 	lis     r0,386
 180128c:	7c 08 03 78 	mr      r8,r0
 1801290:	80 08 46 74 	lwz     r0,18036(r8)
 1801294:	7d 29 02 14 	add     r9,r9,r0
 1801298:	3c 00 01 82 	lis     r0,386
 180129c:	7c 0b 03 78 	mr      r11,r0
 18012a0:	91 2b 46 7c 	stw     r9,18044(r11)
 18012a4:	3c 00 01 82 	lis     r0,386
 18012a8:	7c 07 03 78 	mr      r7,r0
 18012ac:	80 07 45 c0 	lwz     r0,17856(r7)
 18012b0:	7c 03 03 78 	mr      r3,r0
 18012b4:	3c 00 01 83 	lis     r0,387
 18012b8:	30 80 ad d0 	addic   r4,r0,-21040
 18012bc:	3c 00 01 83 	lis     r0,387
 18012c0:	30 a0 20 30 	addic   r5,r0,8240
 18012c4:	48 00 0c 5d 	bl      1801f20 <upzero>
 18012c8:	3c 00 01 82 	lis     r0,386
 18012cc:	7c 09 03 78 	mr      r9,r0
 18012d0:	81 09 45 90 	lwz     r8,17808(r9)
 18012d4:	3c 00 01 82 	lis     r0,386
 18012d8:	7c 0b 03 78 	mr      r11,r0
 18012dc:	81 4b 47 54 	lwz     r10,18260(r11)
 18012e0:	3c 00 01 82 	lis     r0,386
 18012e4:	7c 07 03 78 	mr      r7,r0
 18012e8:	81 67 46 7c 	lwz     r11,18044(r7)
 18012ec:	3c 00 01 82 	lis     r0,386
 18012f0:	7c 07 03 78 	mr      r7,r0
 18012f4:	81 27 45 18 	lwz     r9,17688(r7)
 18012f8:	3c 00 01 82 	lis     r0,386
 18012fc:	7c 07 03 78 	mr      r7,r0
 1801300:	80 07 45 8c 	lwz     r0,17804(r7)
 1801304:	7d 03 43 78 	mr      r3,r8
 1801308:	7d 44 53 78 	mr      r4,r10
 180130c:	7d 65 5b 78 	mr      r5,r11
 1801310:	7d 26 4b 78 	mr      r6,r9
 1801314:	7c 07 03 78 	mr      r7,r0
 1801318:	48 00 0d bd 	bl      18020d4 <uppol2>
 180131c:	7c 69 1b 78 	mr      r9,r3
 1801320:	3c 00 01 82 	lis     r0,386
 1801324:	7c 08 03 78 	mr      r8,r0
 1801328:	91 28 47 54 	stw     r9,18260(r8)
 180132c:	3c 00 01 82 	lis     r0,386
 1801330:	7c 09 03 78 	mr      r9,r0
 1801334:	81 49 45 90 	lwz     r10,17808(r9)
 1801338:	3c 00 01 82 	lis     r0,386
 180133c:	7c 07 03 78 	mr      r7,r0
 1801340:	81 67 47 54 	lwz     r11,18260(r7)
 1801344:	3c 00 01 82 	lis     r0,386
 1801348:	7c 08 03 78 	mr      r8,r0
 180134c:	81 28 46 7c 	lwz     r9,18044(r8)
 1801350:	3c 00 01 82 	lis     r0,386
 1801354:	7c 07 03 78 	mr      r7,r0
 1801358:	80 07 45 18 	lwz     r0,17688(r7)
 180135c:	7d 43 53 78 	mr      r3,r10
 1801360:	7d 64 5b 78 	mr      r4,r11
 1801364:	7d 25 4b 78 	mr      r5,r9
 1801368:	7c 06 03 78 	mr      r6,r0
 180136c:	48 00 0e 4d 	bl      18021b8 <uppol1>
 1801370:	7c 69 1b 78 	mr      r9,r3
 1801374:	3c 00 01 82 	lis     r0,386
 1801378:	7c 08 03 78 	mr      r8,r0
 180137c:	91 28 45 90 	stw     r9,17808(r8)
 1801380:	3c 00 01 82 	lis     r0,386
 1801384:	7c 0b 03 78 	mr      r11,r0
 1801388:	81 2b 46 a8 	lwz     r9,18088(r11)
 180138c:	3c 00 01 82 	lis     r0,386
 1801390:	7c 07 03 78 	mr      r7,r0
 1801394:	80 07 45 c0 	lwz     r0,17856(r7)
 1801398:	7d 29 02 14 	add     r9,r9,r0
 180139c:	3c 00 01 82 	lis     r0,386
 18013a0:	7c 08 03 78 	mr      r8,r0
 18013a4:	91 28 45 c4 	stw     r9,17860(r8)
 18013a8:	3c 00 01 82 	lis     r0,386
 18013ac:	7c 0b 03 78 	mr      r11,r0
 18013b0:	81 2b 47 0c 	lwz     r9,18188(r11)
 18013b4:	3c 00 01 82 	lis     r0,386
 18013b8:	7c 07 03 78 	mr      r7,r0
 18013bc:	91 27 47 00 	stw     r9,18176(r7)
 18013c0:	3c 00 01 82 	lis     r0,386
 18013c4:	7c 08 03 78 	mr      r8,r0
 18013c8:	81 28 45 c4 	lwz     r9,17860(r8)
 18013cc:	3c 00 01 82 	lis     r0,386
 18013d0:	7c 0b 03 78 	mr      r11,r0
 18013d4:	91 2b 47 0c 	stw     r9,18188(r11)
 18013d8:	3c 00 01 82 	lis     r0,386
 18013dc:	7c 07 03 78 	mr      r7,r0
 18013e0:	81 27 45 18 	lwz     r9,17688(r7)
 18013e4:	3c 00 01 82 	lis     r0,386
 18013e8:	7c 08 03 78 	mr      r8,r0
 18013ec:	91 28 45 8c 	stw     r9,17804(r8)
 18013f0:	3c 00 01 82 	lis     r0,386
 18013f4:	7c 0b 03 78 	mr      r11,r0
 18013f8:	81 2b 46 7c 	lwz     r9,18044(r11)
 18013fc:	3c 00 01 82 	lis     r0,386
 1801400:	7c 07 03 78 	mr      r7,r0
 1801404:	91 27 45 18 	stw     r9,17688(r7)
 1801408:	3c 00 01 82 	lis     r0,386
 180140c:	7c 08 03 78 	mr      r8,r0
 1801410:	81 28 44 b8 	lwz     r9,17592(r8)
 1801414:	3c 00 01 82 	lis     r0,386
 1801418:	7c 0b 03 78 	mr      r11,r0
 180141c:	80 0b 45 c4 	lwz     r0,17860(r11)
 1801420:	7d 20 48 50 	subf    r9,r0,r9
 1801424:	3c 00 01 82 	lis     r0,386
 1801428:	7c 07 03 78 	mr      r7,r0
 180142c:	91 27 46 bc 	stw     r9,18108(r7)
 1801430:	3c 00 01 82 	lis     r0,386
 1801434:	7c 08 03 78 	mr      r8,r0
 1801438:	81 28 44 b8 	lwz     r9,17592(r8)
 180143c:	3c 00 01 82 	lis     r0,386
 1801440:	7c 0b 03 78 	mr      r11,r0
 1801444:	80 0b 45 c4 	lwz     r0,17860(r11)
 1801448:	7d 29 02 14 	add     r9,r9,r0
 180144c:	3c 00 01 82 	lis     r0,386
 1801450:	7c 07 03 78 	mr      r7,r0
 1801454:	91 27 47 60 	stw     r9,18272(r7)
 1801458:	3c 00 01 82 	lis     r0,386
 180145c:	30 00 0d d8 	addic   r0,r0,3544
 1801460:	90 1f 00 18 	stw     r0,24(r31)
 1801464:	3c 00 01 83 	lis     r0,387
 1801468:	30 00 22 0c 	addic   r0,r0,8716
 180146c:	90 1f 00 14 	stw     r0,20(r31)
 1801470:	3c 00 01 83 	lis     r0,387
 1801474:	30 00 9d 20 	addic   r0,r0,-25312
 1801478:	90 1f 00 0c 	stw     r0,12(r31)
 180147c:	80 1f 00 18 	lwz     r0,24(r31)
 1801480:	7c 08 03 78 	mr      r8,r0
 1801484:	81 28 00 00 	lwz     r9,0(r8)
 1801488:	3c 00 01 82 	lis     r0,386
 180148c:	7c 0b 03 78 	mr      r11,r0
 1801490:	80 0b 46 bc 	lwz     r0,18108(r11)
 1801494:	7c 09 01 d6 	mullw   r0,r9,r0
 1801498:	90 1f 00 20 	stw     r0,32(r31)
 180149c:	80 1f 00 18 	lwz     r0,24(r31)
 18014a0:	30 00 00 04 	addic   r0,r0,4
 18014a4:	90 1f 00 18 	stw     r0,24(r31)
 18014a8:	80 1f 00 18 	lwz     r0,24(r31)
 18014ac:	7c 07 03 78 	mr      r7,r0
 18014b0:	81 27 00 00 	lwz     r9,0(r7)
 18014b4:	3c 00 01 82 	lis     r0,386
 18014b8:	7c 08 03 78 	mr      r8,r0
 18014bc:	80 08 47 60 	lwz     r0,18272(r8)
 18014c0:	7c 09 01 d6 	mullw   r0,r9,r0
 18014c4:	90 1f 00 1c 	stw     r0,28(r31)
 18014c8:	80 1f 00 18 	lwz     r0,24(r31)
 18014cc:	30 00 00 04 	addic   r0,r0,4
 18014d0:	90 1f 00 18 	stw     r0,24(r31)
 18014d4:	38 00 00 00 	li      r0,0
 18014d8:	90 1f 00 24 	stw     r0,36(r31)
 18014dc:	48 00 00 90 	b       180156c <decode+0x7ac>
 18014e0:	80 1f 00 14 	lwz     r0,20(r31)
 18014e4:	7c 0b 03 78 	mr      r11,r0
 18014e8:	81 2b 00 00 	lwz     r9,0(r11)
 18014ec:	80 1f 00 18 	lwz     r0,24(r31)
 18014f0:	7c 07 03 78 	mr      r7,r0
 18014f4:	80 07 00 00 	lwz     r0,0(r7)
 18014f8:	7c 09 01 d6 	mullw   r0,r9,r0
 18014fc:	81 3f 00 20 	lwz     r9,32(r31)
 1801500:	7c 09 02 14 	add     r0,r9,r0
 1801504:	90 1f 00 20 	stw     r0,32(r31)
 1801508:	80 1f 00 14 	lwz     r0,20(r31)
 180150c:	30 00 00 04 	addic   r0,r0,4
 1801510:	90 1f 00 14 	stw     r0,20(r31)
 1801514:	80 1f 00 18 	lwz     r0,24(r31)
 1801518:	30 00 00 04 	addic   r0,r0,4
 180151c:	90 1f 00 18 	stw     r0,24(r31)
 1801520:	80 1f 00 0c 	lwz     r0,12(r31)
 1801524:	7c 08 03 78 	mr      r8,r0
 1801528:	81 28 00 00 	lwz     r9,0(r8)
 180152c:	80 1f 00 18 	lwz     r0,24(r31)
 1801530:	7c 0b 03 78 	mr      r11,r0
 1801534:	80 0b 00 00 	lwz     r0,0(r11)
 1801538:	7c 09 01 d6 	mullw   r0,r9,r0
 180153c:	81 3f 00 1c 	lwz     r9,28(r31)
 1801540:	7c 09 02 14 	add     r0,r9,r0
 1801544:	90 1f 00 1c 	stw     r0,28(r31)
 1801548:	80 1f 00 0c 	lwz     r0,12(r31)
 180154c:	30 00 00 04 	addic   r0,r0,4
 1801550:	90 1f 00 0c 	stw     r0,12(r31)
 1801554:	80 1f 00 18 	lwz     r0,24(r31)
 1801558:	30 00 00 04 	addic   r0,r0,4
 180155c:	90 1f 00 18 	stw     r0,24(r31)
 1801560:	80 1f 00 24 	lwz     r0,36(r31)
 1801564:	30 00 00 01 	addic   r0,r0,1
 1801568:	90 1f 00 24 	stw     r0,36(r31)
 180156c:	80 1f 00 24 	lwz     r0,36(r31)
 1801570:	2f 80 00 09 	cmpwi   cr7,r0,9
 1801574:	40 9d ff 6c 	ble+    cr7,18014e0 <decode+0x720>
 1801578:	80 1f 00 14 	lwz     r0,20(r31)
 180157c:	7c 07 03 78 	mr      r7,r0
 1801580:	81 27 00 00 	lwz     r9,0(r7)
 1801584:	80 1f 00 18 	lwz     r0,24(r31)
 1801588:	7c 08 03 78 	mr      r8,r0
 180158c:	80 08 00 00 	lwz     r0,0(r8)
 1801590:	7c 09 01 d6 	mullw   r0,r9,r0
 1801594:	81 3f 00 20 	lwz     r9,32(r31)
 1801598:	7c 09 02 14 	add     r0,r9,r0
 180159c:	90 1f 00 20 	stw     r0,32(r31)
 18015a0:	80 1f 00 18 	lwz     r0,24(r31)
 18015a4:	30 00 00 04 	addic   r0,r0,4
 18015a8:	90 1f 00 18 	stw     r0,24(r31)
 18015ac:	80 1f 00 0c 	lwz     r0,12(r31)
 18015b0:	7c 0b 03 78 	mr      r11,r0
 18015b4:	81 2b 00 00 	lwz     r9,0(r11)
 18015b8:	80 1f 00 18 	lwz     r0,24(r31)
 18015bc:	7c 07 03 78 	mr      r7,r0
 18015c0:	80 07 00 00 	lwz     r0,0(r7)
 18015c4:	7c 09 01 d6 	mullw   r0,r9,r0
 18015c8:	81 3f 00 1c 	lwz     r9,28(r31)
 18015cc:	7c 09 02 14 	add     r0,r9,r0
 18015d0:	90 1f 00 1c 	stw     r0,28(r31)
 18015d4:	80 1f 00 18 	lwz     r0,24(r31)
 18015d8:	30 00 00 04 	addic   r0,r0,4
 18015dc:	90 1f 00 18 	stw     r0,24(r31)
 18015e0:	80 1f 00 20 	lwz     r0,32(r31)
 18015e4:	7c 09 76 70 	srawi   r9,r0,14
 18015e8:	3c 00 01 82 	lis     r0,386
 18015ec:	7c 08 03 78 	mr      r8,r0
 18015f0:	91 28 45 7c 	stw     r9,17788(r8)
 18015f4:	80 1f 00 1c 	lwz     r0,28(r31)
 18015f8:	7c 09 76 70 	srawi   r9,r0,14
 18015fc:	3c 00 01 82 	lis     r0,386
 1801600:	7c 0b 03 78 	mr      r11,r0
 1801604:	91 2b 45 f0 	stw     r9,17904(r11)
 1801608:	80 1f 00 14 	lwz     r0,20(r31)
 180160c:	30 00 ff fc 	addic   r0,r0,-4
 1801610:	90 1f 00 10 	stw     r0,16(r31)
 1801614:	80 1f 00 0c 	lwz     r0,12(r31)
 1801618:	30 00 ff fc 	addic   r0,r0,-4
 180161c:	90 1f 00 08 	stw     r0,8(r31)
 1801620:	38 00 00 00 	li      r0,0
 1801624:	90 1f 00 24 	stw     r0,36(r31)
 1801628:	48 00 00 70 	b       1801698 <decode+0x8d8>
 180162c:	80 1f 00 10 	lwz     r0,16(r31)
 1801630:	7c 07 03 78 	mr      r7,r0
 1801634:	81 27 00 00 	lwz     r9,0(r7)
 1801638:	80 1f 00 14 	lwz     r0,20(r31)
 180163c:	7c 08 03 78 	mr      r8,r0
 1801640:	91 28 00 00 	stw     r9,0(r8)
 1801644:	80 1f 00 14 	lwz     r0,20(r31)
 1801648:	30 00 ff fc 	addic   r0,r0,-4
 180164c:	90 1f 00 14 	stw     r0,20(r31)
 1801650:	80 1f 00 10 	lwz     r0,16(r31)
 1801654:	30 00 ff fc 	addic   r0,r0,-4
 1801658:	90 1f 00 10 	stw     r0,16(r31)
 180165c:	80 1f 00 08 	lwz     r0,8(r31)
 1801660:	7c 0b 03 78 	mr      r11,r0
 1801664:	81 2b 00 00 	lwz     r9,0(r11)
 1801668:	80 1f 00 0c 	lwz     r0,12(r31)
 180166c:	7c 07 03 78 	mr      r7,r0
 1801670:	91 27 00 00 	stw     r9,0(r7)
 1801674:	80 1f 00 0c 	lwz     r0,12(r31)
 1801678:	30 00 ff fc 	addic   r0,r0,-4
 180167c:	90 1f 00 0c 	stw     r0,12(r31)
 1801680:	80 1f 00 08 	lwz     r0,8(r31)
 1801684:	30 00 ff fc 	addic   r0,r0,-4
 1801688:	90 1f 00 08 	stw     r0,8(r31)
 180168c:	80 1f 00 24 	lwz     r0,36(r31)
 1801690:	30 00 00 01 	addic   r0,r0,1
 1801694:	90 1f 00 24 	stw     r0,36(r31)
 1801698:	80 1f 00 24 	lwz     r0,36(r31)
 180169c:	2f 80 00 09 	cmpwi   cr7,r0,9
 18016a0:	40 9d ff 8c 	ble+    cr7,180162c <decode+0x86c>
 18016a4:	3c 00 01 82 	lis     r0,386
 18016a8:	7c 08 03 78 	mr      r8,r0
 18016ac:	81 28 46 bc 	lwz     r9,18108(r8)
 18016b0:	80 1f 00 14 	lwz     r0,20(r31)
 18016b4:	7c 0b 03 78 	mr      r11,r0
 18016b8:	91 2b 00 00 	stw     r9,0(r11)
 18016bc:	3c 00 01 82 	lis     r0,386
 18016c0:	7c 07 03 78 	mr      r7,r0
 18016c4:	81 27 47 60 	lwz     r9,18272(r7)
 18016c8:	80 1f 00 0c 	lwz     r0,12(r31)
 18016cc:	7c 08 03 78 	mr      r8,r0
 18016d0:	91 28 00 00 	stw     r9,0(r8)
 18016d4:	39 7f 00 38 	addi    r11,r31,56
 18016d8:	80 0b 00 04 	lwz     r0,4(r11)
 18016dc:	7c 08 03 a6 	mtlr    r0
 18016e0:	83 eb ff fc 	lwz     r31,-4(r11)
 18016e4:	7d 61 5b 78 	mr      r1,r11
 18016e8:	4e 80 00 20 	blr

018016ec <reset>:
 18016ec:	94 21 ff e0 	stwu    r1,-32(r1)
 18016f0:	93 e1 00 1c 	stw     r31,28(r1)
 18016f4:	7c 3f 0b 78 	mr      r31,r1
 18016f8:	3c 00 01 82 	lis     r0,386
 18016fc:	39 20 00 20 	li      r9,32
 1801700:	7c 0b 03 78 	mr      r11,r0
 1801704:	91 2b 46 d8 	stw     r9,18136(r11)
 1801708:	3c 00 01 82 	lis     r0,386
 180170c:	7c 0b 03 78 	mr      r11,r0
 1801710:	81 2b 46 d8 	lwz     r9,18136(r11)
 1801714:	3c 00 01 82 	lis     r0,386
 1801718:	7c 0b 03 78 	mr      r11,r0
 180171c:	91 2b 45 3c 	stw     r9,17724(r11)
 1801720:	3c 00 01 82 	lis     r0,386
 1801724:	39 20 00 08 	li      r9,8
 1801728:	7c 0b 03 78 	mr      r11,r0
 180172c:	91 2b 45 f8 	stw     r9,17912(r11)
 1801730:	3c 00 01 82 	lis     r0,386
 1801734:	7c 0b 03 78 	mr      r11,r0
 1801738:	81 2b 45 f8 	lwz     r9,17912(r11)
 180173c:	3c 00 01 82 	lis     r0,386
 1801740:	7c 0b 03 78 	mr      r11,r0
 1801744:	91 2b 45 cc 	stw     r9,17868(r11)
 1801748:	3c 00 01 82 	lis     r0,386
 180174c:	39 20 00 00 	li      r9,0
 1801750:	7c 0b 03 78 	mr      r11,r0
 1801754:	91 2b 46 0c 	stw     r9,17932(r11)
 1801758:	3c 00 01 82 	lis     r0,386
 180175c:	7c 0b 03 78 	mr      r11,r0
 1801760:	81 2b 46 0c 	lwz     r9,17932(r11)
 1801764:	3c 00 01 82 	lis     r0,386
 1801768:	7c 0b 03 78 	mr      r11,r0
 180176c:	91 2b 47 30 	stw     r9,18224(r11)
 1801770:	3c 00 01 82 	lis     r0,386
 1801774:	7c 0b 03 78 	mr      r11,r0
 1801778:	81 2b 47 30 	lwz     r9,18224(r11)
 180177c:	3c 00 01 82 	lis     r0,386
 1801780:	7c 0b 03 78 	mr      r11,r0
 1801784:	91 2b 46 c4 	stw     r9,18116(r11)
 1801788:	3c 00 01 82 	lis     r0,386
 180178c:	7c 0b 03 78 	mr      r11,r0
 1801790:	81 2b 46 c4 	lwz     r9,18116(r11)
 1801794:	3c 00 01 82 	lis     r0,386
 1801798:	7c 0b 03 78 	mr      r11,r0
 180179c:	91 2b 46 e4 	stw     r9,18148(r11)
 18017a0:	3c 00 01 82 	lis     r0,386
 18017a4:	7c 0b 03 78 	mr      r11,r0
 18017a8:	81 2b 46 e4 	lwz     r9,18148(r11)
 18017ac:	3c 00 01 82 	lis     r0,386
 18017b0:	7c 0b 03 78 	mr      r11,r0
 18017b4:	91 2b 47 04 	stw     r9,18180(r11)
 18017b8:	3c 00 01 82 	lis     r0,386
 18017bc:	7c 0b 03 78 	mr      r11,r0
 18017c0:	81 2b 47 04 	lwz     r9,18180(r11)
 18017c4:	3c 00 01 82 	lis     r0,386
 18017c8:	7c 0b 03 78 	mr      r11,r0
 18017cc:	91 2b 47 70 	stw     r9,18288(r11)
 18017d0:	3c 00 01 82 	lis     r0,386
 18017d4:	7c 0b 03 78 	mr      r11,r0
 18017d8:	81 2b 47 70 	lwz     r9,18288(r11)
 18017dc:	3c 00 01 82 	lis     r0,386
 18017e0:	7c 0b 03 78 	mr      r11,r0
 18017e4:	91 2b 44 f8 	stw     r9,17656(r11)
 18017e8:	3c 00 01 82 	lis     r0,386
 18017ec:	39 20 00 00 	li      r9,0
 18017f0:	7c 0b 03 78 	mr      r11,r0
 18017f4:	91 2b 44 d0 	stw     r9,17616(r11)
 18017f8:	3c 00 01 82 	lis     r0,386
 18017fc:	7c 0b 03 78 	mr      r11,r0
 1801800:	81 2b 44 d0 	lwz     r9,17616(r11)
 1801804:	3c 00 01 82 	lis     r0,386
 1801808:	7c 0b 03 78 	mr      r11,r0
 180180c:	91 2b 46 a4 	stw     r9,18084(r11)
 1801810:	3c 00 01 82 	lis     r0,386
 1801814:	7c 0b 03 78 	mr      r11,r0
 1801818:	81 2b 46 a4 	lwz     r9,18084(r11)
 180181c:	3c 00 01 82 	lis     r0,386
 1801820:	7c 0b 03 78 	mr      r11,r0
 1801824:	91 2b 46 10 	stw     r9,17936(r11)
 1801828:	3c 00 01 82 	lis     r0,386
 180182c:	7c 0b 03 78 	mr      r11,r0
 1801830:	81 2b 46 10 	lwz     r9,17936(r11)
 1801834:	3c 00 01 82 	lis     r0,386
 1801838:	7c 0b 03 78 	mr      r11,r0
 180183c:	91 2b 46 98 	stw     r9,18072(r11)
 1801840:	3c 00 01 82 	lis     r0,386
 1801844:	7c 0b 03 78 	mr      r11,r0
 1801848:	81 2b 46 98 	lwz     r9,18072(r11)
 180184c:	3c 00 01 82 	lis     r0,386
 1801850:	7c 0b 03 78 	mr      r11,r0
 1801854:	91 2b 46 1c 	stw     r9,17948(r11)
 1801858:	3c 00 01 82 	lis     r0,386
 180185c:	7c 0b 03 78 	mr      r11,r0
 1801860:	81 2b 46 1c 	lwz     r9,17948(r11)
 1801864:	3c 00 01 82 	lis     r0,386
 1801868:	7c 0b 03 78 	mr      r11,r0
 180186c:	91 2b 45 54 	stw     r9,17748(r11)
 1801870:	3c 00 01 82 	lis     r0,386
 1801874:	7c 0b 03 78 	mr      r11,r0
 1801878:	81 2b 45 54 	lwz     r9,17748(r11)
 180187c:	3c 00 01 82 	lis     r0,386
 1801880:	7c 0b 03 78 	mr      r11,r0
 1801884:	91 2b 47 2c 	stw     r9,18220(r11)
 1801888:	3c 00 01 82 	lis     r0,386
 180188c:	39 20 00 00 	li      r9,0
 1801890:	7c 0b 03 78 	mr      r11,r0
 1801894:	91 2b 45 d4 	stw     r9,17876(r11)
 1801898:	3c 00 01 82 	lis     r0,386
 180189c:	7c 0b 03 78 	mr      r11,r0
 18018a0:	81 2b 45 d4 	lwz     r9,17876(r11)
 18018a4:	3c 00 01 82 	lis     r0,386
 18018a8:	7c 0b 03 78 	mr      r11,r0
 18018ac:	91 2b 45 d8 	stw     r9,17880(r11)
 18018b0:	3c 00 01 82 	lis     r0,386
 18018b4:	7c 0b 03 78 	mr      r11,r0
 18018b8:	81 2b 45 d8 	lwz     r9,17880(r11)
 18018bc:	3c 00 01 82 	lis     r0,386
 18018c0:	7c 0b 03 78 	mr      r11,r0
 18018c4:	91 2b 44 c4 	stw     r9,17604(r11)
 18018c8:	3c 00 01 82 	lis     r0,386
 18018cc:	7c 0b 03 78 	mr      r11,r0
 18018d0:	81 2b 44 c4 	lwz     r9,17604(r11)
 18018d4:	3c 00 01 82 	lis     r0,386
 18018d8:	7c 0b 03 78 	mr      r11,r0
 18018dc:	91 2b 44 f4 	stw     r9,17652(r11)
 18018e0:	3c 00 01 82 	lis     r0,386
 18018e4:	7c 0b 03 78 	mr      r11,r0
 18018e8:	81 2b 44 f4 	lwz     r9,17652(r11)
 18018ec:	3c 00 01 82 	lis     r0,386
 18018f0:	7c 0b 03 78 	mr      r11,r0
 18018f4:	91 2b 46 dc 	stw     r9,18140(r11)
 18018f8:	3c 00 01 82 	lis     r0,386
 18018fc:	7c 0b 03 78 	mr      r11,r0
 1801900:	81 2b 46 dc 	lwz     r9,18140(r11)
 1801904:	3c 00 01 82 	lis     r0,386
 1801908:	7c 0b 03 78 	mr      r11,r0
 180190c:	91 2b 47 3c 	stw     r9,18236(r11)
 1801910:	3c 00 01 82 	lis     r0,386
 1801914:	7c 0b 03 78 	mr      r11,r0
 1801918:	81 2b 47 3c 	lwz     r9,18236(r11)
 180191c:	3c 00 01 82 	lis     r0,386
 1801920:	7c 0b 03 78 	mr      r11,r0
 1801924:	91 2b 46 78 	stw     r9,18040(r11)
 1801928:	3c 00 01 82 	lis     r0,386
 180192c:	39 20 00 00 	li      r9,0
 1801930:	7c 0b 03 78 	mr      r11,r0
 1801934:	91 2b 47 00 	stw     r9,18176(r11)
 1801938:	3c 00 01 82 	lis     r0,386
 180193c:	7c 0b 03 78 	mr      r11,r0
 1801940:	81 2b 47 00 	lwz     r9,18176(r11)
 1801944:	3c 00 01 82 	lis     r0,386
 1801948:	7c 0b 03 78 	mr      r11,r0
 180194c:	91 2b 47 0c 	stw     r9,18188(r11)
 1801950:	3c 00 01 82 	lis     r0,386
 1801954:	7c 0b 03 78 	mr      r11,r0
 1801958:	81 2b 47 0c 	lwz     r9,18188(r11)
 180195c:	3c 00 01 82 	lis     r0,386
 1801960:	7c 0b 03 78 	mr      r11,r0
 1801964:	91 2b 45 8c 	stw     r9,17804(r11)
 1801968:	3c 00 01 82 	lis     r0,386
 180196c:	7c 0b 03 78 	mr      r11,r0
 1801970:	81 2b 45 8c 	lwz     r9,17804(r11)
 1801974:	3c 00 01 82 	lis     r0,386
 1801978:	7c 0b 03 78 	mr      r11,r0
 180197c:	91 2b 45 18 	stw     r9,17688(r11)
 1801980:	3c 00 01 82 	lis     r0,386
 1801984:	7c 0b 03 78 	mr      r11,r0
 1801988:	81 2b 45 18 	lwz     r9,17688(r11)
 180198c:	3c 00 01 82 	lis     r0,386
 1801990:	7c 0b 03 78 	mr      r11,r0
 1801994:	91 2b 47 54 	stw     r9,18260(r11)
 1801998:	3c 00 01 82 	lis     r0,386
 180199c:	7c 0b 03 78 	mr      r11,r0
 18019a0:	81 2b 47 54 	lwz     r9,18260(r11)
 18019a4:	3c 00 01 82 	lis     r0,386
 18019a8:	7c 0b 03 78 	mr      r11,r0
 18019ac:	91 2b 45 90 	stw     r9,17808(r11)
 18019b0:	3c 00 01 82 	lis     r0,386
 18019b4:	7c 0b 03 78 	mr      r11,r0
 18019b8:	81 2b 45 90 	lwz     r9,17808(r11)
 18019bc:	3c 00 01 82 	lis     r0,386
 18019c0:	7c 0b 03 78 	mr      r11,r0
 18019c4:	91 2b 44 fc 	stw     r9,17660(r11)
 18019c8:	38 00 00 00 	li      r0,0
 18019cc:	90 1f 00 08 	stw     r0,8(r31)
 18019d0:	48 00 00 90 	b       1801a60 <reset+0x374>
 18019d4:	80 1f 00 08 	lwz     r0,8(r31)
 18019d8:	3d 20 01 82 	lis     r9,386
 18019dc:	39 29 4f 40 	addi    r9,r9,20288
 18019e0:	54 00 10 3a 	rlwinm  r0,r0,2,0,29
 18019e4:	7c 09 02 14 	add     r0,r9,r0
 18019e8:	39 20 00 00 	li      r9,0
 18019ec:	7c 0b 03 78 	mr      r11,r0
 18019f0:	91 2b 00 00 	stw     r9,0(r11)
 18019f4:	80 1f 00 08 	lwz     r0,8(r31)
 18019f8:	3d 20 01 83 	lis     r9,387
 18019fc:	39 29 fe 74 	addi    r9,r9,-396
 1801a00:	54 00 10 3a 	rlwinm  r0,r0,2,0,29
 1801a04:	7c 09 02 14 	add     r0,r9,r0
 1801a08:	39 20 00 00 	li      r9,0
 1801a0c:	7c 0b 03 78 	mr      r11,r0
 1801a10:	91 2b 00 00 	stw     r9,0(r11)
 1801a14:	80 1f 00 08 	lwz     r0,8(r31)
 1801a18:	3d 20 01 82 	lis     r9,386
 1801a1c:	39 29 4f 58 	addi    r9,r9,20312
 1801a20:	54 00 10 3a 	rlwinm  r0,r0,2,0,29
 1801a24:	7c 09 02 14 	add     r0,r9,r0
 1801a28:	39 20 00 00 	li      r9,0
 1801a2c:	7c 0b 03 78 	mr      r11,r0
 1801a30:	91 2b 00 00 	stw     r9,0(r11)
 1801a34:	80 1f 00 08 	lwz     r0,8(r31)
 1801a38:	3d 20 01 83 	lis     r9,387
 1801a3c:	39 29 ad d0 	addi    r9,r9,-21040
 1801a40:	54 00 10 3a 	rlwinm  r0,r0,2,0,29
 1801a44:	7c 09 02 14 	add     r0,r9,r0
 1801a48:	39 20 00 00 	li      r9,0
 1801a4c:	7c 0b 03 78 	mr      r11,r0
 1801a50:	91 2b 00 00 	stw     r9,0(r11)
 1801a54:	80 1f 00 08 	lwz     r0,8(r31)
 1801a58:	30 00 00 01 	addic   r0,r0,1
 1801a5c:	90 1f 00 08 	stw     r0,8(r31)
 1801a60:	80 1f 00 08 	lwz     r0,8(r31)
 1801a64:	2f 80 00 05 	cmpwi   cr7,r0,5
 1801a68:	40 9d ff 6c 	ble+    cr7,18019d4 <reset+0x2e8>
 1801a6c:	38 00 00 00 	li      r0,0
 1801a70:	90 1f 00 08 	stw     r0,8(r31)
 1801a74:	48 00 00 90 	b       1801b04 <reset+0x418>
 1801a78:	80 1f 00 08 	lwz     r0,8(r31)
 1801a7c:	3d 20 01 83 	lis     r9,387
 1801a80:	39 29 29 18 	addi    r9,r9,10520
 1801a84:	54 00 10 3a 	rlwinm  r0,r0,2,0,29
 1801a88:	7c 09 02 14 	add     r0,r9,r0
 1801a8c:	39 20 00 00 	li      r9,0
 1801a90:	7c 0b 03 78 	mr      r11,r0
 1801a94:	91 2b 00 00 	stw     r9,0(r11)
 1801a98:	80 1f 00 08 	lwz     r0,8(r31)
 1801a9c:	3d 20 01 83 	lis     r9,387
 1801aa0:	39 29 29 ac 	addi    r9,r9,10668
 1801aa4:	54 00 10 3a 	rlwinm  r0,r0,2,0,29
 1801aa8:	7c 09 02 14 	add     r0,r9,r0
 1801aac:	39 20 00 00 	li      r9,0
 1801ab0:	7c 0b 03 78 	mr      r11,r0
 1801ab4:	91 2b 00 00 	stw     r9,0(r11)
 1801ab8:	80 1f 00 08 	lwz     r0,8(r31)
 1801abc:	3d 20 01 83 	lis     r9,387
 1801ac0:	39 29 29 30 	addi    r9,r9,10544
 1801ac4:	54 00 10 3a 	rlwinm  r0,r0,2,0,29
 1801ac8:	7c 09 02 14 	add     r0,r9,r0
 1801acc:	39 20 00 00 	li      r9,0
 1801ad0:	7c 0b 03 78 	mr      r11,r0
 1801ad4:	91 2b 00 00 	stw     r9,0(r11)
 1801ad8:	80 1f 00 08 	lwz     r0,8(r31)
 1801adc:	3d 20 01 83 	lis     r9,387
 1801ae0:	39 29 20 30 	addi    r9,r9,8240
 1801ae4:	54 00 10 3a 	rlwinm  r0,r0,2,0,29
 1801ae8:	7c 09 02 14 	add     r0,r9,r0
 1801aec:	39 20 00 00 	li      r9,0
 1801af0:	7c 0b 03 78 	mr      r11,r0
 1801af4:	91 2b 00 00 	stw     r9,0(r11)
 1801af8:	80 1f 00 08 	lwz     r0,8(r31)
 1801afc:	30 00 00 01 	addic   r0,r0,1
 1801b00:	90 1f 00 08 	stw     r0,8(r31)
 1801b04:	80 1f 00 08 	lwz     r0,8(r31)
 1801b08:	2f 80 00 05 	cmpwi   cr7,r0,5
 1801b0c:	40 9d ff 6c 	ble+    cr7,1801a78 <reset+0x38c>
 1801b10:	38 00 00 00 	li      r0,0
 1801b14:	90 1f 00 08 	stw     r0,8(r31)
 1801b18:	48 00 00 30 	b       1801b48 <reset+0x45c>
 1801b1c:	80 1f 00 08 	lwz     r0,8(r31)
 1801b20:	3d 20 01 83 	lis     r9,387
 1801b24:	39 29 1f d0 	addi    r9,r9,8144
 1801b28:	54 00 10 3a 	rlwinm  r0,r0,2,0,29
 1801b2c:	7c 09 02 14 	add     r0,r9,r0
 1801b30:	39 20 00 00 	li      r9,0
 1801b34:	7c 0b 03 78 	mr      r11,r0
 1801b38:	91 2b 00 00 	stw     r9,0(r11)
 1801b3c:	80 1f 00 08 	lwz     r0,8(r31)
 1801b40:	30 00 00 01 	addic   r0,r0,1
 1801b44:	90 1f 00 08 	stw     r0,8(r31)
 1801b48:	80 1f 00 08 	lwz     r0,8(r31)
 1801b4c:	2f 80 00 16 	cmpwi   cr7,r0,22
 1801b50:	40 9d ff cc 	ble+    cr7,1801b1c <reset+0x430>
 1801b54:	38 00 00 00 	li      r0,0
 1801b58:	90 1f 00 08 	stw     r0,8(r31)
 1801b5c:	48 00 00 50 	b       1801bac <reset+0x4c0>
 1801b60:	80 1f 00 08 	lwz     r0,8(r31)
 1801b64:	3d 20 01 83 	lis     r9,387
 1801b68:	39 29 22 0c 	addi    r9,r9,8716
 1801b6c:	54 00 10 3a 	rlwinm  r0,r0,2,0,29
 1801b70:	7c 09 02 14 	add     r0,r9,r0
 1801b74:	39 20 00 00 	li      r9,0
 1801b78:	7c 0b 03 78 	mr      r11,r0
 1801b7c:	91 2b 00 00 	stw     r9,0(r11)
 1801b80:	80 1f 00 08 	lwz     r0,8(r31)
 1801b84:	3d 20 01 83 	lis     r9,387
 1801b88:	39 29 9d 20 	addi    r9,r9,-25312
 1801b8c:	54 00 10 3a 	rlwinm  r0,r0,2,0,29
 1801b90:	7c 09 02 14 	add     r0,r9,r0
 1801b94:	39 20 00 00 	li      r9,0
 1801b98:	7c 0b 03 78 	mr      r11,r0
 1801b9c:	91 2b 00 00 	stw     r9,0(r11)
 1801ba0:	80 1f 00 08 	lwz     r0,8(r31)
 1801ba4:	30 00 00 01 	addic   r0,r0,1
 1801ba8:	90 1f 00 08 	stw     r0,8(r31)
 1801bac:	80 1f 00 08 	lwz     r0,8(r31)
 1801bb0:	2f 80 00 0a 	cmpwi   cr7,r0,10
 1801bb4:	40 9d ff ac 	ble+    cr7,1801b60 <reset+0x474>
 1801bb8:	39 7f 00 20 	addi    r11,r31,32
 1801bbc:	83 eb ff fc 	lwz     r31,-4(r11)
 1801bc0:	7d 61 5b 78 	mr      r1,r11
 1801bc4:	4e 80 00 20 	blr

01801bc8 <filtez>:
 1801bc8:	94 21 ff d8 	stwu    r1,-40(r1)
 1801bcc:	93 e1 00 24 	stw     r31,36(r1)
 1801bd0:	7c 3f 0b 78 	mr      r31,r1
 1801bd4:	90 7f 00 18 	stw     r3,24(r31)
 1801bd8:	90 9f 00 1c 	stw     r4,28(r31)
 1801bdc:	80 1f 00 18 	lwz     r0,24(r31)
 1801be0:	7c 0b 03 78 	mr      r11,r0
 1801be4:	81 2b 00 00 	lwz     r9,0(r11)
 1801be8:	80 1f 00 1c 	lwz     r0,28(r31)
 1801bec:	7c 0b 03 78 	mr      r11,r0
 1801bf0:	80 0b 00 00 	lwz     r0,0(r11)
 1801bf4:	7c 09 01 d6 	mullw   r0,r9,r0
 1801bf8:	90 1f 00 08 	stw     r0,8(r31)
 1801bfc:	80 1f 00 18 	lwz     r0,24(r31)
 1801c00:	30 00 00 04 	addic   r0,r0,4
 1801c04:	90 1f 00 18 	stw     r0,24(r31)
 1801c08:	80 1f 00 1c 	lwz     r0,28(r31)
 1801c0c:	30 00 00 04 	addic   r0,r0,4
 1801c10:	90 1f 00 1c 	stw     r0,28(r31)
 1801c14:	38 00 00 01 	li      r0,1
 1801c18:	90 1f 00 0c 	stw     r0,12(r31)
 1801c1c:	48 00 00 50 	b       1801c6c <filtez+0xa4>
 1801c20:	80 1f 00 18 	lwz     r0,24(r31)
 1801c24:	7c 0b 03 78 	mr      r11,r0
 1801c28:	81 2b 00 00 	lwz     r9,0(r11)
 1801c2c:	80 1f 00 1c 	lwz     r0,28(r31)
 1801c30:	7c 0b 03 78 	mr      r11,r0
 1801c34:	80 0b 00 00 	lwz     r0,0(r11)
 1801c38:	7c 09 01 d6 	mullw   r0,r9,r0
 1801c3c:	81 3f 00 08 	lwz     r9,8(r31)
 1801c40:	7c 09 02 14 	add     r0,r9,r0
 1801c44:	90 1f 00 08 	stw     r0,8(r31)
 1801c48:	80 1f 00 18 	lwz     r0,24(r31)
 1801c4c:	30 00 00 04 	addic   r0,r0,4
 1801c50:	90 1f 00 18 	stw     r0,24(r31)
 1801c54:	80 1f 00 1c 	lwz     r0,28(r31)
 1801c58:	30 00 00 04 	addic   r0,r0,4
 1801c5c:	90 1f 00 1c 	stw     r0,28(r31)
 1801c60:	80 1f 00 0c 	lwz     r0,12(r31)
 1801c64:	30 00 00 01 	addic   r0,r0,1
 1801c68:	90 1f 00 0c 	stw     r0,12(r31)
 1801c6c:	80 1f 00 0c 	lwz     r0,12(r31)
 1801c70:	2f 80 00 05 	cmpwi   cr7,r0,5
 1801c74:	40 9d ff ac 	ble+    cr7,1801c20 <filtez+0x58>
 1801c78:	80 1f 00 08 	lwz     r0,8(r31)
 1801c7c:	7c 00 76 70 	srawi   r0,r0,14
 1801c80:	7c 03 03 78 	mr      r3,r0
 1801c84:	39 7f 00 28 	addi    r11,r31,40
 1801c88:	83 eb ff fc 	lwz     r31,-4(r11)
 1801c8c:	7d 61 5b 78 	mr      r1,r11
 1801c90:	4e 80 00 20 	blr

01801c94 <filtep>:
 1801c94:	94 21 ff d0 	stwu    r1,-48(r1)
 1801c98:	93 e1 00 2c 	stw     r31,44(r1)
 1801c9c:	7c 3f 0b 78 	mr      r31,r1
 1801ca0:	90 7f 00 18 	stw     r3,24(r31)
 1801ca4:	90 9f 00 1c 	stw     r4,28(r31)
 1801ca8:	90 bf 00 20 	stw     r5,32(r31)
 1801cac:	90 df 00 24 	stw     r6,36(r31)
 1801cb0:	80 1f 00 18 	lwz     r0,24(r31)
 1801cb4:	54 00 08 3c 	rlwinm  r0,r0,1,0,30
 1801cb8:	90 1f 00 0c 	stw     r0,12(r31)
 1801cbc:	81 3f 00 0c 	lwz     r9,12(r31)
 1801cc0:	80 1f 00 1c 	lwz     r0,28(r31)
 1801cc4:	7c 09 01 d6 	mullw   r0,r9,r0
 1801cc8:	90 1f 00 0c 	stw     r0,12(r31)
 1801ccc:	80 1f 00 20 	lwz     r0,32(r31)
 1801cd0:	54 00 08 3c 	rlwinm  r0,r0,1,0,30
 1801cd4:	90 1f 00 08 	stw     r0,8(r31)
 1801cd8:	81 3f 00 24 	lwz     r9,36(r31)
 1801cdc:	80 1f 00 08 	lwz     r0,8(r31)
 1801ce0:	7c 09 01 d6 	mullw   r0,r9,r0
 1801ce4:	81 3f 00 0c 	lwz     r9,12(r31)
 1801ce8:	7c 09 02 14 	add     r0,r9,r0
 1801cec:	90 1f 00 0c 	stw     r0,12(r31)
 1801cf0:	80 1f 00 0c 	lwz     r0,12(r31)
 1801cf4:	7c 00 7e 70 	srawi   r0,r0,15
 1801cf8:	7c 03 03 78 	mr      r3,r0
 1801cfc:	39 7f 00 30 	addi    r11,r31,48
 1801d00:	83 eb ff fc 	lwz     r31,-4(r11)
 1801d04:	7d 61 5b 78 	mr      r1,r11
 1801d08:	4e 80 00 20 	blr

01801d0c <quantl>:
 1801d0c:	94 21 ff d8 	stwu    r1,-40(r1)
 1801d10:	7c 08 02 a6 	mflr    r0
 1801d14:	90 01 00 2c 	stw     r0,44(r1)
 1801d18:	93 e1 00 24 	stw     r31,36(r1)
 1801d1c:	7c 3f 0b 78 	mr      r31,r1
 1801d20:	90 7f 00 18 	stw     r3,24(r31)
 1801d24:	90 9f 00 1c 	stw     r4,28(r31)
 1801d28:	80 7f 00 18 	lwz     r3,24(r31)
 1801d2c:	4b ff e4 f5 	bl      1800220 <my_abs>
 1801d30:	7c 60 1b 78 	mr      r0,r3
 1801d34:	90 1f 00 0c 	stw     r0,12(r31)
 1801d38:	38 00 00 00 	li      r0,0
 1801d3c:	90 1f 00 10 	stw     r0,16(r31)
 1801d40:	48 00 00 4c 	b       1801d8c <quantl+0x80>
 1801d44:	80 1f 00 10 	lwz     r0,16(r31)
 1801d48:	3d 20 01 82 	lis     r9,386
 1801d4c:	39 29 10 d8 	addi    r9,r9,4312
 1801d50:	54 00 10 3a 	rlwinm  r0,r0,2,0,29
 1801d54:	7c 09 02 14 	add     r0,r9,r0
 1801d58:	7c 0b 03 78 	mr      r11,r0
 1801d5c:	81 2b 00 00 	lwz     r9,0(r11)
 1801d60:	80 1f 00 1c 	lwz     r0,28(r31)
 1801d64:	7c 09 01 d6 	mullw   r0,r9,r0
 1801d68:	7c 00 7e 70 	srawi   r0,r0,15
 1801d6c:	90 1f 00 08 	stw     r0,8(r31)
 1801d70:	81 3f 00 0c 	lwz     r9,12(r31)
 1801d74:	80 1f 00 08 	lwz     r0,8(r31)
 1801d78:	7f 89 00 00 	cmpw    cr7,r9,r0
 1801d7c:	40 9d 00 20 	ble-    cr7,1801d9c <quantl+0x90>
 1801d80:	80 1f 00 10 	lwz     r0,16(r31)
 1801d84:	30 00 00 01 	addic   r0,r0,1
 1801d88:	90 1f 00 10 	stw     r0,16(r31)
 1801d8c:	80 1f 00 10 	lwz     r0,16(r31)
 1801d90:	2f 80 00 1d 	cmpwi   cr7,r0,29
 1801d94:	40 9d ff b0 	ble+    cr7,1801d44 <quantl+0x38>
 1801d98:	48 00 00 08 	b       1801da0 <quantl+0x94>
 1801d9c:	60 00 00 00 	nop
 1801da0:	80 1f 00 18 	lwz     r0,24(r31)
 1801da4:	2f 80 00 00 	cmpwi   cr7,r0,0
 1801da8:	41 9c 00 28 	blt-    cr7,1801dd0 <quantl+0xc4>
 1801dac:	80 1f 00 10 	lwz     r0,16(r31)
 1801db0:	3d 20 01 82 	lis     r9,386
 1801db4:	39 29 11 50 	addi    r9,r9,4432
 1801db8:	54 00 10 3a 	rlwinm  r0,r0,2,0,29
 1801dbc:	7c 09 02 14 	add     r0,r9,r0
 1801dc0:	7c 09 03 78 	mr      r9,r0
 1801dc4:	80 09 00 00 	lwz     r0,0(r9)
 1801dc8:	90 1f 00 14 	stw     r0,20(r31)
 1801dcc:	48 00 00 24 	b       1801df0 <quantl+0xe4>
 1801dd0:	80 1f 00 10 	lwz     r0,16(r31)
 1801dd4:	3d 20 01 82 	lis     r9,386
 1801dd8:	39 29 11 cc 	addi    r9,r9,4556
 1801ddc:	54 00 10 3a 	rlwinm  r0,r0,2,0,29
 1801de0:	7c 09 02 14 	add     r0,r9,r0
 1801de4:	7c 0b 03 78 	mr      r11,r0
 1801de8:	80 0b 00 00 	lwz     r0,0(r11)
 1801dec:	90 1f 00 14 	stw     r0,20(r31)
 1801df0:	80 1f 00 14 	lwz     r0,20(r31)
 1801df4:	7c 03 03 78 	mr      r3,r0
 1801df8:	39 7f 00 28 	addi    r11,r31,40
 1801dfc:	80 0b 00 04 	lwz     r0,4(r11)
 1801e00:	7c 08 03 a6 	mtlr    r0
 1801e04:	83 eb ff fc 	lwz     r31,-4(r11)
 1801e08:	7d 61 5b 78 	mr      r1,r11
 1801e0c:	4e 80 00 20 	blr

01801e10 <logscl>:
 1801e10:	94 21 ff d8 	stwu    r1,-40(r1)
 1801e14:	93 e1 00 24 	stw     r31,36(r1)
 1801e18:	7c 3f 0b 78 	mr      r31,r1
 1801e1c:	90 7f 00 18 	stw     r3,24(r31)
 1801e20:	90 9f 00 1c 	stw     r4,28(r31)
 1801e24:	80 1f 00 1c 	lwz     r0,28(r31)
 1801e28:	1c 00 00 7f 	mulli   r0,r0,127
 1801e2c:	7c 00 3e 70 	srawi   r0,r0,7
 1801e30:	90 1f 00 08 	stw     r0,8(r31)
 1801e34:	80 1f 00 18 	lwz     r0,24(r31)
 1801e38:	7c 00 16 70 	srawi   r0,r0,2
 1801e3c:	3d 20 01 82 	lis     r9,386
 1801e40:	39 29 0f f8 	addi    r9,r9,4088
 1801e44:	54 00 10 3a 	rlwinm  r0,r0,2,0,29
 1801e48:	7c 09 02 14 	add     r0,r9,r0
 1801e4c:	7c 0b 03 78 	mr      r11,r0
 1801e50:	81 2b 00 00 	lwz     r9,0(r11)
 1801e54:	80 1f 00 08 	lwz     r0,8(r31)
 1801e58:	7c 09 02 14 	add     r0,r9,r0
 1801e5c:	90 1f 00 1c 	stw     r0,28(r31)
 1801e60:	80 1f 00 1c 	lwz     r0,28(r31)
 1801e64:	2f 80 00 00 	cmpwi   cr7,r0,0
 1801e68:	40 9c 00 0c 	bge-    cr7,1801e74 <logscl+0x64>
 1801e6c:	38 00 00 00 	li      r0,0
 1801e70:	90 1f 00 1c 	stw     r0,28(r31)
 1801e74:	80 1f 00 1c 	lwz     r0,28(r31)
 1801e78:	2f 80 48 00 	cmpwi   cr7,r0,18432
 1801e7c:	40 9d 00 0c 	ble-    cr7,1801e88 <logscl+0x78>
 1801e80:	38 00 48 00 	li      r0,18432
 1801e84:	90 1f 00 1c 	stw     r0,28(r31)
 1801e88:	80 1f 00 1c 	lwz     r0,28(r31)
 1801e8c:	7c 03 03 78 	mr      r3,r0
 1801e90:	39 7f 00 28 	addi    r11,r31,40
 1801e94:	83 eb ff fc 	lwz     r31,-4(r11)
 1801e98:	7d 61 5b 78 	mr      r1,r11
 1801e9c:	4e 80 00 20 	blr

01801ea0 <scalel>:
 1801ea0:	94 21 ff d8 	stwu    r1,-40(r1)
 1801ea4:	93 e1 00 24 	stw     r31,36(r1)
 1801ea8:	7c 3f 0b 78 	mr      r31,r1
 1801eac:	90 7f 00 18 	stw     r3,24(r31)
 1801eb0:	90 9f 00 1c 	stw     r4,28(r31)
 1801eb4:	80 1f 00 18 	lwz     r0,24(r31)
 1801eb8:	7c 00 36 70 	srawi   r0,r0,6
 1801ebc:	54 00 06 fe 	clrlwi  r0,r0,27
 1801ec0:	90 1f 00 10 	stw     r0,16(r31)
 1801ec4:	80 1f 00 18 	lwz     r0,24(r31)
 1801ec8:	7c 00 5e 70 	srawi   r0,r0,11
 1801ecc:	90 1f 00 0c 	stw     r0,12(r31)
 1801ed0:	80 1f 00 10 	lwz     r0,16(r31)
 1801ed4:	3d 20 01 82 	lis     r9,386
 1801ed8:	39 29 10 58 	addi    r9,r9,4184
 1801edc:	54 00 10 3a 	rlwinm  r0,r0,2,0,29
 1801ee0:	7c 09 02 14 	add     r0,r9,r0
 1801ee4:	7c 0b 03 78 	mr      r11,r0
 1801ee8:	81 2b 00 00 	lwz     r9,0(r11)
 1801eec:	80 1f 00 1c 	lwz     r0,28(r31)
 1801ef0:	31 60 00 01 	addic   r11,r0,1
 1801ef4:	80 1f 00 0c 	lwz     r0,12(r31)
 1801ef8:	7c 00 58 50 	subf    r0,r0,r11
 1801efc:	7d 20 06 30 	sraw    r0,r9,r0
 1801f00:	90 1f 00 08 	stw     r0,8(r31)
 1801f04:	80 1f 00 08 	lwz     r0,8(r31)
 1801f08:	54 00 18 38 	rlwinm  r0,r0,3,0,28
 1801f0c:	7c 03 03 78 	mr      r3,r0
 1801f10:	39 7f 00 28 	addi    r11,r31,40
 1801f14:	83 eb ff fc 	lwz     r31,-4(r11)
 1801f18:	7d 61 5b 78 	mr      r1,r11
 1801f1c:	4e 80 00 20 	blr

01801f20 <upzero>:
 1801f20:	94 21 ff d0 	stwu    r1,-48(r1)
 1801f24:	93 e1 00 2c 	stw     r31,44(r1)
 1801f28:	7c 3f 0b 78 	mr      r31,r1
 1801f2c:	90 7f 00 18 	stw     r3,24(r31)
 1801f30:	90 9f 00 1c 	stw     r4,28(r31)
 1801f34:	90 bf 00 20 	stw     r5,32(r31)
 1801f38:	80 1f 00 18 	lwz     r0,24(r31)
 1801f3c:	2f 80 00 00 	cmpwi   cr7,r0,0
 1801f40:	40 9e 00 60 	bne-    cr7,1801fa0 <upzero+0x80>
 1801f44:	38 00 00 00 	li      r0,0
 1801f48:	90 1f 00 10 	stw     r0,16(r31)
 1801f4c:	48 00 00 44 	b       1801f90 <upzero+0x70>
 1801f50:	80 1f 00 10 	lwz     r0,16(r31)
 1801f54:	54 00 10 3a 	rlwinm  r0,r0,2,0,29
 1801f58:	81 3f 00 20 	lwz     r9,32(r31)
 1801f5c:	7c 09 02 14 	add     r0,r9,r0
 1801f60:	81 3f 00 10 	lwz     r9,16(r31)
 1801f64:	55 29 10 3a 	rlwinm  r9,r9,2,0,29
 1801f68:	81 7f 00 20 	lwz     r11,32(r31)
 1801f6c:	7d 2b 4a 14 	add     r9,r11,r9
 1801f70:	81 29 00 00 	lwz     r9,0(r9)
 1801f74:	1d 29 00 ff 	mulli   r9,r9,255
 1801f78:	7d 29 46 70 	srawi   r9,r9,8
 1801f7c:	7c 0b 03 78 	mr      r11,r0
 1801f80:	91 2b 00 00 	stw     r9,0(r11)
 1801f84:	80 1f 00 10 	lwz     r0,16(r31)
 1801f88:	30 00 00 01 	addic   r0,r0,1
 1801f8c:	90 1f 00 10 	stw     r0,16(r31)
 1801f90:	80 1f 00 10 	lwz     r0,16(r31)
 1801f94:	2f 80 00 05 	cmpwi   cr7,r0,5
 1801f98:	40 9d ff b8 	ble+    cr7,1801f50 <upzero+0x30>
 1801f9c:	48 00 00 ac 	b       1802048 <upzero+0x128>
 1801fa0:	38 00 00 00 	li      r0,0
 1801fa4:	90 1f 00 10 	stw     r0,16(r31)
 1801fa8:	48 00 00 94 	b       180203c <upzero+0x11c>
 1801fac:	80 1f 00 10 	lwz     r0,16(r31)
 1801fb0:	54 00 10 3a 	rlwinm  r0,r0,2,0,29
 1801fb4:	81 3f 00 1c 	lwz     r9,28(r31)
 1801fb8:	7c 09 02 14 	add     r0,r9,r0
 1801fbc:	7c 0b 03 78 	mr      r11,r0
 1801fc0:	81 2b 00 00 	lwz     r9,0(r11)
 1801fc4:	80 1f 00 18 	lwz     r0,24(r31)
 1801fc8:	7c 09 01 d6 	mullw   r0,r9,r0
 1801fcc:	2f 80 00 00 	cmpwi   cr7,r0,0
 1801fd0:	41 9c 00 10 	blt-    cr7,1801fe0 <upzero+0xc0>
 1801fd4:	38 00 00 80 	li      r0,128
 1801fd8:	90 1f 00 0c 	stw     r0,12(r31)
 1801fdc:	48 00 00 0c 	b       1801fe8 <upzero+0xc8>
 1801fe0:	38 00 ff 80 	li      r0,-128
 1801fe4:	90 1f 00 0c 	stw     r0,12(r31)
 1801fe8:	80 1f 00 10 	lwz     r0,16(r31)
 1801fec:	54 00 10 3a 	rlwinm  r0,r0,2,0,29
 1801ff0:	81 3f 00 20 	lwz     r9,32(r31)
 1801ff4:	7c 09 02 14 	add     r0,r9,r0
 1801ff8:	7c 09 03 78 	mr      r9,r0
 1801ffc:	80 09 00 00 	lwz     r0,0(r9)
 1802000:	1c 00 00 ff 	mulli   r0,r0,255
 1802004:	7c 00 46 70 	srawi   r0,r0,8
 1802008:	90 1f 00 08 	stw     r0,8(r31)
 180200c:	80 1f 00 10 	lwz     r0,16(r31)
 1802010:	54 00 10 3a 	rlwinm  r0,r0,2,0,29
 1802014:	81 3f 00 20 	lwz     r9,32(r31)
 1802018:	7c 09 02 14 	add     r0,r9,r0
 180201c:	81 7f 00 0c 	lwz     r11,12(r31)
 1802020:	81 3f 00 08 	lwz     r9,8(r31)
 1802024:	7d 2b 4a 14 	add     r9,r11,r9
 1802028:	7c 0b 03 78 	mr      r11,r0
 180202c:	91 2b 00 00 	stw     r9,0(r11)
 1802030:	80 1f 00 10 	lwz     r0,16(r31)
 1802034:	30 00 00 01 	addic   r0,r0,1
 1802038:	90 1f 00 10 	stw     r0,16(r31)
 180203c:	80 1f 00 10 	lwz     r0,16(r31)
 1802040:	2f 80 00 05 	cmpwi   cr7,r0,5
 1802044:	40 9d ff 68 	ble+    cr7,1801fac <upzero+0x8c>
 1802048:	80 1f 00 1c 	lwz     r0,28(r31)
 180204c:	30 00 00 14 	addic   r0,r0,20
 1802050:	81 3f 00 1c 	lwz     r9,28(r31)
 1802054:	39 29 00 10 	addi    r9,r9,16
 1802058:	81 29 00 00 	lwz     r9,0(r9)
 180205c:	7c 0b 03 78 	mr      r11,r0
 1802060:	91 2b 00 00 	stw     r9,0(r11)
 1802064:	80 1f 00 1c 	lwz     r0,28(r31)
 1802068:	30 00 00 10 	addic   r0,r0,16
 180206c:	81 3f 00 1c 	lwz     r9,28(r31)
 1802070:	39 29 00 0c 	addi    r9,r9,12
 1802074:	81 29 00 00 	lwz     r9,0(r9)
 1802078:	7c 0b 03 78 	mr      r11,r0
 180207c:	91 2b 00 00 	stw     r9,0(r11)
 1802080:	80 1f 00 1c 	lwz     r0,28(r31)
 1802084:	30 00 00 0c 	addic   r0,r0,12
 1802088:	81 3f 00 1c 	lwz     r9,28(r31)
 180208c:	39 29 00 08 	addi    r9,r9,8
 1802090:	81 29 00 00 	lwz     r9,0(r9)
 1802094:	7c 0b 03 78 	mr      r11,r0
 1802098:	91 2b 00 00 	stw     r9,0(r11)
 180209c:	80 1f 00 1c 	lwz     r0,28(r31)
 18020a0:	30 00 00 04 	addic   r0,r0,4
 18020a4:	81 3f 00 1c 	lwz     r9,28(r31)
 18020a8:	81 29 00 00 	lwz     r9,0(r9)
 18020ac:	7c 0b 03 78 	mr      r11,r0
 18020b0:	91 2b 00 00 	stw     r9,0(r11)
 18020b4:	80 1f 00 1c 	lwz     r0,28(r31)
 18020b8:	81 3f 00 18 	lwz     r9,24(r31)
 18020bc:	7c 0b 03 78 	mr      r11,r0
 18020c0:	91 2b 00 00 	stw     r9,0(r11)
 18020c4:	39 7f 00 30 	addi    r11,r31,48
 18020c8:	83 eb ff fc 	lwz     r31,-4(r11)
 18020cc:	7d 61 5b 78 	mr      r1,r11
 18020d0:	4e 80 00 20 	blr

018020d4 <uppol2>:
 18020d4:	94 21 ff c8 	stwu    r1,-56(r1)
 18020d8:	93 e1 00 34 	stw     r31,52(r1)
 18020dc:	7c 3f 0b 78 	mr      r31,r1
 18020e0:	90 7f 00 18 	stw     r3,24(r31)
 18020e4:	90 9f 00 1c 	stw     r4,28(r31)
 18020e8:	90 bf 00 20 	stw     r5,32(r31)
 18020ec:	90 df 00 24 	stw     r6,36(r31)
 18020f0:	90 ff 00 28 	stw     r7,40(r31)
 18020f4:	80 1f 00 18 	lwz     r0,24(r31)
 18020f8:	54 00 10 3a 	rlwinm  r0,r0,2,0,29
 18020fc:	90 1f 00 10 	stw     r0,16(r31)
 1802100:	81 3f 00 20 	lwz     r9,32(r31)
 1802104:	80 1f 00 24 	lwz     r0,36(r31)
 1802108:	7c 09 01 d6 	mullw   r0,r9,r0
 180210c:	2f 80 00 00 	cmpwi   cr7,r0,0
 1802110:	41 9c 00 10 	blt-    cr7,1802120 <uppol2+0x4c>
 1802114:	80 1f 00 10 	lwz     r0,16(r31)
 1802118:	7c 00 00 d0 	neg     r0,r0
 180211c:	90 1f 00 10 	stw     r0,16(r31)
 1802120:	80 1f 00 10 	lwz     r0,16(r31)
 1802124:	7c 00 3e 70 	srawi   r0,r0,7
 1802128:	90 1f 00 10 	stw     r0,16(r31)
 180212c:	81 3f 00 20 	lwz     r9,32(r31)
 1802130:	80 1f 00 28 	lwz     r0,40(r31)
 1802134:	7c 09 01 d6 	mullw   r0,r9,r0
 1802138:	2f 80 00 00 	cmpwi   cr7,r0,0
 180213c:	41 9c 00 14 	blt-    cr7,1802150 <uppol2+0x7c>
 1802140:	80 1f 00 10 	lwz     r0,16(r31)
 1802144:	30 00 00 80 	addic   r0,r0,128
 1802148:	90 1f 00 0c 	stw     r0,12(r31)
 180214c:	48 00 00 10 	b       180215c <uppol2+0x88>
 1802150:	80 1f 00 10 	lwz     r0,16(r31)
 1802154:	30 00 ff 80 	addic   r0,r0,-128
 1802158:	90 1f 00 0c 	stw     r0,12(r31)
 180215c:	80 1f 00 1c 	lwz     r0,28(r31)
 1802160:	1c 00 00 7f 	mulli   r0,r0,127
 1802164:	7c 09 3e 70 	srawi   r9,r0,7
 1802168:	80 1f 00 0c 	lwz     r0,12(r31)
 180216c:	7c 09 02 14 	add     r0,r9,r0
 1802170:	90 1f 00 08 	stw     r0,8(r31)
 1802174:	80 1f 00 08 	lwz     r0,8(r31)
 1802178:	2f 80 30 00 	cmpwi   cr7,r0,12288
 180217c:	40 9d 00 0c 	ble-    cr7,1802188 <uppol2+0xb4>
 1802180:	38 00 30 00 	li      r0,12288
 1802184:	90 1f 00 08 	stw     r0,8(r31)
 1802188:	81 3f 00 08 	lwz     r9,8(r31)
 180218c:	38 00 d0 00 	li      r0,-12288
 1802190:	7f 89 00 00 	cmpw    cr7,r9,r0
 1802194:	40 9c 00 0c 	bge-    cr7,18021a0 <uppol2+0xcc>
 1802198:	38 00 d0 00 	li      r0,-12288
 180219c:	90 1f 00 08 	stw     r0,8(r31)
 18021a0:	80 1f 00 08 	lwz     r0,8(r31)
 18021a4:	7c 03 03 78 	mr      r3,r0
 18021a8:	39 7f 00 38 	addi    r11,r31,56
 18021ac:	83 eb ff fc 	lwz     r31,-4(r11)
 18021b0:	7d 61 5b 78 	mr      r1,r11
 18021b4:	4e 80 00 20 	blr

018021b8 <uppol1>:
 18021b8:	94 21 ff d0 	stwu    r1,-48(r1)
 18021bc:	93 e1 00 2c 	stw     r31,44(r1)
 18021c0:	7c 3f 0b 78 	mr      r31,r1
 18021c4:	90 7f 00 18 	stw     r3,24(r31)
 18021c8:	90 9f 00 1c 	stw     r4,28(r31)
 18021cc:	90 bf 00 20 	stw     r5,32(r31)
 18021d0:	90 df 00 24 	stw     r6,36(r31)
 18021d4:	80 1f 00 18 	lwz     r0,24(r31)
 18021d8:	1c 00 00 ff 	mulli   r0,r0,255
 18021dc:	7c 00 46 70 	srawi   r0,r0,8
 18021e0:	90 1f 00 10 	stw     r0,16(r31)
 18021e4:	81 3f 00 20 	lwz     r9,32(r31)
 18021e8:	80 1f 00 24 	lwz     r0,36(r31)
 18021ec:	7c 09 01 d6 	mullw   r0,r9,r0
 18021f0:	2f 80 00 00 	cmpwi   cr7,r0,0
 18021f4:	41 9c 00 14 	blt-    cr7,1802208 <uppol1+0x50>
 18021f8:	80 1f 00 10 	lwz     r0,16(r31)
 18021fc:	30 00 00 c0 	addic   r0,r0,192
 1802200:	90 1f 00 08 	stw     r0,8(r31)
 1802204:	48 00 00 10 	b       1802214 <uppol1+0x5c>
 1802208:	80 1f 00 10 	lwz     r0,16(r31)
 180220c:	30 00 ff 40 	addic   r0,r0,-192
 1802210:	90 1f 00 08 	stw     r0,8(r31)
 1802214:	80 1f 00 1c 	lwz     r0,28(r31)
 1802218:	20 00 3c 00 	subfic  r0,r0,15360
 180221c:	90 1f 00 0c 	stw     r0,12(r31)
 1802220:	81 3f 00 08 	lwz     r9,8(r31)
 1802224:	80 1f 00 0c 	lwz     r0,12(r31)
 1802228:	7f 89 00 00 	cmpw    cr7,r9,r0
 180222c:	40 9d 00 0c 	ble-    cr7,1802238 <uppol1+0x80>
 1802230:	80 1f 00 0c 	lwz     r0,12(r31)
 1802234:	90 1f 00 08 	stw     r0,8(r31)
 1802238:	80 1f 00 0c 	lwz     r0,12(r31)
 180223c:	7d 20 00 d0 	neg     r9,r0
 1802240:	80 1f 00 08 	lwz     r0,8(r31)
 1802244:	7f 89 00 00 	cmpw    cr7,r9,r0
 1802248:	40 9d 00 10 	ble-    cr7,1802258 <uppol1+0xa0>
 180224c:	80 1f 00 0c 	lwz     r0,12(r31)
 1802250:	7c 00 00 d0 	neg     r0,r0
 1802254:	90 1f 00 08 	stw     r0,8(r31)
 1802258:	80 1f 00 08 	lwz     r0,8(r31)
 180225c:	7c 03 03 78 	mr      r3,r0
 1802260:	39 7f 00 30 	addi    r11,r31,48
 1802264:	83 eb ff fc 	lwz     r31,-4(r11)
 1802268:	7d 61 5b 78 	mr      r1,r11
 180226c:	4e 80 00 20 	blr

01802270 <logsch>:
 1802270:	94 21 ff d8 	stwu    r1,-40(r1)
 1802274:	93 e1 00 24 	stw     r31,36(r1)
 1802278:	7c 3f 0b 78 	mr      r31,r1
 180227c:	90 7f 00 18 	stw     r3,24(r31)
 1802280:	90 9f 00 1c 	stw     r4,28(r31)
 1802284:	80 1f 00 1c 	lwz     r0,28(r31)
 1802288:	1c 00 00 7f 	mulli   r0,r0,127
 180228c:	7c 00 3e 70 	srawi   r0,r0,7
 1802290:	90 1f 00 08 	stw     r0,8(r31)
 1802294:	80 1f 00 18 	lwz     r0,24(r31)
 1802298:	3d 20 01 82 	lis     r9,386
 180229c:	39 29 12 58 	addi    r9,r9,4696
 18022a0:	54 00 10 3a 	rlwinm  r0,r0,2,0,29
 18022a4:	7c 09 02 14 	add     r0,r9,r0
 18022a8:	7c 0b 03 78 	mr      r11,r0
 18022ac:	81 2b 00 00 	lwz     r9,0(r11)
 18022b0:	80 1f 00 08 	lwz     r0,8(r31)
 18022b4:	7c 09 02 14 	add     r0,r9,r0
 18022b8:	90 1f 00 1c 	stw     r0,28(r31)
 18022bc:	80 1f 00 1c 	lwz     r0,28(r31)
 18022c0:	2f 80 00 00 	cmpwi   cr7,r0,0
 18022c4:	40 9c 00 0c 	bge-    cr7,18022d0 <logsch+0x60>
 18022c8:	38 00 00 00 	li      r0,0
 18022cc:	90 1f 00 1c 	stw     r0,28(r31)
 18022d0:	80 1f 00 1c 	lwz     r0,28(r31)
 18022d4:	2f 80 58 00 	cmpwi   cr7,r0,22528
 18022d8:	40 9d 00 0c 	ble-    cr7,18022e4 <logsch+0x74>
 18022dc:	38 00 58 00 	li      r0,22528
 18022e0:	90 1f 00 1c 	stw     r0,28(r31)
 18022e4:	80 1f 00 1c 	lwz     r0,28(r31)
 18022e8:	7c 03 03 78 	mr      r3,r0
 18022ec:	39 7f 00 28 	addi    r11,r31,40
 18022f0:	83 eb ff fc 	lwz     r31,-4(r11)
 18022f4:	7d 61 5b 78 	mr      r1,r11
 18022f8:	4e 80 00 20 	blr

018022fc <binary_search>:
 18022fc:	94 21 ff d8 	stwu    r1,-40(r1)
 1802300:	93 e1 00 24 	stw     r31,36(r1)
 1802304:	7c 3f 0b 78 	mr      r31,r1
 1802308:	90 7f 00 18 	stw     r3,24(r31)
 180230c:	38 00 00 00 	li      r0,0
 1802310:	90 1f 00 08 	stw     r0,8(r31)
 1802314:	38 00 00 0e 	li      r0,14
 1802318:	90 1f 00 0c 	stw     r0,12(r31)
 180231c:	38 00 ff ff 	li      r0,-1
 1802320:	90 1f 00 14 	stw     r0,20(r31)
 1802324:	48 00 00 b8 	b       18023dc <binary_search+0xe0>
 1802328:	81 3f 00 08 	lwz     r9,8(r31)
 180232c:	80 1f 00 0c 	lwz     r0,12(r31)
 1802330:	7c 09 02 14 	add     r0,r9,r0
 1802334:	7c 00 0e 70 	srawi   r0,r0,1
 1802338:	90 1f 00 10 	stw     r0,16(r31)
 180233c:	80 1f 00 10 	lwz     r0,16(r31)
 1802340:	3d 20 01 82 	lis     r9,386
 1802344:	39 29 12 68 	addi    r9,r9,4712
 1802348:	54 00 18 38 	rlwinm  r0,r0,3,0,28
 180234c:	7c 09 02 14 	add     r0,r9,r0
 1802350:	7c 0b 03 78 	mr      r11,r0
 1802354:	81 2b 00 00 	lwz     r9,0(r11)
 1802358:	80 1f 00 18 	lwz     r0,24(r31)
 180235c:	7f 89 00 00 	cmpw    cr7,r9,r0
 1802360:	40 9e 00 38 	bne-    cr7,1802398 <binary_search+0x9c>
 1802364:	80 1f 00 08 	lwz     r0,8(r31)
 1802368:	30 00 ff ff 	addic   r0,r0,-1
 180236c:	90 1f 00 0c 	stw     r0,12(r31)
 1802370:	80 1f 00 10 	lwz     r0,16(r31)
 1802374:	3d 20 01 82 	lis     r9,386
 1802378:	39 29 12 68 	addi    r9,r9,4712
 180237c:	54 00 18 38 	rlwinm  r0,r0,3,0,28
 1802380:	7c 09 02 14 	add     r0,r9,r0
 1802384:	30 00 00 04 	addic   r0,r0,4
 1802388:	7c 09 03 78 	mr      r9,r0
 180238c:	80 09 00 00 	lwz     r0,0(r9)
 1802390:	90 1f 00 14 	stw     r0,20(r31)
 1802394:	48 00 00 48 	b       18023dc <binary_search+0xe0>
 1802398:	80 1f 00 10 	lwz     r0,16(r31)
 180239c:	3d 20 01 82 	lis     r9,386
 18023a0:	39 29 12 68 	addi    r9,r9,4712
 18023a4:	54 00 18 38 	rlwinm  r0,r0,3,0,28
 18023a8:	7c 09 02 14 	add     r0,r9,r0
 18023ac:	7c 0b 03 78 	mr      r11,r0
 18023b0:	81 2b 00 00 	lwz     r9,0(r11)
 18023b4:	80 1f 00 18 	lwz     r0,24(r31)
 18023b8:	7f 89 00 00 	cmpw    cr7,r9,r0
 18023bc:	40 9d 00 14 	ble-    cr7,18023d0 <binary_search+0xd4>
 18023c0:	80 1f 00 10 	lwz     r0,16(r31)
 18023c4:	30 00 ff ff 	addic   r0,r0,-1
 18023c8:	90 1f 00 0c 	stw     r0,12(r31)
 18023cc:	48 00 00 10 	b       18023dc <binary_search+0xe0>
 18023d0:	80 1f 00 10 	lwz     r0,16(r31)
 18023d4:	30 00 00 01 	addic   r0,r0,1
 18023d8:	90 1f 00 08 	stw     r0,8(r31)
 18023dc:	81 3f 00 08 	lwz     r9,8(r31)
 18023e0:	80 1f 00 0c 	lwz     r0,12(r31)
 18023e4:	7f 89 00 00 	cmpw    cr7,r9,r0
 18023e8:	40 9d ff 40 	ble+    cr7,1802328 <binary_search+0x2c>
 18023ec:	80 1f 00 14 	lwz     r0,20(r31)
 18023f0:	7c 03 03 78 	mr      r3,r0
 18023f4:	39 7f 00 28 	addi    r11,r31,40
 18023f8:	83 eb ff fc 	lwz     r31,-4(r11)
 18023fc:	7d 61 5b 78 	mr      r1,r11
 1802400:	4e 80 00 20 	blr

01802404 <ttime>:
 1802404:	94 21 ff c0 	stwu    r1,-64(r1)
 1802408:	93 e1 00 3c 	stw     r31,60(r1)
 180240c:	7c 3f 0b 78 	mr      r31,r1
 1802410:	81 3f 00 0c 	lwz     r9,12(r31)
 1802414:	3c 00 43 30 	lis     r0,17200
 1802418:	3d 60 01 82 	lis     r11,386
 180241c:	c8 0b f9 f0 	lfd     f0,-1552(r11)
 1802420:	91 3f 00 2c 	stw     r9,44(r31)
 1802424:	90 1f 00 28 	stw     r0,40(r31)
 1802428:	c9 bf 00 28 	lfd     f13,40(r31)
 180242c:	fd ad 00 28 	fsub    f13,f13,f0
 1802430:	3c 00 01 82 	lis     r0,386
 1802434:	7c 09 03 78 	mr      r9,r0
 1802438:	c8 09 f9 f8 	lfd     f0,-1544(r9)
 180243c:	fd ad 00 24 	fdiv    f13,f13,f0
 1802440:	3c 00 01 82 	lis     r0,386
 1802444:	7c 09 03 78 	mr      r9,r0
 1802448:	c8 09 fa 00 	lfd     f0,-1536(r9)
 180244c:	fc 0d 00 32 	fmul    f0,f13,f0
 1802450:	fc 00 00 1e 	fctiwz  f0,f0
 1802454:	d8 1f 00 30 	stfd    f0,48(r31)
 1802458:	80 1f 00 34 	lwz     r0,52(r31)
 180245c:	90 1f 00 08 	stw     r0,8(r31)
 1802460:	80 1f 00 08 	lwz     r0,8(r31)
 1802464:	7c 03 03 78 	mr      r3,r0
 1802468:	39 7f 00 40 	addi    r11,r31,64
 180246c:	83 eb ff fc 	lwz     r31,-4(r11)
 1802470:	7d 61 5b 78 	mr      r1,r11
 1802474:	4e 80 00 20 	blr

01802478 <Initialize2>:
 1802478:	94 21 ff d8 	stwu    r1,-40(r1)
 180247c:	93 e1 00 24 	stw     r31,36(r1)
 1802480:	7c 3f 0b 78 	mr      r31,r1
 1802484:	90 7f 00 18 	stw     r3,24(r31)
 1802488:	3c 00 01 82 	lis     r0,386
 180248c:	39 20 ff ff 	li      r9,-1
 1802490:	7c 0b 03 78 	mr      r11,r0
 1802494:	91 2b 46 f8 	stw     r9,18168(r11)
 1802498:	3c 00 01 82 	lis     r0,386
 180249c:	7c 09 03 78 	mr      r9,r0
 18024a0:	80 09 46 f8 	lwz     r0,18168(r9)
 18024a4:	90 1f 00 08 	stw     r0,8(r31)
 18024a8:	38 00 00 01 	li      r0,1
 18024ac:	90 1f 00 0c 	stw     r0,12(r31)
 18024b0:	48 00 00 30 	b       18024e0 <Initialize2+0x68>
 18024b4:	80 1f 00 0c 	lwz     r0,12(r31)
 18024b8:	54 00 10 3a 	rlwinm  r0,r0,2,0,29
 18024bc:	81 3f 00 18 	lwz     r9,24(r31)
 18024c0:	7c 09 02 14 	add     r0,r9,r0
 18024c4:	81 3f 00 0c 	lwz     r9,12(r31)
 18024c8:	21 29 00 65 	subfic  r9,r9,101
 18024cc:	7c 0b 03 78 	mr      r11,r0
 18024d0:	91 2b 00 00 	stw     r9,0(r11)
 18024d4:	80 1f 00 0c 	lwz     r0,12(r31)
 18024d8:	30 00 00 01 	addic   r0,r0,1
 18024dc:	90 1f 00 0c 	stw     r0,12(r31)
 18024e0:	80 1f 00 0c 	lwz     r0,12(r31)
 18024e4:	2f 80 00 64 	cmpwi   cr7,r0,100
 18024e8:	40 9d ff cc 	ble+    cr7,18024b4 <Initialize2+0x3c>
 18024ec:	39 7f 00 28 	addi    r11,r31,40
 18024f0:	83 eb ff fc 	lwz     r31,-4(r11)
 18024f4:	7d 61 5b 78 	mr      r1,r11
 18024f8:	4e 80 00 20 	blr

018024fc <BubbleSort>:
 18024fc:	94 21 ff c8 	stwu    r1,-56(r1)
 1802500:	93 e1 00 34 	stw     r31,52(r1)
 1802504:	7c 3f 0b 78 	mr      r31,r1
 1802508:	90 7f 00 28 	stw     r3,40(r31)
 180250c:	38 00 00 00 	li      r0,0
 1802510:	90 1f 00 18 	stw     r0,24(r31)
 1802514:	38 00 00 01 	li      r0,1
 1802518:	90 1f 00 08 	stw     r0,8(r31)
 180251c:	48 00 01 14 	b       1802630 <BubbleSort+0x134>
 1802520:	38 00 00 01 	li      r0,1
 1802524:	90 1f 00 18 	stw     r0,24(r31)
 1802528:	38 00 00 01 	li      r0,1
 180252c:	90 1f 00 0c 	stw     r0,12(r31)
 1802530:	48 00 00 d4 	b       1802604 <BubbleSort+0x108>
 1802534:	80 1f 00 08 	lwz     r0,8(r31)
 1802538:	21 20 00 64 	subfic  r9,r0,100
 180253c:	80 1f 00 0c 	lwz     r0,12(r31)
 1802540:	7f 89 00 00 	cmpw    cr7,r9,r0
 1802544:	41 9c 00 d0 	blt-    cr7,1802614 <BubbleSort+0x118>
 1802548:	80 1f 00 0c 	lwz     r0,12(r31)
 180254c:	54 00 10 3a 	rlwinm  r0,r0,2,0,29
 1802550:	81 3f 00 28 	lwz     r9,40(r31)
 1802554:	7c 09 02 14 	add     r0,r9,r0
 1802558:	7c 0b 03 78 	mr      r11,r0
 180255c:	81 2b 00 00 	lwz     r9,0(r11)
 1802560:	80 1f 00 0c 	lwz     r0,12(r31)
 1802564:	30 00 00 01 	addic   r0,r0,1
 1802568:	54 00 10 3a 	rlwinm  r0,r0,2,0,29
 180256c:	81 7f 00 28 	lwz     r11,40(r31)
 1802570:	7c 0b 02 14 	add     r0,r11,r0
 1802574:	7c 0b 03 78 	mr      r11,r0
 1802578:	80 0b 00 00 	lwz     r0,0(r11)
 180257c:	7f 89 00 00 	cmpw    cr7,r9,r0
 1802580:	40 9d 00 78 	ble-    cr7,18025f8 <BubbleSort+0xfc>
 1802584:	80 1f 00 0c 	lwz     r0,12(r31)
 1802588:	54 00 10 3a 	rlwinm  r0,r0,2,0,29
 180258c:	81 3f 00 28 	lwz     r9,40(r31)
 1802590:	7c 09 02 14 	add     r0,r9,r0
 1802594:	7c 09 03 78 	mr      r9,r0
 1802598:	80 09 00 00 	lwz     r0,0(r9)
 180259c:	90 1f 00 14 	stw     r0,20(r31)
 18025a0:	80 1f 00 0c 	lwz     r0,12(r31)
 18025a4:	54 00 10 3a 	rlwinm  r0,r0,2,0,29
 18025a8:	81 3f 00 28 	lwz     r9,40(r31)
 18025ac:	7c 09 02 14 	add     r0,r9,r0
 18025b0:	81 3f 00 0c 	lwz     r9,12(r31)
 18025b4:	39 29 00 01 	addi    r9,r9,1
 18025b8:	55 29 10 3a 	rlwinm  r9,r9,2,0,29
 18025bc:	81 7f 00 28 	lwz     r11,40(r31)
 18025c0:	7d 2b 4a 14 	add     r9,r11,r9
 18025c4:	81 29 00 00 	lwz     r9,0(r9)
 18025c8:	7c 0b 03 78 	mr      r11,r0
 18025cc:	91 2b 00 00 	stw     r9,0(r11)
 18025d0:	80 1f 00 0c 	lwz     r0,12(r31)
 18025d4:	30 00 00 01 	addic   r0,r0,1
 18025d8:	54 00 10 3a 	rlwinm  r0,r0,2,0,29
 18025dc:	81 3f 00 28 	lwz     r9,40(r31)
 18025e0:	7c 09 02 14 	add     r0,r9,r0
 18025e4:	81 3f 00 14 	lwz     r9,20(r31)
 18025e8:	7c 0b 03 78 	mr      r11,r0
 18025ec:	91 2b 00 00 	stw     r9,0(r11)
 18025f0:	38 00 00 00 	li      r0,0
 18025f4:	90 1f 00 18 	stw     r0,24(r31)
 18025f8:	80 1f 00 0c 	lwz     r0,12(r31)
 18025fc:	30 00 00 01 	addic   r0,r0,1
 1802600:	90 1f 00 0c 	stw     r0,12(r31)
 1802604:	80 1f 00 0c 	lwz     r0,12(r31)
 1802608:	2f 80 00 63 	cmpwi   cr7,r0,99
 180260c:	40 9d ff 28 	ble+    cr7,1802534 <BubbleSort+0x38>
 1802610:	48 00 00 08 	b       1802618 <BubbleSort+0x11c>
 1802614:	60 00 00 00 	nop
 1802618:	80 1f 00 18 	lwz     r0,24(r31)
 180261c:	2f 80 00 00 	cmpwi   cr7,r0,0
 1802620:	40 9e 00 20 	bne-    cr7,1802640 <BubbleSort+0x144>
 1802624:	80 1f 00 08 	lwz     r0,8(r31)
 1802628:	30 00 00 01 	addic   r0,r0,1
 180262c:	90 1f 00 08 	stw     r0,8(r31)
 1802630:	80 1f 00 08 	lwz     r0,8(r31)
 1802634:	2f 80 00 63 	cmpwi   cr7,r0,99
 1802638:	40 9d fe e8 	ble+    cr7,1802520 <BubbleSort+0x24>
 180263c:	48 00 00 08 	b       1802644 <BubbleSort+0x148>
 1802640:	60 00 00 00 	nop
 1802644:	39 7f 00 38 	addi    r11,r31,56
 1802648:	83 eb ff fc 	lwz     r31,-4(r11)
 180264c:	7d 61 5b 78 	mr      r1,r11
 1802650:	4e 80 00 20 	blr

01802654 <Initialize>:
 1802654:	94 21 ff d8 	stwu    r1,-40(r1)
 1802658:	7c 08 02 a6 	mflr    r0
 180265c:	90 01 00 2c 	stw     r0,44(r1)
 1802660:	93 61 00 14 	stw     r27,20(r1)
 1802664:	93 81 00 18 	stw     r28,24(r1)
 1802668:	93 a1 00 1c 	stw     r29,28(r1)
 180266c:	93 c1 00 20 	stw     r30,32(r1)
 1802670:	93 e1 00 24 	stw     r31,36(r1)
 1802674:	7c 3f 0b 78 	mr      r31,r1
 1802678:	90 7f 00 08 	stw     r3,8(r31)
 180267c:	3b c0 00 00 	li      r30,0
 1802680:	48 00 00 48 	b       18026c8 <Initialize+0x74>
 1802684:	3b a0 00 00 	li      r29,0
 1802688:	48 00 00 34 	b       18026bc <Initialize+0x68>
 180268c:	7f c0 f3 78 	mr      r0,r30
 1802690:	1c 00 00 28 	mulli   r0,r0,40
 1802694:	81 3f 00 08 	lwz     r9,8(r31)
 1802698:	7f 89 02 14 	add     r28,r9,r0
 180269c:	7f bb eb 78 	mr      r27,r29
 18026a0:	48 00 02 91 	bl      1802930 <RandomInteger>
 18026a4:	7c 69 1b 78 	mr      r9,r3
 18026a8:	57 60 10 3a 	rlwinm  r0,r27,2,0,29
 18026ac:	7c 1c 02 14 	add     r0,r28,r0
 18026b0:	7c 0b 03 78 	mr      r11,r0
 18026b4:	91 2b 00 00 	stw     r9,0(r11)
 18026b8:	3b bd 00 01 	addi    r29,r29,1
 18026bc:	2f 9d 00 09 	cmpwi   cr7,r29,9
 18026c0:	40 9d ff cc 	ble+    cr7,180268c <Initialize+0x38>
 18026c4:	3b de 00 01 	addi    r30,r30,1
 18026c8:	2f 9e 00 09 	cmpwi   cr7,r30,9
 18026cc:	40 9d ff b8 	ble+    cr7,1802684 <Initialize+0x30>
 18026d0:	38 00 00 00 	li      r0,0
 18026d4:	7c 03 03 78 	mr      r3,r0
 18026d8:	39 7f 00 28 	addi    r11,r31,40
 18026dc:	80 0b 00 04 	lwz     r0,4(r11)
 18026e0:	7c 08 03 a6 	mtlr    r0
 18026e4:	83 6b ff ec 	lwz     r27,-20(r11)
 18026e8:	83 8b ff f0 	lwz     r28,-16(r11)
 18026ec:	83 ab ff f4 	lwz     r29,-12(r11)
 18026f0:	83 cb ff f8 	lwz     r30,-8(r11)
 18026f4:	83 eb ff fc 	lwz     r31,-4(r11)
 18026f8:	7d 61 5b 78 	mr      r1,r11
 18026fc:	4e 80 00 20 	blr

01802700 <Test>:
 1802700:	94 21 ff d0 	stwu    r1,-48(r1)
 1802704:	7c 08 02 a6 	mflr    r0
 1802708:	90 01 00 34 	stw     r0,52(r1)
 180270c:	93 e1 00 2c 	stw     r31,44(r1)
 1802710:	7c 3f 0b 78 	mr      r31,r1
 1802714:	90 7f 00 18 	stw     r3,24(r31)
 1802718:	80 7f 00 18 	lwz     r3,24(r31)
 180271c:	4b ff ff 39 	bl      1802654 <Initialize>
 1802720:	38 00 03 e8 	li      r0,1000
 1802724:	90 1f 00 10 	stw     r0,16(r31)
 1802728:	80 7f 00 18 	lwz     r3,24(r31)
 180272c:	48 00 00 a5 	bl      18027d0 <Sum>
 1802730:	38 00 05 dc 	li      r0,1500
 1802734:	90 1f 00 0c 	stw     r0,12(r31)
 1802738:	81 3f 00 0c 	lwz     r9,12(r31)
 180273c:	80 1f 00 10 	lwz     r0,16(r31)
 1802740:	7d 20 48 50 	subf    r9,r0,r9
 1802744:	3c 00 43 30 	lis     r0,17200
 1802748:	3d 60 01 82 	lis     r11,386
 180274c:	c8 0b fa 08 	lfd     f0,-1528(r11)
 1802750:	6d 29 80 00 	xoris   r9,r9,32768
 1802754:	91 3f 00 24 	stw     r9,36(r31)
 1802758:	90 1f 00 20 	stw     r0,32(r31)
 180275c:	c9 bf 00 20 	lfd     f13,32(r31)
 1802760:	fd ad 00 28 	fsub    f13,f13,f0
 1802764:	3c 00 01 82 	lis     r0,386
 1802768:	7c 09 03 78 	mr      r9,r0
 180276c:	c8 09 fa 00 	lfd     f0,-1536(r9)
 1802770:	fc 0d 00 24 	fdiv    f0,f13,f0
 1802774:	fc 00 00 18 	frsp    f0,f0
 1802778:	d0 1f 00 08 	stfs    f0,8(r31)
 180277c:	38 00 00 00 	li      r0,0
 1802780:	7c 03 03 78 	mr      r3,r0
 1802784:	39 7f 00 30 	addi    r11,r31,48
 1802788:	80 0b 00 04 	lwz     r0,4(r11)
 180278c:	7c 08 03 a6 	mtlr    r0
 1802790:	83 eb ff fc 	lwz     r31,-4(r11)
 1802794:	7d 61 5b 78 	mr      r1,r11
 1802798:	4e 80 00 20 	blr

0180279c <InitSeed>:
 180279c:	94 21 ff f0 	stwu    r1,-16(r1)
 18027a0:	93 e1 00 0c 	stw     r31,12(r1)
 18027a4:	7c 3f 0b 78 	mr      r31,r1
 18027a8:	3c 00 01 82 	lis     r0,386
 18027ac:	39 20 00 00 	li      r9,0
 18027b0:	7c 0b 03 78 	mr      r11,r0
 18027b4:	91 2b 44 e0 	stw     r9,17632(r11)
 18027b8:	38 00 00 00 	li      r0,0
 18027bc:	7c 03 03 78 	mr      r3,r0
 18027c0:	39 7f 00 10 	addi    r11,r31,16
 18027c4:	83 eb ff fc 	lwz     r31,-4(r11)
 18027c8:	7d 61 5b 78 	mr      r1,r11
 18027cc:	4e 80 00 20 	blr

018027d0 <Sum>:
 18027d0:	94 21 ff d0 	stwu    r1,-48(r1)
 18027d4:	93 a1 00 24 	stw     r29,36(r1)
 18027d8:	93 c1 00 28 	stw     r30,40(r1)
 18027dc:	93 e1 00 2c 	stw     r31,44(r1)
 18027e0:	7c 3f 0b 78 	mr      r31,r1
 18027e4:	90 7f 00 18 	stw     r3,24(r31)
 18027e8:	38 00 00 00 	li      r0,0
 18027ec:	90 1f 00 14 	stw     r0,20(r31)
 18027f0:	38 00 00 00 	li      r0,0
 18027f4:	90 1f 00 10 	stw     r0,16(r31)
 18027f8:	38 00 00 00 	li      r0,0
 18027fc:	90 1f 00 0c 	stw     r0,12(r31)
 1802800:	38 00 00 00 	li      r0,0
 1802804:	90 1f 00 08 	stw     r0,8(r31)
 1802808:	3b c0 00 00 	li      r30,0
 180280c:	48 00 00 c4 	b       18028d0 <Sum+0x100>
 1802810:	3b a0 00 00 	li      r29,0
 1802814:	48 00 00 b0 	b       18028c4 <Sum+0xf4>
 1802818:	7f c0 f3 78 	mr      r0,r30
 180281c:	1c 00 00 28 	mulli   r0,r0,40
 1802820:	81 3f 00 18 	lwz     r9,24(r31)
 1802824:	7d 29 02 14 	add     r9,r9,r0
 1802828:	7f a0 eb 78 	mr      r0,r29
 180282c:	54 00 10 3a 	rlwinm  r0,r0,2,0,29
 1802830:	7c 09 02 14 	add     r0,r9,r0
 1802834:	7c 09 03 78 	mr      r9,r0
 1802838:	80 09 00 00 	lwz     r0,0(r9)
 180283c:	2f 80 00 00 	cmpwi   cr7,r0,0
 1802840:	41 9c 00 44 	blt-    cr7,1802884 <Sum+0xb4>
 1802844:	7f c0 f3 78 	mr      r0,r30
 1802848:	1c 00 00 28 	mulli   r0,r0,40
 180284c:	81 3f 00 18 	lwz     r9,24(r31)
 1802850:	7d 29 02 14 	add     r9,r9,r0
 1802854:	7f a0 eb 78 	mr      r0,r29
 1802858:	54 00 10 3a 	rlwinm  r0,r0,2,0,29
 180285c:	7c 09 02 14 	add     r0,r9,r0
 1802860:	7c 0b 03 78 	mr      r11,r0
 1802864:	80 0b 00 00 	lwz     r0,0(r11)
 1802868:	81 3f 00 14 	lwz     r9,20(r31)
 180286c:	7c 09 02 14 	add     r0,r9,r0
 1802870:	90 1f 00 14 	stw     r0,20(r31)
 1802874:	80 1f 00 0c 	lwz     r0,12(r31)
 1802878:	30 00 00 01 	addic   r0,r0,1
 180287c:	90 1f 00 0c 	stw     r0,12(r31)
 1802880:	48 00 00 40 	b       18028c0 <Sum+0xf0>
 1802884:	7f c0 f3 78 	mr      r0,r30
 1802888:	1c 00 00 28 	mulli   r0,r0,40
 180288c:	81 3f 00 18 	lwz     r9,24(r31)
 1802890:	7d 29 02 14 	add     r9,r9,r0
 1802894:	7f a0 eb 78 	mr      r0,r29
 1802898:	54 00 10 3a 	rlwinm  r0,r0,2,0,29
 180289c:	7c 09 02 14 	add     r0,r9,r0
 18028a0:	7c 09 03 78 	mr      r9,r0
 18028a4:	80 09 00 00 	lwz     r0,0(r9)
 18028a8:	81 3f 00 10 	lwz     r9,16(r31)
 18028ac:	7c 09 02 14 	add     r0,r9,r0
 18028b0:	90 1f 00 10 	stw     r0,16(r31)
 18028b4:	80 1f 00 08 	lwz     r0,8(r31)
 18028b8:	30 00 00 01 	addic   r0,r0,1
 18028bc:	90 1f 00 08 	stw     r0,8(r31)
 18028c0:	3b bd 00 01 	addi    r29,r29,1
 18028c4:	2f 9d 00 09 	cmpwi   cr7,r29,9
 18028c8:	40 9d ff 50 	ble+    cr7,1802818 <Sum+0x48>
 18028cc:	3b de 00 01 	addi    r30,r30,1
 18028d0:	2f 9e 00 09 	cmpwi   cr7,r30,9
 18028d4:	40 9d ff 3c 	ble+    cr7,1802810 <Sum+0x40>
 18028d8:	3c 00 01 82 	lis     r0,386
 18028dc:	81 3f 00 14 	lwz     r9,20(r31)
 18028e0:	7c 0b 03 78 	mr      r11,r0
 18028e4:	91 2b 45 9c 	stw     r9,17820(r11)
 18028e8:	3c 00 01 82 	lis     r0,386
 18028ec:	81 3f 00 0c 	lwz     r9,12(r31)
 18028f0:	7c 0b 03 78 	mr      r11,r0
 18028f4:	91 2b 46 e8 	stw     r9,18152(r11)
 18028f8:	3c 00 01 82 	lis     r0,386
 18028fc:	81 3f 00 10 	lwz     r9,16(r31)
 1802900:	7c 0b 03 78 	mr      r11,r0
 1802904:	91 2b 45 e4 	stw     r9,17892(r11)
 1802908:	3c 00 01 82 	lis     r0,386
 180290c:	81 3f 00 08 	lwz     r9,8(r31)
 1802910:	7c 0b 03 78 	mr      r11,r0
 1802914:	91 2b 46 a0 	stw     r9,18080(r11)
 1802918:	39 7f 00 30 	addi    r11,r31,48
 180291c:	83 ab ff f4 	lwz     r29,-12(r11)
 1802920:	83 cb ff f8 	lwz     r30,-8(r11)
 1802924:	83 eb ff fc 	lwz     r31,-4(r11)
 1802928:	7d 61 5b 78 	mr      r1,r11
 180292c:	4e 80 00 20 	blr

01802930 <RandomInteger>:
 1802930:	94 21 ff f0 	stwu    r1,-16(r1)
 1802934:	93 e1 00 0c 	stw     r31,12(r1)
 1802938:	7c 3f 0b 78 	mr      r31,r1
 180293c:	3c 00 01 82 	lis     r0,386
 1802940:	7c 09 03 78 	mr      r9,r0
 1802944:	80 09 44 e0 	lwz     r0,17632(r9)
 1802948:	1c 00 00 85 	mulli   r0,r0,133
 180294c:	31 20 00 51 	addic   r9,r0,81
 1802950:	3c 00 10 31 	lis     r0,4145
 1802954:	60 00 14 c7 	ori     r0,r0,5319
 1802958:	7c 09 00 96 	mulhw   r0,r9,r0
 180295c:	7c 0b 4e 70 	srawi   r11,r0,9
 1802960:	7d 20 fe 70 	srawi   r0,r9,31
 1802964:	7c 00 58 50 	subf    r0,r0,r11
 1802968:	1c 00 1f 9f 	mulli   r0,r0,8095
 180296c:	7c 00 48 50 	subf    r0,r0,r9
 1802970:	3d 20 01 82 	lis     r9,386
 1802974:	90 09 44 e0 	stw     r0,17632(r9)
 1802978:	3c 00 01 82 	lis     r0,386
 180297c:	7c 09 03 78 	mr      r9,r0
 1802980:	80 09 44 e0 	lwz     r0,17632(r9)
 1802984:	7c 03 03 78 	mr      r3,r0
 1802988:	39 7f 00 10 	addi    r11,r31,16
 180298c:	83 eb ff fc 	lwz     r31,-4(r11)
 1802990:	7d 61 5b 78 	mr      r1,r11
 1802994:	4e 80 00 20 	blr

01802998 <initbuffer>:
 1802998:	94 21 ff e0 	stwu    r1,-32(r1)
 180299c:	93 e1 00 1c 	stw     r31,28(r1)
 18029a0:	7c 3f 0b 78 	mr      r31,r1
 18029a4:	38 00 00 01 	li      r0,1
 18029a8:	90 1f 00 10 	stw     r0,16(r31)
 18029ac:	38 00 00 00 	li      r0,0
 18029b0:	90 1f 00 0c 	stw     r0,12(r31)
 18029b4:	48 00 00 70 	b       1802a24 <initbuffer+0x8c>
 18029b8:	80 1f 00 0c 	lwz     r0,12(r31)
 18029bc:	90 1f 00 08 	stw     r0,8(r31)
 18029c0:	80 1f 00 10 	lwz     r0,16(r31)
 18029c4:	1c 00 00 85 	mulli   r0,r0,133
 18029c8:	30 00 00 51 	addic   r0,r0,81
 18029cc:	3d 20 10 31 	lis     r9,4145
 18029d0:	61 29 14 c7 	ori     r9,r9,5319
 18029d4:	7d 20 48 96 	mulhw   r9,r0,r9
 18029d8:	7d 2b 4e 70 	srawi   r11,r9,9
 18029dc:	7c 09 fe 70 	srawi   r9,r0,31
 18029e0:	7d 29 58 50 	subf    r9,r9,r11
 18029e4:	1d 29 1f 9f 	mulli   r9,r9,8095
 18029e8:	7c 09 00 50 	subf    r0,r9,r0
 18029ec:	90 1f 00 10 	stw     r0,16(r31)
 18029f0:	81 3f 00 0c 	lwz     r9,12(r31)
 18029f4:	80 1f 00 10 	lwz     r0,16(r31)
 18029f8:	7c 0b 46 70 	srawi   r11,r0,8
 18029fc:	7d 6b 01 94 	addze   r11,r11
 1802a00:	55 6b 40 2e 	rlwinm  r11,r11,8,0,23
 1802a04:	7c 0b 00 50 	subf    r0,r11,r0
 1802a08:	54 0b 06 3e 	clrlwi  r11,r0,24
 1802a0c:	3c 00 01 82 	lis     r0,386
 1802a10:	30 00 4d 60 	addic   r0,r0,19808
 1802a14:	7d 69 01 ae 	stbx    r11,r9,r0
 1802a18:	80 1f 00 0c 	lwz     r0,12(r31)
 1802a1c:	30 00 00 01 	addic   r0,r0,1
 1802a20:	90 1f 00 0c 	stw     r0,12(r31)
 1802a24:	80 1f 00 0c 	lwz     r0,12(r31)
 1802a28:	2f 80 00 31 	cmpwi   cr7,r0,49
 1802a2c:	40 9d ff 8c 	ble+    cr7,18029b8 <initbuffer+0x20>
 1802a30:	39 7f 00 20 	addi    r11,r31,32
 1802a34:	83 eb ff fc 	lwz     r31,-4(r11)
 1802a38:	7d 61 5b 78 	mr      r1,r11
 1802a3c:	4e 80 00 20 	blr

01802a40 <compress>:
 1802a40:	94 21 ff c8 	stwu    r1,-56(r1)
 1802a44:	7c 08 02 a6 	mflr    r0
 1802a48:	90 01 00 3c 	stw     r0,60(r1)
 1802a4c:	93 21 00 1c 	stw     r25,28(r1)
 1802a50:	93 41 00 20 	stw     r26,32(r1)
 1802a54:	93 61 00 24 	stw     r27,36(r1)
 1802a58:	93 81 00 28 	stw     r28,40(r1)
 1802a5c:	93 a1 00 2c 	stw     r29,44(r1)
 1802a60:	93 c1 00 30 	stw     r30,48(r1)
 1802a64:	93 e1 00 34 	stw     r31,52(r1)
 1802a68:	7c 3f 0b 78 	mr      r31,r1
 1802a6c:	3b c0 00 00 	li      r30,0
 1802a70:	3c 00 01 82 	lis     r0,386
 1802a74:	39 20 00 00 	li      r9,0
 1802a78:	7c 0b 03 78 	mr      r11,r0
 1802a7c:	91 2b 47 a8 	stw     r9,18344(r11)
 1802a80:	3c 00 01 82 	lis     r0,386
 1802a84:	39 20 00 03 	li      r9,3
 1802a88:	7c 0b 03 78 	mr      r11,r0
 1802a8c:	91 2b 46 48 	stw     r9,17992(r11)
 1802a90:	3c 00 01 82 	lis     r0,386
 1802a94:	39 20 00 00 	li      r9,0
 1802a98:	7c 0b 03 78 	mr      r11,r0
 1802a9c:	91 2b 44 b0 	stw     r9,17584(r11)
 1802aa0:	3c 00 01 82 	lis     r0,386
 1802aa4:	39 20 00 00 	li      r9,0
 1802aa8:	7c 0b 03 78 	mr      r11,r0
 1802aac:	91 2b 44 a4 	stw     r9,17572(r11)
 1802ab0:	3c 00 01 82 	lis     r0,386
 1802ab4:	39 20 00 00 	li      r9,0
 1802ab8:	7c 0b 03 78 	mr      r11,r0
 1802abc:	91 2b 44 a8 	stw     r9,17576(r11)
 1802ac0:	3c 00 01 82 	lis     r0,386
 1802ac4:	39 20 00 01 	li      r9,1
 1802ac8:	7c 0b 03 78 	mr      r11,r0
 1802acc:	91 2b 44 84 	stw     r9,17540(r11)
 1802ad0:	3c 00 01 82 	lis     r0,386
 1802ad4:	39 20 27 10 	li      r9,10000
 1802ad8:	7c 0b 03 78 	mr      r11,r0
 1802adc:	91 2b 44 80 	stw     r9,17536(r11)
 1802ae0:	3c 00 01 82 	lis     r0,386
 1802ae4:	39 20 00 09 	li      r9,9
 1802ae8:	7c 0b 03 78 	mr      r11,r0
 1802aec:	91 2b 46 54 	stw     r9,18004(r11)
 1802af0:	3c 00 01 82 	lis     r0,386
 1802af4:	7c 09 03 78 	mr      r9,r0
 1802af8:	80 09 46 54 	lwz     r0,18004(r9)
 1802afc:	39 20 00 01 	li      r9,1
 1802b00:	7d 20 00 30 	slw     r0,r9,r0
 1802b04:	31 20 ff ff 	addic   r9,r0,-1
 1802b08:	3c 00 01 82 	lis     r0,386
 1802b0c:	7c 0b 03 78 	mr      r11,r0
 1802b10:	91 2b 46 e0 	stw     r9,18144(r11)
 1802b14:	3c 00 01 82 	lis     r0,386
 1802b18:	7c 09 03 78 	mr      r9,r0
 1802b1c:	80 09 44 7c 	lwz     r0,17532(r9)
 1802b20:	2f 80 00 00 	cmpwi   cr7,r0,0
 1802b24:	41 9e 00 0c 	beq-    cr7,1802b30 <compress+0xf0>
 1802b28:	38 00 01 01 	li      r0,257
 1802b2c:	48 00 00 08 	b       1802b34 <compress+0xf4>
 1802b30:	38 00 01 00 	li      r0,256
 1802b34:	3d 20 01 82 	lis     r9,386
 1802b38:	90 09 44 98 	stw     r0,17560(r9)
 1802b3c:	48 00 05 95 	bl      18030d0 <getbyte>
 1802b40:	7c 60 1b 78 	mr      r0,r3
 1802b44:	7c 1b 03 78 	mr      r27,r0
 1802b48:	3b 80 00 00 	li      r28,0
 1802b4c:	3c 00 01 82 	lis     r0,386
 1802b50:	7c 0b 03 78 	mr      r11,r0
 1802b54:	83 ab 44 70 	lwz     r29,17520(r11)
 1802b58:	48 00 00 0c 	b       1802b64 <compress+0x124>
 1802b5c:	3b 9c 00 01 	addi    r28,r28,1
 1802b60:	57 bd 08 3c 	rlwinm  r29,r29,1,0,30
 1802b64:	38 00 00 00 	li      r0,0
 1802b68:	60 00 ff ff 	ori     r0,r0,65535
 1802b6c:	7f 9d 00 00 	cmpw    cr7,r29,r0
 1802b70:	40 9d ff ec 	ble+    cr7,1802b5c <compress+0x11c>
 1802b74:	23 9c 00 08 	subfic  r28,r28,8
 1802b78:	3c 00 01 82 	lis     r0,386
 1802b7c:	7c 09 03 78 	mr      r9,r0
 1802b80:	83 49 44 70 	lwz     r26,17520(r9)
 1802b84:	7f 43 d3 78 	mr      r3,r26
 1802b88:	48 00 04 05 	bl      1802f8c <cl_hash>
 1802b8c:	48 00 02 54 	b       1802de0 <compress+0x3a0>
 1802b90:	38 00 00 00 	li      r0,0
 1802b94:	90 1f 00 08 	stw     r0,8(r31)
 1802b98:	48 00 05 39 	bl      18030d0 <getbyte>
 1802b9c:	7c 60 1b 78 	mr      r0,r3
 1802ba0:	7c 19 03 78 	mr      r25,r0
 1802ba4:	3c 00 01 82 	lis     r0,386
 1802ba8:	7c 0b 03 78 	mr      r11,r0
 1802bac:	80 0b 44 84 	lwz     r0,17540(r11)
 1802bb0:	31 20 00 01 	addic   r9,r0,1
 1802bb4:	3c 00 01 82 	lis     r0,386
 1802bb8:	7c 0b 03 78 	mr      r11,r0
 1802bbc:	91 2b 44 84 	stw     r9,17540(r11)
 1802bc0:	3c 00 01 82 	lis     r0,386
 1802bc4:	7c 09 03 78 	mr      r9,r0
 1802bc8:	80 09 44 68 	lwz     r0,17512(r9)
 1802bcc:	7f 20 00 30 	slw     r0,r25,r0
 1802bd0:	7f a0 da 14 	add     r29,r0,r27
 1802bd4:	7f 20 e0 30 	slw     r0,r25,r28
 1802bd8:	7c 1e da 78 	xor     r30,r0,r27
 1802bdc:	7f c0 f3 78 	mr      r0,r30
 1802be0:	3d 20 01 83 	lis     r9,387
 1802be4:	39 29 a9 cc 	addi    r9,r9,-22068
 1802be8:	54 00 10 3a 	rlwinm  r0,r0,2,0,29
 1802bec:	7c 09 02 14 	add     r0,r9,r0
 1802bf0:	7c 0b 03 78 	mr      r11,r0
 1802bf4:	80 0b 00 00 	lwz     r0,0(r11)
 1802bf8:	7f 80 e8 00 	cmpw    cr7,r0,r29
 1802bfc:	40 9e 00 2c 	bne-    cr7,1802c28 <compress+0x1e8>
 1802c00:	7f c0 f3 78 	mr      r0,r30
 1802c04:	3d 20 01 83 	lis     r9,387
 1802c08:	39 29 fe 8c 	addi    r9,r9,-372
 1802c0c:	54 00 08 3c 	rlwinm  r0,r0,1,0,30
 1802c10:	7c 09 02 14 	add     r0,r9,r0
 1802c14:	7c 09 03 78 	mr      r9,r0
 1802c18:	a0 09 00 00 	lhz     r0,0(r9)
 1802c1c:	54 00 04 3e 	clrlwi  r0,r0,16
 1802c20:	7c 1b 03 78 	mr      r27,r0
 1802c24:	48 00 01 bc 	b       1802de0 <compress+0x3a0>
 1802c28:	7f c0 f3 78 	mr      r0,r30
 1802c2c:	3d 20 01 83 	lis     r9,387
 1802c30:	39 29 a9 cc 	addi    r9,r9,-22068
 1802c34:	54 00 10 3a 	rlwinm  r0,r0,2,0,29
 1802c38:	7c 09 02 14 	add     r0,r9,r0
 1802c3c:	7c 0b 03 78 	mr      r11,r0
 1802c40:	80 0b 00 00 	lwz     r0,0(r11)
 1802c44:	2f 80 00 00 	cmpwi   cr7,r0,0
 1802c48:	41 9c 00 c4 	blt-    cr7,1802d0c <compress+0x2cc>
 1802c4c:	7f 7e d0 50 	subf    r27,r30,r26
 1802c50:	2f 9e 00 00 	cmpwi   cr7,r30,0
 1802c54:	40 9e 00 10 	bne-    cr7,1802c64 <compress+0x224>
 1802c58:	3b 60 00 01 	li      r27,1
 1802c5c:	48 00 00 08 	b       1802c64 <compress+0x224>
 1802c60:	60 00 00 00 	nop
 1802c64:	7f db f0 50 	subf    r30,r27,r30
 1802c68:	2f 9e 00 00 	cmpwi   cr7,r30,0
 1802c6c:	40 9c 00 08 	bge-    cr7,1802c74 <compress+0x234>
 1802c70:	7f de d2 14 	add     r30,r30,r26
 1802c74:	7f c0 f3 78 	mr      r0,r30
 1802c78:	3d 20 01 83 	lis     r9,387
 1802c7c:	39 29 a9 cc 	addi    r9,r9,-22068
 1802c80:	54 00 10 3a 	rlwinm  r0,r0,2,0,29
 1802c84:	7c 09 02 14 	add     r0,r9,r0
 1802c88:	7c 09 03 78 	mr      r9,r0
 1802c8c:	80 09 00 00 	lwz     r0,0(r9)
 1802c90:	7f 80 e8 00 	cmpw    cr7,r0,r29
 1802c94:	40 9e 00 2c 	bne-    cr7,1802cc0 <compress+0x280>
 1802c98:	7f c0 f3 78 	mr      r0,r30
 1802c9c:	3d 20 01 83 	lis     r9,387
 1802ca0:	39 29 fe 8c 	addi    r9,r9,-372
 1802ca4:	54 00 08 3c 	rlwinm  r0,r0,1,0,30
 1802ca8:	7c 09 02 14 	add     r0,r9,r0
 1802cac:	7c 0b 03 78 	mr      r11,r0
 1802cb0:	a0 0b 00 00 	lhz     r0,0(r11)
 1802cb4:	54 00 04 3e 	clrlwi  r0,r0,16
 1802cb8:	7c 1b 03 78 	mr      r27,r0
 1802cbc:	48 00 01 24 	b       1802de0 <compress+0x3a0>
 1802cc0:	7f c0 f3 78 	mr      r0,r30
 1802cc4:	3d 20 01 83 	lis     r9,387
 1802cc8:	39 29 a9 cc 	addi    r9,r9,-22068
 1802ccc:	54 00 10 3a 	rlwinm  r0,r0,2,0,29
 1802cd0:	7c 09 02 14 	add     r0,r9,r0
 1802cd4:	7c 09 03 78 	mr      r9,r0
 1802cd8:	80 09 00 00 	lwz     r0,0(r9)
 1802cdc:	2f 80 00 00 	cmpwi   cr7,r0,0
 1802ce0:	40 9d 00 30 	ble-    cr7,1802d10 <compress+0x2d0>
 1802ce4:	80 1f 00 08 	lwz     r0,8(r31)
 1802ce8:	30 00 00 01 	addic   r0,r0,1
 1802cec:	90 1f 00 08 	stw     r0,8(r31)
 1802cf0:	3c 00 01 82 	lis     r0,386
 1802cf4:	7c 0b 03 78 	mr      r11,r0
 1802cf8:	80 0b 44 84 	lwz     r0,17540(r11)
 1802cfc:	81 3f 00 08 	lwz     r9,8(r31)
 1802d00:	7f 89 00 00 	cmpw    cr7,r9,r0
 1802d04:	41 9c ff 5c 	blt+    cr7,1802c60 <compress+0x220>
 1802d08:	48 00 00 08 	b       1802d10 <compress+0x2d0>
 1802d0c:	60 00 00 00 	nop
 1802d10:	3c 00 01 82 	lis     r0,386
 1802d14:	7c 09 03 78 	mr      r9,r0
 1802d18:	80 09 44 b0 	lwz     r0,17584(r9)
 1802d1c:	31 20 00 01 	addic   r9,r0,1
 1802d20:	3c 00 01 82 	lis     r0,386
 1802d24:	7c 0b 03 78 	mr      r11,r0
 1802d28:	91 2b 44 b0 	stw     r9,17584(r11)
 1802d2c:	7f 3b cb 78 	mr      r27,r25
 1802d30:	3c 00 01 82 	lis     r0,386
 1802d34:	7c 0b 03 78 	mr      r11,r0
 1802d38:	81 2b 44 98 	lwz     r9,17560(r11)
 1802d3c:	3c 00 01 82 	lis     r0,386
 1802d40:	7c 0b 03 78 	mr      r11,r0
 1802d44:	80 0b 44 6c 	lwz     r0,17516(r11)
 1802d48:	7f 89 00 00 	cmpw    cr7,r9,r0
 1802d4c:	40 9c 00 5c 	bge-    cr7,1802da8 <compress+0x368>
 1802d50:	7f c9 f3 78 	mr      r9,r30
 1802d54:	3c 00 01 82 	lis     r0,386
 1802d58:	7c 0b 03 78 	mr      r11,r0
 1802d5c:	80 0b 44 98 	lwz     r0,17560(r11)
 1802d60:	54 0b 04 3e 	clrlwi  r11,r0,16
 1802d64:	3d 40 01 83 	lis     r10,387
 1802d68:	39 4a fe 8c 	addi    r10,r10,-372
 1802d6c:	55 29 08 3c 	rlwinm  r9,r9,1,0,30
 1802d70:	7d 2a 4a 14 	add     r9,r10,r9
 1802d74:	b1 69 00 00 	sth     r11,0(r9)
 1802d78:	31 20 00 01 	addic   r9,r0,1
 1802d7c:	3c 00 01 82 	lis     r0,386
 1802d80:	7c 0b 03 78 	mr      r11,r0
 1802d84:	91 2b 44 98 	stw     r9,17560(r11)
 1802d88:	7f c0 f3 78 	mr      r0,r30
 1802d8c:	3d 20 01 83 	lis     r9,387
 1802d90:	39 29 a9 cc 	addi    r9,r9,-22068
 1802d94:	54 00 10 3a 	rlwinm  r0,r0,2,0,29
 1802d98:	7c 09 02 14 	add     r0,r9,r0
 1802d9c:	7c 09 03 78 	mr      r9,r0
 1802da0:	93 a9 00 00 	stw     r29,0(r9)
 1802da4:	48 00 00 3c 	b       1802de0 <compress+0x3a0>
 1802da8:	3c 00 01 82 	lis     r0,386
 1802dac:	7c 0b 03 78 	mr      r11,r0
 1802db0:	81 2b 44 84 	lwz     r9,17540(r11)
 1802db4:	3c 00 01 82 	lis     r0,386
 1802db8:	7c 0b 03 78 	mr      r11,r0
 1802dbc:	80 0b 44 80 	lwz     r0,17536(r11)
 1802dc0:	7f 89 00 00 	cmpw    cr7,r9,r0
 1802dc4:	41 9c 00 1c 	blt-    cr7,1802de0 <compress+0x3a0>
 1802dc8:	3c 00 01 82 	lis     r0,386
 1802dcc:	7c 09 03 78 	mr      r9,r0
 1802dd0:	80 09 44 7c 	lwz     r0,17532(r9)
 1802dd4:	2f 80 00 00 	cmpwi   cr7,r0,0
 1802dd8:	41 9e 00 08 	beq-    cr7,1802de0 <compress+0x3a0>
 1802ddc:	48 00 00 79 	bl      1802e54 <cl_block>
 1802de0:	3c 00 01 82 	lis     r0,386
 1802de4:	7c 0b 03 78 	mr      r11,r0
 1802de8:	80 0b 46 6c 	lwz     r0,18028(r11)
 1802dec:	2f 80 00 00 	cmpwi   cr7,r0,0
 1802df0:	41 9d fd a0 	bgt+    cr7,1802b90 <compress+0x150>
 1802df4:	3c 00 01 82 	lis     r0,386
 1802df8:	7c 0b 03 78 	mr      r11,r0
 1802dfc:	81 2b 46 48 	lwz     r9,17992(r11)
 1802e00:	3c 00 01 82 	lis     r0,386
 1802e04:	7c 0b 03 78 	mr      r11,r0
 1802e08:	80 0b 44 84 	lwz     r0,17540(r11)
 1802e0c:	7f 89 00 00 	cmpw    cr7,r9,r0
 1802e10:	40 9d 00 14 	ble-    cr7,1802e24 <compress+0x3e4>
 1802e14:	3c 00 01 82 	lis     r0,386
 1802e18:	39 20 00 02 	li      r9,2
 1802e1c:	7c 0b 03 78 	mr      r11,r0
 1802e20:	91 2b 44 9c 	stw     r9,17564(r11)
 1802e24:	39 7f 00 38 	addi    r11,r31,56
 1802e28:	80 0b 00 04 	lwz     r0,4(r11)
 1802e2c:	7c 08 03 a6 	mtlr    r0
 1802e30:	83 2b ff e4 	lwz     r25,-28(r11)
 1802e34:	83 4b ff e8 	lwz     r26,-24(r11)
 1802e38:	83 6b ff ec 	lwz     r27,-20(r11)
 1802e3c:	83 8b ff f0 	lwz     r28,-16(r11)
 1802e40:	83 ab ff f4 	lwz     r29,-12(r11)
 1802e44:	83 cb ff f8 	lwz     r30,-8(r11)
 1802e48:	83 eb ff fc 	lwz     r31,-4(r11)
 1802e4c:	7d 61 5b 78 	mr      r1,r11
 1802e50:	4e 80 00 20 	blr

01802e54 <cl_block>:
 1802e54:	94 21 ff f0 	stwu    r1,-16(r1)
 1802e58:	7c 08 02 a6 	mflr    r0
 1802e5c:	90 01 00 14 	stw     r0,20(r1)
 1802e60:	93 c1 00 08 	stw     r30,8(r1)
 1802e64:	93 e1 00 0c 	stw     r31,12(r1)
 1802e68:	7c 3f 0b 78 	mr      r31,r1
 1802e6c:	3c 00 01 82 	lis     r0,386
 1802e70:	7c 09 03 78 	mr      r9,r0
 1802e74:	80 09 44 84 	lwz     r0,17540(r9)
 1802e78:	31 20 27 10 	addic   r9,r0,10000
 1802e7c:	3c 00 01 82 	lis     r0,386
 1802e80:	7c 0b 03 78 	mr      r11,r0
 1802e84:	91 2b 44 80 	stw     r9,17536(r11)
 1802e88:	3c 00 01 82 	lis     r0,386
 1802e8c:	7c 0b 03 78 	mr      r11,r0
 1802e90:	81 2b 44 84 	lwz     r9,17540(r11)
 1802e94:	3c 00 00 7f 	lis     r0,127
 1802e98:	60 00 ff ff 	ori     r0,r0,65535
 1802e9c:	7f 89 00 00 	cmpw    cr7,r9,r0
 1802ea0:	40 9d 00 40 	ble-    cr7,1802ee0 <cl_block+0x8c>
 1802ea4:	3c 00 01 82 	lis     r0,386
 1802ea8:	7c 09 03 78 	mr      r9,r0
 1802eac:	80 09 46 48 	lwz     r0,17992(r9)
 1802eb0:	7c 1e 46 70 	srawi   r30,r0,8
 1802eb4:	2f 9e 00 00 	cmpwi   cr7,r30,0
 1802eb8:	40 9e 00 10 	bne-    cr7,1802ec8 <cl_block+0x74>
 1802ebc:	3c 00 7f ff 	lis     r0,32767
 1802ec0:	60 1e ff ff 	ori     r30,r0,65535
 1802ec4:	48 00 00 3c 	b       1802f00 <cl_block+0xac>
 1802ec8:	3c 00 01 82 	lis     r0,386
 1802ecc:	7c 0b 03 78 	mr      r11,r0
 1802ed0:	80 0b 44 84 	lwz     r0,17540(r11)
 1802ed4:	7c 00 f3 d6 	divw    r0,r0,r30
 1802ed8:	7c 1e 03 78 	mr      r30,r0
 1802edc:	48 00 00 24 	b       1802f00 <cl_block+0xac>
 1802ee0:	3c 00 01 82 	lis     r0,386
 1802ee4:	7c 09 03 78 	mr      r9,r0
 1802ee8:	80 09 44 84 	lwz     r0,17540(r9)
 1802eec:	54 09 40 2e 	rlwinm  r9,r0,8,0,23
 1802ef0:	3c 00 01 82 	lis     r0,386
 1802ef4:	7c 0b 03 78 	mr      r11,r0
 1802ef8:	80 0b 46 48 	lwz     r0,17992(r11)
 1802efc:	7f c9 03 d6 	divw    r30,r9,r0
 1802f00:	3c 00 01 82 	lis     r0,386
 1802f04:	7c 09 03 78 	mr      r9,r0
 1802f08:	80 09 44 a8 	lwz     r0,17576(r9)
 1802f0c:	7f 9e 00 00 	cmpw    cr7,r30,r0
 1802f10:	40 9d 00 14 	ble-    cr7,1802f24 <cl_block+0xd0>
 1802f14:	3c 00 01 82 	lis     r0,386
 1802f18:	7c 0b 03 78 	mr      r11,r0
 1802f1c:	93 cb 44 a8 	stw     r30,17576(r11)
 1802f20:	48 00 00 50 	b       1802f70 <cl_block+0x11c>
 1802f24:	3c 00 01 82 	lis     r0,386
 1802f28:	39 20 00 00 	li      r9,0
 1802f2c:	7c 0b 03 78 	mr      r11,r0
 1802f30:	91 2b 44 a8 	stw     r9,17576(r11)
 1802f34:	3c 00 01 82 	lis     r0,386
 1802f38:	7c 09 03 78 	mr      r9,r0
 1802f3c:	80 09 44 70 	lwz     r0,17520(r9)
 1802f40:	7c 03 03 78 	mr      r3,r0
 1802f44:	48 00 00 49 	bl      1802f8c <cl_hash>
 1802f48:	3c 00 01 82 	lis     r0,386
 1802f4c:	39 20 01 01 	li      r9,257
 1802f50:	7c 0b 03 78 	mr      r11,r0
 1802f54:	91 2b 44 98 	stw     r9,17560(r11)
 1802f58:	3c 00 01 82 	lis     r0,386
 1802f5c:	39 20 00 01 	li      r9,1
 1802f60:	7c 0b 03 78 	mr      r11,r0
 1802f64:	91 2b 44 a4 	stw     r9,17572(r11)
 1802f68:	38 60 01 00 	li      r3,256
 1802f6c:	48 00 02 ed 	bl      1803258 <output>
 1802f70:	39 7f 00 10 	addi    r11,r31,16
 1802f74:	80 0b 00 04 	lwz     r0,4(r11)
 1802f78:	7c 08 03 a6 	mtlr    r0
 1802f7c:	83 cb ff f8 	lwz     r30,-8(r11)
 1802f80:	83 eb ff fc 	lwz     r31,-4(r11)
 1802f84:	7d 61 5b 78 	mr      r1,r11
 1802f88:	4e 80 00 20 	blr

01802f8c <cl_hash>:
 1802f8c:	94 21 ff e0 	stwu    r1,-32(r1)
 1802f90:	93 81 00 10 	stw     r28,16(r1)
 1802f94:	93 a1 00 14 	stw     r29,20(r1)
 1802f98:	93 c1 00 18 	stw     r30,24(r1)
 1802f9c:	93 e1 00 1c 	stw     r31,28(r1)
 1802fa0:	7c 3f 0b 78 	mr      r31,r1
 1802fa4:	90 7f 00 08 	stw     r3,8(r31)
 1802fa8:	80 1f 00 08 	lwz     r0,8(r31)
 1802fac:	54 09 10 3a 	rlwinm  r9,r0,2,0,29
 1802fb0:	3c 00 01 83 	lis     r0,387
 1802fb4:	30 00 a9 cc 	addic   r0,r0,-22068
 1802fb8:	7f c9 02 14 	add     r30,r9,r0
 1802fbc:	3b a0 ff ff 	li      r29,-1
 1802fc0:	80 1f 00 08 	lwz     r0,8(r31)
 1802fc4:	33 80 ff f0 	addic   r28,r0,-16
 1802fc8:	38 1e ff c0 	addi    r0,r30,-64
 1802fcc:	7c 09 03 78 	mr      r9,r0
 1802fd0:	93 a9 00 00 	stw     r29,0(r9)
 1802fd4:	38 1e ff c4 	addi    r0,r30,-60
 1802fd8:	7c 09 03 78 	mr      r9,r0
 1802fdc:	93 a9 00 00 	stw     r29,0(r9)
 1802fe0:	38 1e ff c8 	addi    r0,r30,-56
 1802fe4:	7c 09 03 78 	mr      r9,r0
 1802fe8:	93 a9 00 00 	stw     r29,0(r9)
 1802fec:	38 1e ff cc 	addi    r0,r30,-52
 1802ff0:	7c 09 03 78 	mr      r9,r0
 1802ff4:	93 a9 00 00 	stw     r29,0(r9)
 1802ff8:	38 1e ff d0 	addi    r0,r30,-48
 1802ffc:	7c 09 03 78 	mr      r9,r0
 1803000:	93 a9 00 00 	stw     r29,0(r9)
 1803004:	38 1e ff d4 	addi    r0,r30,-44
 1803008:	7c 09 03 78 	mr      r9,r0
 180300c:	93 a9 00 00 	stw     r29,0(r9)
 1803010:	38 1e ff d8 	addi    r0,r30,-40
 1803014:	7c 09 03 78 	mr      r9,r0
 1803018:	93 a9 00 00 	stw     r29,0(r9)
 180301c:	38 1e ff dc 	addi    r0,r30,-36
 1803020:	7c 09 03 78 	mr      r9,r0
 1803024:	93 a9 00 00 	stw     r29,0(r9)
 1803028:	38 1e ff e0 	addi    r0,r30,-32
 180302c:	7c 09 03 78 	mr      r9,r0
 1803030:	93 a9 00 00 	stw     r29,0(r9)
 1803034:	38 1e ff e4 	addi    r0,r30,-28
 1803038:	7c 09 03 78 	mr      r9,r0
 180303c:	93 a9 00 00 	stw     r29,0(r9)
 1803040:	38 1e ff e8 	addi    r0,r30,-24
 1803044:	7c 09 03 78 	mr      r9,r0
 1803048:	93 a9 00 00 	stw     r29,0(r9)
 180304c:	38 1e ff ec 	addi    r0,r30,-20
 1803050:	7c 09 03 78 	mr      r9,r0
 1803054:	93 a9 00 00 	stw     r29,0(r9)
 1803058:	38 1e ff f0 	addi    r0,r30,-16
 180305c:	7c 09 03 78 	mr      r9,r0
 1803060:	93 a9 00 00 	stw     r29,0(r9)
 1803064:	38 1e ff f4 	addi    r0,r30,-12
 1803068:	7c 09 03 78 	mr      r9,r0
 180306c:	93 a9 00 00 	stw     r29,0(r9)
 1803070:	38 1e ff f8 	addi    r0,r30,-8
 1803074:	7c 09 03 78 	mr      r9,r0
 1803078:	93 a9 00 00 	stw     r29,0(r9)
 180307c:	38 1e ff fc 	addi    r0,r30,-4
 1803080:	7c 09 03 78 	mr      r9,r0
 1803084:	93 a9 00 00 	stw     r29,0(r9)
 1803088:	3b de ff c0 	addi    r30,r30,-64
 180308c:	3b 9c ff f0 	addi    r28,r28,-16
 1803090:	2f 9c 00 00 	cmpwi   cr7,r28,0
 1803094:	40 9c ff 34 	bge+    cr7,1802fc8 <cl_hash+0x3c>
 1803098:	3b 9c 00 10 	addi    r28,r28,16
 180309c:	48 00 00 10 	b       18030ac <cl_hash+0x120>
 18030a0:	3b de ff fc 	addi    r30,r30,-4
 18030a4:	93 be 00 00 	stw     r29,0(r30)
 18030a8:	3b 9c ff ff 	addi    r28,r28,-1
 18030ac:	2f 9c 00 00 	cmpwi   cr7,r28,0
 18030b0:	41 9d ff f0 	bgt+    cr7,18030a0 <cl_hash+0x114>
 18030b4:	39 7f 00 20 	addi    r11,r31,32
 18030b8:	83 8b ff f0 	lwz     r28,-16(r11)
 18030bc:	83 ab ff f4 	lwz     r29,-12(r11)
 18030c0:	83 cb ff f8 	lwz     r30,-8(r11)
 18030c4:	83 eb ff fc 	lwz     r31,-4(r11)
 18030c8:	7d 61 5b 78 	mr      r1,r11
 18030cc:	4e 80 00 20 	blr

018030d0 <getbyte>:
 18030d0:	94 21 ff f0 	stwu    r1,-16(r1)
 18030d4:	93 e1 00 0c 	stw     r31,12(r1)
 18030d8:	7c 3f 0b 78 	mr      r31,r1
 18030dc:	3c 00 01 82 	lis     r0,386
 18030e0:	7c 09 03 78 	mr      r9,r0
 18030e4:	80 09 46 6c 	lwz     r0,18028(r9)
 18030e8:	2f 80 00 00 	cmpwi   cr7,r0,0
 18030ec:	40 9d 00 78 	ble-    cr7,1803164 <getbyte+0x94>
 18030f0:	3c 00 01 82 	lis     r0,386
 18030f4:	7c 0a 03 78 	mr      r10,r0
 18030f8:	80 0a 45 a8 	lwz     r0,17832(r10)
 18030fc:	7c 09 fe 70 	srawi   r9,r0,31
 1803100:	7d 20 48 50 	subf    r9,r0,r9
 1803104:	55 29 0f fe 	rlwinm  r9,r9,1,31,31
 1803108:	55 29 06 3e 	clrlwi  r9,r9,24
 180310c:	31 60 ff ff 	addic   r11,r0,-1
 1803110:	3c 00 01 82 	lis     r0,386
 1803114:	7c 0a 03 78 	mr      r10,r0
 1803118:	91 6a 45 a8 	stw     r11,17832(r10)
 180311c:	2f 89 00 00 	cmpwi   cr7,r9,0
 1803120:	41 9e 00 44 	beq-    cr7,1803164 <getbyte+0x94>
 1803124:	3c 00 01 82 	lis     r0,386
 1803128:	7c 0b 03 78 	mr      r11,r0
 180312c:	80 0b 46 6c 	lwz     r0,18028(r11)
 1803130:	31 20 ff ff 	addic   r9,r0,-1
 1803134:	3c 00 01 82 	lis     r0,386
 1803138:	7c 0a 03 78 	mr      r10,r0
 180313c:	91 2a 46 6c 	stw     r9,18028(r10)
 1803140:	3c 00 01 82 	lis     r0,386
 1803144:	7c 0b 03 78 	mr      r11,r0
 1803148:	81 2b 45 64 	lwz     r9,17764(r11)
 180314c:	88 09 00 00 	lbz     r0,0(r9)
 1803150:	54 00 06 3e 	clrlwi  r0,r0,24
 1803154:	39 69 00 01 	addi    r11,r9,1
 1803158:	3d 20 01 82 	lis     r9,386
 180315c:	91 69 45 64 	stw     r11,17764(r9)
 1803160:	48 00 00 08 	b       1803168 <getbyte+0x98>
 1803164:	38 00 ff ff 	li      r0,-1
 1803168:	7c 03 03 78 	mr      r3,r0
 180316c:	39 7f 00 10 	addi    r11,r31,16
 1803170:	83 eb ff fc 	lwz     r31,-4(r11)
 1803174:	7d 61 5b 78 	mr      r1,r11
 1803178:	4e 80 00 20 	blr

0180317c <putbyte>:
 180317c:	94 21 ff e8 	stwu    r1,-24(r1)
 1803180:	93 e1 00 14 	stw     r31,20(r1)
 1803184:	7c 3f 0b 78 	mr      r31,r1
 1803188:	7c 60 1b 78 	mr      r0,r3
 180318c:	98 1f 00 08 	stb     r0,8(r31)
 1803190:	3c 00 01 82 	lis     r0,386
 1803194:	7c 09 03 78 	mr      r9,r0
 1803198:	80 09 45 b0 	lwz     r0,17840(r9)
 180319c:	89 3f 00 08 	lbz     r9,8(r31)
 18031a0:	7c 0b 03 78 	mr      r11,r0
 18031a4:	99 2b 00 00 	stb     r9,0(r11)
 18031a8:	31 20 00 01 	addic   r9,r0,1
 18031ac:	3c 00 01 82 	lis     r0,386
 18031b0:	7c 0b 03 78 	mr      r11,r0
 18031b4:	91 2b 45 b0 	stw     r9,17840(r11)
 18031b8:	39 7f 00 18 	addi    r11,r31,24
 18031bc:	83 eb ff fc 	lwz     r31,-4(r11)
 18031c0:	7d 61 5b 78 	mr      r1,r11
 18031c4:	4e 80 00 20 	blr

018031c8 <writebytes>:
 18031c8:	94 21 ff d8 	stwu    r1,-40(r1)
 18031cc:	93 e1 00 24 	stw     r31,36(r1)
 18031d0:	7c 3f 0b 78 	mr      r31,r1
 18031d4:	90 7f 00 18 	stw     r3,24(r31)
 18031d8:	90 9f 00 1c 	stw     r4,28(r31)
 18031dc:	38 00 00 00 	li      r0,0
 18031e0:	90 1f 00 08 	stw     r0,8(r31)
 18031e4:	48 00 00 48 	b       180322c <writebytes+0x64>
 18031e8:	3c 00 01 82 	lis     r0,386
 18031ec:	7c 09 03 78 	mr      r9,r0
 18031f0:	80 09 45 b0 	lwz     r0,17840(r9)
 18031f4:	81 3f 00 08 	lwz     r9,8(r31)
 18031f8:	81 7f 00 18 	lwz     r11,24(r31)
 18031fc:	7d 2b 4a 14 	add     r9,r11,r9
 1803200:	89 29 00 00 	lbz     r9,0(r9)
 1803204:	55 29 06 3e 	clrlwi  r9,r9,24
 1803208:	7c 0b 03 78 	mr      r11,r0
 180320c:	99 2b 00 00 	stb     r9,0(r11)
 1803210:	31 20 00 01 	addic   r9,r0,1
 1803214:	3c 00 01 82 	lis     r0,386
 1803218:	7c 0b 03 78 	mr      r11,r0
 180321c:	91 2b 45 b0 	stw     r9,17840(r11)
 1803220:	80 1f 00 08 	lwz     r0,8(r31)
 1803224:	30 00 00 01 	addic   r0,r0,1
 1803228:	90 1f 00 08 	stw     r0,8(r31)
 180322c:	81 3f 00 08 	lwz     r9,8(r31)
 1803230:	80 1f 00 1c 	lwz     r0,28(r31)
 1803234:	7f 89 00 00 	cmpw    cr7,r9,r0
 1803238:	40 9c 00 10 	bge-    cr7,1803248 <writebytes+0x80>
 180323c:	80 1f 00 08 	lwz     r0,8(r31)
 1803240:	2f 80 00 0f 	cmpwi   cr7,r0,15
 1803244:	40 9d ff a4 	ble+    cr7,18031e8 <writebytes+0x20>
 1803248:	39 7f 00 28 	addi    r11,r31,40
 180324c:	83 eb ff fc 	lwz     r31,-4(r11)
 1803250:	7d 61 5b 78 	mr      r1,r11
 1803254:	4e 80 00 20 	blr

01803258 <output>:
 1803258:	94 21 ff e0 	stwu    r1,-32(r1)
 180325c:	7c 08 02 a6 	mflr    r0
 1803260:	90 01 00 24 	stw     r0,36(r1)
 1803264:	93 81 00 10 	stw     r28,16(r1)
 1803268:	93 a1 00 14 	stw     r29,20(r1)
 180326c:	93 c1 00 18 	stw     r30,24(r1)
 1803270:	93 e1 00 1c 	stw     r31,28(r1)
 1803274:	7c 3f 0b 78 	mr      r31,r1
 1803278:	90 7f 00 08 	stw     r3,8(r31)
 180327c:	3c 00 01 82 	lis     r0,386
 1803280:	7c 09 03 78 	mr      r9,r0
 1803284:	83 89 47 a8 	lwz     r28,18344(r9)
 1803288:	3c 00 01 82 	lis     r0,386
 180328c:	7c 0b 03 78 	mr      r11,r0
 1803290:	83 ab 46 54 	lwz     r29,18004(r11)
 1803294:	3c 00 01 83 	lis     r0,387
 1803298:	33 c0 20 58 	addic   r30,r0,8280
 180329c:	80 1f 00 08 	lwz     r0,8(r31)
 18032a0:	2f 80 00 00 	cmpwi   cr7,r0,0
 18032a4:	41 9c 03 08 	blt-    cr7,18035ac <output+0x354>
 18032a8:	7f 80 1e 70 	srawi   r0,r28,3
 18032ac:	7f de 02 14 	add     r30,r30,r0
 18032b0:	57 9c 07 7e 	clrlwi  r28,r28,29
 18032b4:	88 1e 00 00 	lbz     r0,0(r30)
 18032b8:	54 09 06 3e 	clrlwi  r9,r0,24
 18032bc:	7f 80 e3 78 	mr      r0,r28
 18032c0:	3d 60 01 82 	lis     r11,386
 18032c4:	39 6b 12 ec 	addi    r11,r11,4844
 18032c8:	7c 0b 00 ae 	lbzx    r0,r11,r0
 18032cc:	54 00 06 3e 	clrlwi  r0,r0,24
 18032d0:	7d 20 00 38 	and     r0,r9,r0
 18032d4:	54 00 06 3e 	clrlwi  r0,r0,24
 18032d8:	7c 09 07 74 	extsb   r9,r0
 18032dc:	80 1f 00 08 	lwz     r0,8(r31)
 18032e0:	7c 00 e0 30 	slw     r0,r0,r28
 18032e4:	7c 0b 07 74 	extsb   r11,r0
 18032e8:	7f 80 e3 78 	mr      r0,r28
 18032ec:	3d 40 01 82 	lis     r10,386
 18032f0:	39 4a 12 e0 	addi    r10,r10,4832
 18032f4:	7c 0a 00 ae 	lbzx    r0,r10,r0
 18032f8:	54 00 06 3e 	clrlwi  r0,r0,24
 18032fc:	7c 00 07 74 	extsb   r0,r0
 1803300:	7d 60 00 38 	and     r0,r11,r0
 1803304:	7c 00 07 74 	extsb   r0,r0
 1803308:	7d 20 03 78 	or      r0,r9,r0
 180330c:	7c 00 07 74 	extsb   r0,r0
 1803310:	54 00 06 3e 	clrlwi  r0,r0,24
 1803314:	98 1e 00 00 	stb     r0,0(r30)
 1803318:	3b de 00 01 	addi    r30,r30,1
 180331c:	38 1c ff f8 	addi    r0,r28,-8
 1803320:	7f bd 02 14 	add     r29,r29,r0
 1803324:	20 1c 00 08 	subfic  r0,r28,8
 1803328:	81 3f 00 08 	lwz     r9,8(r31)
 180332c:	7d 20 06 30 	sraw    r0,r9,r0
 1803330:	90 1f 00 08 	stw     r0,8(r31)
 1803334:	2f 9d 00 07 	cmpwi   cr7,r29,7
 1803338:	40 9d 00 24 	ble-    cr7,180335c <output+0x104>
 180333c:	80 1f 00 08 	lwz     r0,8(r31)
 1803340:	54 00 06 3e 	clrlwi  r0,r0,24
 1803344:	98 1e 00 00 	stb     r0,0(r30)
 1803348:	3b de 00 01 	addi    r30,r30,1
 180334c:	80 1f 00 08 	lwz     r0,8(r31)
 1803350:	7c 00 46 70 	srawi   r0,r0,8
 1803354:	90 1f 00 08 	stw     r0,8(r31)
 1803358:	3b bd ff f8 	addi    r29,r29,-8
 180335c:	2f 9d 00 00 	cmpwi   cr7,r29,0
 1803360:	41 9e 00 10 	beq-    cr7,1803370 <output+0x118>
 1803364:	80 1f 00 08 	lwz     r0,8(r31)
 1803368:	54 00 06 3e 	clrlwi  r0,r0,24
 180336c:	98 1e 00 00 	stb     r0,0(r30)
 1803370:	3c 00 01 82 	lis     r0,386
 1803374:	7c 0b 03 78 	mr      r11,r0
 1803378:	81 2b 47 a8 	lwz     r9,18344(r11)
 180337c:	3c 00 01 82 	lis     r0,386
 1803380:	7c 0b 03 78 	mr      r11,r0
 1803384:	80 0b 46 54 	lwz     r0,18004(r11)
 1803388:	7d 29 02 14 	add     r9,r9,r0
 180338c:	3c 00 01 82 	lis     r0,386
 1803390:	7c 0b 03 78 	mr      r11,r0
 1803394:	91 2b 47 a8 	stw     r9,18344(r11)
 1803398:	3c 00 01 82 	lis     r0,386
 180339c:	7c 09 03 78 	mr      r9,r0
 18033a0:	80 09 46 54 	lwz     r0,18004(r9)
 18033a4:	54 09 18 38 	rlwinm  r9,r0,3,0,28
 18033a8:	3c 00 01 82 	lis     r0,386
 18033ac:	7c 0b 03 78 	mr      r11,r0
 18033b0:	80 0b 47 a8 	lwz     r0,18344(r11)
 18033b4:	7f 89 00 00 	cmpw    cr7,r9,r0
 18033b8:	40 9e 00 7c 	bne-    cr7,1803434 <output+0x1dc>
 18033bc:	3c 00 01 83 	lis     r0,387
 18033c0:	33 c0 20 58 	addic   r30,r0,8280
 18033c4:	3c 00 01 82 	lis     r0,386
 18033c8:	7c 09 03 78 	mr      r9,r0
 18033cc:	83 a9 46 54 	lwz     r29,18004(r9)
 18033d0:	3c 00 01 82 	lis     r0,386
 18033d4:	7c 0b 03 78 	mr      r11,r0
 18033d8:	80 0b 46 48 	lwz     r0,17992(r11)
 18033dc:	7d 20 ea 14 	add     r9,r0,r29
 18033e0:	3c 00 01 82 	lis     r0,386
 18033e4:	7c 0b 03 78 	mr      r11,r0
 18033e8:	91 2b 46 48 	stw     r9,17992(r11)
 18033ec:	88 1e 00 00 	lbz     r0,0(r30)
 18033f0:	54 00 06 3e 	clrlwi  r0,r0,24
 18033f4:	3b de 00 01 	addi    r30,r30,1
 18033f8:	7c 03 03 78 	mr      r3,r0
 18033fc:	4b ff fd 81 	bl      180317c <putbyte>
 1803400:	3b bd ff ff 	addi    r29,r29,-1
 1803404:	2f 9d 00 00 	cmpwi   cr7,r29,0
 1803408:	41 9e 00 1c 	beq-    cr7,1803424 <output+0x1cc>
 180340c:	7f c9 f3 78 	mr      r9,r30
 1803410:	3c 00 01 83 	lis     r0,387
 1803414:	30 00 20 58 	addic   r0,r0,8280
 1803418:	7c 00 48 50 	subf    r0,r0,r9
 180341c:	2f 80 00 0f 	cmpwi   cr7,r0,15
 1803420:	40 9d ff cc 	ble+    cr7,18033ec <output+0x194>
 1803424:	3c 00 01 82 	lis     r0,386
 1803428:	39 20 00 00 	li      r9,0
 180342c:	7c 0b 03 78 	mr      r11,r0
 1803430:	91 2b 47 a8 	stw     r9,18344(r11)
 1803434:	3c 00 01 82 	lis     r0,386
 1803438:	7c 0b 03 78 	mr      r11,r0
 180343c:	81 2b 44 98 	lwz     r9,17560(r11)
 1803440:	3c 00 01 82 	lis     r0,386
 1803444:	7c 0b 03 78 	mr      r11,r0
 1803448:	80 0b 46 e0 	lwz     r0,18144(r11)
 180344c:	7f 89 00 00 	cmpw    cr7,r9,r0
 1803450:	41 9d 00 18 	bgt-    cr7,1803468 <output+0x210>
 1803454:	3c 00 01 82 	lis     r0,386
 1803458:	7c 09 03 78 	mr      r9,r0
 180345c:	80 09 44 a4 	lwz     r0,17572(r9)
 1803460:	2f 80 00 00 	cmpwi   cr7,r0,0
 1803464:	40 9d 01 cc 	ble-    cr7,1803630 <output+0x3d8>
 1803468:	3c 00 01 82 	lis     r0,386
 180346c:	7c 0b 03 78 	mr      r11,r0
 1803470:	80 0b 47 a8 	lwz     r0,18344(r11)
 1803474:	2f 80 00 00 	cmpwi   cr7,r0,0
 1803478:	40 9d 00 48 	ble-    cr7,18034c0 <output+0x268>
 180347c:	3c 00 01 82 	lis     r0,386
 1803480:	7c 09 03 78 	mr      r9,r0
 1803484:	80 09 46 54 	lwz     r0,18004(r9)
 1803488:	3d 20 01 83 	lis     r9,387
 180348c:	38 69 20 58 	addi    r3,r9,8280
 1803490:	7c 04 03 78 	mr      r4,r0
 1803494:	4b ff fd 35 	bl      18031c8 <writebytes>
 1803498:	3c 00 01 82 	lis     r0,386
 180349c:	7c 0b 03 78 	mr      r11,r0
 18034a0:	81 2b 46 48 	lwz     r9,17992(r11)
 18034a4:	3c 00 01 82 	lis     r0,386
 18034a8:	7c 0b 03 78 	mr      r11,r0
 18034ac:	80 0b 46 54 	lwz     r0,18004(r11)
 18034b0:	7d 29 02 14 	add     r9,r9,r0
 18034b4:	3c 00 01 82 	lis     r0,386
 18034b8:	7c 0b 03 78 	mr      r11,r0
 18034bc:	91 2b 46 48 	stw     r9,17992(r11)
 18034c0:	3c 00 01 82 	lis     r0,386
 18034c4:	39 20 00 00 	li      r9,0
 18034c8:	7c 0b 03 78 	mr      r11,r0
 18034cc:	91 2b 47 a8 	stw     r9,18344(r11)
 18034d0:	3c 00 01 82 	lis     r0,386
 18034d4:	7c 09 03 78 	mr      r9,r0
 18034d8:	80 09 44 a4 	lwz     r0,17572(r9)
 18034dc:	2f 80 00 00 	cmpwi   cr7,r0,0
 18034e0:	41 9e 00 4c 	beq-    cr7,180352c <output+0x2d4>
 18034e4:	3c 00 01 82 	lis     r0,386
 18034e8:	39 20 00 09 	li      r9,9
 18034ec:	7c 0b 03 78 	mr      r11,r0
 18034f0:	91 2b 46 54 	stw     r9,18004(r11)
 18034f4:	3c 00 01 82 	lis     r0,386
 18034f8:	7c 09 03 78 	mr      r9,r0
 18034fc:	80 09 46 54 	lwz     r0,18004(r9)
 1803500:	39 20 00 01 	li      r9,1
 1803504:	7d 20 00 30 	slw     r0,r9,r0
 1803508:	31 20 ff ff 	addic   r9,r0,-1
 180350c:	3c 00 01 82 	lis     r0,386
 1803510:	7c 0b 03 78 	mr      r11,r0
 1803514:	91 2b 46 e0 	stw     r9,18144(r11)
 1803518:	3c 00 01 82 	lis     r0,386
 180351c:	39 20 00 00 	li      r9,0
 1803520:	7c 0b 03 78 	mr      r11,r0
 1803524:	91 2b 44 a4 	stw     r9,17572(r11)
 1803528:	48 00 01 0c 	b       1803634 <output+0x3dc>
 180352c:	3c 00 01 82 	lis     r0,386
 1803530:	7c 09 03 78 	mr      r9,r0
 1803534:	80 09 46 54 	lwz     r0,18004(r9)
 1803538:	31 20 00 01 	addic   r9,r0,1
 180353c:	3c 00 01 82 	lis     r0,386
 1803540:	7c 0b 03 78 	mr      r11,r0
 1803544:	91 2b 46 54 	stw     r9,18004(r11)
 1803548:	3c 00 01 82 	lis     r0,386
 180354c:	7c 0b 03 78 	mr      r11,r0
 1803550:	81 2b 46 54 	lwz     r9,18004(r11)
 1803554:	3c 00 01 82 	lis     r0,386
 1803558:	7c 0b 03 78 	mr      r11,r0
 180355c:	80 0b 44 68 	lwz     r0,17512(r11)
 1803560:	7f 89 00 00 	cmpw    cr7,r9,r0
 1803564:	40 9e 00 20 	bne-    cr7,1803584 <output+0x32c>
 1803568:	3c 00 01 82 	lis     r0,386
 180356c:	7c 0b 03 78 	mr      r11,r0
 1803570:	81 2b 44 6c 	lwz     r9,17516(r11)
 1803574:	3c 00 01 82 	lis     r0,386
 1803578:	7c 0b 03 78 	mr      r11,r0
 180357c:	91 2b 46 e0 	stw     r9,18144(r11)
 1803580:	48 00 00 b4 	b       1803634 <output+0x3dc>
 1803584:	3c 00 01 82 	lis     r0,386
 1803588:	7c 09 03 78 	mr      r9,r0
 180358c:	80 09 46 54 	lwz     r0,18004(r9)
 1803590:	39 20 00 01 	li      r9,1
 1803594:	7d 20 00 30 	slw     r0,r9,r0
 1803598:	31 20 ff ff 	addic   r9,r0,-1
 180359c:	3c 00 01 82 	lis     r0,386
 18035a0:	7c 0b 03 78 	mr      r11,r0
 18035a4:	91 2b 46 e0 	stw     r9,18144(r11)
 18035a8:	48 00 00 8c 	b       1803634 <output+0x3dc>
 18035ac:	3c 00 01 82 	lis     r0,386
 18035b0:	7c 09 03 78 	mr      r9,r0
 18035b4:	80 09 47 a8 	lwz     r0,18344(r9)
 18035b8:	2f 80 00 00 	cmpwi   cr7,r0,0
 18035bc:	40 9d 00 2c 	ble-    cr7,18035e8 <output+0x390>
 18035c0:	3c 00 01 82 	lis     r0,386
 18035c4:	7c 0b 03 78 	mr      r11,r0
 18035c8:	80 0b 47 a8 	lwz     r0,18344(r11)
 18035cc:	30 00 00 07 	addic   r0,r0,7
 18035d0:	7c 00 1e 70 	srawi   r0,r0,3
 18035d4:	7c 00 01 94 	addze   r0,r0
 18035d8:	3d 20 01 83 	lis     r9,387
 18035dc:	38 69 20 58 	addi    r3,r9,8280
 18035e0:	7c 04 03 78 	mr      r4,r0
 18035e4:	4b ff fb e5 	bl      18031c8 <writebytes>
 18035e8:	3c 00 01 82 	lis     r0,386
 18035ec:	7c 09 03 78 	mr      r9,r0
 18035f0:	80 09 47 a8 	lwz     r0,18344(r9)
 18035f4:	30 00 00 07 	addic   r0,r0,7
 18035f8:	7c 09 1e 70 	srawi   r9,r0,3
 18035fc:	7d 29 01 94 	addze   r9,r9
 1803600:	3c 00 01 82 	lis     r0,386
 1803604:	7c 0b 03 78 	mr      r11,r0
 1803608:	80 0b 46 48 	lwz     r0,17992(r11)
 180360c:	7d 29 02 14 	add     r9,r9,r0
 1803610:	3c 00 01 82 	lis     r0,386
 1803614:	7c 0b 03 78 	mr      r11,r0
 1803618:	91 2b 46 48 	stw     r9,17992(r11)
 180361c:	3c 00 01 82 	lis     r0,386
 1803620:	39 20 00 00 	li      r9,0
 1803624:	7c 0b 03 78 	mr      r11,r0
 1803628:	91 2b 47 a8 	stw     r9,18344(r11)
 180362c:	48 00 00 08 	b       1803634 <output+0x3dc>
 1803630:	60 00 00 00 	nop
 1803634:	39 7f 00 20 	addi    r11,r31,32
 1803638:	80 0b 00 04 	lwz     r0,4(r11)
 180363c:	7c 08 03 a6 	mtlr    r0
 1803640:	83 8b ff f0 	lwz     r28,-16(r11)
 1803644:	83 ab ff f4 	lwz     r29,-12(r11)
 1803648:	83 cb ff f8 	lwz     r30,-8(r11)
 180364c:	83 eb ff fc 	lwz     r31,-4(r11)
 1803650:	7d 61 5b 78 	mr      r1,r11
 1803654:	4e 80 00 20 	blr

01803658 <swi120>:
 1803658:	94 21 ff d8 	stwu    r1,-40(r1)
 180365c:	93 e1 00 24 	stw     r31,36(r1)
 1803660:	7c 3f 0b 78 	mr      r31,r1
 1803664:	90 7f 00 18 	stw     r3,24(r31)
 1803668:	38 00 00 00 	li      r0,0
 180366c:	90 1f 00 08 	stw     r0,8(r31)
 1803670:	48 00 07 d8 	b       1803e48 <swi120+0x7f0>
 1803674:	80 1f 00 08 	lwz     r0,8(r31)
 1803678:	2b 80 00 77 	cmplwi  cr7,r0,119
 180367c:	41 9d 07 b4 	bgt-    cr7,1803e30 <swi120+0x7d8>
 1803680:	80 1f 00 08 	lwz     r0,8(r31)
 1803684:	54 09 10 3a 	rlwinm  r9,r0,2,0,29
 1803688:	3c 00 01 82 	lis     r0,386
 180368c:	30 00 f3 78 	addic   r0,r0,-3208
 1803690:	7c 09 02 14 	add     r0,r9,r0
 1803694:	7c 0b 03 78 	mr      r11,r0
 1803698:	81 2b 00 00 	lwz     r9,0(r11)
 180369c:	3c 00 01 82 	lis     r0,386
 18036a0:	30 00 f3 78 	addic   r0,r0,-3208
 18036a4:	7c 09 02 14 	add     r0,r9,r0
 18036a8:	7c 09 03 a6 	mtctr   r0
 18036ac:	4e 80 04 20 	bctr
 18036b0:	80 1f 00 18 	lwz     r0,24(r31)
 18036b4:	30 00 00 01 	addic   r0,r0,1
 18036b8:	90 1f 00 18 	stw     r0,24(r31)
 18036bc:	48 00 07 80 	b       1803e3c <swi120+0x7e4>
 18036c0:	80 1f 00 18 	lwz     r0,24(r31)
 18036c4:	30 00 00 01 	addic   r0,r0,1
 18036c8:	90 1f 00 18 	stw     r0,24(r31)
 18036cc:	48 00 07 70 	b       1803e3c <swi120+0x7e4>
 18036d0:	80 1f 00 18 	lwz     r0,24(r31)
 18036d4:	30 00 00 01 	addic   r0,r0,1
 18036d8:	90 1f 00 18 	stw     r0,24(r31)
 18036dc:	48 00 07 60 	b       1803e3c <swi120+0x7e4>
 18036e0:	80 1f 00 18 	lwz     r0,24(r31)
 18036e4:	30 00 00 01 	addic   r0,r0,1
 18036e8:	90 1f 00 18 	stw     r0,24(r31)
 18036ec:	48 00 07 50 	b       1803e3c <swi120+0x7e4>
 18036f0:	80 1f 00 18 	lwz     r0,24(r31)
 18036f4:	30 00 00 01 	addic   r0,r0,1
 18036f8:	90 1f 00 18 	stw     r0,24(r31)
 18036fc:	48 00 07 40 	b       1803e3c <swi120+0x7e4>
 1803700:	80 1f 00 18 	lwz     r0,24(r31)
 1803704:	30 00 00 01 	addic   r0,r0,1
 1803708:	90 1f 00 18 	stw     r0,24(r31)
 180370c:	48 00 07 30 	b       1803e3c <swi120+0x7e4>
 1803710:	80 1f 00 18 	lwz     r0,24(r31)
 1803714:	30 00 00 01 	addic   r0,r0,1
 1803718:	90 1f 00 18 	stw     r0,24(r31)
 180371c:	48 00 07 20 	b       1803e3c <swi120+0x7e4>
 1803720:	80 1f 00 18 	lwz     r0,24(r31)
 1803724:	30 00 00 01 	addic   r0,r0,1
 1803728:	90 1f 00 18 	stw     r0,24(r31)
 180372c:	48 00 07 10 	b       1803e3c <swi120+0x7e4>
 1803730:	80 1f 00 18 	lwz     r0,24(r31)
 1803734:	30 00 00 01 	addic   r0,r0,1
 1803738:	90 1f 00 18 	stw     r0,24(r31)
 180373c:	48 00 07 00 	b       1803e3c <swi120+0x7e4>
 1803740:	80 1f 00 18 	lwz     r0,24(r31)
 1803744:	30 00 00 01 	addic   r0,r0,1
 1803748:	90 1f 00 18 	stw     r0,24(r31)
 180374c:	48 00 06 f0 	b       1803e3c <swi120+0x7e4>
 1803750:	80 1f 00 18 	lwz     r0,24(r31)
 1803754:	30 00 00 01 	addic   r0,r0,1
 1803758:	90 1f 00 18 	stw     r0,24(r31)
 180375c:	48 00 06 e0 	b       1803e3c <swi120+0x7e4>
 1803760:	80 1f 00 18 	lwz     r0,24(r31)
 1803764:	30 00 00 01 	addic   r0,r0,1
 1803768:	90 1f 00 18 	stw     r0,24(r31)
 180376c:	48 00 06 d0 	b       1803e3c <swi120+0x7e4>
 1803770:	80 1f 00 18 	lwz     r0,24(r31)
 1803774:	30 00 00 01 	addic   r0,r0,1
 1803778:	90 1f 00 18 	stw     r0,24(r31)
 180377c:	48 00 06 c0 	b       1803e3c <swi120+0x7e4>
 1803780:	80 1f 00 18 	lwz     r0,24(r31)
 1803784:	30 00 00 01 	addic   r0,r0,1
 1803788:	90 1f 00 18 	stw     r0,24(r31)
 180378c:	48 00 06 b0 	b       1803e3c <swi120+0x7e4>
 1803790:	80 1f 00 18 	lwz     r0,24(r31)
 1803794:	30 00 00 01 	addic   r0,r0,1
 1803798:	90 1f 00 18 	stw     r0,24(r31)
 180379c:	48 00 06 a0 	b       1803e3c <swi120+0x7e4>
 18037a0:	80 1f 00 18 	lwz     r0,24(r31)
 18037a4:	30 00 00 01 	addic   r0,r0,1
 18037a8:	90 1f 00 18 	stw     r0,24(r31)
 18037ac:	48 00 06 90 	b       1803e3c <swi120+0x7e4>
 18037b0:	80 1f 00 18 	lwz     r0,24(r31)
 18037b4:	30 00 00 01 	addic   r0,r0,1
 18037b8:	90 1f 00 18 	stw     r0,24(r31)
 18037bc:	48 00 06 80 	b       1803e3c <swi120+0x7e4>
 18037c0:	80 1f 00 18 	lwz     r0,24(r31)
 18037c4:	30 00 00 01 	addic   r0,r0,1
 18037c8:	90 1f 00 18 	stw     r0,24(r31)
 18037cc:	48 00 06 70 	b       1803e3c <swi120+0x7e4>
 18037d0:	80 1f 00 18 	lwz     r0,24(r31)
 18037d4:	30 00 00 01 	addic   r0,r0,1
 18037d8:	90 1f 00 18 	stw     r0,24(r31)
 18037dc:	48 00 06 60 	b       1803e3c <swi120+0x7e4>
 18037e0:	80 1f 00 18 	lwz     r0,24(r31)
 18037e4:	30 00 00 01 	addic   r0,r0,1
 18037e8:	90 1f 00 18 	stw     r0,24(r31)
 18037ec:	48 00 06 50 	b       1803e3c <swi120+0x7e4>
 18037f0:	80 1f 00 18 	lwz     r0,24(r31)
 18037f4:	30 00 00 01 	addic   r0,r0,1
 18037f8:	90 1f 00 18 	stw     r0,24(r31)
 18037fc:	48 00 06 40 	b       1803e3c <swi120+0x7e4>
 1803800:	80 1f 00 18 	lwz     r0,24(r31)
 1803804:	30 00 00 01 	addic   r0,r0,1
 1803808:	90 1f 00 18 	stw     r0,24(r31)
 180380c:	48 00 06 30 	b       1803e3c <swi120+0x7e4>
 1803810:	80 1f 00 18 	lwz     r0,24(r31)
 1803814:	30 00 00 01 	addic   r0,r0,1
 1803818:	90 1f 00 18 	stw     r0,24(r31)
 180381c:	48 00 06 20 	b       1803e3c <swi120+0x7e4>
 1803820:	80 1f 00 18 	lwz     r0,24(r31)
 1803824:	30 00 00 01 	addic   r0,r0,1
 1803828:	90 1f 00 18 	stw     r0,24(r31)
 180382c:	48 00 06 10 	b       1803e3c <swi120+0x7e4>
 1803830:	80 1f 00 18 	lwz     r0,24(r31)
 1803834:	30 00 00 01 	addic   r0,r0,1
 1803838:	90 1f 00 18 	stw     r0,24(r31)
 180383c:	48 00 06 00 	b       1803e3c <swi120+0x7e4>
 1803840:	80 1f 00 18 	lwz     r0,24(r31)
 1803844:	30 00 00 01 	addic   r0,r0,1
 1803848:	90 1f 00 18 	stw     r0,24(r31)
 180384c:	48 00 05 f0 	b       1803e3c <swi120+0x7e4>
 1803850:	80 1f 00 18 	lwz     r0,24(r31)
 1803854:	30 00 00 01 	addic   r0,r0,1
 1803858:	90 1f 00 18 	stw     r0,24(r31)
 180385c:	48 00 05 e0 	b       1803e3c <swi120+0x7e4>
 1803860:	80 1f 00 18 	lwz     r0,24(r31)
 1803864:	30 00 00 01 	addic   r0,r0,1
 1803868:	90 1f 00 18 	stw     r0,24(r31)
 180386c:	48 00 05 d0 	b       1803e3c <swi120+0x7e4>
 1803870:	80 1f 00 18 	lwz     r0,24(r31)
 1803874:	30 00 00 01 	addic   r0,r0,1
 1803878:	90 1f 00 18 	stw     r0,24(r31)
 180387c:	48 00 05 c0 	b       1803e3c <swi120+0x7e4>
 1803880:	80 1f 00 18 	lwz     r0,24(r31)
 1803884:	30 00 00 01 	addic   r0,r0,1
 1803888:	90 1f 00 18 	stw     r0,24(r31)
 180388c:	48 00 05 b0 	b       1803e3c <swi120+0x7e4>
 1803890:	80 1f 00 18 	lwz     r0,24(r31)
 1803894:	30 00 00 01 	addic   r0,r0,1
 1803898:	90 1f 00 18 	stw     r0,24(r31)
 180389c:	48 00 05 a0 	b       1803e3c <swi120+0x7e4>
 18038a0:	80 1f 00 18 	lwz     r0,24(r31)
 18038a4:	30 00 00 01 	addic   r0,r0,1
 18038a8:	90 1f 00 18 	stw     r0,24(r31)
 18038ac:	48 00 05 90 	b       1803e3c <swi120+0x7e4>
 18038b0:	80 1f 00 18 	lwz     r0,24(r31)
 18038b4:	30 00 00 01 	addic   r0,r0,1
 18038b8:	90 1f 00 18 	stw     r0,24(r31)
 18038bc:	48 00 05 80 	b       1803e3c <swi120+0x7e4>
 18038c0:	80 1f 00 18 	lwz     r0,24(r31)
 18038c4:	30 00 00 01 	addic   r0,r0,1
 18038c8:	90 1f 00 18 	stw     r0,24(r31)
 18038cc:	48 00 05 70 	b       1803e3c <swi120+0x7e4>
 18038d0:	80 1f 00 18 	lwz     r0,24(r31)
 18038d4:	30 00 00 01 	addic   r0,r0,1
 18038d8:	90 1f 00 18 	stw     r0,24(r31)
 18038dc:	48 00 05 60 	b       1803e3c <swi120+0x7e4>
 18038e0:	80 1f 00 18 	lwz     r0,24(r31)
 18038e4:	30 00 00 01 	addic   r0,r0,1
 18038e8:	90 1f 00 18 	stw     r0,24(r31)
 18038ec:	48 00 05 50 	b       1803e3c <swi120+0x7e4>
 18038f0:	80 1f 00 18 	lwz     r0,24(r31)
 18038f4:	30 00 00 01 	addic   r0,r0,1
 18038f8:	90 1f 00 18 	stw     r0,24(r31)
 18038fc:	48 00 05 40 	b       1803e3c <swi120+0x7e4>
 1803900:	80 1f 00 18 	lwz     r0,24(r31)
 1803904:	30 00 00 01 	addic   r0,r0,1
 1803908:	90 1f 00 18 	stw     r0,24(r31)
 180390c:	48 00 05 30 	b       1803e3c <swi120+0x7e4>
 1803910:	80 1f 00 18 	lwz     r0,24(r31)
 1803914:	30 00 00 01 	addic   r0,r0,1
 1803918:	90 1f 00 18 	stw     r0,24(r31)
 180391c:	48 00 05 20 	b       1803e3c <swi120+0x7e4>
 1803920:	80 1f 00 18 	lwz     r0,24(r31)
 1803924:	30 00 00 01 	addic   r0,r0,1
 1803928:	90 1f 00 18 	stw     r0,24(r31)
 180392c:	48 00 05 10 	b       1803e3c <swi120+0x7e4>
 1803930:	80 1f 00 18 	lwz     r0,24(r31)
 1803934:	30 00 00 01 	addic   r0,r0,1
 1803938:	90 1f 00 18 	stw     r0,24(r31)
 180393c:	48 00 05 00 	b       1803e3c <swi120+0x7e4>
 1803940:	80 1f 00 18 	lwz     r0,24(r31)
 1803944:	30 00 00 01 	addic   r0,r0,1
 1803948:	90 1f 00 18 	stw     r0,24(r31)
 180394c:	48 00 04 f0 	b       1803e3c <swi120+0x7e4>
 1803950:	80 1f 00 18 	lwz     r0,24(r31)
 1803954:	30 00 00 01 	addic   r0,r0,1
 1803958:	90 1f 00 18 	stw     r0,24(r31)
 180395c:	48 00 04 e0 	b       1803e3c <swi120+0x7e4>
 1803960:	80 1f 00 18 	lwz     r0,24(r31)
 1803964:	30 00 00 01 	addic   r0,r0,1
 1803968:	90 1f 00 18 	stw     r0,24(r31)
 180396c:	48 00 04 d0 	b       1803e3c <swi120+0x7e4>
 1803970:	80 1f 00 18 	lwz     r0,24(r31)
 1803974:	30 00 00 01 	addic   r0,r0,1
 1803978:	90 1f 00 18 	stw     r0,24(r31)
 180397c:	48 00 04 c0 	b       1803e3c <swi120+0x7e4>
 1803980:	80 1f 00 18 	lwz     r0,24(r31)
 1803984:	30 00 00 01 	addic   r0,r0,1
 1803988:	90 1f 00 18 	stw     r0,24(r31)
 180398c:	48 00 04 b0 	b       1803e3c <swi120+0x7e4>
 1803990:	80 1f 00 18 	lwz     r0,24(r31)
 1803994:	30 00 00 01 	addic   r0,r0,1
 1803998:	90 1f 00 18 	stw     r0,24(r31)
 180399c:	48 00 04 a0 	b       1803e3c <swi120+0x7e4>
 18039a0:	80 1f 00 18 	lwz     r0,24(r31)
 18039a4:	30 00 00 01 	addic   r0,r0,1
 18039a8:	90 1f 00 18 	stw     r0,24(r31)
 18039ac:	48 00 04 90 	b       1803e3c <swi120+0x7e4>
 18039b0:	80 1f 00 18 	lwz     r0,24(r31)
 18039b4:	30 00 00 01 	addic   r0,r0,1
 18039b8:	90 1f 00 18 	stw     r0,24(r31)
 18039bc:	48 00 04 80 	b       1803e3c <swi120+0x7e4>
 18039c0:	80 1f 00 18 	lwz     r0,24(r31)
 18039c4:	30 00 00 01 	addic   r0,r0,1
 18039c8:	90 1f 00 18 	stw     r0,24(r31)
 18039cc:	48 00 04 70 	b       1803e3c <swi120+0x7e4>
 18039d0:	80 1f 00 18 	lwz     r0,24(r31)
 18039d4:	30 00 00 01 	addic   r0,r0,1
 18039d8:	90 1f 00 18 	stw     r0,24(r31)
 18039dc:	48 00 04 60 	b       1803e3c <swi120+0x7e4>
 18039e0:	80 1f 00 18 	lwz     r0,24(r31)
 18039e4:	30 00 00 01 	addic   r0,r0,1
 18039e8:	90 1f 00 18 	stw     r0,24(r31)
 18039ec:	48 00 04 50 	b       1803e3c <swi120+0x7e4>
 18039f0:	80 1f 00 18 	lwz     r0,24(r31)
 18039f4:	30 00 00 01 	addic   r0,r0,1
 18039f8:	90 1f 00 18 	stw     r0,24(r31)
 18039fc:	48 00 04 40 	b       1803e3c <swi120+0x7e4>
 1803a00:	80 1f 00 18 	lwz     r0,24(r31)
 1803a04:	30 00 00 01 	addic   r0,r0,1
 1803a08:	90 1f 00 18 	stw     r0,24(r31)
 1803a0c:	48 00 04 30 	b       1803e3c <swi120+0x7e4>
 1803a10:	80 1f 00 18 	lwz     r0,24(r31)
 1803a14:	30 00 00 01 	addic   r0,r0,1
 1803a18:	90 1f 00 18 	stw     r0,24(r31)
 1803a1c:	48 00 04 20 	b       1803e3c <swi120+0x7e4>
 1803a20:	80 1f 00 18 	lwz     r0,24(r31)
 1803a24:	30 00 00 01 	addic   r0,r0,1
 1803a28:	90 1f 00 18 	stw     r0,24(r31)
 1803a2c:	48 00 04 10 	b       1803e3c <swi120+0x7e4>
 1803a30:	80 1f 00 18 	lwz     r0,24(r31)
 1803a34:	30 00 00 01 	addic   r0,r0,1
 1803a38:	90 1f 00 18 	stw     r0,24(r31)
 1803a3c:	48 00 04 00 	b       1803e3c <swi120+0x7e4>
 1803a40:	80 1f 00 18 	lwz     r0,24(r31)
 1803a44:	30 00 00 01 	addic   r0,r0,1
 1803a48:	90 1f 00 18 	stw     r0,24(r31)
 1803a4c:	48 00 03 f0 	b       1803e3c <swi120+0x7e4>
 1803a50:	80 1f 00 18 	lwz     r0,24(r31)
 1803a54:	30 00 00 01 	addic   r0,r0,1
 1803a58:	90 1f 00 18 	stw     r0,24(r31)
 1803a5c:	48 00 03 e0 	b       1803e3c <swi120+0x7e4>
 1803a60:	80 1f 00 18 	lwz     r0,24(r31)
 1803a64:	30 00 00 01 	addic   r0,r0,1
 1803a68:	90 1f 00 18 	stw     r0,24(r31)
 1803a6c:	48 00 03 d0 	b       1803e3c <swi120+0x7e4>
 1803a70:	80 1f 00 18 	lwz     r0,24(r31)
 1803a74:	30 00 00 01 	addic   r0,r0,1
 1803a78:	90 1f 00 18 	stw     r0,24(r31)
 1803a7c:	48 00 03 c0 	b       1803e3c <swi120+0x7e4>
 1803a80:	80 1f 00 18 	lwz     r0,24(r31)
 1803a84:	30 00 00 01 	addic   r0,r0,1
 1803a88:	90 1f 00 18 	stw     r0,24(r31)
 1803a8c:	48 00 03 b0 	b       1803e3c <swi120+0x7e4>
 1803a90:	80 1f 00 18 	lwz     r0,24(r31)
 1803a94:	30 00 00 01 	addic   r0,r0,1
 1803a98:	90 1f 00 18 	stw     r0,24(r31)
 1803a9c:	48 00 03 a0 	b       1803e3c <swi120+0x7e4>
 1803aa0:	80 1f 00 18 	lwz     r0,24(r31)
 1803aa4:	30 00 00 01 	addic   r0,r0,1
 1803aa8:	90 1f 00 18 	stw     r0,24(r31)
 1803aac:	48 00 03 90 	b       1803e3c <swi120+0x7e4>
 1803ab0:	80 1f 00 18 	lwz     r0,24(r31)
 1803ab4:	30 00 00 01 	addic   r0,r0,1
 1803ab8:	90 1f 00 18 	stw     r0,24(r31)
 1803abc:	48 00 03 80 	b       1803e3c <swi120+0x7e4>
 1803ac0:	80 1f 00 18 	lwz     r0,24(r31)
 1803ac4:	30 00 00 01 	addic   r0,r0,1
 1803ac8:	90 1f 00 18 	stw     r0,24(r31)
 1803acc:	48 00 03 70 	b       1803e3c <swi120+0x7e4>
 1803ad0:	80 1f 00 18 	lwz     r0,24(r31)
 1803ad4:	30 00 00 01 	addic   r0,r0,1
 1803ad8:	90 1f 00 18 	stw     r0,24(r31)
 1803adc:	48 00 03 60 	b       1803e3c <swi120+0x7e4>
 1803ae0:	80 1f 00 18 	lwz     r0,24(r31)
 1803ae4:	30 00 00 01 	addic   r0,r0,1
 1803ae8:	90 1f 00 18 	stw     r0,24(r31)
 1803aec:	48 00 03 50 	b       1803e3c <swi120+0x7e4>
 1803af0:	80 1f 00 18 	lwz     r0,24(r31)
 1803af4:	30 00 00 01 	addic   r0,r0,1
 1803af8:	90 1f 00 18 	stw     r0,24(r31)
 1803afc:	48 00 03 40 	b       1803e3c <swi120+0x7e4>
 1803b00:	80 1f 00 18 	lwz     r0,24(r31)
 1803b04:	30 00 00 01 	addic   r0,r0,1
 1803b08:	90 1f 00 18 	stw     r0,24(r31)
 1803b0c:	48 00 03 30 	b       1803e3c <swi120+0x7e4>
 1803b10:	80 1f 00 18 	lwz     r0,24(r31)
 1803b14:	30 00 00 01 	addic   r0,r0,1
 1803b18:	90 1f 00 18 	stw     r0,24(r31)
 1803b1c:	48 00 03 20 	b       1803e3c <swi120+0x7e4>
 1803b20:	80 1f 00 18 	lwz     r0,24(r31)
 1803b24:	30 00 00 01 	addic   r0,r0,1
 1803b28:	90 1f 00 18 	stw     r0,24(r31)
 1803b2c:	48 00 03 10 	b       1803e3c <swi120+0x7e4>
 1803b30:	80 1f 00 18 	lwz     r0,24(r31)
 1803b34:	30 00 00 01 	addic   r0,r0,1
 1803b38:	90 1f 00 18 	stw     r0,24(r31)
 1803b3c:	48 00 03 00 	b       1803e3c <swi120+0x7e4>
 1803b40:	80 1f 00 18 	lwz     r0,24(r31)
 1803b44:	30 00 00 01 	addic   r0,r0,1
 1803b48:	90 1f 00 18 	stw     r0,24(r31)
 1803b4c:	48 00 02 f0 	b       1803e3c <swi120+0x7e4>
 1803b50:	80 1f 00 18 	lwz     r0,24(r31)
 1803b54:	30 00 00 01 	addic   r0,r0,1
 1803b58:	90 1f 00 18 	stw     r0,24(r31)
 1803b5c:	48 00 02 e0 	b       1803e3c <swi120+0x7e4>
 1803b60:	80 1f 00 18 	lwz     r0,24(r31)
 1803b64:	30 00 00 01 	addic   r0,r0,1
 1803b68:	90 1f 00 18 	stw     r0,24(r31)
 1803b6c:	48 00 02 d0 	b       1803e3c <swi120+0x7e4>
 1803b70:	80 1f 00 18 	lwz     r0,24(r31)
 1803b74:	30 00 00 01 	addic   r0,r0,1
 1803b78:	90 1f 00 18 	stw     r0,24(r31)
 1803b7c:	48 00 02 c0 	b       1803e3c <swi120+0x7e4>
 1803b80:	80 1f 00 18 	lwz     r0,24(r31)
 1803b84:	30 00 00 01 	addic   r0,r0,1
 1803b88:	90 1f 00 18 	stw     r0,24(r31)
 1803b8c:	48 00 02 b0 	b       1803e3c <swi120+0x7e4>
 1803b90:	80 1f 00 18 	lwz     r0,24(r31)
 1803b94:	30 00 00 01 	addic   r0,r0,1
 1803b98:	90 1f 00 18 	stw     r0,24(r31)
 1803b9c:	48 00 02 a0 	b       1803e3c <swi120+0x7e4>
 1803ba0:	80 1f 00 18 	lwz     r0,24(r31)
 1803ba4:	30 00 00 01 	addic   r0,r0,1
 1803ba8:	90 1f 00 18 	stw     r0,24(r31)
 1803bac:	48 00 02 90 	b       1803e3c <swi120+0x7e4>
 1803bb0:	80 1f 00 18 	lwz     r0,24(r31)
 1803bb4:	30 00 00 01 	addic   r0,r0,1
 1803bb8:	90 1f 00 18 	stw     r0,24(r31)
 1803bbc:	48 00 02 80 	b       1803e3c <swi120+0x7e4>
 1803bc0:	80 1f 00 18 	lwz     r0,24(r31)
 1803bc4:	30 00 00 01 	addic   r0,r0,1
 1803bc8:	90 1f 00 18 	stw     r0,24(r31)
 1803bcc:	48 00 02 70 	b       1803e3c <swi120+0x7e4>
 1803bd0:	80 1f 00 18 	lwz     r0,24(r31)
 1803bd4:	30 00 00 01 	addic   r0,r0,1
 1803bd8:	90 1f 00 18 	stw     r0,24(r31)
 1803bdc:	48 00 02 60 	b       1803e3c <swi120+0x7e4>
 1803be0:	80 1f 00 18 	lwz     r0,24(r31)
 1803be4:	30 00 00 01 	addic   r0,r0,1
 1803be8:	90 1f 00 18 	stw     r0,24(r31)
 1803bec:	48 00 02 50 	b       1803e3c <swi120+0x7e4>
 1803bf0:	80 1f 00 18 	lwz     r0,24(r31)
 1803bf4:	30 00 00 01 	addic   r0,r0,1
 1803bf8:	90 1f 00 18 	stw     r0,24(r31)
 1803bfc:	48 00 02 40 	b       1803e3c <swi120+0x7e4>
 1803c00:	80 1f 00 18 	lwz     r0,24(r31)
 1803c04:	30 00 00 01 	addic   r0,r0,1
 1803c08:	90 1f 00 18 	stw     r0,24(r31)
 1803c0c:	48 00 02 30 	b       1803e3c <swi120+0x7e4>
 1803c10:	80 1f 00 18 	lwz     r0,24(r31)
 1803c14:	30 00 00 01 	addic   r0,r0,1
 1803c18:	90 1f 00 18 	stw     r0,24(r31)
 1803c1c:	48 00 02 20 	b       1803e3c <swi120+0x7e4>
 1803c20:	80 1f 00 18 	lwz     r0,24(r31)
 1803c24:	30 00 00 01 	addic   r0,r0,1
 1803c28:	90 1f 00 18 	stw     r0,24(r31)
 1803c2c:	48 00 02 10 	b       1803e3c <swi120+0x7e4>
 1803c30:	80 1f 00 18 	lwz     r0,24(r31)
 1803c34:	30 00 00 01 	addic   r0,r0,1
 1803c38:	90 1f 00 18 	stw     r0,24(r31)
 1803c3c:	48 00 02 00 	b       1803e3c <swi120+0x7e4>
 1803c40:	80 1f 00 18 	lwz     r0,24(r31)
 1803c44:	30 00 00 01 	addic   r0,r0,1
 1803c48:	90 1f 00 18 	stw     r0,24(r31)
 1803c4c:	48 00 01 f0 	b       1803e3c <swi120+0x7e4>
 1803c50:	80 1f 00 18 	lwz     r0,24(r31)
 1803c54:	30 00 00 01 	addic   r0,r0,1
 1803c58:	90 1f 00 18 	stw     r0,24(r31)
 1803c5c:	48 00 01 e0 	b       1803e3c <swi120+0x7e4>
 1803c60:	80 1f 00 18 	lwz     r0,24(r31)
 1803c64:	30 00 00 01 	addic   r0,r0,1
 1803c68:	90 1f 00 18 	stw     r0,24(r31)
 1803c6c:	48 00 01 d0 	b       1803e3c <swi120+0x7e4>
 1803c70:	80 1f 00 18 	lwz     r0,24(r31)
 1803c74:	30 00 00 01 	addic   r0,r0,1
 1803c78:	90 1f 00 18 	stw     r0,24(r31)
 1803c7c:	48 00 01 c0 	b       1803e3c <swi120+0x7e4>
 1803c80:	80 1f 00 18 	lwz     r0,24(r31)
 1803c84:	30 00 00 01 	addic   r0,r0,1
 1803c88:	90 1f 00 18 	stw     r0,24(r31)
 1803c8c:	48 00 01 b0 	b       1803e3c <swi120+0x7e4>
 1803c90:	80 1f 00 18 	lwz     r0,24(r31)
 1803c94:	30 00 00 01 	addic   r0,r0,1
 1803c98:	90 1f 00 18 	stw     r0,24(r31)
 1803c9c:	48 00 01 a0 	b       1803e3c <swi120+0x7e4>
 1803ca0:	80 1f 00 18 	lwz     r0,24(r31)
 1803ca4:	30 00 00 01 	addic   r0,r0,1
 1803ca8:	90 1f 00 18 	stw     r0,24(r31)
 1803cac:	48 00 01 90 	b       1803e3c <swi120+0x7e4>
 1803cb0:	80 1f 00 18 	lwz     r0,24(r31)
 1803cb4:	30 00 00 01 	addic   r0,r0,1
 1803cb8:	90 1f 00 18 	stw     r0,24(r31)
 1803cbc:	48 00 01 80 	b       1803e3c <swi120+0x7e4>
 1803cc0:	80 1f 00 18 	lwz     r0,24(r31)
 1803cc4:	30 00 00 01 	addic   r0,r0,1
 1803cc8:	90 1f 00 18 	stw     r0,24(r31)
 1803ccc:	48 00 01 70 	b       1803e3c <swi120+0x7e4>
 1803cd0:	80 1f 00 18 	lwz     r0,24(r31)
 1803cd4:	30 00 00 01 	addic   r0,r0,1
 1803cd8:	90 1f 00 18 	stw     r0,24(r31)
 1803cdc:	48 00 01 60 	b       1803e3c <swi120+0x7e4>
 1803ce0:	80 1f 00 18 	lwz     r0,24(r31)
 1803ce4:	30 00 00 01 	addic   r0,r0,1
 1803ce8:	90 1f 00 18 	stw     r0,24(r31)
 1803cec:	48 00 01 50 	b       1803e3c <swi120+0x7e4>
 1803cf0:	80 1f 00 18 	lwz     r0,24(r31)
 1803cf4:	30 00 00 01 	addic   r0,r0,1
 1803cf8:	90 1f 00 18 	stw     r0,24(r31)
 1803cfc:	48 00 01 40 	b       1803e3c <swi120+0x7e4>
 1803d00:	80 1f 00 18 	lwz     r0,24(r31)
 1803d04:	30 00 00 01 	addic   r0,r0,1
 1803d08:	90 1f 00 18 	stw     r0,24(r31)
 1803d0c:	48 00 01 30 	b       1803e3c <swi120+0x7e4>
 1803d10:	80 1f 00 18 	lwz     r0,24(r31)
 1803d14:	30 00 00 01 	addic   r0,r0,1
 1803d18:	90 1f 00 18 	stw     r0,24(r31)
 1803d1c:	48 00 01 20 	b       1803e3c <swi120+0x7e4>
 1803d20:	80 1f 00 18 	lwz     r0,24(r31)
 1803d24:	30 00 00 01 	addic   r0,r0,1
 1803d28:	90 1f 00 18 	stw     r0,24(r31)
 1803d2c:	48 00 01 10 	b       1803e3c <swi120+0x7e4>
 1803d30:	80 1f 00 18 	lwz     r0,24(r31)
 1803d34:	30 00 00 01 	addic   r0,r0,1
 1803d38:	90 1f 00 18 	stw     r0,24(r31)
 1803d3c:	48 00 01 00 	b       1803e3c <swi120+0x7e4>
 1803d40:	80 1f 00 18 	lwz     r0,24(r31)
 1803d44:	30 00 00 01 	addic   r0,r0,1
 1803d48:	90 1f 00 18 	stw     r0,24(r31)
 1803d4c:	48 00 00 f0 	b       1803e3c <swi120+0x7e4>
 1803d50:	80 1f 00 18 	lwz     r0,24(r31)
 1803d54:	30 00 00 01 	addic   r0,r0,1
 1803d58:	90 1f 00 18 	stw     r0,24(r31)
 1803d5c:	48 00 00 e0 	b       1803e3c <swi120+0x7e4>
 1803d60:	80 1f 00 18 	lwz     r0,24(r31)
 1803d64:	30 00 00 01 	addic   r0,r0,1
 1803d68:	90 1f 00 18 	stw     r0,24(r31)
 1803d6c:	48 00 00 d0 	b       1803e3c <swi120+0x7e4>
 1803d70:	80 1f 00 18 	lwz     r0,24(r31)
 1803d74:	30 00 00 01 	addic   r0,r0,1
 1803d78:	90 1f 00 18 	stw     r0,24(r31)
 1803d7c:	48 00 00 c0 	b       1803e3c <swi120+0x7e4>
 1803d80:	80 1f 00 18 	lwz     r0,24(r31)
 1803d84:	30 00 00 01 	addic   r0,r0,1
 1803d88:	90 1f 00 18 	stw     r0,24(r31)
 1803d8c:	48 00 00 b0 	b       1803e3c <swi120+0x7e4>
 1803d90:	80 1f 00 18 	lwz     r0,24(r31)
 1803d94:	30 00 00 01 	addic   r0,r0,1
 1803d98:	90 1f 00 18 	stw     r0,24(r31)
 1803d9c:	48 00 00 a0 	b       1803e3c <swi120+0x7e4>
 1803da0:	80 1f 00 18 	lwz     r0,24(r31)
 1803da4:	30 00 00 01 	addic   r0,r0,1
 1803da8:	90 1f 00 18 	stw     r0,24(r31)
 1803dac:	48 00 00 90 	b       1803e3c <swi120+0x7e4>
 1803db0:	80 1f 00 18 	lwz     r0,24(r31)
 1803db4:	30 00 00 01 	addic   r0,r0,1
 1803db8:	90 1f 00 18 	stw     r0,24(r31)
 1803dbc:	48 00 00 80 	b       1803e3c <swi120+0x7e4>
 1803dc0:	80 1f 00 18 	lwz     r0,24(r31)
 1803dc4:	30 00 00 01 	addic   r0,r0,1
 1803dc8:	90 1f 00 18 	stw     r0,24(r31)
 1803dcc:	48 00 00 70 	b       1803e3c <swi120+0x7e4>
 1803dd0:	80 1f 00 18 	lwz     r0,24(r31)
 1803dd4:	30 00 00 01 	addic   r0,r0,1
 1803dd8:	90 1f 00 18 	stw     r0,24(r31)
 1803ddc:	48 00 00 60 	b       1803e3c <swi120+0x7e4>
 1803de0:	80 1f 00 18 	lwz     r0,24(r31)
 1803de4:	30 00 00 01 	addic   r0,r0,1
 1803de8:	90 1f 00 18 	stw     r0,24(r31)
 1803dec:	48 00 00 50 	b       1803e3c <swi120+0x7e4>
 1803df0:	80 1f 00 18 	lwz     r0,24(r31)
 1803df4:	30 00 00 01 	addic   r0,r0,1
 1803df8:	90 1f 00 18 	stw     r0,24(r31)
 1803dfc:	48 00 00 40 	b       1803e3c <swi120+0x7e4>
 1803e00:	80 1f 00 18 	lwz     r0,24(r31)
 1803e04:	30 00 00 01 	addic   r0,r0,1
 1803e08:	90 1f 00 18 	stw     r0,24(r31)
 1803e0c:	48 00 00 30 	b       1803e3c <swi120+0x7e4>
 1803e10:	80 1f 00 18 	lwz     r0,24(r31)
 1803e14:	30 00 00 01 	addic   r0,r0,1
 1803e18:	90 1f 00 18 	stw     r0,24(r31)
 1803e1c:	48 00 00 20 	b       1803e3c <swi120+0x7e4>
 1803e20:	80 1f 00 18 	lwz     r0,24(r31)
 1803e24:	30 00 00 01 	addic   r0,r0,1
 1803e28:	90 1f 00 18 	stw     r0,24(r31)
 1803e2c:	48 00 00 10 	b       1803e3c <swi120+0x7e4>
 1803e30:	80 1f 00 18 	lwz     r0,24(r31)
 1803e34:	30 00 ff ff 	addic   r0,r0,-1
 1803e38:	90 1f 00 18 	stw     r0,24(r31)
 1803e3c:	80 1f 00 08 	lwz     r0,8(r31)
 1803e40:	30 00 00 01 	addic   r0,r0,1
 1803e44:	90 1f 00 08 	stw     r0,8(r31)
 1803e48:	80 1f 00 08 	lwz     r0,8(r31)
 1803e4c:	2f 80 00 77 	cmpwi   cr7,r0,119
 1803e50:	40 9d f8 24 	ble+    cr7,1803674 <swi120+0x1c>
 1803e54:	80 1f 00 18 	lwz     r0,24(r31)
 1803e58:	7c 03 03 78 	mr      r3,r0
 1803e5c:	39 7f 00 28 	addi    r11,r31,40
 1803e60:	83 eb ff fc 	lwz     r31,-4(r11)
 1803e64:	7d 61 5b 78 	mr      r1,r11
 1803e68:	4e 80 00 20 	blr

01803e6c <swi50>:
 1803e6c:	94 21 ff d8 	stwu    r1,-40(r1)
 1803e70:	93 e1 00 24 	stw     r31,36(r1)
 1803e74:	7c 3f 0b 78 	mr      r31,r1
 1803e78:	90 7f 00 18 	stw     r3,24(r31)
 1803e7c:	38 00 00 00 	li      r0,0
 1803e80:	90 1f 00 08 	stw     r0,8(r31)
 1803e84:	48 00 04 18 	b       180429c <swi50+0x430>
 1803e88:	80 1f 00 08 	lwz     r0,8(r31)
 1803e8c:	2b 80 00 3b 	cmplwi  cr7,r0,59
 1803e90:	41 9d 03 f4 	bgt-    cr7,1804284 <swi50+0x418>
 1803e94:	80 1f 00 08 	lwz     r0,8(r31)
 1803e98:	54 09 10 3a 	rlwinm  r9,r0,2,0,29
 1803e9c:	3c 00 01 82 	lis     r0,386
 1803ea0:	30 00 f5 58 	addic   r0,r0,-2728
 1803ea4:	7c 09 02 14 	add     r0,r9,r0
 1803ea8:	7c 0b 03 78 	mr      r11,r0
 1803eac:	81 2b 00 00 	lwz     r9,0(r11)
 1803eb0:	3c 00 01 82 	lis     r0,386
 1803eb4:	30 00 f5 58 	addic   r0,r0,-2728
 1803eb8:	7c 09 02 14 	add     r0,r9,r0
 1803ebc:	7c 09 03 a6 	mtctr   r0
 1803ec0:	4e 80 04 20 	bctr
 1803ec4:	80 1f 00 18 	lwz     r0,24(r31)
 1803ec8:	30 00 00 01 	addic   r0,r0,1
 1803ecc:	90 1f 00 18 	stw     r0,24(r31)
 1803ed0:	48 00 03 c0 	b       1804290 <swi50+0x424>
 1803ed4:	80 1f 00 18 	lwz     r0,24(r31)
 1803ed8:	30 00 00 01 	addic   r0,r0,1
 1803edc:	90 1f 00 18 	stw     r0,24(r31)
 1803ee0:	48 00 03 b0 	b       1804290 <swi50+0x424>
 1803ee4:	80 1f 00 18 	lwz     r0,24(r31)
 1803ee8:	30 00 00 01 	addic   r0,r0,1
 1803eec:	90 1f 00 18 	stw     r0,24(r31)
 1803ef0:	48 00 03 a0 	b       1804290 <swi50+0x424>
 1803ef4:	80 1f 00 18 	lwz     r0,24(r31)
 1803ef8:	30 00 00 01 	addic   r0,r0,1
 1803efc:	90 1f 00 18 	stw     r0,24(r31)
 1803f00:	48 00 03 90 	b       1804290 <swi50+0x424>
 1803f04:	80 1f 00 18 	lwz     r0,24(r31)
 1803f08:	30 00 00 01 	addic   r0,r0,1
 1803f0c:	90 1f 00 18 	stw     r0,24(r31)
 1803f10:	48 00 03 80 	b       1804290 <swi50+0x424>
 1803f14:	80 1f 00 18 	lwz     r0,24(r31)
 1803f18:	30 00 00 01 	addic   r0,r0,1
 1803f1c:	90 1f 00 18 	stw     r0,24(r31)
 1803f20:	48 00 03 70 	b       1804290 <swi50+0x424>
 1803f24:	80 1f 00 18 	lwz     r0,24(r31)
 1803f28:	30 00 00 01 	addic   r0,r0,1
 1803f2c:	90 1f 00 18 	stw     r0,24(r31)
 1803f30:	48 00 03 60 	b       1804290 <swi50+0x424>
 1803f34:	80 1f 00 18 	lwz     r0,24(r31)
 1803f38:	30 00 00 01 	addic   r0,r0,1
 1803f3c:	90 1f 00 18 	stw     r0,24(r31)
 1803f40:	48 00 03 50 	b       1804290 <swi50+0x424>
 1803f44:	80 1f 00 18 	lwz     r0,24(r31)
 1803f48:	30 00 00 01 	addic   r0,r0,1
 1803f4c:	90 1f 00 18 	stw     r0,24(r31)
 1803f50:	48 00 03 40 	b       1804290 <swi50+0x424>
 1803f54:	80 1f 00 18 	lwz     r0,24(r31)
 1803f58:	30 00 00 01 	addic   r0,r0,1
 1803f5c:	90 1f 00 18 	stw     r0,24(r31)
 1803f60:	48 00 03 30 	b       1804290 <swi50+0x424>
 1803f64:	80 1f 00 18 	lwz     r0,24(r31)
 1803f68:	30 00 00 01 	addic   r0,r0,1
 1803f6c:	90 1f 00 18 	stw     r0,24(r31)
 1803f70:	48 00 03 20 	b       1804290 <swi50+0x424>
 1803f74:	80 1f 00 18 	lwz     r0,24(r31)
 1803f78:	30 00 00 01 	addic   r0,r0,1
 1803f7c:	90 1f 00 18 	stw     r0,24(r31)
 1803f80:	48 00 03 10 	b       1804290 <swi50+0x424>
 1803f84:	80 1f 00 18 	lwz     r0,24(r31)
 1803f88:	30 00 00 01 	addic   r0,r0,1
 1803f8c:	90 1f 00 18 	stw     r0,24(r31)
 1803f90:	48 00 03 00 	b       1804290 <swi50+0x424>
 1803f94:	80 1f 00 18 	lwz     r0,24(r31)
 1803f98:	30 00 00 01 	addic   r0,r0,1
 1803f9c:	90 1f 00 18 	stw     r0,24(r31)
 1803fa0:	48 00 02 f0 	b       1804290 <swi50+0x424>
 1803fa4:	80 1f 00 18 	lwz     r0,24(r31)
 1803fa8:	30 00 00 01 	addic   r0,r0,1
 1803fac:	90 1f 00 18 	stw     r0,24(r31)
 1803fb0:	48 00 02 e0 	b       1804290 <swi50+0x424>
 1803fb4:	80 1f 00 18 	lwz     r0,24(r31)
 1803fb8:	30 00 00 01 	addic   r0,r0,1
 1803fbc:	90 1f 00 18 	stw     r0,24(r31)
 1803fc0:	48 00 02 d0 	b       1804290 <swi50+0x424>
 1803fc4:	80 1f 00 18 	lwz     r0,24(r31)
 1803fc8:	30 00 00 01 	addic   r0,r0,1
 1803fcc:	90 1f 00 18 	stw     r0,24(r31)
 1803fd0:	48 00 02 c0 	b       1804290 <swi50+0x424>
 1803fd4:	80 1f 00 18 	lwz     r0,24(r31)
 1803fd8:	30 00 00 01 	addic   r0,r0,1
 1803fdc:	90 1f 00 18 	stw     r0,24(r31)
 1803fe0:	48 00 02 b0 	b       1804290 <swi50+0x424>
 1803fe4:	80 1f 00 18 	lwz     r0,24(r31)
 1803fe8:	30 00 00 01 	addic   r0,r0,1
 1803fec:	90 1f 00 18 	stw     r0,24(r31)
 1803ff0:	48 00 02 a0 	b       1804290 <swi50+0x424>
 1803ff4:	80 1f 00 18 	lwz     r0,24(r31)
 1803ff8:	30 00 00 01 	addic   r0,r0,1
 1803ffc:	90 1f 00 18 	stw     r0,24(r31)
 1804000:	48 00 02 90 	b       1804290 <swi50+0x424>
 1804004:	80 1f 00 18 	lwz     r0,24(r31)
 1804008:	30 00 00 01 	addic   r0,r0,1
 180400c:	90 1f 00 18 	stw     r0,24(r31)
 1804010:	48 00 02 80 	b       1804290 <swi50+0x424>
 1804014:	80 1f 00 18 	lwz     r0,24(r31)
 1804018:	30 00 00 01 	addic   r0,r0,1
 180401c:	90 1f 00 18 	stw     r0,24(r31)
 1804020:	48 00 02 70 	b       1804290 <swi50+0x424>
 1804024:	80 1f 00 18 	lwz     r0,24(r31)
 1804028:	30 00 00 01 	addic   r0,r0,1
 180402c:	90 1f 00 18 	stw     r0,24(r31)
 1804030:	48 00 02 60 	b       1804290 <swi50+0x424>
 1804034:	80 1f 00 18 	lwz     r0,24(r31)
 1804038:	30 00 00 01 	addic   r0,r0,1
 180403c:	90 1f 00 18 	stw     r0,24(r31)
 1804040:	48 00 02 50 	b       1804290 <swi50+0x424>
 1804044:	80 1f 00 18 	lwz     r0,24(r31)
 1804048:	30 00 00 01 	addic   r0,r0,1
 180404c:	90 1f 00 18 	stw     r0,24(r31)
 1804050:	48 00 02 40 	b       1804290 <swi50+0x424>
 1804054:	80 1f 00 18 	lwz     r0,24(r31)
 1804058:	30 00 00 01 	addic   r0,r0,1
 180405c:	90 1f 00 18 	stw     r0,24(r31)
 1804060:	48 00 02 30 	b       1804290 <swi50+0x424>
 1804064:	80 1f 00 18 	lwz     r0,24(r31)
 1804068:	30 00 00 01 	addic   r0,r0,1
 180406c:	90 1f 00 18 	stw     r0,24(r31)
 1804070:	48 00 02 20 	b       1804290 <swi50+0x424>
 1804074:	80 1f 00 18 	lwz     r0,24(r31)
 1804078:	30 00 00 01 	addic   r0,r0,1
 180407c:	90 1f 00 18 	stw     r0,24(r31)
 1804080:	48 00 02 10 	b       1804290 <swi50+0x424>
 1804084:	80 1f 00 18 	lwz     r0,24(r31)
 1804088:	30 00 00 01 	addic   r0,r0,1
 180408c:	90 1f 00 18 	stw     r0,24(r31)
 1804090:	48 00 02 00 	b       1804290 <swi50+0x424>
 1804094:	80 1f 00 18 	lwz     r0,24(r31)
 1804098:	30 00 00 01 	addic   r0,r0,1
 180409c:	90 1f 00 18 	stw     r0,24(r31)
 18040a0:	48 00 01 f0 	b       1804290 <swi50+0x424>
 18040a4:	80 1f 00 18 	lwz     r0,24(r31)
 18040a8:	30 00 00 01 	addic   r0,r0,1
 18040ac:	90 1f 00 18 	stw     r0,24(r31)
 18040b0:	48 00 01 e0 	b       1804290 <swi50+0x424>
 18040b4:	80 1f 00 18 	lwz     r0,24(r31)
 18040b8:	30 00 00 01 	addic   r0,r0,1
 18040bc:	90 1f 00 18 	stw     r0,24(r31)
 18040c0:	48 00 01 d0 	b       1804290 <swi50+0x424>
 18040c4:	80 1f 00 18 	lwz     r0,24(r31)
 18040c8:	30 00 00 01 	addic   r0,r0,1
 18040cc:	90 1f 00 18 	stw     r0,24(r31)
 18040d0:	48 00 01 c0 	b       1804290 <swi50+0x424>
 18040d4:	80 1f 00 18 	lwz     r0,24(r31)
 18040d8:	30 00 00 01 	addic   r0,r0,1
 18040dc:	90 1f 00 18 	stw     r0,24(r31)
 18040e0:	48 00 01 b0 	b       1804290 <swi50+0x424>
 18040e4:	80 1f 00 18 	lwz     r0,24(r31)
 18040e8:	30 00 00 01 	addic   r0,r0,1
 18040ec:	90 1f 00 18 	stw     r0,24(r31)
 18040f0:	48 00 01 a0 	b       1804290 <swi50+0x424>
 18040f4:	80 1f 00 18 	lwz     r0,24(r31)
 18040f8:	30 00 00 01 	addic   r0,r0,1
 18040fc:	90 1f 00 18 	stw     r0,24(r31)
 1804100:	48 00 01 90 	b       1804290 <swi50+0x424>
 1804104:	80 1f 00 18 	lwz     r0,24(r31)
 1804108:	30 00 00 01 	addic   r0,r0,1
 180410c:	90 1f 00 18 	stw     r0,24(r31)
 1804110:	48 00 01 80 	b       1804290 <swi50+0x424>
 1804114:	80 1f 00 18 	lwz     r0,24(r31)
 1804118:	30 00 00 01 	addic   r0,r0,1
 180411c:	90 1f 00 18 	stw     r0,24(r31)
 1804120:	48 00 01 70 	b       1804290 <swi50+0x424>
 1804124:	80 1f 00 18 	lwz     r0,24(r31)
 1804128:	30 00 00 01 	addic   r0,r0,1
 180412c:	90 1f 00 18 	stw     r0,24(r31)
 1804130:	48 00 01 60 	b       1804290 <swi50+0x424>
 1804134:	80 1f 00 18 	lwz     r0,24(r31)
 1804138:	30 00 00 01 	addic   r0,r0,1
 180413c:	90 1f 00 18 	stw     r0,24(r31)
 1804140:	48 00 01 50 	b       1804290 <swi50+0x424>
 1804144:	80 1f 00 18 	lwz     r0,24(r31)
 1804148:	30 00 00 01 	addic   r0,r0,1
 180414c:	90 1f 00 18 	stw     r0,24(r31)
 1804150:	48 00 01 40 	b       1804290 <swi50+0x424>
 1804154:	80 1f 00 18 	lwz     r0,24(r31)
 1804158:	30 00 00 01 	addic   r0,r0,1
 180415c:	90 1f 00 18 	stw     r0,24(r31)
 1804160:	48 00 01 30 	b       1804290 <swi50+0x424>
 1804164:	80 1f 00 18 	lwz     r0,24(r31)
 1804168:	30 00 00 01 	addic   r0,r0,1
 180416c:	90 1f 00 18 	stw     r0,24(r31)
 1804170:	48 00 01 20 	b       1804290 <swi50+0x424>
 1804174:	80 1f 00 18 	lwz     r0,24(r31)
 1804178:	30 00 00 01 	addic   r0,r0,1
 180417c:	90 1f 00 18 	stw     r0,24(r31)
 1804180:	48 00 01 10 	b       1804290 <swi50+0x424>
 1804184:	80 1f 00 18 	lwz     r0,24(r31)
 1804188:	30 00 00 01 	addic   r0,r0,1
 180418c:	90 1f 00 18 	stw     r0,24(r31)
 1804190:	48 00 01 00 	b       1804290 <swi50+0x424>
 1804194:	80 1f 00 18 	lwz     r0,24(r31)
 1804198:	30 00 00 01 	addic   r0,r0,1
 180419c:	90 1f 00 18 	stw     r0,24(r31)
 18041a0:	48 00 00 f0 	b       1804290 <swi50+0x424>
 18041a4:	80 1f 00 18 	lwz     r0,24(r31)
 18041a8:	30 00 00 01 	addic   r0,r0,1
 18041ac:	90 1f 00 18 	stw     r0,24(r31)
 18041b0:	48 00 00 e0 	b       1804290 <swi50+0x424>
 18041b4:	80 1f 00 18 	lwz     r0,24(r31)
 18041b8:	30 00 00 01 	addic   r0,r0,1
 18041bc:	90 1f 00 18 	stw     r0,24(r31)
 18041c0:	48 00 00 d0 	b       1804290 <swi50+0x424>
 18041c4:	80 1f 00 18 	lwz     r0,24(r31)
 18041c8:	30 00 00 01 	addic   r0,r0,1
 18041cc:	90 1f 00 18 	stw     r0,24(r31)
 18041d0:	48 00 00 c0 	b       1804290 <swi50+0x424>
 18041d4:	80 1f 00 18 	lwz     r0,24(r31)
 18041d8:	30 00 00 01 	addic   r0,r0,1
 18041dc:	90 1f 00 18 	stw     r0,24(r31)
 18041e0:	48 00 00 b0 	b       1804290 <swi50+0x424>
 18041e4:	80 1f 00 18 	lwz     r0,24(r31)
 18041e8:	30 00 00 01 	addic   r0,r0,1
 18041ec:	90 1f 00 18 	stw     r0,24(r31)
 18041f0:	48 00 00 a0 	b       1804290 <swi50+0x424>
 18041f4:	80 1f 00 18 	lwz     r0,24(r31)
 18041f8:	30 00 00 01 	addic   r0,r0,1
 18041fc:	90 1f 00 18 	stw     r0,24(r31)
 1804200:	48 00 00 90 	b       1804290 <swi50+0x424>
 1804204:	80 1f 00 18 	lwz     r0,24(r31)
 1804208:	30 00 00 01 	addic   r0,r0,1
 180420c:	90 1f 00 18 	stw     r0,24(r31)
 1804210:	48 00 00 80 	b       1804290 <swi50+0x424>
 1804214:	80 1f 00 18 	lwz     r0,24(r31)
 1804218:	30 00 00 01 	addic   r0,r0,1
 180421c:	90 1f 00 18 	stw     r0,24(r31)
 1804220:	48 00 00 70 	b       1804290 <swi50+0x424>
 1804224:	80 1f 00 18 	lwz     r0,24(r31)
 1804228:	30 00 00 01 	addic   r0,r0,1
 180422c:	90 1f 00 18 	stw     r0,24(r31)
 1804230:	48 00 00 60 	b       1804290 <swi50+0x424>
 1804234:	80 1f 00 18 	lwz     r0,24(r31)
 1804238:	30 00 00 01 	addic   r0,r0,1
 180423c:	90 1f 00 18 	stw     r0,24(r31)
 1804240:	48 00 00 50 	b       1804290 <swi50+0x424>
 1804244:	80 1f 00 18 	lwz     r0,24(r31)
 1804248:	30 00 00 01 	addic   r0,r0,1
 180424c:	90 1f 00 18 	stw     r0,24(r31)
 1804250:	48 00 00 40 	b       1804290 <swi50+0x424>
 1804254:	80 1f 00 18 	lwz     r0,24(r31)
 1804258:	30 00 00 01 	addic   r0,r0,1
 180425c:	90 1f 00 18 	stw     r0,24(r31)
 1804260:	48 00 00 30 	b       1804290 <swi50+0x424>
 1804264:	80 1f 00 18 	lwz     r0,24(r31)
 1804268:	30 00 00 01 	addic   r0,r0,1
 180426c:	90 1f 00 18 	stw     r0,24(r31)
 1804270:	48 00 00 20 	b       1804290 <swi50+0x424>
 1804274:	80 1f 00 18 	lwz     r0,24(r31)
 1804278:	30 00 00 01 	addic   r0,r0,1
 180427c:	90 1f 00 18 	stw     r0,24(r31)
 1804280:	48 00 00 10 	b       1804290 <swi50+0x424>
 1804284:	80 1f 00 18 	lwz     r0,24(r31)
 1804288:	30 00 ff ff 	addic   r0,r0,-1
 180428c:	90 1f 00 18 	stw     r0,24(r31)
 1804290:	80 1f 00 08 	lwz     r0,8(r31)
 1804294:	30 00 00 01 	addic   r0,r0,1
 1804298:	90 1f 00 08 	stw     r0,8(r31)
 180429c:	80 1f 00 08 	lwz     r0,8(r31)
 18042a0:	2f 80 00 31 	cmpwi   cr7,r0,49
 18042a4:	40 9d fb e4 	ble+    cr7,1803e88 <swi50+0x1c>
 18042a8:	80 1f 00 18 	lwz     r0,24(r31)
 18042ac:	7c 03 03 78 	mr      r3,r0
 18042b0:	39 7f 00 28 	addi    r11,r31,40
 18042b4:	83 eb ff fc 	lwz     r31,-4(r11)
 18042b8:	7d 61 5b 78 	mr      r1,r11
 18042bc:	4e 80 00 20 	blr

018042c0 <swi10>:
 18042c0:	94 21 ff d8 	stwu    r1,-40(r1)
 18042c4:	93 e1 00 24 	stw     r31,36(r1)
 18042c8:	7c 3f 0b 78 	mr      r31,r1
 18042cc:	90 7f 00 18 	stw     r3,24(r31)
 18042d0:	38 00 00 00 	li      r0,0
 18042d4:	90 1f 00 08 	stw     r0,8(r31)
 18042d8:	48 00 00 f8 	b       18043d0 <swi10+0x110>
 18042dc:	80 1f 00 08 	lwz     r0,8(r31)
 18042e0:	2b 80 00 09 	cmplwi  cr7,r0,9
 18042e4:	41 9d 00 d4 	bgt-    cr7,18043b8 <swi10+0xf8>
 18042e8:	80 1f 00 08 	lwz     r0,8(r31)
 18042ec:	54 09 10 3a 	rlwinm  r9,r0,2,0,29
 18042f0:	3c 00 01 82 	lis     r0,386
 18042f4:	30 00 f6 48 	addic   r0,r0,-2488
 18042f8:	7c 09 02 14 	add     r0,r9,r0
 18042fc:	7c 0b 03 78 	mr      r11,r0
 1804300:	81 2b 00 00 	lwz     r9,0(r11)
 1804304:	3c 00 01 82 	lis     r0,386
 1804308:	30 00 f6 48 	addic   r0,r0,-2488
 180430c:	7c 09 02 14 	add     r0,r9,r0
 1804310:	7c 09 03 a6 	mtctr   r0
 1804314:	4e 80 04 20 	bctr
 1804318:	80 1f 00 18 	lwz     r0,24(r31)
 180431c:	30 00 00 01 	addic   r0,r0,1
 1804320:	90 1f 00 18 	stw     r0,24(r31)
 1804324:	48 00 00 a0 	b       18043c4 <swi10+0x104>
 1804328:	80 1f 00 18 	lwz     r0,24(r31)
 180432c:	30 00 00 01 	addic   r0,r0,1
 1804330:	90 1f 00 18 	stw     r0,24(r31)
 1804334:	48 00 00 90 	b       18043c4 <swi10+0x104>
 1804338:	80 1f 00 18 	lwz     r0,24(r31)
 180433c:	30 00 00 01 	addic   r0,r0,1
 1804340:	90 1f 00 18 	stw     r0,24(r31)
 1804344:	48 00 00 80 	b       18043c4 <swi10+0x104>
 1804348:	80 1f 00 18 	lwz     r0,24(r31)
 180434c:	30 00 00 01 	addic   r0,r0,1
 1804350:	90 1f 00 18 	stw     r0,24(r31)
 1804354:	48 00 00 70 	b       18043c4 <swi10+0x104>
 1804358:	80 1f 00 18 	lwz     r0,24(r31)
 180435c:	30 00 00 01 	addic   r0,r0,1
 1804360:	90 1f 00 18 	stw     r0,24(r31)
 1804364:	48 00 00 60 	b       18043c4 <swi10+0x104>
 1804368:	80 1f 00 18 	lwz     r0,24(r31)
 180436c:	30 00 00 01 	addic   r0,r0,1
 1804370:	90 1f 00 18 	stw     r0,24(r31)
 1804374:	48 00 00 50 	b       18043c4 <swi10+0x104>
 1804378:	80 1f 00 18 	lwz     r0,24(r31)
 180437c:	30 00 00 01 	addic   r0,r0,1
 1804380:	90 1f 00 18 	stw     r0,24(r31)
 1804384:	48 00 00 40 	b       18043c4 <swi10+0x104>
 1804388:	80 1f 00 18 	lwz     r0,24(r31)
 180438c:	30 00 00 01 	addic   r0,r0,1
 1804390:	90 1f 00 18 	stw     r0,24(r31)
 1804394:	48 00 00 30 	b       18043c4 <swi10+0x104>
 1804398:	80 1f 00 18 	lwz     r0,24(r31)
 180439c:	30 00 00 01 	addic   r0,r0,1
 18043a0:	90 1f 00 18 	stw     r0,24(r31)
 18043a4:	48 00 00 20 	b       18043c4 <swi10+0x104>
 18043a8:	80 1f 00 18 	lwz     r0,24(r31)
 18043ac:	30 00 00 01 	addic   r0,r0,1
 18043b0:	90 1f 00 18 	stw     r0,24(r31)
 18043b4:	48 00 00 10 	b       18043c4 <swi10+0x104>
 18043b8:	80 1f 00 18 	lwz     r0,24(r31)
 18043bc:	30 00 ff ff 	addic   r0,r0,-1
 18043c0:	90 1f 00 18 	stw     r0,24(r31)
 18043c4:	80 1f 00 08 	lwz     r0,8(r31)
 18043c8:	30 00 00 01 	addic   r0,r0,1
 18043cc:	90 1f 00 08 	stw     r0,8(r31)
 18043d0:	80 1f 00 08 	lwz     r0,8(r31)
 18043d4:	2f 80 00 09 	cmpwi   cr7,r0,9
 18043d8:	40 9d ff 04 	ble+    cr7,18042dc <swi10+0x1c>
 18043dc:	80 1f 00 18 	lwz     r0,24(r31)
 18043e0:	7c 03 03 78 	mr      r3,r0
 18043e4:	39 7f 00 28 	addi    r11,r31,40
 18043e8:	83 eb ff fc 	lwz     r31,-4(r11)
 18043ec:	7d 61 5b 78 	mr      r1,r11
 18043f0:	4e 80 00 20 	blr

018043f4 <icrc1>:
 18043f4:	94 21 ff d8 	stwu    r1,-40(r1)
 18043f8:	93 e1 00 24 	stw     r31,36(r1)
 18043fc:	7c 3f 0b 78 	mr      r31,r1
 1804400:	7c 69 1b 78 	mr      r9,r3
 1804404:	7c 80 23 78 	mr      r0,r4
 1804408:	b1 3f 00 18 	sth     r9,24(r31)
 180440c:	98 1f 00 1a 	stb     r0,26(r31)
 1804410:	88 1f 00 1a 	lbz     r0,26(r31)
 1804414:	54 00 06 3e 	clrlwi  r0,r0,24
 1804418:	54 00 40 2e 	rlwinm  r0,r0,8,0,23
 180441c:	7c 09 07 34 	extsh   r9,r0
 1804420:	a0 1f 00 18 	lhz     r0,24(r31)
 1804424:	7c 00 07 34 	extsh   r0,r0
 1804428:	7d 20 02 78 	xor     r0,r9,r0
 180442c:	7c 00 07 34 	extsh   r0,r0
 1804430:	b0 1f 00 08 	sth     r0,8(r31)
 1804434:	38 00 00 00 	li      r0,0
 1804438:	90 1f 00 0c 	stw     r0,12(r31)
 180443c:	48 00 00 48 	b       1804484 <icrc1+0x90>
 1804440:	a0 1f 00 08 	lhz     r0,8(r31)
 1804444:	7c 00 07 34 	extsh   r0,r0
 1804448:	2f 80 00 00 	cmpwi   cr7,r0,0
 180444c:	40 9c 00 20 	bge-    cr7,180446c <icrc1+0x78>
 1804450:	a0 1f 00 08 	lhz     r0,8(r31)
 1804454:	54 00 08 3c 	rlwinm  r0,r0,1,0,30
 1804458:	b0 1f 00 08 	sth     r0,8(r31)
 180445c:	a0 1f 00 08 	lhz     r0,8(r31)
 1804460:	68 00 10 21 	xori    r0,r0,4129
 1804464:	b0 1f 00 08 	sth     r0,8(r31)
 1804468:	48 00 00 10 	b       1804478 <icrc1+0x84>
 180446c:	a0 1f 00 08 	lhz     r0,8(r31)
 1804470:	54 00 08 3c 	rlwinm  r0,r0,1,0,30
 1804474:	b0 1f 00 08 	sth     r0,8(r31)
 1804478:	80 1f 00 0c 	lwz     r0,12(r31)
 180447c:	30 00 00 01 	addic   r0,r0,1
 1804480:	90 1f 00 0c 	stw     r0,12(r31)
 1804484:	80 1f 00 0c 	lwz     r0,12(r31)
 1804488:	2f 80 00 07 	cmpwi   cr7,r0,7
 180448c:	40 9d ff b4 	ble+    cr7,1804440 <icrc1+0x4c>
 1804490:	a0 1f 00 08 	lhz     r0,8(r31)
 1804494:	54 00 04 3e 	clrlwi  r0,r0,16
 1804498:	7c 03 03 78 	mr      r3,r0
 180449c:	39 7f 00 28 	addi    r11,r31,40
 18044a0:	83 eb ff fc 	lwz     r31,-4(r11)
 18044a4:	7d 61 5b 78 	mr      r1,r11
 18044a8:	4e 80 00 20 	blr

018044ac <icrc>:
 18044ac:	94 21 ff d0 	stwu    r1,-48(r1)
 18044b0:	7c 08 02 a6 	mflr    r0
 18044b4:	90 01 00 34 	stw     r0,52(r1)
 18044b8:	93 c1 00 28 	stw     r30,40(r1)
 18044bc:	93 e1 00 2c 	stw     r31,44(r1)
 18044c0:	7c 3f 0b 78 	mr      r31,r1
 18044c4:	7c 69 1b 78 	mr      r9,r3
 18044c8:	90 9f 00 1c 	stw     r4,28(r31)
 18044cc:	7c a0 2b 78 	mr      r0,r5
 18044d0:	90 df 00 24 	stw     r6,36(r31)
 18044d4:	b1 3f 00 18 	sth     r9,24(r31)
 18044d8:	b0 1f 00 20 	sth     r0,32(r31)
 18044dc:	a0 1f 00 18 	lhz     r0,24(r31)
 18044e0:	b0 1f 00 08 	sth     r0,8(r31)
 18044e4:	3c 00 01 82 	lis     r0,386
 18044e8:	7c 09 03 78 	mr      r9,r0
 18044ec:	a0 09 4a 14 	lhz     r0,18964(r9)
 18044f0:	54 00 04 3e 	clrlwi  r0,r0,16
 18044f4:	2f 80 00 00 	cmpwi   cr7,r0,0
 18044f8:	40 9e 00 e4 	bne-    cr7,18045dc <icrc+0x130>
 18044fc:	3c 00 01 82 	lis     r0,386
 1804500:	39 20 00 01 	li      r9,1
 1804504:	7c 0b 03 78 	mr      r11,r0
 1804508:	b1 2b 4a 14 	sth     r9,18964(r11)
 180450c:	38 00 00 00 	li      r0,0
 1804510:	b0 1f 00 0a 	sth     r0,10(r31)
 1804514:	48 00 00 b8 	b       18045cc <icrc+0x120>
 1804518:	a0 1f 00 0a 	lhz     r0,10(r31)
 180451c:	54 1e 04 3e 	clrlwi  r30,r0,16
 1804520:	a0 1f 00 0a 	lhz     r0,10(r31)
 1804524:	54 00 40 2e 	rlwinm  r0,r0,8,0,23
 1804528:	54 00 04 3e 	clrlwi  r0,r0,16
 180452c:	7c 03 03 78 	mr      r3,r0
 1804530:	38 80 00 00 	li      r4,0
 1804534:	4b ff fe c1 	bl      18043f4 <icrc1>
 1804538:	7c 60 1b 78 	mr      r0,r3
 180453c:	7c 09 03 78 	mr      r9,r0
 1804540:	3c 00 01 82 	lis     r0,386
 1804544:	31 60 4a 16 	addic   r11,r0,18966
 1804548:	57 c0 08 3c 	rlwinm  r0,r30,1,0,30
 180454c:	7c 0b 02 14 	add     r0,r11,r0
 1804550:	7c 0b 03 78 	mr      r11,r0
 1804554:	b1 2b 00 00 	sth     r9,0(r11)
 1804558:	a0 1f 00 0a 	lhz     r0,10(r31)
 180455c:	54 00 04 3e 	clrlwi  r0,r0,16
 1804560:	a1 3f 00 0a 	lhz     r9,10(r31)
 1804564:	55 29 04 3e 	clrlwi  r9,r9,16
 1804568:	55 29 07 3e 	clrlwi  r9,r9,28
 180456c:	3d 60 01 82 	lis     r11,386
 1804570:	39 6b 44 54 	addi    r11,r11,17492
 1804574:	7d 2b 48 ae 	lbzx    r9,r11,r9
 1804578:	55 29 06 3e 	clrlwi  r9,r9,24
 180457c:	55 29 20 36 	rlwinm  r9,r9,4,0,27
 1804580:	7d 2b 07 74 	extsb   r11,r9
 1804584:	a1 3f 00 0a 	lhz     r9,10(r31)
 1804588:	55 29 04 3e 	clrlwi  r9,r9,16
 180458c:	55 29 e1 3e 	rlwinm  r9,r9,28,4,31
 1804590:	55 29 04 3e 	clrlwi  r9,r9,16
 1804594:	3d 40 01 82 	lis     r10,386
 1804598:	39 4a 44 54 	addi    r10,r10,17492
 180459c:	7d 2a 48 ae 	lbzx    r9,r10,r9
 18045a0:	55 29 06 3e 	clrlwi  r9,r9,24
 18045a4:	7d 29 07 74 	extsb   r9,r9
 18045a8:	7d 69 4b 78 	or      r9,r11,r9
 18045ac:	7d 29 07 74 	extsb   r9,r9
 18045b0:	55 2b 06 3e 	clrlwi  r11,r9,24
 18045b4:	3d 20 01 82 	lis     r9,386
 18045b8:	39 29 4c 18 	addi    r9,r9,19480
 18045bc:	7d 69 01 ae 	stbx    r11,r9,r0
 18045c0:	a0 1f 00 0a 	lhz     r0,10(r31)
 18045c4:	30 00 00 01 	addic   r0,r0,1
 18045c8:	b0 1f 00 0a 	sth     r0,10(r31)
 18045cc:	a0 1f 00 0a 	lhz     r0,10(r31)
 18045d0:	54 00 04 3e 	clrlwi  r0,r0,16
 18045d4:	2b 80 00 ff 	cmplwi  cr7,r0,255
 18045d8:	40 9d ff 40 	ble+    cr7,1804518 <icrc+0x6c>
 18045dc:	a0 1f 00 20 	lhz     r0,32(r31)
 18045e0:	7c 00 07 34 	extsh   r0,r0
 18045e4:	2f 80 00 00 	cmpwi   cr7,r0,0
 18045e8:	41 9c 00 30 	blt-    cr7,1804618 <icrc+0x16c>
 18045ec:	a0 1f 00 20 	lhz     r0,32(r31)
 18045f0:	54 00 06 3e 	clrlwi  r0,r0,24
 18045f4:	7c 09 03 78 	mr      r9,r0
 18045f8:	a0 1f 00 20 	lhz     r0,32(r31)
 18045fc:	54 00 06 3e 	clrlwi  r0,r0,24
 1804600:	54 00 40 2e 	rlwinm  r0,r0,8,0,23
 1804604:	7c 00 07 34 	extsh   r0,r0
 1804608:	7d 20 03 78 	or      r0,r9,r0
 180460c:	7c 00 07 34 	extsh   r0,r0
 1804610:	b0 1f 00 08 	sth     r0,8(r31)
 1804614:	48 00 00 64 	b       1804678 <icrc+0x1cc>
 1804618:	80 1f 00 24 	lwz     r0,36(r31)
 180461c:	2f 80 00 00 	cmpwi   cr7,r0,0
 1804620:	40 9c 00 58 	bge-    cr7,1804678 <icrc+0x1cc>
 1804624:	a0 1f 00 08 	lhz     r0,8(r31)
 1804628:	54 00 04 3e 	clrlwi  r0,r0,16
 180462c:	54 00 c2 3e 	rlwinm  r0,r0,24,8,31
 1804630:	54 00 04 3e 	clrlwi  r0,r0,16
 1804634:	54 00 06 3e 	clrlwi  r0,r0,24
 1804638:	3d 20 01 82 	lis     r9,386
 180463c:	39 29 4c 18 	addi    r9,r9,19480
 1804640:	7c 09 00 ae 	lbzx    r0,r9,r0
 1804644:	54 00 06 3e 	clrlwi  r0,r0,24
 1804648:	7c 09 03 78 	mr      r9,r0
 180464c:	a0 1f 00 08 	lhz     r0,8(r31)
 1804650:	54 00 06 3e 	clrlwi  r0,r0,24
 1804654:	3d 60 01 82 	lis     r11,386
 1804658:	39 6b 4c 18 	addi    r11,r11,19480
 180465c:	7c 0b 00 ae 	lbzx    r0,r11,r0
 1804660:	54 00 06 3e 	clrlwi  r0,r0,24
 1804664:	54 00 40 2e 	rlwinm  r0,r0,8,0,23
 1804668:	7c 00 07 34 	extsh   r0,r0
 180466c:	7d 20 03 78 	or      r0,r9,r0
 1804670:	7c 00 07 34 	extsh   r0,r0
 1804674:	b0 1f 00 08 	sth     r0,8(r31)
 1804678:	38 00 00 01 	li      r0,1
 180467c:	b0 1f 00 0a 	sth     r0,10(r31)
 1804680:	48 00 00 e4 	b       1804764 <icrc+0x2b8>
 1804684:	80 1f 00 24 	lwz     r0,36(r31)
 1804688:	2f 80 00 00 	cmpwi   cr7,r0,0
 180468c:	40 9c 00 50 	bge-    cr7,18046dc <icrc+0x230>
 1804690:	a0 1f 00 0a 	lhz     r0,10(r31)
 1804694:	54 00 04 3e 	clrlwi  r0,r0,16
 1804698:	3d 20 01 82 	lis     r9,386
 180469c:	39 29 12 f8 	addi    r9,r9,4856
 18046a0:	7c 09 00 ae 	lbzx    r0,r9,r0
 18046a4:	54 00 06 3e 	clrlwi  r0,r0,24
 18046a8:	3d 20 01 82 	lis     r9,386
 18046ac:	39 29 4c 18 	addi    r9,r9,19480
 18046b0:	7c 09 00 ae 	lbzx    r0,r9,r0
 18046b4:	54 09 06 3e 	clrlwi  r9,r0,24
 18046b8:	a0 1f 00 08 	lhz     r0,8(r31)
 18046bc:	54 00 04 3e 	clrlwi  r0,r0,16
 18046c0:	54 00 c2 3e 	rlwinm  r0,r0,24,8,31
 18046c4:	54 00 04 3e 	clrlwi  r0,r0,16
 18046c8:	54 00 06 3e 	clrlwi  r0,r0,24
 18046cc:	7d 20 02 78 	xor     r0,r9,r0
 18046d0:	54 00 06 3e 	clrlwi  r0,r0,24
 18046d4:	b0 1f 00 0e 	sth     r0,14(r31)
 18046d8:	48 00 00 3c 	b       1804714 <icrc+0x268>
 18046dc:	a0 1f 00 0a 	lhz     r0,10(r31)
 18046e0:	54 00 04 3e 	clrlwi  r0,r0,16
 18046e4:	3d 20 01 82 	lis     r9,386
 18046e8:	39 29 12 f8 	addi    r9,r9,4856
 18046ec:	7c 09 00 ae 	lbzx    r0,r9,r0
 18046f0:	54 09 06 3e 	clrlwi  r9,r0,24
 18046f4:	a0 1f 00 08 	lhz     r0,8(r31)
 18046f8:	54 00 04 3e 	clrlwi  r0,r0,16
 18046fc:	54 00 c2 3e 	rlwinm  r0,r0,24,8,31
 1804700:	54 00 04 3e 	clrlwi  r0,r0,16
 1804704:	54 00 06 3e 	clrlwi  r0,r0,24
 1804708:	7d 20 02 78 	xor     r0,r9,r0
 180470c:	54 00 06 3e 	clrlwi  r0,r0,24
 1804710:	b0 1f 00 0e 	sth     r0,14(r31)
 1804714:	a0 1f 00 0e 	lhz     r0,14(r31)
 1804718:	54 00 04 3e 	clrlwi  r0,r0,16
 180471c:	3d 20 01 82 	lis     r9,386
 1804720:	39 29 4a 16 	addi    r9,r9,18966
 1804724:	54 00 08 3c 	rlwinm  r0,r0,1,0,30
 1804728:	7c 09 02 14 	add     r0,r9,r0
 180472c:	7c 09 03 78 	mr      r9,r0
 1804730:	a0 09 00 00 	lhz     r0,0(r9)
 1804734:	54 00 04 3e 	clrlwi  r0,r0,16
 1804738:	7c 09 07 34 	extsh   r9,r0
 180473c:	a0 1f 00 08 	lhz     r0,8(r31)
 1804740:	54 00 06 3e 	clrlwi  r0,r0,24
 1804744:	54 00 40 2e 	rlwinm  r0,r0,8,0,23
 1804748:	7c 00 07 34 	extsh   r0,r0
 180474c:	7d 20 02 78 	xor     r0,r9,r0
 1804750:	7c 00 07 34 	extsh   r0,r0
 1804754:	b0 1f 00 08 	sth     r0,8(r31)
 1804758:	a0 1f 00 0a 	lhz     r0,10(r31)
 180475c:	30 00 00 01 	addic   r0,r0,1
 1804760:	b0 1f 00 0a 	sth     r0,10(r31)
 1804764:	a0 1f 00 0a 	lhz     r0,10(r31)
 1804768:	54 09 04 3e 	clrlwi  r9,r0,16
 180476c:	80 1f 00 1c 	lwz     r0,28(r31)
 1804770:	7f 89 00 40 	cmplw   cr7,r9,r0
 1804774:	40 9d ff 10 	ble+    cr7,1804684 <icrc+0x1d8>
 1804778:	80 1f 00 24 	lwz     r0,36(r31)
 180477c:	2f 80 00 00 	cmpwi   cr7,r0,0
 1804780:	41 9c 00 10 	blt-    cr7,1804790 <icrc+0x2e4>
 1804784:	a0 1f 00 08 	lhz     r0,8(r31)
 1804788:	b0 1f 00 0c 	sth     r0,12(r31)
 180478c:	48 00 00 58 	b       18047e4 <icrc+0x338>
 1804790:	a0 1f 00 08 	lhz     r0,8(r31)
 1804794:	54 00 04 3e 	clrlwi  r0,r0,16
 1804798:	54 00 c2 3e 	rlwinm  r0,r0,24,8,31
 180479c:	54 00 04 3e 	clrlwi  r0,r0,16
 18047a0:	54 00 06 3e 	clrlwi  r0,r0,24
 18047a4:	3d 20 01 82 	lis     r9,386
 18047a8:	39 29 4c 18 	addi    r9,r9,19480
 18047ac:	7c 09 00 ae 	lbzx    r0,r9,r0
 18047b0:	54 00 06 3e 	clrlwi  r0,r0,24
 18047b4:	7c 09 03 78 	mr      r9,r0
 18047b8:	a0 1f 00 08 	lhz     r0,8(r31)
 18047bc:	54 00 06 3e 	clrlwi  r0,r0,24
 18047c0:	3d 60 01 82 	lis     r11,386
 18047c4:	39 6b 4c 18 	addi    r11,r11,19480
 18047c8:	7c 0b 00 ae 	lbzx    r0,r11,r0
 18047cc:	54 00 06 3e 	clrlwi  r0,r0,24
 18047d0:	54 00 40 2e 	rlwinm  r0,r0,8,0,23
 18047d4:	7c 00 07 34 	extsh   r0,r0
 18047d8:	7d 20 03 78 	or      r0,r9,r0
 18047dc:	7c 00 07 34 	extsh   r0,r0
 18047e0:	b0 1f 00 0c 	sth     r0,12(r31)
 18047e4:	a0 1f 00 0c 	lhz     r0,12(r31)
 18047e8:	54 00 04 3e 	clrlwi  r0,r0,16
 18047ec:	7c 03 03 78 	mr      r3,r0
 18047f0:	39 7f 00 30 	addi    r11,r31,48
 18047f4:	80 0b 00 04 	lwz     r0,4(r11)
 18047f8:	7c 08 03 a6 	mtlr    r0
 18047fc:	83 cb ff f8 	lwz     r30,-8(r11)
 1804800:	83 eb ff fc 	lwz     r31,-4(r11)
 1804804:	7d 61 5b 78 	mr      r1,r11
 1804808:	4e 80 00 20 	blr

0180480c <duffcopy>:
 180480c:	94 21 ff d0 	stwu    r1,-48(r1)
 1804810:	93 e1 00 2c 	stw     r31,44(r1)
 1804814:	7c 3f 0b 78 	mr      r31,r1
 1804818:	90 7f 00 18 	stw     r3,24(r31)
 180481c:	90 9f 00 1c 	stw     r4,28(r31)
 1804820:	90 bf 00 20 	stw     r5,32(r31)
 1804824:	80 1f 00 20 	lwz     r0,32(r31)
 1804828:	30 00 00 07 	addic   r0,r0,7
 180482c:	7c 00 1e 70 	srawi   r0,r0,3
 1804830:	7c 00 01 94 	addze   r0,r0
 1804834:	90 1f 00 08 	stw     r0,8(r31)
 1804838:	80 1f 00 20 	lwz     r0,32(r31)
 180483c:	7c 09 1e 70 	srawi   r9,r0,3
 1804840:	7d 29 01 94 	addze   r9,r9
 1804844:	55 29 18 38 	rlwinm  r9,r9,3,0,28
 1804848:	7c 09 00 50 	subf    r0,r9,r0
 180484c:	2b 80 00 07 	cmplwi  cr7,r0,7
 1804850:	41 9d 01 e8 	bgt-    cr7,1804a38 <duffcopy+0x22c>
 1804854:	54 09 10 3a 	rlwinm  r9,r0,2,0,29
 1804858:	3c 00 01 82 	lis     r0,386
 180485c:	30 00 f6 70 	addic   r0,r0,-2448
 1804860:	7c 09 02 14 	add     r0,r9,r0
 1804864:	7c 0b 03 78 	mr      r11,r0
 1804868:	81 2b 00 00 	lwz     r9,0(r11)
 180486c:	3c 00 01 82 	lis     r0,386
 1804870:	30 00 f6 70 	addic   r0,r0,-2448
 1804874:	7c 09 02 14 	add     r0,r9,r0
 1804878:	7c 09 03 a6 	mtctr   r0
 180487c:	4e 80 04 20 	bctr
 1804880:	80 1f 00 1c 	lwz     r0,28(r31)
 1804884:	7c 09 03 78 	mr      r9,r0
 1804888:	88 09 00 00 	lbz     r0,0(r9)
 180488c:	54 09 06 3e 	clrlwi  r9,r0,24
 1804890:	80 1f 00 18 	lwz     r0,24(r31)
 1804894:	7c 0b 03 78 	mr      r11,r0
 1804898:	99 2b 00 00 	stb     r9,0(r11)
 180489c:	80 1f 00 18 	lwz     r0,24(r31)
 18048a0:	30 00 00 01 	addic   r0,r0,1
 18048a4:	90 1f 00 18 	stw     r0,24(r31)
 18048a8:	80 1f 00 1c 	lwz     r0,28(r31)
 18048ac:	30 00 00 01 	addic   r0,r0,1
 18048b0:	90 1f 00 1c 	stw     r0,28(r31)
 18048b4:	80 1f 00 1c 	lwz     r0,28(r31)
 18048b8:	7c 09 03 78 	mr      r9,r0
 18048bc:	88 09 00 00 	lbz     r0,0(r9)
 18048c0:	54 09 06 3e 	clrlwi  r9,r0,24
 18048c4:	80 1f 00 18 	lwz     r0,24(r31)
 18048c8:	7c 0b 03 78 	mr      r11,r0
 18048cc:	99 2b 00 00 	stb     r9,0(r11)
 18048d0:	80 1f 00 18 	lwz     r0,24(r31)
 18048d4:	30 00 00 01 	addic   r0,r0,1
 18048d8:	90 1f 00 18 	stw     r0,24(r31)
 18048dc:	80 1f 00 1c 	lwz     r0,28(r31)
 18048e0:	30 00 00 01 	addic   r0,r0,1
 18048e4:	90 1f 00 1c 	stw     r0,28(r31)
 18048e8:	80 1f 00 1c 	lwz     r0,28(r31)
 18048ec:	7c 09 03 78 	mr      r9,r0
 18048f0:	88 09 00 00 	lbz     r0,0(r9)
 18048f4:	54 09 06 3e 	clrlwi  r9,r0,24
 18048f8:	80 1f 00 18 	lwz     r0,24(r31)
 18048fc:	7c 0b 03 78 	mr      r11,r0
 1804900:	99 2b 00 00 	stb     r9,0(r11)
 1804904:	80 1f 00 18 	lwz     r0,24(r31)
 1804908:	30 00 00 01 	addic   r0,r0,1
 180490c:	90 1f 00 18 	stw     r0,24(r31)
 1804910:	80 1f 00 1c 	lwz     r0,28(r31)
 1804914:	30 00 00 01 	addic   r0,r0,1
 1804918:	90 1f 00 1c 	stw     r0,28(r31)
 180491c:	80 1f 00 1c 	lwz     r0,28(r31)
 1804920:	7c 09 03 78 	mr      r9,r0
 1804924:	88 09 00 00 	lbz     r0,0(r9)
 1804928:	54 09 06 3e 	clrlwi  r9,r0,24
 180492c:	80 1f 00 18 	lwz     r0,24(r31)
 1804930:	7c 0b 03 78 	mr      r11,r0
 1804934:	99 2b 00 00 	stb     r9,0(r11)
 1804938:	80 1f 00 18 	lwz     r0,24(r31)
 180493c:	30 00 00 01 	addic   r0,r0,1
 1804940:	90 1f 00 18 	stw     r0,24(r31)
 1804944:	80 1f 00 1c 	lwz     r0,28(r31)
 1804948:	30 00 00 01 	addic   r0,r0,1
 180494c:	90 1f 00 1c 	stw     r0,28(r31)
 1804950:	80 1f 00 1c 	lwz     r0,28(r31)
 1804954:	7c 09 03 78 	mr      r9,r0
 1804958:	88 09 00 00 	lbz     r0,0(r9)
 180495c:	54 09 06 3e 	clrlwi  r9,r0,24
 1804960:	80 1f 00 18 	lwz     r0,24(r31)
 1804964:	7c 0b 03 78 	mr      r11,r0
 1804968:	99 2b 00 00 	stb     r9,0(r11)
 180496c:	80 1f 00 18 	lwz     r0,24(r31)
 1804970:	30 00 00 01 	addic   r0,r0,1
 1804974:	90 1f 00 18 	stw     r0,24(r31)
 1804978:	80 1f 00 1c 	lwz     r0,28(r31)
 180497c:	30 00 00 01 	addic   r0,r0,1
 1804980:	90 1f 00 1c 	stw     r0,28(r31)
 1804984:	80 1f 00 1c 	lwz     r0,28(r31)
 1804988:	7c 09 03 78 	mr      r9,r0
 180498c:	88 09 00 00 	lbz     r0,0(r9)
 1804990:	54 09 06 3e 	clrlwi  r9,r0,24
 1804994:	80 1f 00 18 	lwz     r0,24(r31)
 1804998:	7c 0b 03 78 	mr      r11,r0
 180499c:	99 2b 00 00 	stb     r9,0(r11)
 18049a0:	80 1f 00 18 	lwz     r0,24(r31)
 18049a4:	30 00 00 01 	addic   r0,r0,1
 18049a8:	90 1f 00 18 	stw     r0,24(r31)
 18049ac:	80 1f 00 1c 	lwz     r0,28(r31)
 18049b0:	30 00 00 01 	addic   r0,r0,1
 18049b4:	90 1f 00 1c 	stw     r0,28(r31)
 18049b8:	80 1f 00 1c 	lwz     r0,28(r31)
 18049bc:	7c 09 03 78 	mr      r9,r0
 18049c0:	88 09 00 00 	lbz     r0,0(r9)
 18049c4:	54 09 06 3e 	clrlwi  r9,r0,24
 18049c8:	80 1f 00 18 	lwz     r0,24(r31)
 18049cc:	7c 0b 03 78 	mr      r11,r0
 18049d0:	99 2b 00 00 	stb     r9,0(r11)
 18049d4:	80 1f 00 18 	lwz     r0,24(r31)
 18049d8:	30 00 00 01 	addic   r0,r0,1
 18049dc:	90 1f 00 18 	stw     r0,24(r31)
 18049e0:	80 1f 00 1c 	lwz     r0,28(r31)
 18049e4:	30 00 00 01 	addic   r0,r0,1
 18049e8:	90 1f 00 1c 	stw     r0,28(r31)
 18049ec:	80 1f 00 1c 	lwz     r0,28(r31)
 18049f0:	7c 09 03 78 	mr      r9,r0
 18049f4:	88 09 00 00 	lbz     r0,0(r9)
 18049f8:	54 09 06 3e 	clrlwi  r9,r0,24
 18049fc:	80 1f 00 18 	lwz     r0,24(r31)
 1804a00:	7c 0b 03 78 	mr      r11,r0
 1804a04:	99 2b 00 00 	stb     r9,0(r11)
 1804a08:	80 1f 00 18 	lwz     r0,24(r31)
 1804a0c:	30 00 00 01 	addic   r0,r0,1
 1804a10:	90 1f 00 18 	stw     r0,24(r31)
 1804a14:	80 1f 00 1c 	lwz     r0,28(r31)
 1804a18:	30 00 00 01 	addic   r0,r0,1
 1804a1c:	90 1f 00 1c 	stw     r0,28(r31)
 1804a20:	80 1f 00 08 	lwz     r0,8(r31)
 1804a24:	30 00 ff ff 	addic   r0,r0,-1
 1804a28:	90 1f 00 08 	stw     r0,8(r31)
 1804a2c:	80 1f 00 08 	lwz     r0,8(r31)
 1804a30:	2f 80 00 00 	cmpwi   cr7,r0,0
 1804a34:	41 9d fe 4c 	bgt+    cr7,1804880 <duffcopy+0x74>
 1804a38:	39 7f 00 30 	addi    r11,r31,48
 1804a3c:	83 eb ff fc 	lwz     r31,-4(r11)
 1804a40:	7d 61 5b 78 	mr      r1,r11
 1804a44:	4e 80 00 20 	blr

01804a48 <initialize3>:
 1804a48:	94 21 ff d8 	stwu    r1,-40(r1)
 1804a4c:	93 e1 00 24 	stw     r31,36(r1)
 1804a50:	7c 3f 0b 78 	mr      r31,r1
 1804a54:	90 7f 00 18 	stw     r3,24(r31)
 1804a58:	90 9f 00 1c 	stw     r4,28(r31)
 1804a5c:	38 00 00 00 	li      r0,0
 1804a60:	90 1f 00 08 	stw     r0,8(r31)
 1804a64:	48 00 00 3c 	b       1804aa0 <initialize3+0x58>
 1804a68:	80 1f 00 08 	lwz     r0,8(r31)
 1804a6c:	81 3f 00 18 	lwz     r9,24(r31)
 1804a70:	7c 09 02 14 	add     r0,r9,r0
 1804a74:	81 3f 00 1c 	lwz     r9,28(r31)
 1804a78:	55 2b 06 3e 	clrlwi  r11,r9,24
 1804a7c:	81 3f 00 08 	lwz     r9,8(r31)
 1804a80:	55 29 06 3e 	clrlwi  r9,r9,24
 1804a84:	7d 29 58 50 	subf    r9,r9,r11
 1804a88:	55 29 06 3e 	clrlwi  r9,r9,24
 1804a8c:	7c 0b 03 78 	mr      r11,r0
 1804a90:	99 2b 00 00 	stb     r9,0(r11)
 1804a94:	80 1f 00 08 	lwz     r0,8(r31)
 1804a98:	30 00 00 01 	addic   r0,r0,1
 1804a9c:	90 1f 00 08 	stw     r0,8(r31)
 1804aa0:	81 3f 00 08 	lwz     r9,8(r31)
 1804aa4:	80 1f 00 1c 	lwz     r0,28(r31)
 1804aa8:	7f 89 00 00 	cmpw    cr7,r9,r0
 1804aac:	41 9c ff bc 	blt+    cr7,1804a68 <initialize3+0x20>
 1804ab0:	39 7f 00 28 	addi    r11,r31,40
 1804ab4:	83 eb ff fc 	lwz     r31,-4(r11)
 1804ab8:	7d 61 5b 78 	mr      r1,r11
 1804abc:	4e 80 00 20 	blr

01804ac0 <vec_mpy1>:
 1804ac0:	94 21 ff d0 	stwu    r1,-48(r1)
 1804ac4:	93 e1 00 2c 	stw     r31,44(r1)
 1804ac8:	7c 3f 0b 78 	mr      r31,r1
 1804acc:	90 7f 00 18 	stw     r3,24(r31)
 1804ad0:	90 9f 00 1c 	stw     r4,28(r31)
 1804ad4:	7c a0 2b 78 	mr      r0,r5
 1804ad8:	b0 1f 00 20 	sth     r0,32(r31)
 1804adc:	38 00 00 00 	li      r0,0
 1804ae0:	90 1f 00 08 	stw     r0,8(r31)
 1804ae4:	48 00 00 7c 	b       1804b60 <vec_mpy1+0xa0>
 1804ae8:	80 1f 00 08 	lwz     r0,8(r31)
 1804aec:	54 00 08 3c 	rlwinm  r0,r0,1,0,30
 1804af0:	81 3f 00 18 	lwz     r9,24(r31)
 1804af4:	7c 09 02 14 	add     r0,r9,r0
 1804af8:	81 3f 00 08 	lwz     r9,8(r31)
 1804afc:	55 29 08 3c 	rlwinm  r9,r9,1,0,30
 1804b00:	81 7f 00 18 	lwz     r11,24(r31)
 1804b04:	7d 2b 4a 14 	add     r9,r11,r9
 1804b08:	a1 29 00 00 	lhz     r9,0(r9)
 1804b0c:	7d 29 07 34 	extsh   r9,r9
 1804b10:	55 2b 04 3e 	clrlwi  r11,r9,16
 1804b14:	a1 3f 00 20 	lhz     r9,32(r31)
 1804b18:	7d 2a 07 34 	extsh   r10,r9
 1804b1c:	81 3f 00 08 	lwz     r9,8(r31)
 1804b20:	55 29 08 3c 	rlwinm  r9,r9,1,0,30
 1804b24:	81 1f 00 1c 	lwz     r8,28(r31)
 1804b28:	7d 28 4a 14 	add     r9,r8,r9
 1804b2c:	a1 29 00 00 	lhz     r9,0(r9)
 1804b30:	7d 29 07 34 	extsh   r9,r9
 1804b34:	7d 2a 49 d6 	mullw   r9,r10,r9
 1804b38:	7d 29 7e 70 	srawi   r9,r9,15
 1804b3c:	55 29 04 3e 	clrlwi  r9,r9,16
 1804b40:	7d 2b 4a 14 	add     r9,r11,r9
 1804b44:	55 29 04 3e 	clrlwi  r9,r9,16
 1804b48:	7d 29 07 34 	extsh   r9,r9
 1804b4c:	7c 0b 03 78 	mr      r11,r0
 1804b50:	b1 2b 00 00 	sth     r9,0(r11)
 1804b54:	80 1f 00 08 	lwz     r0,8(r31)
 1804b58:	30 00 00 01 	addic   r0,r0,1
 1804b5c:	90 1f 00 08 	stw     r0,8(r31)
 1804b60:	80 1f 00 08 	lwz     r0,8(r31)
 1804b64:	2f 80 00 95 	cmpwi   cr7,r0,149
 1804b68:	40 9d ff 80 	ble+    cr7,1804ae8 <vec_mpy1+0x28>
 1804b6c:	39 7f 00 30 	addi    r11,r31,48
 1804b70:	83 eb ff fc 	lwz     r31,-4(r11)
 1804b74:	7d 61 5b 78 	mr      r1,r11
 1804b78:	4e 80 00 20 	blr

01804b7c <mac>:
 1804b7c:	94 21 ff d0 	stwu    r1,-48(r1)
 1804b80:	93 e1 00 2c 	stw     r31,44(r1)
 1804b84:	7c 3f 0b 78 	mr      r31,r1
 1804b88:	90 7f 00 18 	stw     r3,24(r31)
 1804b8c:	90 9f 00 1c 	stw     r4,28(r31)
 1804b90:	90 bf 00 20 	stw     r5,32(r31)
 1804b94:	90 df 00 24 	stw     r6,36(r31)
 1804b98:	80 1f 00 24 	lwz     r0,36(r31)
 1804b9c:	7c 09 03 78 	mr      r9,r0
 1804ba0:	80 09 00 00 	lwz     r0,0(r9)
 1804ba4:	90 1f 00 08 	stw     r0,8(r31)
 1804ba8:	38 00 00 00 	li      r0,0
 1804bac:	90 1f 00 0c 	stw     r0,12(r31)
 1804bb0:	48 00 00 a8 	b       1804c58 <mac+0xdc>
 1804bb4:	80 1f 00 0c 	lwz     r0,12(r31)
 1804bb8:	54 00 08 3c 	rlwinm  r0,r0,1,0,30
 1804bbc:	81 3f 00 1c 	lwz     r9,28(r31)
 1804bc0:	7c 09 02 14 	add     r0,r9,r0
 1804bc4:	7c 0b 03 78 	mr      r11,r0
 1804bc8:	a0 0b 00 00 	lhz     r0,0(r11)
 1804bcc:	7c 00 07 34 	extsh   r0,r0
 1804bd0:	7c 09 03 78 	mr      r9,r0
 1804bd4:	80 1f 00 0c 	lwz     r0,12(r31)
 1804bd8:	54 00 08 3c 	rlwinm  r0,r0,1,0,30
 1804bdc:	81 7f 00 18 	lwz     r11,24(r31)
 1804be0:	7c 0b 02 14 	add     r0,r11,r0
 1804be4:	7c 0b 03 78 	mr      r11,r0
 1804be8:	a0 0b 00 00 	lhz     r0,0(r11)
 1804bec:	7c 00 07 34 	extsh   r0,r0
 1804bf0:	7c 09 01 d6 	mullw   r0,r9,r0
 1804bf4:	81 3f 00 08 	lwz     r9,8(r31)
 1804bf8:	7c 09 02 14 	add     r0,r9,r0
 1804bfc:	90 1f 00 08 	stw     r0,8(r31)
 1804c00:	80 1f 00 0c 	lwz     r0,12(r31)
 1804c04:	54 00 08 3c 	rlwinm  r0,r0,1,0,30
 1804c08:	81 3f 00 1c 	lwz     r9,28(r31)
 1804c0c:	7c 09 02 14 	add     r0,r9,r0
 1804c10:	7c 09 03 78 	mr      r9,r0
 1804c14:	a0 09 00 00 	lhz     r0,0(r9)
 1804c18:	7c 00 07 34 	extsh   r0,r0
 1804c1c:	7c 09 03 78 	mr      r9,r0
 1804c20:	80 1f 00 0c 	lwz     r0,12(r31)
 1804c24:	54 00 08 3c 	rlwinm  r0,r0,1,0,30
 1804c28:	81 7f 00 1c 	lwz     r11,28(r31)
 1804c2c:	7c 0b 02 14 	add     r0,r11,r0
 1804c30:	7c 0b 03 78 	mr      r11,r0
 1804c34:	a0 0b 00 00 	lhz     r0,0(r11)
 1804c38:	7c 00 07 34 	extsh   r0,r0
 1804c3c:	7c 09 01 d6 	mullw   r0,r9,r0
 1804c40:	81 3f 00 20 	lwz     r9,32(r31)
 1804c44:	7c 09 02 14 	add     r0,r9,r0
 1804c48:	90 1f 00 20 	stw     r0,32(r31)
 1804c4c:	80 1f 00 0c 	lwz     r0,12(r31)
 1804c50:	30 00 00 01 	addic   r0,r0,1
 1804c54:	90 1f 00 0c 	stw     r0,12(r31)
 1804c58:	80 1f 00 0c 	lwz     r0,12(r31)
 1804c5c:	2f 80 00 95 	cmpwi   cr7,r0,149
 1804c60:	40 9d ff 54 	ble+    cr7,1804bb4 <mac+0x38>
 1804c64:	80 1f 00 24 	lwz     r0,36(r31)
 1804c68:	81 3f 00 08 	lwz     r9,8(r31)
 1804c6c:	7c 0b 03 78 	mr      r11,r0
 1804c70:	91 2b 00 00 	stw     r9,0(r11)
 1804c74:	80 1f 00 20 	lwz     r0,32(r31)
 1804c78:	7c 03 03 78 	mr      r3,r0
 1804c7c:	39 7f 00 30 	addi    r11,r31,48
 1804c80:	83 eb ff fc 	lwz     r31,-4(r11)
 1804c84:	7d 61 5b 78 	mr      r1,r11
 1804c88:	4e 80 00 20 	blr

01804c8c <fir>:
 1804c8c:	94 21 ff d0 	stwu    r1,-48(r1)
 1804c90:	93 e1 00 2c 	stw     r31,44(r1)
 1804c94:	7c 3f 0b 78 	mr      r31,r1
 1804c98:	90 7f 00 18 	stw     r3,24(r31)
 1804c9c:	90 9f 00 1c 	stw     r4,28(r31)
 1804ca0:	90 bf 00 20 	stw     r5,32(r31)
 1804ca4:	38 00 00 00 	li      r0,0
 1804ca8:	90 1f 00 10 	stw     r0,16(r31)
 1804cac:	48 00 00 b0 	b       1804d5c <fir+0xd0>
 1804cb0:	38 00 00 00 	li      r0,0
 1804cb4:	90 1f 00 08 	stw     r0,8(r31)
 1804cb8:	38 00 00 00 	li      r0,0
 1804cbc:	90 1f 00 0c 	stw     r0,12(r31)
 1804cc0:	48 00 00 64 	b       1804d24 <fir+0x98>
 1804cc4:	81 3f 00 10 	lwz     r9,16(r31)
 1804cc8:	80 1f 00 0c 	lwz     r0,12(r31)
 1804ccc:	7c 09 02 14 	add     r0,r9,r0
 1804cd0:	54 00 08 3c 	rlwinm  r0,r0,1,0,30
 1804cd4:	81 3f 00 18 	lwz     r9,24(r31)
 1804cd8:	7c 09 02 14 	add     r0,r9,r0
 1804cdc:	7c 09 03 78 	mr      r9,r0
 1804ce0:	a0 09 00 00 	lhz     r0,0(r9)
 1804ce4:	7c 00 07 34 	extsh   r0,r0
 1804ce8:	7c 09 03 78 	mr      r9,r0
 1804cec:	80 1f 00 0c 	lwz     r0,12(r31)
 1804cf0:	54 00 08 3c 	rlwinm  r0,r0,1,0,30
 1804cf4:	81 7f 00 1c 	lwz     r11,28(r31)
 1804cf8:	7c 0b 02 14 	add     r0,r11,r0
 1804cfc:	7c 0b 03 78 	mr      r11,r0
 1804d00:	a0 0b 00 00 	lhz     r0,0(r11)
 1804d04:	7c 00 07 34 	extsh   r0,r0
 1804d08:	7c 09 01 d6 	mullw   r0,r9,r0
 1804d0c:	81 3f 00 08 	lwz     r9,8(r31)
 1804d10:	7c 09 02 14 	add     r0,r9,r0
 1804d14:	90 1f 00 08 	stw     r0,8(r31)
 1804d18:	80 1f 00 0c 	lwz     r0,12(r31)
 1804d1c:	30 00 00 01 	addic   r0,r0,1
 1804d20:	90 1f 00 0c 	stw     r0,12(r31)
 1804d24:	80 1f 00 0c 	lwz     r0,12(r31)
 1804d28:	2f 80 00 31 	cmpwi   cr7,r0,49
 1804d2c:	40 9d ff 98 	ble+    cr7,1804cc4 <fir+0x38>
 1804d30:	80 1f 00 10 	lwz     r0,16(r31)
 1804d34:	54 00 10 3a 	rlwinm  r0,r0,2,0,29
 1804d38:	81 3f 00 20 	lwz     r9,32(r31)
 1804d3c:	7c 09 02 14 	add     r0,r9,r0
 1804d40:	81 3f 00 08 	lwz     r9,8(r31)
 1804d44:	7d 29 7e 70 	srawi   r9,r9,15
 1804d48:	7c 0b 03 78 	mr      r11,r0
 1804d4c:	91 2b 00 00 	stw     r9,0(r11)
 1804d50:	80 1f 00 10 	lwz     r0,16(r31)
 1804d54:	30 00 00 01 	addic   r0,r0,1
 1804d58:	90 1f 00 10 	stw     r0,16(r31)
 1804d5c:	80 1f 00 10 	lwz     r0,16(r31)
 1804d60:	2f 80 00 31 	cmpwi   cr7,r0,49
 1804d64:	40 9d ff 4c 	ble+    cr7,1804cb0 <fir+0x24>
 1804d68:	39 7f 00 30 	addi    r11,r31,48
 1804d6c:	83 eb ff fc 	lwz     r31,-4(r11)
 1804d70:	7d 61 5b 78 	mr      r1,r11
 1804d74:	4e 80 00 20 	blr

01804d78 <fir_no_red_ld>:
 1804d78:	94 21 ff c0 	stwu    r1,-64(r1)
 1804d7c:	93 e1 00 3c 	stw     r31,60(r1)
 1804d80:	7c 3f 0b 78 	mr      r31,r1
 1804d84:	90 7f 00 28 	stw     r3,40(r31)
 1804d88:	90 9f 00 2c 	stw     r4,44(r31)
 1804d8c:	90 bf 00 30 	stw     r5,48(r31)
 1804d90:	38 00 00 00 	li      r0,0
 1804d94:	90 1f 00 18 	stw     r0,24(r31)
 1804d98:	48 00 01 b0 	b       1804f48 <fir_no_red_ld+0x1d0>
 1804d9c:	38 00 00 00 	li      r0,0
 1804da0:	90 1f 00 14 	stw     r0,20(r31)
 1804da4:	38 00 00 00 	li      r0,0
 1804da8:	90 1f 00 10 	stw     r0,16(r31)
 1804dac:	80 1f 00 18 	lwz     r0,24(r31)
 1804db0:	54 00 08 3c 	rlwinm  r0,r0,1,0,30
 1804db4:	81 3f 00 28 	lwz     r9,40(r31)
 1804db8:	7c 09 02 14 	add     r0,r9,r0
 1804dbc:	7c 09 03 78 	mr      r9,r0
 1804dc0:	a0 09 00 00 	lhz     r0,0(r9)
 1804dc4:	b0 1f 00 0e 	sth     r0,14(r31)
 1804dc8:	38 00 00 00 	li      r0,0
 1804dcc:	90 1f 00 1c 	stw     r0,28(r31)
 1804dd0:	48 00 01 1c 	b       1804eec <fir_no_red_ld+0x174>
 1804dd4:	81 3f 00 18 	lwz     r9,24(r31)
 1804dd8:	80 1f 00 1c 	lwz     r0,28(r31)
 1804ddc:	7c 09 02 14 	add     r0,r9,r0
 1804de0:	30 00 00 01 	addic   r0,r0,1
 1804de4:	54 00 08 3c 	rlwinm  r0,r0,1,0,30
 1804de8:	81 3f 00 28 	lwz     r9,40(r31)
 1804dec:	7c 09 02 14 	add     r0,r9,r0
 1804df0:	7c 0b 03 78 	mr      r11,r0
 1804df4:	a0 0b 00 00 	lhz     r0,0(r11)
 1804df8:	b0 1f 00 0c 	sth     r0,12(r31)
 1804dfc:	80 1f 00 1c 	lwz     r0,28(r31)
 1804e00:	54 00 08 3c 	rlwinm  r0,r0,1,0,30
 1804e04:	81 3f 00 2c 	lwz     r9,44(r31)
 1804e08:	7c 09 02 14 	add     r0,r9,r0
 1804e0c:	7c 09 03 78 	mr      r9,r0
 1804e10:	a0 09 00 00 	lhz     r0,0(r9)
 1804e14:	b0 1f 00 0a 	sth     r0,10(r31)
 1804e18:	a0 1f 00 0e 	lhz     r0,14(r31)
 1804e1c:	7c 09 07 34 	extsh   r9,r0
 1804e20:	a0 1f 00 0a 	lhz     r0,10(r31)
 1804e24:	7c 00 07 34 	extsh   r0,r0
 1804e28:	7c 09 01 d6 	mullw   r0,r9,r0
 1804e2c:	81 3f 00 14 	lwz     r9,20(r31)
 1804e30:	7c 09 02 14 	add     r0,r9,r0
 1804e34:	90 1f 00 14 	stw     r0,20(r31)
 1804e38:	a0 1f 00 0c 	lhz     r0,12(r31)
 1804e3c:	7c 09 07 34 	extsh   r9,r0
 1804e40:	a0 1f 00 0a 	lhz     r0,10(r31)
 1804e44:	7c 00 07 34 	extsh   r0,r0
 1804e48:	7c 09 01 d6 	mullw   r0,r9,r0
 1804e4c:	81 3f 00 10 	lwz     r9,16(r31)
 1804e50:	7c 09 02 14 	add     r0,r9,r0
 1804e54:	90 1f 00 10 	stw     r0,16(r31)
 1804e58:	81 3f 00 18 	lwz     r9,24(r31)
 1804e5c:	80 1f 00 1c 	lwz     r0,28(r31)
 1804e60:	7c 09 02 14 	add     r0,r9,r0
 1804e64:	30 00 00 02 	addic   r0,r0,2
 1804e68:	54 00 08 3c 	rlwinm  r0,r0,1,0,30
 1804e6c:	81 3f 00 28 	lwz     r9,40(r31)
 1804e70:	7c 09 02 14 	add     r0,r9,r0
 1804e74:	7c 0b 03 78 	mr      r11,r0
 1804e78:	a0 0b 00 00 	lhz     r0,0(r11)
 1804e7c:	b0 1f 00 0e 	sth     r0,14(r31)
 1804e80:	80 1f 00 1c 	lwz     r0,28(r31)
 1804e84:	30 00 00 01 	addic   r0,r0,1
 1804e88:	54 00 08 3c 	rlwinm  r0,r0,1,0,30
 1804e8c:	81 3f 00 2c 	lwz     r9,44(r31)
 1804e90:	7c 09 02 14 	add     r0,r9,r0
 1804e94:	7c 09 03 78 	mr      r9,r0
 1804e98:	a0 09 00 00 	lhz     r0,0(r9)
 1804e9c:	b0 1f 00 08 	sth     r0,8(r31)
 1804ea0:	a0 1f 00 0c 	lhz     r0,12(r31)
 1804ea4:	7c 09 07 34 	extsh   r9,r0
 1804ea8:	a0 1f 00 08 	lhz     r0,8(r31)
 1804eac:	7c 00 07 34 	extsh   r0,r0
 1804eb0:	7c 09 01 d6 	mullw   r0,r9,r0
 1804eb4:	81 3f 00 14 	lwz     r9,20(r31)
 1804eb8:	7c 09 02 14 	add     r0,r9,r0
 1804ebc:	90 1f 00 14 	stw     r0,20(r31)
 1804ec0:	a0 1f 00 0e 	lhz     r0,14(r31)
 1804ec4:	7c 09 07 34 	extsh   r9,r0
 1804ec8:	a0 1f 00 08 	lhz     r0,8(r31)
 1804ecc:	7c 00 07 34 	extsh   r0,r0
 1804ed0:	7c 09 01 d6 	mullw   r0,r9,r0
 1804ed4:	81 3f 00 10 	lwz     r9,16(r31)
 1804ed8:	7c 09 02 14 	add     r0,r9,r0
 1804edc:	90 1f 00 10 	stw     r0,16(r31)
 1804ee0:	80 1f 00 1c 	lwz     r0,28(r31)
 1804ee4:	30 00 00 02 	addic   r0,r0,2
 1804ee8:	90 1f 00 1c 	stw     r0,28(r31)
 1804eec:	80 1f 00 1c 	lwz     r0,28(r31)
 1804ef0:	2f 80 00 1f 	cmpwi   cr7,r0,31
 1804ef4:	40 9d fe e0 	ble+    cr7,1804dd4 <fir_no_red_ld+0x5c>
 1804ef8:	80 1f 00 18 	lwz     r0,24(r31)
 1804efc:	54 00 10 3a 	rlwinm  r0,r0,2,0,29
 1804f00:	81 3f 00 30 	lwz     r9,48(r31)
 1804f04:	7c 09 02 14 	add     r0,r9,r0
 1804f08:	81 3f 00 14 	lwz     r9,20(r31)
 1804f0c:	7d 29 7e 70 	srawi   r9,r9,15
 1804f10:	7c 0b 03 78 	mr      r11,r0
 1804f14:	91 2b 00 00 	stw     r9,0(r11)
 1804f18:	80 1f 00 18 	lwz     r0,24(r31)
 1804f1c:	30 00 00 01 	addic   r0,r0,1
 1804f20:	54 00 10 3a 	rlwinm  r0,r0,2,0,29
 1804f24:	81 3f 00 30 	lwz     r9,48(r31)
 1804f28:	7c 09 02 14 	add     r0,r9,r0
 1804f2c:	81 3f 00 10 	lwz     r9,16(r31)
 1804f30:	7d 29 7e 70 	srawi   r9,r9,15
 1804f34:	7c 0b 03 78 	mr      r11,r0
 1804f38:	91 2b 00 00 	stw     r9,0(r11)
 1804f3c:	80 1f 00 18 	lwz     r0,24(r31)
 1804f40:	30 00 00 02 	addic   r0,r0,2
 1804f44:	90 1f 00 18 	stw     r0,24(r31)
 1804f48:	80 1f 00 18 	lwz     r0,24(r31)
 1804f4c:	2f 80 00 63 	cmpwi   cr7,r0,99
 1804f50:	40 9d fe 4c 	ble+    cr7,1804d9c <fir_no_red_ld+0x24>
 1804f54:	39 7f 00 40 	addi    r11,r31,64
 1804f58:	83 eb ff fc 	lwz     r31,-4(r11)
 1804f5c:	7d 61 5b 78 	mr      r1,r11
 1804f60:	4e 80 00 20 	blr

01804f64 <latsynth>:
 1804f64:	94 21 ff d0 	stwu    r1,-48(r1)
 1804f68:	93 e1 00 2c 	stw     r31,44(r1)
 1804f6c:	7c 3f 0b 78 	mr      r31,r1
 1804f70:	90 7f 00 18 	stw     r3,24(r31)
 1804f74:	90 9f 00 1c 	stw     r4,28(r31)
 1804f78:	90 bf 00 20 	stw     r5,32(r31)
 1804f7c:	90 df 00 24 	stw     r6,36(r31)
 1804f80:	80 1f 00 20 	lwz     r0,32(r31)
 1804f84:	30 00 ff ff 	addic   r0,r0,-1
 1804f88:	54 00 08 3c 	rlwinm  r0,r0,1,0,30
 1804f8c:	81 3f 00 18 	lwz     r9,24(r31)
 1804f90:	7c 09 02 14 	add     r0,r9,r0
 1804f94:	7c 09 03 78 	mr      r9,r0
 1804f98:	a0 09 00 00 	lhz     r0,0(r9)
 1804f9c:	7c 00 07 34 	extsh   r0,r0
 1804fa0:	7c 09 03 78 	mr      r9,r0
 1804fa4:	80 1f 00 20 	lwz     r0,32(r31)
 1804fa8:	30 00 ff ff 	addic   r0,r0,-1
 1804fac:	54 00 08 3c 	rlwinm  r0,r0,1,0,30
 1804fb0:	81 7f 00 1c 	lwz     r11,28(r31)
 1804fb4:	7c 0b 02 14 	add     r0,r11,r0
 1804fb8:	7c 0b 03 78 	mr      r11,r0
 1804fbc:	a0 0b 00 00 	lhz     r0,0(r11)
 1804fc0:	7c 00 07 34 	extsh   r0,r0
 1804fc4:	7c 09 01 d6 	mullw   r0,r9,r0
 1804fc8:	81 3f 00 24 	lwz     r9,36(r31)
 1804fcc:	7c 00 48 50 	subf    r0,r0,r9
 1804fd0:	90 1f 00 24 	stw     r0,36(r31)
 1804fd4:	80 1f 00 20 	lwz     r0,32(r31)
 1804fd8:	30 00 ff fe 	addic   r0,r0,-2
 1804fdc:	90 1f 00 08 	stw     r0,8(r31)
 1804fe0:	48 00 00 d0 	b       18050b0 <latsynth+0x14c>
 1804fe4:	80 1f 00 08 	lwz     r0,8(r31)
 1804fe8:	54 00 08 3c 	rlwinm  r0,r0,1,0,30
 1804fec:	81 3f 00 18 	lwz     r9,24(r31)
 1804ff0:	7c 09 02 14 	add     r0,r9,r0
 1804ff4:	7c 09 03 78 	mr      r9,r0
 1804ff8:	a0 09 00 00 	lhz     r0,0(r9)
 1804ffc:	7c 00 07 34 	extsh   r0,r0
 1805000:	7c 09 03 78 	mr      r9,r0
 1805004:	80 1f 00 08 	lwz     r0,8(r31)
 1805008:	54 00 08 3c 	rlwinm  r0,r0,1,0,30
 180500c:	81 7f 00 1c 	lwz     r11,28(r31)
 1805010:	7c 0b 02 14 	add     r0,r11,r0
 1805014:	7c 0b 03 78 	mr      r11,r0
 1805018:	a0 0b 00 00 	lhz     r0,0(r11)
 180501c:	7c 00 07 34 	extsh   r0,r0
 1805020:	7c 09 01 d6 	mullw   r0,r9,r0
 1805024:	81 3f 00 24 	lwz     r9,36(r31)
 1805028:	7c 00 48 50 	subf    r0,r0,r9
 180502c:	90 1f 00 24 	stw     r0,36(r31)
 1805030:	80 1f 00 08 	lwz     r0,8(r31)
 1805034:	30 00 00 01 	addic   r0,r0,1
 1805038:	54 00 08 3c 	rlwinm  r0,r0,1,0,30
 180503c:	81 3f 00 18 	lwz     r9,24(r31)
 1805040:	7c 09 02 14 	add     r0,r9,r0
 1805044:	81 3f 00 08 	lwz     r9,8(r31)
 1805048:	55 29 08 3c 	rlwinm  r9,r9,1,0,30
 180504c:	81 7f 00 18 	lwz     r11,24(r31)
 1805050:	7d 2b 4a 14 	add     r9,r11,r9
 1805054:	a1 29 00 00 	lhz     r9,0(r9)
 1805058:	7d 29 07 34 	extsh   r9,r9
 180505c:	55 2b 04 3e 	clrlwi  r11,r9,16
 1805060:	81 3f 00 08 	lwz     r9,8(r31)
 1805064:	55 29 08 3c 	rlwinm  r9,r9,1,0,30
 1805068:	81 5f 00 1c 	lwz     r10,28(r31)
 180506c:	7d 2a 4a 14 	add     r9,r10,r9
 1805070:	a1 29 00 00 	lhz     r9,0(r9)
 1805074:	7d 29 07 34 	extsh   r9,r9
 1805078:	7d 2a 4b 78 	mr      r10,r9
 180507c:	81 3f 00 24 	lwz     r9,36(r31)
 1805080:	7d 29 86 70 	srawi   r9,r9,16
 1805084:	7d 2a 49 d6 	mullw   r9,r10,r9
 1805088:	7d 29 86 70 	srawi   r9,r9,16
 180508c:	55 29 04 3e 	clrlwi  r9,r9,16
 1805090:	7d 2b 4a 14 	add     r9,r11,r9
 1805094:	55 29 04 3e 	clrlwi  r9,r9,16
 1805098:	7d 29 07 34 	extsh   r9,r9
 180509c:	7c 0b 03 78 	mr      r11,r0
 18050a0:	b1 2b 00 00 	sth     r9,0(r11)
 18050a4:	80 1f 00 08 	lwz     r0,8(r31)
 18050a8:	30 00 ff ff 	addic   r0,r0,-1
 18050ac:	90 1f 00 08 	stw     r0,8(r31)
 18050b0:	80 1f 00 08 	lwz     r0,8(r31)
 18050b4:	2f 80 00 00 	cmpwi   cr7,r0,0
 18050b8:	40 9c ff 2c 	bge+    cr7,1804fe4 <latsynth+0x80>
 18050bc:	80 1f 00 24 	lwz     r0,36(r31)
 18050c0:	7c 00 86 70 	srawi   r0,r0,16
 18050c4:	7c 09 07 34 	extsh   r9,r0
 18050c8:	80 1f 00 18 	lwz     r0,24(r31)
 18050cc:	7c 0b 03 78 	mr      r11,r0
 18050d0:	b1 2b 00 00 	sth     r9,0(r11)
 18050d4:	80 1f 00 24 	lwz     r0,36(r31)
 18050d8:	7c 03 03 78 	mr      r3,r0
 18050dc:	39 7f 00 30 	addi    r11,r31,48
 18050e0:	83 eb ff fc 	lwz     r31,-4(r11)
 18050e4:	7d 61 5b 78 	mr      r1,r11
 18050e8:	4e 80 00 20 	blr

018050ec <iir1>:
 18050ec:	94 21 ff d0 	stwu    r1,-48(r1)
 18050f0:	93 e1 00 2c 	stw     r31,44(r1)
 18050f4:	7c 3f 0b 78 	mr      r31,r1
 18050f8:	90 7f 00 18 	stw     r3,24(r31)
 18050fc:	90 9f 00 1c 	stw     r4,28(r31)
 1805100:	90 bf 00 20 	stw     r5,32(r31)
 1805104:	90 df 00 24 	stw     r6,36(r31)
 1805108:	80 1f 00 1c 	lwz     r0,28(r31)
 180510c:	7c 09 03 78 	mr      r9,r0
 1805110:	a0 09 00 00 	lhz     r0,0(r9)
 1805114:	7c 00 07 34 	extsh   r0,r0
 1805118:	90 1f 00 10 	stw     r0,16(r31)
 180511c:	38 00 00 00 	li      r0,0
 1805120:	90 1f 00 08 	stw     r0,8(r31)
 1805124:	48 00 01 1c 	b       1805240 <iir1+0x154>
 1805128:	80 1f 00 18 	lwz     r0,24(r31)
 180512c:	30 00 00 04 	addic   r0,r0,4
 1805130:	7c 0a 03 78 	mr      r10,r0
 1805134:	a0 0a 00 00 	lhz     r0,0(r10)
 1805138:	7c 00 07 34 	extsh   r0,r0
 180513c:	7c 09 03 78 	mr      r9,r0
 1805140:	80 1f 00 24 	lwz     r0,36(r31)
 1805144:	7c 0b 03 78 	mr      r11,r0
 1805148:	80 0b 00 00 	lwz     r0,0(r11)
 180514c:	7d 29 01 d6 	mullw   r9,r9,r0
 1805150:	80 1f 00 18 	lwz     r0,24(r31)
 1805154:	30 00 00 06 	addic   r0,r0,6
 1805158:	7c 0a 03 78 	mr      r10,r0
 180515c:	a0 0a 00 00 	lhz     r0,0(r10)
 1805160:	7c 00 07 34 	extsh   r0,r0
 1805164:	7c 0b 03 78 	mr      r11,r0
 1805168:	80 1f 00 24 	lwz     r0,36(r31)
 180516c:	30 00 00 04 	addic   r0,r0,4
 1805170:	7c 0a 03 78 	mr      r10,r0
 1805174:	80 0a 00 00 	lwz     r0,0(r10)
 1805178:	7c 0b 01 d6 	mullw   r0,r11,r0
 180517c:	7c 09 02 14 	add     r0,r9,r0
 1805180:	7c 09 7e 70 	srawi   r9,r0,15
 1805184:	80 1f 00 10 	lwz     r0,16(r31)
 1805188:	7c 09 02 14 	add     r0,r9,r0
 180518c:	90 1f 00 0c 	stw     r0,12(r31)
 1805190:	80 1f 00 18 	lwz     r0,24(r31)
 1805194:	7c 0b 03 78 	mr      r11,r0
 1805198:	a0 0b 00 00 	lhz     r0,0(r11)
 180519c:	7c 00 07 34 	extsh   r0,r0
 18051a0:	7c 09 03 78 	mr      r9,r0
 18051a4:	80 1f 00 24 	lwz     r0,36(r31)
 18051a8:	7c 0a 03 78 	mr      r10,r0
 18051ac:	80 0a 00 00 	lwz     r0,0(r10)
 18051b0:	7d 29 01 d6 	mullw   r9,r9,r0
 18051b4:	80 1f 00 18 	lwz     r0,24(r31)
 18051b8:	30 00 00 02 	addic   r0,r0,2
 18051bc:	7c 0b 03 78 	mr      r11,r0
 18051c0:	a0 0b 00 00 	lhz     r0,0(r11)
 18051c4:	7c 00 07 34 	extsh   r0,r0
 18051c8:	7c 0b 03 78 	mr      r11,r0
 18051cc:	80 1f 00 24 	lwz     r0,36(r31)
 18051d0:	30 00 00 04 	addic   r0,r0,4
 18051d4:	7c 0a 03 78 	mr      r10,r0
 18051d8:	80 0a 00 00 	lwz     r0,0(r10)
 18051dc:	7c 0b 01 d6 	mullw   r0,r11,r0
 18051e0:	7c 09 02 14 	add     r0,r9,r0
 18051e4:	7c 09 7e 70 	srawi   r9,r0,15
 18051e8:	80 1f 00 0c 	lwz     r0,12(r31)
 18051ec:	7c 09 02 14 	add     r0,r9,r0
 18051f0:	90 1f 00 10 	stw     r0,16(r31)
 18051f4:	80 1f 00 24 	lwz     r0,36(r31)
 18051f8:	30 00 00 04 	addic   r0,r0,4
 18051fc:	81 3f 00 24 	lwz     r9,36(r31)
 1805200:	81 29 00 00 	lwz     r9,0(r9)
 1805204:	7c 0b 03 78 	mr      r11,r0
 1805208:	91 2b 00 00 	stw     r9,0(r11)
 180520c:	80 1f 00 24 	lwz     r0,36(r31)
 1805210:	81 3f 00 0c 	lwz     r9,12(r31)
 1805214:	7c 0a 03 78 	mr      r10,r0
 1805218:	91 2a 00 00 	stw     r9,0(r10)
 180521c:	80 1f 00 18 	lwz     r0,24(r31)
 1805220:	30 00 00 08 	addic   r0,r0,8
 1805224:	90 1f 00 18 	stw     r0,24(r31)
 1805228:	80 1f 00 24 	lwz     r0,36(r31)
 180522c:	30 00 00 08 	addic   r0,r0,8
 1805230:	90 1f 00 24 	stw     r0,36(r31)
 1805234:	80 1f 00 08 	lwz     r0,8(r31)
 1805238:	30 00 00 01 	addic   r0,r0,1
 180523c:	90 1f 00 08 	stw     r0,8(r31)
 1805240:	80 1f 00 08 	lwz     r0,8(r31)
 1805244:	2f 80 00 31 	cmpwi   cr7,r0,49
 1805248:	40 9d fe e0 	ble+    cr7,1805128 <iir1+0x3c>
 180524c:	80 1f 00 20 	lwz     r0,32(r31)
 1805250:	81 3f 00 10 	lwz     r9,16(r31)
 1805254:	7c 0b 03 78 	mr      r11,r0
 1805258:	91 2b 00 00 	stw     r9,0(r11)
 180525c:	80 1f 00 20 	lwz     r0,32(r31)
 1805260:	30 00 00 04 	addic   r0,r0,4
 1805264:	90 1f 00 20 	stw     r0,32(r31)
 1805268:	39 7f 00 30 	addi    r11,r31,48
 180526c:	83 eb ff fc 	lwz     r31,-4(r11)
 1805270:	7d 61 5b 78 	mr      r1,r11
 1805274:	4e 80 00 20 	blr

01805278 <codebook>:
 1805278:	94 21 ff c0 	stwu    r1,-64(r1)
 180527c:	93 e1 00 3c 	stw     r31,60(r1)
 1805280:	7c 3f 0b 78 	mr      r31,r1
 1805284:	90 7f 00 18 	stw     r3,24(r31)
 1805288:	90 9f 00 1c 	stw     r4,28(r31)
 180528c:	90 bf 00 20 	stw     r5,32(r31)
 1805290:	90 df 00 24 	stw     r6,36(r31)
 1805294:	90 ff 00 28 	stw     r7,40(r31)
 1805298:	91 1f 00 2c 	stw     r8,44(r31)
 180529c:	7d 40 53 78 	mr      r0,r10
 18052a0:	b1 3f 00 30 	sth     r9,48(r31)
 18052a4:	b0 1f 00 32 	sth     r0,50(r31)
 18052a8:	80 1f 00 18 	lwz     r0,24(r31)
 18052ac:	54 00 08 3c 	rlwinm  r0,r0,1,0,30
 18052b0:	90 1f 00 08 	stw     r0,8(r31)
 18052b4:	80 1f 00 1c 	lwz     r0,28(r31)
 18052b8:	30 00 00 01 	addic   r0,r0,1
 18052bc:	90 1f 00 0c 	stw     r0,12(r31)
 18052c0:	48 00 00 10 	b       18052d0 <codebook+0x58>
 18052c4:	80 1f 00 0c 	lwz     r0,12(r31)
 18052c8:	30 00 00 01 	addic   r0,r0,1
 18052cc:	90 1f 00 0c 	stw     r0,12(r31)
 18052d0:	81 3f 00 0c 	lwz     r9,12(r31)
 18052d4:	80 1f 00 20 	lwz     r0,32(r31)
 18052d8:	7f 89 00 00 	cmpw    cr7,r9,r0
 18052dc:	40 9d ff e8 	ble+    cr7,18052c4 <codebook+0x4c>
 18052e0:	80 1f 00 28 	lwz     r0,40(r31)
 18052e4:	7c 03 03 78 	mr      r3,r0
 18052e8:	39 7f 00 40 	addi    r11,r31,64
 18052ec:	83 eb ff fc 	lwz     r31,-4(r11)
 18052f0:	7d 61 5b 78 	mr      r1,r11
 18052f4:	4e 80 00 20 	blr

018052f8 <jpegdct>:
 18052f8:	94 21 ff a8 	stwu    r1,-88(r1)
 18052fc:	93 e1 00 54 	stw     r31,84(r1)
 1805300:	7c 3f 0b 78 	mr      r31,r1
 1805304:	90 7f 00 48 	stw     r3,72(r31)
 1805308:	90 9f 00 4c 	stw     r4,76(r31)
 180530c:	38 00 00 01 	li      r0,1
 1805310:	b0 1f 00 0e 	sth     r0,14(r31)
 1805314:	38 00 00 00 	li      r0,0
 1805318:	b0 1f 00 0c 	sth     r0,12(r31)
 180531c:	38 00 00 0d 	li      r0,13
 1805320:	b0 1f 00 0a 	sth     r0,10(r31)
 1805324:	38 00 00 08 	li      r0,8
 1805328:	b0 1f 00 08 	sth     r0,8(r31)
 180532c:	48 00 06 60 	b       180598c <jpegdct+0x694>
 1805330:	38 00 00 00 	li      r0,0
 1805334:	b0 1f 00 12 	sth     r0,18(r31)
 1805338:	48 00 05 e8 	b       1805920 <jpegdct+0x628>
 180533c:	38 00 00 00 	li      r0,0
 1805340:	b0 1f 00 10 	sth     r0,16(r31)
 1805344:	48 00 01 0c 	b       1805450 <jpegdct+0x158>
 1805348:	a0 1f 00 10 	lhz     r0,16(r31)
 180534c:	7c 00 07 34 	extsh   r0,r0
 1805350:	a1 3f 00 0e 	lhz     r9,14(r31)
 1805354:	7d 2b 07 34 	extsh   r11,r9
 1805358:	a1 3f 00 10 	lhz     r9,16(r31)
 180535c:	7d 29 07 34 	extsh   r9,r9
 1805360:	7d 2b 49 d6 	mullw   r9,r11,r9
 1805364:	55 29 08 3c 	rlwinm  r9,r9,1,0,30
 1805368:	81 7f 00 48 	lwz     r11,72(r31)
 180536c:	7d 2b 4a 14 	add     r9,r11,r9
 1805370:	a1 29 00 00 	lhz     r9,0(r9)
 1805374:	7d 29 07 34 	extsh   r9,r9
 1805378:	7d 2b 4b 78 	mr      r11,r9
 180537c:	a1 3f 00 0e 	lhz     r9,14(r31)
 1805380:	7d 2a 07 34 	extsh   r10,r9
 1805384:	a1 3f 00 10 	lhz     r9,16(r31)
 1805388:	7d 29 07 34 	extsh   r9,r9
 180538c:	21 29 00 07 	subfic  r9,r9,7
 1805390:	7d 2a 49 d6 	mullw   r9,r10,r9
 1805394:	55 29 08 3c 	rlwinm  r9,r9,1,0,30
 1805398:	81 5f 00 48 	lwz     r10,72(r31)
 180539c:	7d 2a 4a 14 	add     r9,r10,r9
 18053a0:	a1 29 00 00 	lhz     r9,0(r9)
 18053a4:	7d 29 07 34 	extsh   r9,r9
 18053a8:	7d 2b 4a 14 	add     r9,r11,r9
 18053ac:	54 00 10 3a 	rlwinm  r0,r0,2,0,29
 18053b0:	39 7f 00 08 	addi    r11,r31,8
 18053b4:	7c 0b 02 14 	add     r0,r11,r0
 18053b8:	30 00 00 0c 	addic   r0,r0,12
 18053bc:	7c 0b 03 78 	mr      r11,r0
 18053c0:	91 2b 00 00 	stw     r9,0(r11)
 18053c4:	a0 1f 00 10 	lhz     r0,16(r31)
 18053c8:	7c 00 07 34 	extsh   r0,r0
 18053cc:	20 00 00 07 	subfic  r0,r0,7
 18053d0:	a1 3f 00 0e 	lhz     r9,14(r31)
 18053d4:	7d 2b 07 34 	extsh   r11,r9
 18053d8:	a1 3f 00 10 	lhz     r9,16(r31)
 18053dc:	7d 29 07 34 	extsh   r9,r9
 18053e0:	7d 2b 49 d6 	mullw   r9,r11,r9
 18053e4:	55 29 08 3c 	rlwinm  r9,r9,1,0,30
 18053e8:	81 7f 00 48 	lwz     r11,72(r31)
 18053ec:	7d 2b 4a 14 	add     r9,r11,r9
 18053f0:	a1 29 00 00 	lhz     r9,0(r9)
 18053f4:	7d 29 07 34 	extsh   r9,r9
 18053f8:	7d 2b 4b 78 	mr      r11,r9
 18053fc:	a1 3f 00 0e 	lhz     r9,14(r31)
 1805400:	7d 2a 07 34 	extsh   r10,r9
 1805404:	a1 3f 00 10 	lhz     r9,16(r31)
 1805408:	7d 29 07 34 	extsh   r9,r9
 180540c:	21 29 00 07 	subfic  r9,r9,7
 1805410:	7d 2a 49 d6 	mullw   r9,r10,r9
 1805414:	55 29 08 3c 	rlwinm  r9,r9,1,0,30
 1805418:	81 5f 00 48 	lwz     r10,72(r31)
 180541c:	7d 2a 4a 14 	add     r9,r10,r9
 1805420:	a1 29 00 00 	lhz     r9,0(r9)
 1805424:	7d 29 07 34 	extsh   r9,r9
 1805428:	7d 29 58 50 	subf    r9,r9,r11
 180542c:	54 00 10 3a 	rlwinm  r0,r0,2,0,29
 1805430:	39 7f 00 08 	addi    r11,r31,8
 1805434:	7c 0b 02 14 	add     r0,r11,r0
 1805438:	30 00 00 0c 	addic   r0,r0,12
 180543c:	7c 0b 03 78 	mr      r11,r0
 1805440:	91 2b 00 00 	stw     r9,0(r11)
 1805444:	a0 1f 00 10 	lhz     r0,16(r31)
 1805448:	30 00 00 01 	addic   r0,r0,1
 180544c:	b0 1f 00 10 	sth     r0,16(r31)
 1805450:	a0 1f 00 10 	lhz     r0,16(r31)
 1805454:	7c 00 07 34 	extsh   r0,r0
 1805458:	2f 80 00 03 	cmpwi   cr7,r0,3
 180545c:	40 9d fe ec 	ble+    cr7,1805348 <jpegdct+0x50>
 1805460:	81 3f 00 14 	lwz     r9,20(r31)
 1805464:	80 1f 00 20 	lwz     r0,32(r31)
 1805468:	7c 09 02 14 	add     r0,r9,r0
 180546c:	90 1f 00 34 	stw     r0,52(r31)
 1805470:	81 3f 00 14 	lwz     r9,20(r31)
 1805474:	80 1f 00 20 	lwz     r0,32(r31)
 1805478:	7c 00 48 50 	subf    r0,r0,r9
 180547c:	90 1f 00 38 	stw     r0,56(r31)
 1805480:	81 3f 00 18 	lwz     r9,24(r31)
 1805484:	80 1f 00 1c 	lwz     r0,28(r31)
 1805488:	7c 09 02 14 	add     r0,r9,r0
 180548c:	90 1f 00 3c 	stw     r0,60(r31)
 1805490:	81 3f 00 18 	lwz     r9,24(r31)
 1805494:	80 1f 00 1c 	lwz     r0,28(r31)
 1805498:	7c 00 48 50 	subf    r0,r0,r9
 180549c:	90 1f 00 40 	stw     r0,64(r31)
 18054a0:	81 3f 00 34 	lwz     r9,52(r31)
 18054a4:	80 1f 00 3c 	lwz     r0,60(r31)
 18054a8:	7d 29 02 14 	add     r9,r9,r0
 18054ac:	a0 1f 00 0c 	lhz     r0,12(r31)
 18054b0:	7c 00 07 34 	extsh   r0,r0
 18054b4:	7d 20 06 30 	sraw    r0,r9,r0
 18054b8:	7c 09 07 34 	extsh   r9,r0
 18054bc:	80 1f 00 48 	lwz     r0,72(r31)
 18054c0:	7c 0b 03 78 	mr      r11,r0
 18054c4:	b1 2b 00 00 	sth     r9,0(r11)
 18054c8:	a0 1f 00 0e 	lhz     r0,14(r31)
 18054cc:	7c 00 07 34 	extsh   r0,r0
 18054d0:	54 00 18 38 	rlwinm  r0,r0,3,0,28
 18054d4:	81 3f 00 48 	lwz     r9,72(r31)
 18054d8:	7c 09 02 14 	add     r0,r9,r0
 18054dc:	81 7f 00 34 	lwz     r11,52(r31)
 18054e0:	81 3f 00 3c 	lwz     r9,60(r31)
 18054e4:	7d 69 58 50 	subf    r11,r9,r11
 18054e8:	a1 3f 00 0c 	lhz     r9,12(r31)
 18054ec:	7d 29 07 34 	extsh   r9,r9
 18054f0:	7d 69 4e 30 	sraw    r9,r11,r9
 18054f4:	7d 29 07 34 	extsh   r9,r9
 18054f8:	7c 0b 03 78 	mr      r11,r0
 18054fc:	b1 2b 00 00 	sth     r9,0(r11)
 1805500:	80 1f 00 40 	lwz     r0,64(r31)
 1805504:	54 09 04 3e 	clrlwi  r9,r0,16
 1805508:	80 1f 00 38 	lwz     r0,56(r31)
 180550c:	54 00 04 3e 	clrlwi  r0,r0,16
 1805510:	7c 09 02 14 	add     r0,r9,r0
 1805514:	54 00 04 3e 	clrlwi  r0,r0,16
 1805518:	7c 00 07 34 	extsh   r0,r0
 180551c:	7c 09 03 78 	mr      r9,r0
 1805520:	80 1f 00 4c 	lwz     r0,76(r31)
 1805524:	30 00 00 14 	addic   r0,r0,20
 1805528:	7c 0b 03 78 	mr      r11,r0
 180552c:	a0 0b 00 00 	lhz     r0,0(r11)
 1805530:	7c 00 07 34 	extsh   r0,r0
 1805534:	7c 09 01 d6 	mullw   r0,r9,r0
 1805538:	90 1f 00 34 	stw     r0,52(r31)
 180553c:	a0 1f 00 0e 	lhz     r0,14(r31)
 1805540:	7c 00 07 34 	extsh   r0,r0
 1805544:	54 00 10 3a 	rlwinm  r0,r0,2,0,29
 1805548:	81 3f 00 48 	lwz     r9,72(r31)
 180554c:	7c 09 02 14 	add     r0,r9,r0
 1805550:	81 3f 00 34 	lwz     r9,52(r31)
 1805554:	55 2b 04 3e 	clrlwi  r11,r9,16
 1805558:	81 5f 00 38 	lwz     r10,56(r31)
 180555c:	81 3f 00 4c 	lwz     r9,76(r31)
 1805560:	39 29 00 12 	addi    r9,r9,18
 1805564:	a1 29 00 00 	lhz     r9,0(r9)
 1805568:	7d 29 07 34 	extsh   r9,r9
 180556c:	7d 4a 49 d6 	mullw   r10,r10,r9
 1805570:	a1 3f 00 0a 	lhz     r9,10(r31)
 1805574:	7d 29 07 34 	extsh   r9,r9
 1805578:	7d 49 4e 30 	sraw    r9,r10,r9
 180557c:	55 29 04 3e 	clrlwi  r9,r9,16
 1805580:	7d 2b 4a 14 	add     r9,r11,r9
 1805584:	55 29 04 3e 	clrlwi  r9,r9,16
 1805588:	7d 29 07 34 	extsh   r9,r9
 180558c:	7c 0b 03 78 	mr      r11,r0
 1805590:	b1 2b 00 00 	sth     r9,0(r11)
 1805594:	a0 1f 00 0e 	lhz     r0,14(r31)
 1805598:	7c 00 07 34 	extsh   r0,r0
 180559c:	1c 00 00 0c 	mulli   r0,r0,12
 18055a0:	81 3f 00 48 	lwz     r9,72(r31)
 18055a4:	7c 09 02 14 	add     r0,r9,r0
 18055a8:	81 3f 00 34 	lwz     r9,52(r31)
 18055ac:	55 2b 04 3e 	clrlwi  r11,r9,16
 18055b0:	81 5f 00 40 	lwz     r10,64(r31)
 18055b4:	81 3f 00 4c 	lwz     r9,76(r31)
 18055b8:	39 29 00 16 	addi    r9,r9,22
 18055bc:	a1 29 00 00 	lhz     r9,0(r9)
 18055c0:	7d 29 07 34 	extsh   r9,r9
 18055c4:	7d 4a 49 d6 	mullw   r10,r10,r9
 18055c8:	a1 3f 00 0a 	lhz     r9,10(r31)
 18055cc:	7d 29 07 34 	extsh   r9,r9
 18055d0:	7d 49 4e 30 	sraw    r9,r10,r9
 18055d4:	55 29 04 3e 	clrlwi  r9,r9,16
 18055d8:	7d 2b 4a 14 	add     r9,r11,r9
 18055dc:	55 29 04 3e 	clrlwi  r9,r9,16
 18055e0:	7d 29 07 34 	extsh   r9,r9
 18055e4:	7c 0b 03 78 	mr      r11,r0
 18055e8:	b1 2b 00 00 	sth     r9,0(r11)
 18055ec:	80 1f 00 24 	lwz     r0,36(r31)
 18055f0:	54 09 04 3e 	clrlwi  r9,r0,16
 18055f4:	80 1f 00 30 	lwz     r0,48(r31)
 18055f8:	54 00 04 3e 	clrlwi  r0,r0,16
 18055fc:	7c 09 02 14 	add     r0,r9,r0
 1805600:	54 00 04 3e 	clrlwi  r0,r0,16
 1805604:	7c 00 07 34 	extsh   r0,r0
 1805608:	7c 09 03 78 	mr      r9,r0
 180560c:	80 1f 00 4c 	lwz     r0,76(r31)
 1805610:	30 00 00 04 	addic   r0,r0,4
 1805614:	7c 0b 03 78 	mr      r11,r0
 1805618:	a0 0b 00 00 	lhz     r0,0(r11)
 180561c:	7c 00 07 34 	extsh   r0,r0
 1805620:	7c 09 01 d6 	mullw   r0,r9,r0
 1805624:	90 1f 00 14 	stw     r0,20(r31)
 1805628:	80 1f 00 28 	lwz     r0,40(r31)
 180562c:	54 09 04 3e 	clrlwi  r9,r0,16
 1805630:	80 1f 00 2c 	lwz     r0,44(r31)
 1805634:	54 00 04 3e 	clrlwi  r0,r0,16
 1805638:	7c 09 02 14 	add     r0,r9,r0
 180563c:	54 00 04 3e 	clrlwi  r0,r0,16
 1805640:	7c 00 07 34 	extsh   r0,r0
 1805644:	7c 09 03 78 	mr      r9,r0
 1805648:	80 1f 00 4c 	lwz     r0,76(r31)
 180564c:	7c 0b 03 78 	mr      r11,r0
 1805650:	a0 0b 00 00 	lhz     r0,0(r11)
 1805654:	7c 00 07 34 	extsh   r0,r0
 1805658:	7c 09 01 d6 	mullw   r0,r9,r0
 180565c:	90 1f 00 18 	stw     r0,24(r31)
 1805660:	81 3f 00 24 	lwz     r9,36(r31)
 1805664:	80 1f 00 2c 	lwz     r0,44(r31)
 1805668:	7c 09 02 14 	add     r0,r9,r0
 180566c:	90 1f 00 1c 	stw     r0,28(r31)
 1805670:	81 3f 00 28 	lwz     r9,40(r31)
 1805674:	80 1f 00 30 	lwz     r0,48(r31)
 1805678:	7c 09 02 14 	add     r0,r9,r0
 180567c:	90 1f 00 20 	stw     r0,32(r31)
 1805680:	80 1f 00 1c 	lwz     r0,28(r31)
 1805684:	54 09 04 3e 	clrlwi  r9,r0,16
 1805688:	80 1f 00 20 	lwz     r0,32(r31)
 180568c:	54 00 04 3e 	clrlwi  r0,r0,16
 1805690:	7c 09 02 14 	add     r0,r9,r0
 1805694:	54 00 04 3e 	clrlwi  r0,r0,16
 1805698:	7c 00 07 34 	extsh   r0,r0
 180569c:	7c 09 03 78 	mr      r9,r0
 18056a0:	80 1f 00 4c 	lwz     r0,76(r31)
 18056a4:	30 00 00 10 	addic   r0,r0,16
 18056a8:	7c 0b 03 78 	mr      r11,r0
 18056ac:	a0 0b 00 00 	lhz     r0,0(r11)
 18056b0:	7c 00 07 34 	extsh   r0,r0
 18056b4:	7c 09 01 d6 	mullw   r0,r9,r0
 18056b8:	90 1f 00 34 	stw     r0,52(r31)
 18056bc:	80 1f 00 1c 	lwz     r0,28(r31)
 18056c0:	7c 00 07 34 	extsh   r0,r0
 18056c4:	7c 09 03 78 	mr      r9,r0
 18056c8:	80 1f 00 4c 	lwz     r0,76(r31)
 18056cc:	30 00 00 02 	addic   r0,r0,2
 18056d0:	7c 0b 03 78 	mr      r11,r0
 18056d4:	a0 0b 00 00 	lhz     r0,0(r11)
 18056d8:	7c 00 07 34 	extsh   r0,r0
 18056dc:	7d 29 01 d6 	mullw   r9,r9,r0
 18056e0:	80 1f 00 34 	lwz     r0,52(r31)
 18056e4:	7c 09 02 14 	add     r0,r9,r0
 18056e8:	90 1f 00 1c 	stw     r0,28(r31)
 18056ec:	80 1f 00 20 	lwz     r0,32(r31)
 18056f0:	7c 00 07 34 	extsh   r0,r0
 18056f4:	7c 09 03 78 	mr      r9,r0
 18056f8:	80 1f 00 4c 	lwz     r0,76(r31)
 18056fc:	30 00 00 06 	addic   r0,r0,6
 1805700:	7c 0b 03 78 	mr      r11,r0
 1805704:	a0 0b 00 00 	lhz     r0,0(r11)
 1805708:	7c 00 07 34 	extsh   r0,r0
 180570c:	7d 29 01 d6 	mullw   r9,r9,r0
 1805710:	80 1f 00 34 	lwz     r0,52(r31)
 1805714:	7c 09 02 14 	add     r0,r9,r0
 1805718:	90 1f 00 20 	stw     r0,32(r31)
 180571c:	a0 1f 00 0e 	lhz     r0,14(r31)
 1805720:	7c 00 07 34 	extsh   r0,r0
 1805724:	1c 00 00 0e 	mulli   r0,r0,14
 1805728:	81 3f 00 48 	lwz     r9,72(r31)
 180572c:	7c 09 02 14 	add     r0,r9,r0
 1805730:	81 3f 00 24 	lwz     r9,36(r31)
 1805734:	55 2b 04 3e 	clrlwi  r11,r9,16
 1805738:	81 3f 00 4c 	lwz     r9,76(r31)
 180573c:	39 29 00 08 	addi    r9,r9,8
 1805740:	a1 29 00 00 	lhz     r9,0(r9)
 1805744:	7d 29 07 34 	extsh   r9,r9
 1805748:	55 29 04 3e 	clrlwi  r9,r9,16
 180574c:	7d 2b 49 d6 	mullw   r9,r11,r9
 1805750:	55 2b 04 3e 	clrlwi  r11,r9,16
 1805754:	81 3f 00 14 	lwz     r9,20(r31)
 1805758:	55 29 04 3e 	clrlwi  r9,r9,16
 180575c:	7d 2b 4a 14 	add     r9,r11,r9
 1805760:	55 2b 04 3e 	clrlwi  r11,r9,16
 1805764:	81 3f 00 1c 	lwz     r9,28(r31)
 1805768:	55 29 04 3e 	clrlwi  r9,r9,16
 180576c:	7d 2b 4a 14 	add     r9,r11,r9
 1805770:	55 29 04 3e 	clrlwi  r9,r9,16
 1805774:	7d 29 07 34 	extsh   r9,r9
 1805778:	7d 2b 4b 78 	mr      r11,r9
 180577c:	a1 3f 00 0a 	lhz     r9,10(r31)
 1805780:	7d 29 07 34 	extsh   r9,r9
 1805784:	7d 69 4e 30 	sraw    r9,r11,r9
 1805788:	7d 29 07 34 	extsh   r9,r9
 180578c:	7c 0b 03 78 	mr      r11,r0
 1805790:	b1 2b 00 00 	sth     r9,0(r11)
 1805794:	a0 1f 00 0e 	lhz     r0,14(r31)
 1805798:	7c 00 07 34 	extsh   r0,r0
 180579c:	1c 00 00 0a 	mulli   r0,r0,10
 18057a0:	81 3f 00 48 	lwz     r9,72(r31)
 18057a4:	7c 09 02 14 	add     r0,r9,r0
 18057a8:	81 3f 00 28 	lwz     r9,40(r31)
 18057ac:	55 2b 04 3e 	clrlwi  r11,r9,16
 18057b0:	81 3f 00 4c 	lwz     r9,76(r31)
 18057b4:	39 29 00 0c 	addi    r9,r9,12
 18057b8:	a1 29 00 00 	lhz     r9,0(r9)
 18057bc:	7d 29 07 34 	extsh   r9,r9
 18057c0:	55 29 04 3e 	clrlwi  r9,r9,16
 18057c4:	7d 2b 49 d6 	mullw   r9,r11,r9
 18057c8:	55 2b 04 3e 	clrlwi  r11,r9,16
 18057cc:	81 3f 00 18 	lwz     r9,24(r31)
 18057d0:	55 29 04 3e 	clrlwi  r9,r9,16
 18057d4:	7d 2b 4a 14 	add     r9,r11,r9
 18057d8:	55 2b 04 3e 	clrlwi  r11,r9,16
 18057dc:	81 3f 00 20 	lwz     r9,32(r31)
 18057e0:	55 29 04 3e 	clrlwi  r9,r9,16
 18057e4:	7d 2b 4a 14 	add     r9,r11,r9
 18057e8:	55 29 04 3e 	clrlwi  r9,r9,16
 18057ec:	7d 29 07 34 	extsh   r9,r9
 18057f0:	7d 2b 4b 78 	mr      r11,r9
 18057f4:	a1 3f 00 0a 	lhz     r9,10(r31)
 18057f8:	7d 29 07 34 	extsh   r9,r9
 18057fc:	7d 69 4e 30 	sraw    r9,r11,r9
 1805800:	7d 29 07 34 	extsh   r9,r9
 1805804:	7c 0b 03 78 	mr      r11,r0
 1805808:	b1 2b 00 00 	sth     r9,0(r11)
 180580c:	a0 1f 00 0e 	lhz     r0,14(r31)
 1805810:	7c 00 07 34 	extsh   r0,r0
 1805814:	1c 00 00 06 	mulli   r0,r0,6
 1805818:	81 3f 00 48 	lwz     r9,72(r31)
 180581c:	7c 09 02 14 	add     r0,r9,r0
 1805820:	81 3f 00 2c 	lwz     r9,44(r31)
 1805824:	55 2b 04 3e 	clrlwi  r11,r9,16
 1805828:	81 3f 00 4c 	lwz     r9,76(r31)
 180582c:	39 29 00 0a 	addi    r9,r9,10
 1805830:	a1 29 00 00 	lhz     r9,0(r9)
 1805834:	7d 29 07 34 	extsh   r9,r9
 1805838:	55 29 04 3e 	clrlwi  r9,r9,16
 180583c:	7d 2b 49 d6 	mullw   r9,r11,r9
 1805840:	55 2b 04 3e 	clrlwi  r11,r9,16
 1805844:	81 3f 00 18 	lwz     r9,24(r31)
 1805848:	55 29 04 3e 	clrlwi  r9,r9,16
 180584c:	7d 2b 4a 14 	add     r9,r11,r9
 1805850:	55 2b 04 3e 	clrlwi  r11,r9,16
 1805854:	81 3f 00 1c 	lwz     r9,28(r31)
 1805858:	55 29 04 3e 	clrlwi  r9,r9,16
 180585c:	7d 2b 4a 14 	add     r9,r11,r9
 1805860:	55 29 04 3e 	clrlwi  r9,r9,16
 1805864:	7d 29 07 34 	extsh   r9,r9
 1805868:	7d 2b 4b 78 	mr      r11,r9
 180586c:	a1 3f 00 0a 	lhz     r9,10(r31)
 1805870:	7d 29 07 34 	extsh   r9,r9
 1805874:	7d 69 4e 30 	sraw    r9,r11,r9
 1805878:	7d 29 07 34 	extsh   r9,r9
 180587c:	7c 0b 03 78 	mr      r11,r0
 1805880:	b1 2b 00 00 	sth     r9,0(r11)
 1805884:	a0 1f 00 0e 	lhz     r0,14(r31)
 1805888:	7c 00 07 34 	extsh   r0,r0
 180588c:	54 00 08 3c 	rlwinm  r0,r0,1,0,30
 1805890:	81 3f 00 48 	lwz     r9,72(r31)
 1805894:	7c 09 02 14 	add     r0,r9,r0
 1805898:	81 3f 00 30 	lwz     r9,48(r31)
 180589c:	55 2b 04 3e 	clrlwi  r11,r9,16
 18058a0:	81 3f 00 4c 	lwz     r9,76(r31)
 18058a4:	39 29 00 0e 	addi    r9,r9,14
 18058a8:	a1 29 00 00 	lhz     r9,0(r9)
 18058ac:	7d 29 07 34 	extsh   r9,r9
 18058b0:	55 29 04 3e 	clrlwi  r9,r9,16
 18058b4:	7d 2b 49 d6 	mullw   r9,r11,r9
 18058b8:	55 2b 04 3e 	clrlwi  r11,r9,16
 18058bc:	81 3f 00 14 	lwz     r9,20(r31)
 18058c0:	55 29 04 3e 	clrlwi  r9,r9,16
 18058c4:	7d 2b 4a 14 	add     r9,r11,r9
 18058c8:	55 2b 04 3e 	clrlwi  r11,r9,16
 18058cc:	81 3f 00 20 	lwz     r9,32(r31)
 18058d0:	55 29 04 3e 	clrlwi  r9,r9,16
 18058d4:	7d 2b 4a 14 	add     r9,r11,r9
 18058d8:	55 29 04 3e 	clrlwi  r9,r9,16
 18058dc:	7d 29 07 34 	extsh   r9,r9
 18058e0:	7d 2b 4b 78 	mr      r11,r9
 18058e4:	a1 3f 00 0a 	lhz     r9,10(r31)
 18058e8:	7d 29 07 34 	extsh   r9,r9
 18058ec:	7d 69 4e 30 	sraw    r9,r11,r9
 18058f0:	7d 29 07 34 	extsh   r9,r9
 18058f4:	7c 0b 03 78 	mr      r11,r0
 18058f8:	b1 2b 00 00 	sth     r9,0(r11)
 18058fc:	a0 1f 00 12 	lhz     r0,18(r31)
 1805900:	30 00 00 01 	addic   r0,r0,1
 1805904:	b0 1f 00 12 	sth     r0,18(r31)
 1805908:	a0 1f 00 08 	lhz     r0,8(r31)
 180590c:	7c 00 07 34 	extsh   r0,r0
 1805910:	54 00 08 3c 	rlwinm  r0,r0,1,0,30
 1805914:	81 3f 00 48 	lwz     r9,72(r31)
 1805918:	7c 09 02 14 	add     r0,r9,r0
 180591c:	90 1f 00 48 	stw     r0,72(r31)
 1805920:	a0 1f 00 12 	lhz     r0,18(r31)
 1805924:	7c 00 07 34 	extsh   r0,r0
 1805928:	2f 80 00 07 	cmpwi   cr7,r0,7
 180592c:	40 9d fa 10 	ble+    cr7,180533c <jpegdct+0x44>
 1805930:	a0 1f 00 0e 	lhz     r0,14(r31)
 1805934:	54 00 04 3e 	clrlwi  r0,r0,16
 1805938:	30 00 00 07 	addic   r0,r0,7
 180593c:	54 00 04 3e 	clrlwi  r0,r0,16
 1805940:	b0 1f 00 0e 	sth     r0,14(r31)
 1805944:	a0 1f 00 0c 	lhz     r0,12(r31)
 1805948:	54 00 04 3e 	clrlwi  r0,r0,16
 180594c:	30 00 00 03 	addic   r0,r0,3
 1805950:	54 00 04 3e 	clrlwi  r0,r0,16
 1805954:	b0 1f 00 0c 	sth     r0,12(r31)
 1805958:	a0 1f 00 0a 	lhz     r0,10(r31)
 180595c:	54 00 04 3e 	clrlwi  r0,r0,16
 1805960:	30 00 00 03 	addic   r0,r0,3
 1805964:	54 00 04 3e 	clrlwi  r0,r0,16
 1805968:	b0 1f 00 0a 	sth     r0,10(r31)
 180596c:	a0 1f 00 08 	lhz     r0,8(r31)
 1805970:	54 00 04 3e 	clrlwi  r0,r0,16
 1805974:	30 00 ff f9 	addic   r0,r0,-7
 1805978:	54 00 04 3e 	clrlwi  r0,r0,16
 180597c:	b0 1f 00 08 	sth     r0,8(r31)
 1805980:	80 1f 00 48 	lwz     r0,72(r31)
 1805984:	30 00 ff 80 	addic   r0,r0,-128
 1805988:	90 1f 00 48 	stw     r0,72(r31)
 180598c:	a0 1f 00 0e 	lhz     r0,14(r31)
 1805990:	7c 00 07 34 	extsh   r0,r0
 1805994:	2f 80 00 08 	cmpwi   cr7,r0,8
 1805998:	40 9d f9 98 	ble+    cr7,1805330 <jpegdct+0x38>
 180599c:	39 7f 00 58 	addi    r11,r31,88
 18059a0:	83 eb ff fc 	lwz     r31,-4(r11)
 18059a4:	7d 61 5b 78 	mr      r1,r11
 18059a8:	4e 80 00 20 	blr

018059ac <foo_1>:
 18059ac:	94 21 ff e8 	stwu    r1,-24(r1)
 18059b0:	93 e1 00 14 	stw     r31,20(r1)
 18059b4:	7c 3f 0b 78 	mr      r31,r1
 18059b8:	90 7f 00 08 	stw     r3,8(r31)
 18059bc:	80 1f 00 08 	lwz     r0,8(r31)
 18059c0:	31 20 00 08 	addic   r9,r0,8
 18059c4:	80 1f 00 08 	lwz     r0,8(r31)
 18059c8:	7d 29 01 d6 	mullw   r9,r9,r0
 18059cc:	80 1f 00 08 	lwz     r0,8(r31)
 18059d0:	20 00 00 04 	subfic  r0,r0,4
 18059d4:	7d 20 00 30 	slw     r0,r9,r0
 18059d8:	7c 03 03 78 	mr      r3,r0
 18059dc:	39 7f 00 18 	addi    r11,r31,24
 18059e0:	83 eb ff fc 	lwz     r31,-4(r11)
 18059e4:	7d 61 5b 78 	mr      r1,r11
 18059e8:	4e 80 00 20 	blr

018059ec <expint>:
 18059ec:	94 21 ff b8 	stwu    r1,-72(r1)
 18059f0:	7c 08 02 a6 	mflr    r0
 18059f4:	90 01 00 4c 	stw     r0,76(r1)
 18059f8:	93 e1 00 44 	stw     r31,68(r1)
 18059fc:	7c 3f 0b 78 	mr      r31,r1
 1805a00:	90 7f 00 38 	stw     r3,56(r31)
 1805a04:	90 9f 00 3c 	stw     r4,60(r31)
 1805a08:	80 1f 00 38 	lwz     r0,56(r31)
 1805a0c:	30 00 ff ff 	addic   r0,r0,-1
 1805a10:	90 1f 00 2c 	stw     r0,44(r31)
 1805a14:	80 1f 00 3c 	lwz     r0,60(r31)
 1805a18:	2f 80 00 01 	cmpwi   cr7,r0,1
 1805a1c:	40 9d 01 00 	ble-    cr7,1805b1c <expint+0x130>
 1805a20:	81 3f 00 3c 	lwz     r9,60(r31)
 1805a24:	80 1f 00 38 	lwz     r0,56(r31)
 1805a28:	7c 09 02 14 	add     r0,r9,r0
 1805a2c:	90 1f 00 24 	stw     r0,36(r31)
 1805a30:	3c 00 00 1e 	lis     r0,30
 1805a34:	60 00 84 80 	ori     r0,r0,33920
 1805a38:	90 1f 00 20 	stw     r0,32(r31)
 1805a3c:	3c 00 01 c9 	lis     r0,457
 1805a40:	60 00 c3 80 	ori     r0,r0,50048
 1805a44:	90 1f 00 1c 	stw     r0,28(r31)
 1805a48:	80 1f 00 1c 	lwz     r0,28(r31)
 1805a4c:	90 1f 00 10 	stw     r0,16(r31)
 1805a50:	38 00 00 01 	li      r0,1
 1805a54:	90 1f 00 34 	stw     r0,52(r31)
 1805a58:	48 00 00 b4 	b       1805b0c <expint+0x120>
 1805a5c:	80 1f 00 34 	lwz     r0,52(r31)
 1805a60:	7d 20 00 d0 	neg     r9,r0
 1805a64:	81 7f 00 2c 	lwz     r11,44(r31)
 1805a68:	80 1f 00 34 	lwz     r0,52(r31)
 1805a6c:	7c 0b 02 14 	add     r0,r11,r0
 1805a70:	7c 09 01 d6 	mullw   r0,r9,r0
 1805a74:	90 1f 00 28 	stw     r0,40(r31)
 1805a78:	80 1f 00 24 	lwz     r0,36(r31)
 1805a7c:	30 00 00 02 	addic   r0,r0,2
 1805a80:	90 1f 00 24 	stw     r0,36(r31)
 1805a84:	81 3f 00 28 	lwz     r9,40(r31)
 1805a88:	80 1f 00 1c 	lwz     r0,28(r31)
 1805a8c:	7d 29 01 d6 	mullw   r9,r9,r0
 1805a90:	80 1f 00 24 	lwz     r0,36(r31)
 1805a94:	7c 09 02 14 	add     r0,r9,r0
 1805a98:	1c 00 00 0a 	mulli   r0,r0,10
 1805a9c:	90 1f 00 1c 	stw     r0,28(r31)
 1805aa0:	81 3f 00 28 	lwz     r9,40(r31)
 1805aa4:	80 1f 00 20 	lwz     r0,32(r31)
 1805aa8:	7d 29 03 d6 	divw    r9,r9,r0
 1805aac:	80 1f 00 24 	lwz     r0,36(r31)
 1805ab0:	7c 09 02 14 	add     r0,r9,r0
 1805ab4:	90 1f 00 20 	stw     r0,32(r31)
 1805ab8:	81 3f 00 20 	lwz     r9,32(r31)
 1805abc:	80 1f 00 1c 	lwz     r0,28(r31)
 1805ac0:	7c 09 01 d6 	mullw   r0,r9,r0
 1805ac4:	90 1f 00 18 	stw     r0,24(r31)
 1805ac8:	81 3f 00 10 	lwz     r9,16(r31)
 1805acc:	80 1f 00 18 	lwz     r0,24(r31)
 1805ad0:	7c 09 01 d6 	mullw   r0,r9,r0
 1805ad4:	90 1f 00 10 	stw     r0,16(r31)
 1805ad8:	80 1f 00 18 	lwz     r0,24(r31)
 1805adc:	2f 80 27 0f 	cmpwi   cr7,r0,9999
 1805ae0:	41 9d 00 20 	bgt-    cr7,1805b00 <expint+0x114>
 1805ae4:	80 1f 00 3c 	lwz     r0,60(r31)
 1805ae8:	7d 20 00 d0 	neg     r9,r0
 1805aec:	80 1f 00 10 	lwz     r0,16(r31)
 1805af0:	7c 09 01 d6 	mullw   r0,r9,r0
 1805af4:	90 1f 00 08 	stw     r0,8(r31)
 1805af8:	80 1f 00 08 	lwz     r0,8(r31)
 1805afc:	48 00 01 30 	b       1805c2c <expint+0x240>
 1805b00:	80 1f 00 34 	lwz     r0,52(r31)
 1805b04:	30 00 00 01 	addic   r0,r0,1
 1805b08:	90 1f 00 34 	stw     r0,52(r31)
 1805b0c:	80 1f 00 34 	lwz     r0,52(r31)
 1805b10:	2f 80 00 64 	cmpwi   cr7,r0,100
 1805b14:	40 9d ff 48 	ble+    cr7,1805a5c <expint+0x70>
 1805b18:	48 00 01 10 	b       1805c28 <expint+0x23c>
 1805b1c:	80 1f 00 2c 	lwz     r0,44(r31)
 1805b20:	2f 80 00 00 	cmpwi   cr7,r0,0
 1805b24:	41 9e 00 0c 	beq-    cr7,1805b30 <expint+0x144>
 1805b28:	38 00 00 02 	li      r0,2
 1805b2c:	48 00 00 08 	b       1805b34 <expint+0x148>
 1805b30:	38 00 03 e8 	li      r0,1000
 1805b34:	90 1f 00 08 	stw     r0,8(r31)
 1805b38:	38 00 00 01 	li      r0,1
 1805b3c:	90 1f 00 14 	stw     r0,20(r31)
 1805b40:	38 00 00 01 	li      r0,1
 1805b44:	90 1f 00 34 	stw     r0,52(r31)
 1805b48:	48 00 00 d4 	b       1805c1c <expint+0x230>
 1805b4c:	80 1f 00 3c 	lwz     r0,60(r31)
 1805b50:	7d 20 00 d0 	neg     r9,r0
 1805b54:	80 1f 00 34 	lwz     r0,52(r31)
 1805b58:	7c 09 03 d6 	divw    r0,r9,r0
 1805b5c:	81 3f 00 14 	lwz     r9,20(r31)
 1805b60:	7c 09 01 d6 	mullw   r0,r9,r0
 1805b64:	90 1f 00 14 	stw     r0,20(r31)
 1805b68:	81 3f 00 34 	lwz     r9,52(r31)
 1805b6c:	80 1f 00 2c 	lwz     r0,44(r31)
 1805b70:	7f 89 00 00 	cmpw    cr7,r9,r0
 1805b74:	41 9e 00 24 	beq-    cr7,1805b98 <expint+0x1ac>
 1805b78:	80 1f 00 14 	lwz     r0,20(r31)
 1805b7c:	7d 20 00 d0 	neg     r9,r0
 1805b80:	81 7f 00 34 	lwz     r11,52(r31)
 1805b84:	80 1f 00 2c 	lwz     r0,44(r31)
 1805b88:	7c 00 58 50 	subf    r0,r0,r11
 1805b8c:	7c 09 03 d6 	divw    r0,r9,r0
 1805b90:	90 1f 00 18 	stw     r0,24(r31)
 1805b94:	48 00 00 6c 	b       1805c00 <expint+0x214>
 1805b98:	38 00 00 ff 	li      r0,255
 1805b9c:	90 1f 00 0c 	stw     r0,12(r31)
 1805ba0:	38 00 00 01 	li      r0,1
 1805ba4:	90 1f 00 30 	stw     r0,48(r31)
 1805ba8:	48 00 00 28 	b       1805bd0 <expint+0x1e4>
 1805bac:	81 3f 00 30 	lwz     r9,48(r31)
 1805bb0:	80 1f 00 2c 	lwz     r0,44(r31)
 1805bb4:	7c 09 02 14 	add     r0,r9,r0
 1805bb8:	81 3f 00 0c 	lwz     r9,12(r31)
 1805bbc:	7c 09 02 14 	add     r0,r9,r0
 1805bc0:	90 1f 00 0c 	stw     r0,12(r31)
 1805bc4:	80 1f 00 30 	lwz     r0,48(r31)
 1805bc8:	30 00 00 01 	addic   r0,r0,1
 1805bcc:	90 1f 00 30 	stw     r0,48(r31)
 1805bd0:	81 3f 00 30 	lwz     r9,48(r31)
 1805bd4:	80 1f 00 2c 	lwz     r0,44(r31)
 1805bd8:	7f 89 00 00 	cmpw    cr7,r9,r0
 1805bdc:	40 9d ff d0 	ble+    cr7,1805bac <expint+0x1c0>
 1805be0:	80 7f 00 3c 	lwz     r3,60(r31)
 1805be4:	4b ff fd c9 	bl      18059ac <foo_1>
 1805be8:	7c 69 1b 78 	mr      r9,r3
 1805bec:	80 1f 00 14 	lwz     r0,20(r31)
 1805bf0:	7d 29 01 d6 	mullw   r9,r9,r0
 1805bf4:	80 1f 00 0c 	lwz     r0,12(r31)
 1805bf8:	7c 09 02 14 	add     r0,r9,r0
 1805bfc:	90 1f 00 18 	stw     r0,24(r31)
 1805c00:	81 3f 00 08 	lwz     r9,8(r31)
 1805c04:	80 1f 00 18 	lwz     r0,24(r31)
 1805c08:	7c 09 02 14 	add     r0,r9,r0
 1805c0c:	90 1f 00 08 	stw     r0,8(r31)
 1805c10:	80 1f 00 34 	lwz     r0,52(r31)
 1805c14:	30 00 00 01 	addic   r0,r0,1
 1805c18:	90 1f 00 34 	stw     r0,52(r31)
 1805c1c:	80 1f 00 34 	lwz     r0,52(r31)
 1805c20:	2f 80 00 64 	cmpwi   cr7,r0,100
 1805c24:	40 9d ff 28 	ble+    cr7,1805b4c <expint+0x160>
 1805c28:	80 1f 00 08 	lwz     r0,8(r31)
 1805c2c:	7c 03 03 78 	mr      r3,r0
 1805c30:	39 7f 00 48 	addi    r11,r31,72
 1805c34:	80 0b 00 04 	lwz     r0,4(r11)
 1805c38:	7c 08 03 a6 	mtlr    r0
 1805c3c:	83 eb ff fc 	lwz     r31,-4(r11)
 1805c40:	7d 61 5b 78 	mr      r1,r11
 1805c44:	4e 80 00 20 	blr

01805c48 <fac_1>:
 1805c48:	94 21 ff e8 	stwu    r1,-24(r1)
 1805c4c:	7c 08 02 a6 	mflr    r0
 1805c50:	90 01 00 1c 	stw     r0,28(r1)
 1805c54:	93 e1 00 14 	stw     r31,20(r1)
 1805c58:	7c 3f 0b 78 	mr      r31,r1
 1805c5c:	90 7f 00 08 	stw     r3,8(r31)
 1805c60:	80 1f 00 08 	lwz     r0,8(r31)
 1805c64:	2f 80 00 00 	cmpwi   cr7,r0,0
 1805c68:	40 9e 00 0c 	bne-    cr7,1805c74 <fac_1+0x2c>
 1805c6c:	38 00 00 01 	li      r0,1
 1805c70:	48 00 00 20 	b       1805c90 <fac_1+0x48>
 1805c74:	80 1f 00 08 	lwz     r0,8(r31)
 1805c78:	30 00 ff ff 	addic   r0,r0,-1
 1805c7c:	7c 03 03 78 	mr      r3,r0
 1805c80:	4b ff ff c9 	bl      1805c48 <fac_1>
 1805c84:	7c 69 1b 78 	mr      r9,r3
 1805c88:	80 1f 00 08 	lwz     r0,8(r31)
 1805c8c:	7c 09 01 d6 	mullw   r0,r9,r0
 1805c90:	7c 03 03 78 	mr      r3,r0
 1805c94:	39 7f 00 18 	addi    r11,r31,24
 1805c98:	80 0b 00 04 	lwz     r0,4(r11)
 1805c9c:	7c 08 03 a6 	mtlr    r0
 1805ca0:	83 eb ff fc 	lwz     r31,-4(r11)
 1805ca4:	7d 61 5b 78 	mr      r1,r11
 1805ca8:	4e 80 00 20 	blr

01805cac <fdct>:
 1805cac:	94 21 ff 98 	stwu    r1,-104(r1)
 1805cb0:	93 e1 00 64 	stw     r31,100(r1)
 1805cb4:	7c 3f 0b 78 	mr      r31,r1
 1805cb8:	90 7f 00 58 	stw     r3,88(r31)
 1805cbc:	90 9f 00 5c 	stw     r4,92(r31)
 1805cc0:	80 1f 00 58 	lwz     r0,88(r31)
 1805cc4:	90 1f 00 0c 	stw     r0,12(r31)
 1805cc8:	38 00 00 00 	li      r0,0
 1805ccc:	90 1f 00 10 	stw     r0,16(r31)
 1805cd0:	48 00 04 b8 	b       1806188 <fdct+0x4dc>
 1805cd4:	80 1f 00 0c 	lwz     r0,12(r31)
 1805cd8:	7c 09 03 78 	mr      r9,r0
 1805cdc:	a0 09 00 00 	lhz     r0,0(r9)
 1805ce0:	7c 00 07 34 	extsh   r0,r0
 1805ce4:	7c 09 03 78 	mr      r9,r0
 1805ce8:	80 1f 00 0c 	lwz     r0,12(r31)
 1805cec:	30 00 00 0e 	addic   r0,r0,14
 1805cf0:	7c 0b 03 78 	mr      r11,r0
 1805cf4:	a0 0b 00 00 	lhz     r0,0(r11)
 1805cf8:	7c 00 07 34 	extsh   r0,r0
 1805cfc:	7c 09 02 14 	add     r0,r9,r0
 1805d00:	90 1f 00 54 	stw     r0,84(r31)
 1805d04:	80 1f 00 0c 	lwz     r0,12(r31)
 1805d08:	7c 09 03 78 	mr      r9,r0
 1805d0c:	a0 09 00 00 	lhz     r0,0(r9)
 1805d10:	7c 00 07 34 	extsh   r0,r0
 1805d14:	7c 09 03 78 	mr      r9,r0
 1805d18:	80 1f 00 0c 	lwz     r0,12(r31)
 1805d1c:	30 00 00 0e 	addic   r0,r0,14
 1805d20:	7c 0b 03 78 	mr      r11,r0
 1805d24:	a0 0b 00 00 	lhz     r0,0(r11)
 1805d28:	7c 00 07 34 	extsh   r0,r0
 1805d2c:	7c 00 48 50 	subf    r0,r0,r9
 1805d30:	90 1f 00 38 	stw     r0,56(r31)
 1805d34:	80 1f 00 0c 	lwz     r0,12(r31)
 1805d38:	30 00 00 02 	addic   r0,r0,2
 1805d3c:	7c 09 03 78 	mr      r9,r0
 1805d40:	a0 09 00 00 	lhz     r0,0(r9)
 1805d44:	7c 00 07 34 	extsh   r0,r0
 1805d48:	7c 09 03 78 	mr      r9,r0
 1805d4c:	80 1f 00 0c 	lwz     r0,12(r31)
 1805d50:	30 00 00 0c 	addic   r0,r0,12
 1805d54:	7c 0b 03 78 	mr      r11,r0
 1805d58:	a0 0b 00 00 	lhz     r0,0(r11)
 1805d5c:	7c 00 07 34 	extsh   r0,r0
 1805d60:	7c 09 02 14 	add     r0,r9,r0
 1805d64:	90 1f 00 50 	stw     r0,80(r31)
 1805d68:	80 1f 00 0c 	lwz     r0,12(r31)
 1805d6c:	30 00 00 02 	addic   r0,r0,2
 1805d70:	7c 09 03 78 	mr      r9,r0
 1805d74:	a0 09 00 00 	lhz     r0,0(r9)
 1805d78:	7c 00 07 34 	extsh   r0,r0
 1805d7c:	7c 09 03 78 	mr      r9,r0
 1805d80:	80 1f 00 0c 	lwz     r0,12(r31)
 1805d84:	30 00 00 0c 	addic   r0,r0,12
 1805d88:	7c 0b 03 78 	mr      r11,r0
 1805d8c:	a0 0b 00 00 	lhz     r0,0(r11)
 1805d90:	7c 00 07 34 	extsh   r0,r0
 1805d94:	7c 00 48 50 	subf    r0,r0,r9
 1805d98:	90 1f 00 3c 	stw     r0,60(r31)
 1805d9c:	80 1f 00 0c 	lwz     r0,12(r31)
 1805da0:	30 00 00 04 	addic   r0,r0,4
 1805da4:	7c 09 03 78 	mr      r9,r0
 1805da8:	a0 09 00 00 	lhz     r0,0(r9)
 1805dac:	7c 00 07 34 	extsh   r0,r0
 1805db0:	7c 09 03 78 	mr      r9,r0
 1805db4:	80 1f 00 0c 	lwz     r0,12(r31)
 1805db8:	30 00 00 0a 	addic   r0,r0,10
 1805dbc:	7c 0b 03 78 	mr      r11,r0
 1805dc0:	a0 0b 00 00 	lhz     r0,0(r11)
 1805dc4:	7c 00 07 34 	extsh   r0,r0
 1805dc8:	7c 09 02 14 	add     r0,r9,r0
 1805dcc:	90 1f 00 4c 	stw     r0,76(r31)
 1805dd0:	80 1f 00 0c 	lwz     r0,12(r31)
 1805dd4:	30 00 00 04 	addic   r0,r0,4
 1805dd8:	7c 09 03 78 	mr      r9,r0
 1805ddc:	a0 09 00 00 	lhz     r0,0(r9)
 1805de0:	7c 00 07 34 	extsh   r0,r0
 1805de4:	7c 09 03 78 	mr      r9,r0
 1805de8:	80 1f 00 0c 	lwz     r0,12(r31)
 1805dec:	30 00 00 0a 	addic   r0,r0,10
 1805df0:	7c 0b 03 78 	mr      r11,r0
 1805df4:	a0 0b 00 00 	lhz     r0,0(r11)
 1805df8:	7c 00 07 34 	extsh   r0,r0
 1805dfc:	7c 00 48 50 	subf    r0,r0,r9
 1805e00:	90 1f 00 40 	stw     r0,64(r31)
 1805e04:	80 1f 00 0c 	lwz     r0,12(r31)
 1805e08:	30 00 00 06 	addic   r0,r0,6
 1805e0c:	7c 09 03 78 	mr      r9,r0
 1805e10:	a0 09 00 00 	lhz     r0,0(r9)
 1805e14:	7c 00 07 34 	extsh   r0,r0
 1805e18:	7c 09 03 78 	mr      r9,r0
 1805e1c:	80 1f 00 0c 	lwz     r0,12(r31)
 1805e20:	30 00 00 08 	addic   r0,r0,8
 1805e24:	7c 0b 03 78 	mr      r11,r0
 1805e28:	a0 0b 00 00 	lhz     r0,0(r11)
 1805e2c:	7c 00 07 34 	extsh   r0,r0
 1805e30:	7c 09 02 14 	add     r0,r9,r0
 1805e34:	90 1f 00 48 	stw     r0,72(r31)
 1805e38:	80 1f 00 0c 	lwz     r0,12(r31)
 1805e3c:	30 00 00 06 	addic   r0,r0,6
 1805e40:	7c 09 03 78 	mr      r9,r0
 1805e44:	a0 09 00 00 	lhz     r0,0(r9)
 1805e48:	7c 00 07 34 	extsh   r0,r0
 1805e4c:	7c 09 03 78 	mr      r9,r0
 1805e50:	80 1f 00 0c 	lwz     r0,12(r31)
 1805e54:	30 00 00 08 	addic   r0,r0,8
 1805e58:	7c 0b 03 78 	mr      r11,r0
 1805e5c:	a0 0b 00 00 	lhz     r0,0(r11)
 1805e60:	7c 00 07 34 	extsh   r0,r0
 1805e64:	7c 00 48 50 	subf    r0,r0,r9
 1805e68:	90 1f 00 44 	stw     r0,68(r31)
 1805e6c:	81 3f 00 54 	lwz     r9,84(r31)
 1805e70:	80 1f 00 48 	lwz     r0,72(r31)
 1805e74:	7c 09 02 14 	add     r0,r9,r0
 1805e78:	90 1f 00 34 	stw     r0,52(r31)
 1805e7c:	81 3f 00 54 	lwz     r9,84(r31)
 1805e80:	80 1f 00 48 	lwz     r0,72(r31)
 1805e84:	7c 00 48 50 	subf    r0,r0,r9
 1805e88:	90 1f 00 28 	stw     r0,40(r31)
 1805e8c:	81 3f 00 50 	lwz     r9,80(r31)
 1805e90:	80 1f 00 4c 	lwz     r0,76(r31)
 1805e94:	7c 09 02 14 	add     r0,r9,r0
 1805e98:	90 1f 00 30 	stw     r0,48(r31)
 1805e9c:	81 3f 00 50 	lwz     r9,80(r31)
 1805ea0:	80 1f 00 4c 	lwz     r0,76(r31)
 1805ea4:	7c 00 48 50 	subf    r0,r0,r9
