
/home/vaillant/ppc2/perf/malardalen/ppc-eabi/gcc-4.4.2/nsichneu/nsichneu.elf:     file format elf32-powerpc


Disassembly of section .init:

01800094 <__init>:
 1800094:	94 21 ff f0 	stwu    r1,-16(r1)
 1800098:	7c 08 02 a6 	mflr    r0
 180009c:	90 01 00 14 	stw     r0,20(r1)
 18000a0:	48 00 00 f9 	bl      1800198 <frame_dummy>
 18000a4:	48 00 c5 f5 	bl      180c698 <__do_global_ctors_aux>
 18000a8:	80 01 00 14 	lwz     r0,20(r1)
 18000ac:	7c 08 03 a6 	mtlr    r0
 18000b0:	38 21 00 10 	addi    r1,r1,16
 18000b4:	4e 80 00 20 	blr

Disassembly of section .text:

018000b8 <__do_global_dtors_aux>:
 18000b8:	94 21 ff e8 	stwu    r1,-24(r1)
 18000bc:	7c 08 02 a6 	mflr    r0
 18000c0:	93 e1 00 14 	stw     r31,20(r1)
 18000c4:	3f e0 01 82 	lis     r31,386
 18000c8:	90 01 00 1c 	stw     r0,28(r1)
 18000cc:	88 1f c8 00 	lbz     r0,-14336(r31)
 18000d0:	93 81 00 08 	stw     r28,8(r1)
 18000d4:	2f 80 00 00 	cmpwi   cr7,r0,0
 18000d8:	93 a1 00 0c 	stw     r29,12(r1)
 18000dc:	93 c1 00 10 	stw     r30,16(r1)
 18000e0:	40 9e 00 7c 	bne-    cr7,180015c <__do_global_dtors_aux+0xa4>
 18000e4:	3f 80 01 82 	lis     r28,386
 18000e8:	3f a0 01 82 	lis     r29,386
 18000ec:	3b 9c c7 c4 	addi    r28,r28,-14396
 18000f0:	3b bd c7 c8 	addi    r29,r29,-14392
 18000f4:	7f bc e8 50 	subf    r29,r28,r29
 18000f8:	3f c0 01 82 	lis     r30,386
 18000fc:	7f bd 16 70 	srawi   r29,r29,2
 1800100:	81 3e c8 04 	lwz     r9,-14332(r30)
 1800104:	3b bd ff ff 	addi    r29,r29,-1
 1800108:	7f 89 e8 40 	cmplw   cr7,r9,r29
 180010c:	40 9c 00 2c 	bge-    cr7,1800138 <__do_global_dtors_aux+0x80>
 1800110:	3b de c8 04 	addi    r30,r30,-14332
 1800114:	39 29 00 01 	addi    r9,r9,1
 1800118:	55 20 10 3a 	rlwinm  r0,r9,2,0,29
 180011c:	91 3e 00 00 	stw     r9,0(r30)
 1800120:	7c 1c 00 2e 	lwzx    r0,r28,r0
 1800124:	7c 09 03 a6 	mtctr   r0
 1800128:	4e 80 04 21 	bctrl
 180012c:	81 3e 00 00 	lwz     r9,0(r30)
 1800130:	7f 89 e8 40 	cmplw   cr7,r9,r29
 1800134:	41 9c ff e0 	blt+    cr7,1800114 <__do_global_dtors_aux+0x5c>
 1800138:	3d 20 00 00 	lis     r9,0
 180013c:	38 09 00 00 	addi    r0,r9,0
 1800140:	2f 80 00 00 	cmpwi   cr7,r0,0
 1800144:	41 9e 00 10 	beq-    cr7,1800154 <__do_global_dtors_aux+0x9c>
 1800148:	3c 60 01 82 	lis     r3,386
 180014c:	38 63 c7 48 	addi    r3,r3,-14520
 1800150:	4a 7f fe b1 	bl      0 <__init-0x1800094>
 1800154:	38 00 00 01 	li      r0,1
 1800158:	98 1f c8 00 	stb     r0,-14336(r31)
 180015c:	80 01 00 1c 	lwz     r0,28(r1)
 1800160:	83 81 00 08 	lwz     r28,8(r1)
 1800164:	7c 08 03 a6 	mtlr    r0
 1800168:	83 a1 00 0c 	lwz     r29,12(r1)
 180016c:	83 c1 00 10 	lwz     r30,16(r1)
 1800170:	83 e1 00 14 	lwz     r31,20(r1)
 1800174:	38 21 00 18 	addi    r1,r1,24
 1800178:	4e 80 00 20 	blr

0180017c <call___do_global_dtors_aux>:
 180017c:	7c 08 02 a6 	mflr    r0
 1800180:	94 21 ff f8 	stwu    r1,-8(r1)
 1800184:	90 01 00 0c 	stw     r0,12(r1)
 1800188:	80 01 00 0c 	lwz     r0,12(r1)
 180018c:	38 21 00 08 	addi    r1,r1,8
 1800190:	7c 08 03 a6 	mtlr    r0
 1800194:	4e 80 00 20 	blr

01800198 <frame_dummy>:
 1800198:	7c 08 02 a6 	mflr    r0
 180019c:	94 21 ff f8 	stwu    r1,-8(r1)
 18001a0:	3d 20 00 00 	lis     r9,0
 18001a4:	90 01 00 0c 	stw     r0,12(r1)
 18001a8:	38 09 00 00 	addi    r0,r9,0
 18001ac:	2f 80 00 00 	cmpwi   cr7,r0,0
 18001b0:	41 9e 00 18 	beq-    cr7,18001c8 <frame_dummy+0x30>
 18001b4:	3c 60 01 82 	lis     r3,386
 18001b8:	3c 80 01 82 	lis     r4,386
 18001bc:	38 63 c7 48 	addi    r3,r3,-14520
 18001c0:	38 84 c8 08 	addi    r4,r4,-14328
 18001c4:	4a 7f fe 3d 	bl      0 <__init-0x1800094>
 18001c8:	3c 60 01 82 	lis     r3,386
 18001cc:	80 03 c7 cc 	lwz     r0,-14388(r3)
 18001d0:	38 63 c7 cc 	addi    r3,r3,-14388
 18001d4:	2f 80 00 00 	cmpwi   cr7,r0,0
 18001d8:	41 9e 00 1c 	beq-    cr7,18001f4 <frame_dummy+0x5c>
 18001dc:	3d 20 00 00 	lis     r9,0
 18001e0:	38 09 00 00 	addi    r0,r9,0
 18001e4:	2f 80 00 00 	cmpwi   cr7,r0,0
 18001e8:	41 9e 00 0c 	beq-    cr7,18001f4 <frame_dummy+0x5c>
 18001ec:	7c 09 03 a6 	mtctr   r0
 18001f0:	4e 80 04 21 	bctrl
 18001f4:	80 01 00 0c 	lwz     r0,12(r1)
 18001f8:	38 21 00 08 	addi    r1,r1,8
 18001fc:	7c 08 03 a6 	mtlr    r0
 1800200:	4e 80 00 20 	blr

01800204 <call_frame_dummy>:
 1800204:	7c 08 02 a6 	mflr    r0
 1800208:	94 21 ff f8 	stwu    r1,-8(r1)
 180020c:	90 01 00 0c 	stw     r0,12(r1)
 1800210:	80 01 00 0c 	lwz     r0,12(r1)
 1800214:	38 21 00 08 	addi    r1,r1,8
 1800218:	7c 08 03 a6 	mtlr    r0
 180021c:	4e 80 00 20 	blr

01800220 <main>:
 1800220:	94 21 fa 00 	stwu    r1,-1536(r1)
 1800224:	7c 08 02 a6 	mflr    r0
 1800228:	90 01 06 04 	stw     r0,1540(r1)
 180022c:	93 e1 05 fc 	stw     r31,1532(r1)
 1800230:	7c 3f 0b 78 	mr      r31,r1
 1800234:	48 00 c3 b1 	bl      180c5e4 <__eabi>
 1800238:	38 00 00 32 	li      r0,50
 180023c:	90 1f 05 f0 	stw     r0,1520(r31)
 1800240:	38 00 02 bc 	li      r0,700
 1800244:	90 1f 05 f4 	stw     r0,1524(r31)
 1800248:	48 00 c3 28 	b       180c570 <main+0xc350>
 180024c:	80 1f 05 f4 	lwz     r0,1524(r31)
 1800250:	30 00 ff ff 	addic   r0,r0,-1
 1800254:	90 1f 05 f4 	stw     r0,1524(r31)
 1800258:	3c 00 01 82 	lis     r0,386
 180025c:	7c 09 03 78 	mr      r9,r0
 1800260:	80 09 c7 f4 	lwz     r0,-14348(r9)
 1800264:	2f 80 00 02 	cmpwi   cr7,r0,2
 1800268:	40 9d 01 44 	ble-    cr7,18003ac <main+0x18c>
 180026c:	3c 00 01 82 	lis     r0,386
 1800270:	7c 0b 03 78 	mr      r11,r0
 1800274:	80 0b c7 fc 	lwz     r0,-14340(r11)
 1800278:	30 00 00 03 	addic   r0,r0,3
 180027c:	2f 80 00 06 	cmpwi   cr7,r0,6
 1800280:	41 9d 01 2c 	bgt-    cr7,18003ac <main+0x18c>
 1800284:	3c 00 01 82 	lis     r0,386
 1800288:	30 00 c8 38 	addic   r0,r0,-14280
 180028c:	7c 0b 03 78 	mr      r11,r0
 1800290:	81 2b 00 04 	lwz     r9,4(r11)
 1800294:	3c 00 01 82 	lis     r0,386
 1800298:	30 00 c8 38 	addic   r0,r0,-14280
 180029c:	7c 0b 03 78 	mr      r11,r0
 18002a0:	80 0b 00 08 	lwz     r0,8(r11)
 18002a4:	7f 89 00 00 	cmpw    cr7,r9,r0
 18002a8:	40 9e 01 04 	bne-    cr7,18003ac <main+0x18c>
 18002ac:	3c 00 01 82 	lis     r0,386
 18002b0:	30 00 c8 38 	addic   r0,r0,-14280
 18002b4:	7c 09 03 78 	mr      r9,r0
 18002b8:	80 09 00 00 	lwz     r0,0(r9)
 18002bc:	90 1f 05 ec 	stw     r0,1516(r31)
 18002c0:	3c 00 01 82 	lis     r0,386
 18002c4:	30 00 c8 38 	addic   r0,r0,-14280
 18002c8:	7c 0b 03 78 	mr      r11,r0
 18002cc:	80 0b 00 04 	lwz     r0,4(r11)
 18002d0:	90 1f 05 e8 	stw     r0,1512(r31)
 18002d4:	81 3f 05 ec 	lwz     r9,1516(r31)
 18002d8:	80 1f 05 e8 	lwz     r0,1512(r31)
 18002dc:	7f 89 00 00 	cmpw    cr7,r9,r0
 18002e0:	40 9c 00 cc 	bge-    cr7,18003ac <main+0x18c>
 18002e4:	3c 00 01 82 	lis     r0,386
 18002e8:	7c 09 03 78 	mr      r9,r0
 18002ec:	80 09 c7 f4 	lwz     r0,-14348(r9)
 18002f0:	31 20 ff fd 	addic   r9,r0,-3
 18002f4:	3c 00 01 82 	lis     r0,386
 18002f8:	7c 0b 03 78 	mr      r11,r0
 18002fc:	91 2b c7 f4 	stw     r9,-14348(r11)
 1800300:	81 3f 05 ec 	lwz     r9,1516(r31)
 1800304:	80 1f 05 e8 	lwz     r0,1512(r31)
 1800308:	7c 00 48 50 	subf    r0,r0,r9
 180030c:	90 1f 05 e4 	stw     r0,1508(r31)
 1800310:	3c 00 01 82 	lis     r0,386
 1800314:	7c 09 03 78 	mr      r9,r0
 1800318:	80 09 c7 fc 	lwz     r0,-14340(r9)
 180031c:	3d 20 01 82 	lis     r9,386
 1800320:	39 29 c8 20 	addi    r9,r9,-14304
 1800324:	54 00 10 3a 	rlwinm  r0,r0,2,0,29
 1800328:	7c 09 02 14 	add     r0,r9,r0
 180032c:	81 3f 05 ec 	lwz     r9,1516(r31)
 1800330:	7c 0b 03 78 	mr      r11,r0
 1800334:	91 2b 00 00 	stw     r9,0(r11)
 1800338:	3c 00 01 82 	lis     r0,386
 180033c:	7c 09 03 78 	mr      r9,r0
 1800340:	80 09 c7 fc 	lwz     r0,-14340(r9)
 1800344:	30 00 00 01 	addic   r0,r0,1
 1800348:	3d 20 01 82 	lis     r9,386
 180034c:	39 29 c8 20 	addi    r9,r9,-14304
 1800350:	54 00 10 3a 	rlwinm  r0,r0,2,0,29
 1800354:	7c 09 02 14 	add     r0,r9,r0
 1800358:	81 3f 05 e8 	lwz     r9,1512(r31)
 180035c:	7c 0b 03 78 	mr      r11,r0
 1800360:	91 2b 00 00 	stw     r9,0(r11)
 1800364:	3c 00 01 82 	lis     r0,386
 1800368:	7c 09 03 78 	mr      r9,r0
 180036c:	80 09 c7 fc 	lwz     r0,-14340(r9)
 1800370:	30 00 00 02 	addic   r0,r0,2
 1800374:	3d 20 01 82 	lis     r9,386
 1800378:	39 29 c8 20 	addi    r9,r9,-14304
 180037c:	54 00 10 3a 	rlwinm  r0,r0,2,0,29
 1800380:	7c 09 02 14 	add     r0,r9,r0
 1800384:	81 3f 05 e4 	lwz     r9,1508(r31)
 1800388:	7c 0b 03 78 	mr      r11,r0
 180038c:	91 2b 00 00 	stw     r9,0(r11)
 1800390:	3c 00 01 82 	lis     r0,386
 1800394:	7c 09 03 78 	mr      r9,r0
 1800398:	80 09 c7 fc 	lwz     r0,-14340(r9)
 180039c:	31 20 00 03 	addic   r9,r0,3
 18003a0:	3c 00 01 82 	lis     r0,386
 18003a4:	7c 0b 03 78 	mr      r11,r0
 18003a8:	91 2b c7 fc 	stw     r9,-14340(r11)
 18003ac:	3c 00 01 82 	lis     r0,386
 18003b0:	7c 09 03 78 	mr      r9,r0
 18003b4:	80 09 c7 f4 	lwz     r0,-14348(r9)
 18003b8:	2f 80 00 02 	cmpwi   cr7,r0,2
 18003bc:	40 9d 01 44 	ble-    cr7,1800500 <main+0x2e0>
 18003c0:	3c 00 01 82 	lis     r0,386
 18003c4:	7c 0b 03 78 	mr      r11,r0
 18003c8:	80 0b c7 fc 	lwz     r0,-14340(r11)
 18003cc:	30 00 00 03 	addic   r0,r0,3
 18003d0:	2f 80 00 06 	cmpwi   cr7,r0,6
 18003d4:	41 9d 01 2c 	bgt-    cr7,1800500 <main+0x2e0>
 18003d8:	3c 00 01 82 	lis     r0,386
 18003dc:	30 00 c8 38 	addic   r0,r0,-14280
 18003e0:	7c 0b 03 78 	mr      r11,r0
 18003e4:	81 2b 00 08 	lwz     r9,8(r11)
 18003e8:	3c 00 01 82 	lis     r0,386
 18003ec:	30 00 c8 38 	addic   r0,r0,-14280
 18003f0:	7c 0b 03 78 	mr      r11,r0
 18003f4:	80 0b 00 04 	lwz     r0,4(r11)
 18003f8:	7f 89 00 00 	cmpw    cr7,r9,r0
 18003fc:	40 9e 01 04 	bne-    cr7,1800500 <main+0x2e0>
 1800400:	3c 00 01 82 	lis     r0,386
 1800404:	30 00 c8 38 	addic   r0,r0,-14280
 1800408:	7c 09 03 78 	mr      r9,r0
 180040c:	80 09 00 00 	lwz     r0,0(r9)
 1800410:	90 1f 05 e0 	stw     r0,1504(r31)
 1800414:	3c 00 01 82 	lis     r0,386
 1800418:	30 00 c8 38 	addic   r0,r0,-14280
 180041c:	7c 0b 03 78 	mr      r11,r0
 1800420:	80 0b 00 08 	lwz     r0,8(r11)
 1800424:	90 1f 05 dc 	stw     r0,1500(r31)
 1800428:	81 3f 05 e0 	lwz     r9,1504(r31)
 180042c:	80 1f 05 dc 	lwz     r0,1500(r31)
 1800430:	7f 89 00 00 	cmpw    cr7,r9,r0
 1800434:	40 9c 00 cc 	bge-    cr7,1800500 <main+0x2e0>
 1800438:	3c 00 01 82 	lis     r0,386
 180043c:	7c 09 03 78 	mr      r9,r0
 1800440:	80 09 c7 f4 	lwz     r0,-14348(r9)
 1800444:	31 20 ff fd 	addic   r9,r0,-3
 1800448:	3c 00 01 82 	lis     r0,386
 180044c:	7c 0b 03 78 	mr      r11,r0
 1800450:	91 2b c7 f4 	stw     r9,-14348(r11)
 1800454:	81 3f 05 e0 	lwz     r9,1504(r31)
 1800458:	80 1f 05 dc 	lwz     r0,1500(r31)
 180045c:	7c 00 48 50 	subf    r0,r0,r9
 1800460:	90 1f 05 d8 	stw     r0,1496(r31)
 1800464:	3c 00 01 82 	lis     r0,386
 1800468:	7c 09 03 78 	mr      r9,r0
 180046c:	80 09 c7 fc 	lwz     r0,-14340(r9)
 1800470:	3d 20 01 82 	lis     r9,386
 1800474:	39 29 c8 20 	addi    r9,r9,-14304
 1800478:	54 00 10 3a 	rlwinm  r0,r0,2,0,29
 180047c:	7c 09 02 14 	add     r0,r9,r0
 1800480:	81 3f 05 e0 	lwz     r9,1504(r31)
 1800484:	7c 0b 03 78 	mr      r11,r0
 1800488:	91 2b 00 00 	stw     r9,0(r11)
 180048c:	3c 00 01 82 	lis     r0,386
 1800490:	7c 09 03 78 	mr      r9,r0
 1800494:	80 09 c7 fc 	lwz     r0,-14340(r9)
 1800498:	30 00 00 01 	addic   r0,r0,1
 180049c:	3d 20 01 82 	lis     r9,386
 18004a0:	39 29 c8 20 	addi    r9,r9,-14304
 18004a4:	54 00 10 3a 	rlwinm  r0,r0,2,0,29
 18004a8:	7c 09 02 14 	add     r0,r9,r0
 18004ac:	81 3f 05 dc 	lwz     r9,1500(r31)
 18004b0:	7c 0b 03 78 	mr      r11,r0
 18004b4:	91 2b 00 00 	stw     r9,0(r11)
 18004b8:	3c 00 01 82 	lis     r0,386
 18004bc:	7c 09 03 78 	mr      r9,r0
 18004c0:	80 09 c7 fc 	lwz     r0,-14340(r9)
 18004c4:	30 00 00 02 	addic   r0,r0,2
 18004c8:	3d 20 01 82 	lis     r9,386
 18004cc:	39 29 c8 20 	addi    r9,r9,-14304
 18004d0:	54 00 10 3a 	rlwinm  r0,r0,2,0,29
 18004d4:	7c 09 02 14 	add     r0,r9,r0
 18004d8:	81 3f 05 d8 	lwz     r9,1496(r31)
 18004dc:	7c 0b 03 78 	mr      r11,r0
 18004e0:	91 2b 00 00 	stw     r9,0(r11)
 18004e4:	3c 00 01 82 	lis     r0,386
 18004e8:	7c 09 03 78 	mr      r9,r0
 18004ec:	80 09 c7 fc 	lwz     r0,-14340(r9)
 18004f0:	31 20 00 03 	addic   r9,r0,3
 18004f4:	3c 00 01 82 	lis     r0,386
 18004f8:	7c 0b 03 78 	mr      r11,r0
 18004fc:	91 2b c7 fc 	stw     r9,-14340(r11)
 1800500:	3c 00 01 82 	lis     r0,386
 1800504:	7c 09 03 78 	mr      r9,r0
 1800508:	80 09 c7 f4 	lwz     r0,-14348(r9)
 180050c:	2f 80 00 02 	cmpwi   cr7,r0,2
 1800510:	40 9d 01 44 	ble-    cr7,1800654 <main+0x434>
 1800514:	3c 00 01 82 	lis     r0,386
 1800518:	7c 0b 03 78 	mr      r11,r0
 180051c:	80 0b c7 fc 	lwz     r0,-14340(r11)
 1800520:	30 00 00 03 	addic   r0,r0,3
 1800524:	2f 80 00 06 	cmpwi   cr7,r0,6
 1800528:	41 9d 01 2c 	bgt-    cr7,1800654 <main+0x434>
 180052c:	3c 00 01 82 	lis     r0,386
 1800530:	30 00 c8 38 	addic   r0,r0,-14280
 1800534:	7c 0b 03 78 	mr      r11,r0
 1800538:	81 2b 00 00 	lwz     r9,0(r11)
 180053c:	3c 00 01 82 	lis     r0,386
 1800540:	30 00 c8 38 	addic   r0,r0,-14280
 1800544:	7c 0b 03 78 	mr      r11,r0
 1800548:	80 0b 00 08 	lwz     r0,8(r11)
 180054c:	7f 89 00 00 	cmpw    cr7,r9,r0
 1800550:	40 9e 01 04 	bne-    cr7,1800654 <main+0x434>
 1800554:	3c 00 01 82 	lis     r0,386
 1800558:	30 00 c8 38 	addic   r0,r0,-14280
 180055c:	7c 09 03 78 	mr      r9,r0
 1800560:	80 09 00 04 	lwz     r0,4(r9)
 1800564:	90 1f 05 d4 	stw     r0,1492(r31)
 1800568:	3c 00 01 82 	lis     r0,386
 180056c:	30 00 c8 38 	addic   r0,r0,-14280
 1800570:	7c 0b 03 78 	mr      r11,r0
 1800574:	80 0b 00 00 	lwz     r0,0(r11)
 1800578:	90 1f 05 d0 	stw     r0,1488(r31)
 180057c:	81 3f 05 d4 	lwz     r9,1492(r31)
 1800580:	80 1f 05 d0 	lwz     r0,1488(r31)
 1800584:	7f 89 00 00 	cmpw    cr7,r9,r0
 1800588:	40 9c 00 cc 	bge-    cr7,1800654 <main+0x434>
 180058c:	3c 00 01 82 	lis     r0,386
 1800590:	7c 09 03 78 	mr      r9,r0
 1800594:	80 09 c7 f4 	lwz     r0,-14348(r9)
 1800598:	31 20 ff fd 	addic   r9,r0,-3
 180059c:	3c 00 01 82 	lis     r0,386
 18005a0:	7c 0b 03 78 	mr      r11,r0
 18005a4:	91 2b c7 f4 	stw     r9,-14348(r11)
 18005a8:	81 3f 05 d4 	lwz     r9,1492(r31)
 18005ac:	80 1f 05 d0 	lwz     r0,1488(r31)
 18005b0:	7c 00 48 50 	subf    r0,r0,r9
 18005b4:	90 1f 05 cc 	stw     r0,1484(r31)
 18005b8:	3c 00 01 82 	lis     r0,386
 18005bc:	7c 09 03 78 	mr      r9,r0
 18005c0:	80 09 c7 fc 	lwz     r0,-14340(r9)
 18005c4:	3d 20 01 82 	lis     r9,386
 18005c8:	39 29 c8 20 	addi    r9,r9,-14304
 18005cc:	54 00 10 3a 	rlwinm  r0,r0,2,0,29
 18005d0:	7c 09 02 14 	add     r0,r9,r0
 18005d4:	81 3f 05 d4 	lwz     r9,1492(r31)
 18005d8:	7c 0b 03 78 	mr      r11,r0
 18005dc:	91 2b 00 00 	stw     r9,0(r11)
 18005e0:	3c 00 01 82 	lis     r0,386
 18005e4:	7c 09 03 78 	mr      r9,r0
 18005e8:	80 09 c7 fc 	lwz     r0,-14340(r9)
 18005ec:	30 00 00 01 	addic   r0,r0,1
 18005f0:	3d 20 01 82 	lis     r9,386
 18005f4:	39 29 c8 20 	addi    r9,r9,-14304
 18005f8:	54 00 10 3a 	rlwinm  r0,r0,2,0,29
 18005fc:	7c 09 02 14 	add     r0,r9,r0
 1800600:	81 3f 05 d0 	lwz     r9,1488(r31)
 1800604:	7c 0b 03 78 	mr      r11,r0
 1800608:	91 2b 00 00 	stw     r9,0(r11)
 180060c:	3c 00 01 82 	lis     r0,386
 1800610:	7c 09 03 78 	mr      r9,r0
 1800614:	80 09 c7 fc 	lwz     r0,-14340(r9)
 1800618:	30 00 00 02 	addic   r0,r0,2
 180061c:	3d 20 01 82 	lis     r9,386
 1800620:	39 29 c8 20 	addi    r9,r9,-14304
 1800624:	54 00 10 3a 	rlwinm  r0,r0,2,0,29
 1800628:	7c 09 02 14 	add     r0,r9,r0
 180062c:	81 3f 05 cc 	lwz     r9,1484(r31)
 1800630:	7c 0b 03 78 	mr      r11,r0
 1800634:	91 2b 00 00 	stw     r9,0(r11)
 1800638:	3c 00 01 82 	lis     r0,386
 180063c:	7c 09 03 78 	mr      r9,r0
 1800640:	80 09 c7 fc 	lwz     r0,-14340(r9)
 1800644:	31 20 00 03 	addic   r9,r0,3
 1800648:	3c 00 01 82 	lis     r0,386
 180064c:	7c 0b 03 78 	mr      r11,r0
 1800650:	91 2b c7 fc 	stw     r9,-14340(r11)
 1800654:	3c 00 01 82 	lis     r0,386
 1800658:	7c 09 03 78 	mr      r9,r0
 180065c:	80 09 c7 f4 	lwz     r0,-14348(r9)
 1800660:	2f 80 00 02 	cmpwi   cr7,r0,2
 1800664:	40 9d 01 44 	ble-    cr7,18007a8 <main+0x588>
 1800668:	3c 00 01 82 	lis     r0,386
 180066c:	7c 0b 03 78 	mr      r11,r0
 1800670:	80 0b c7 fc 	lwz     r0,-14340(r11)
 1800674:	30 00 00 03 	addic   r0,r0,3
 1800678:	2f 80 00 06 	cmpwi   cr7,r0,6
 180067c:	41 9d 01 2c 	bgt-    cr7,18007a8 <main+0x588>
 1800680:	3c 00 01 82 	lis     r0,386
 1800684:	30 00 c8 38 	addic   r0,r0,-14280
 1800688:	7c 0b 03 78 	mr      r11,r0
 180068c:	81 2b 00 08 	lwz     r9,8(r11)
 1800690:	3c 00 01 82 	lis     r0,386
 1800694:	30 00 c8 38 	addic   r0,r0,-14280
 1800698:	7c 0b 03 78 	mr      r11,r0
 180069c:	80 0b 00 00 	lwz     r0,0(r11)
 18006a0:	7f 89 00 00 	cmpw    cr7,r9,r0
 18006a4:	40 9e 01 04 	bne-    cr7,18007a8 <main+0x588>
 18006a8:	3c 00 01 82 	lis     r0,386
 18006ac:	30 00 c8 38 	addic   r0,r0,-14280
 18006b0:	7c 09 03 78 	mr      r9,r0
 18006b4:	80 09 00 04 	lwz     r0,4(r9)
 18006b8:	90 1f 05 c8 	stw     r0,1480(r31)
 18006bc:	3c 00 01 82 	lis     r0,386
 18006c0:	30 00 c8 38 	addic   r0,r0,-14280
 18006c4:	7c 0b 03 78 	mr      r11,r0
 18006c8:	80 0b 00 08 	lwz     r0,8(r11)
 18006cc:	90 1f 05 c4 	stw     r0,1476(r31)
 18006d0:	81 3f 05 c8 	lwz     r9,1480(r31)
 18006d4:	80 1f 05 c4 	lwz     r0,1476(r31)
 18006d8:	7f 89 00 00 	cmpw    cr7,r9,r0
 18006dc:	40 9c 00 cc 	bge-    cr7,18007a8 <main+0x588>
 18006e0:	3c 00 01 82 	lis     r0,386
 18006e4:	7c 09 03 78 	mr      r9,r0
 18006e8:	80 09 c7 f4 	lwz     r0,-14348(r9)
 18006ec:	31 20 ff fd 	addic   r9,r0,-3
 18006f0:	3c 00 01 82 	lis     r0,386
 18006f4:	7c 0b 03 78 	mr      r11,r0
 18006f8:	91 2b c7 f4 	stw     r9,-14348(r11)
 18006fc:	81 3f 05 c8 	lwz     r9,1480(r31)
 1800700:	80 1f 05 c4 	lwz     r0,1476(r31)
 1800704:	7c 00 48 50 	subf    r0,r0,r9
 1800708:	90 1f 05 c0 	stw     r0,1472(r31)
 180070c:	3c 00 01 82 	lis     r0,386
 1800710:	7c 09 03 78 	mr      r9,r0
 1800714:	80 09 c7 fc 	lwz     r0,-14340(r9)
 1800718:	3d 20 01 82 	lis     r9,386
 180071c:	39 29 c8 20 	addi    r9,r9,-14304
 1800720:	54 00 10 3a 	rlwinm  r0,r0,2,0,29
 1800724:	7c 09 02 14 	add     r0,r9,r0
 1800728:	81 3f 05 c8 	lwz     r9,1480(r31)
 180072c:	7c 0b 03 78 	mr      r11,r0
 1800730:	91 2b 00 00 	stw     r9,0(r11)
 1800734:	3c 00 01 82 	lis     r0,386
 1800738:	7c 09 03 78 	mr      r9,r0
 180073c:	80 09 c7 fc 	lwz     r0,-14340(r9)
 1800740:	30 00 00 01 	addic   r0,r0,1
 1800744:	3d 20 01 82 	lis     r9,386
 1800748:	39 29 c8 20 	addi    r9,r9,-14304
 180074c:	54 00 10 3a 	rlwinm  r0,r0,2,0,29
 1800750:	7c 09 02 14 	add     r0,r9,r0
 1800754:	81 3f 05 c4 	lwz     r9,1476(r31)
 1800758:	7c 0b 03 78 	mr      r11,r0
 180075c:	91 2b 00 00 	stw     r9,0(r11)
 1800760:	3c 00 01 82 	lis     r0,386
 1800764:	7c 09 03 78 	mr      r9,r0
 1800768:	80 09 c7 fc 	lwz     r0,-14340(r9)
 180076c:	30 00 00 02 	addic   r0,r0,2
 1800770:	3d 20 01 82 	lis     r9,386
 1800774:	39 29 c8 20 	addi    r9,r9,-14304
 1800778:	54 00 10 3a 	rlwinm  r0,r0,2,0,29
 180077c:	7c 09 02 14 	add     r0,r9,r0
 1800780:	81 3f 05 c0 	lwz     r9,1472(r31)
 1800784:	7c 0b 03 78 	mr      r11,r0
 1800788:	91 2b 00 00 	stw     r9,0(r11)
 180078c:	3c 00 01 82 	lis     r0,386
 1800790:	7c 09 03 78 	mr      r9,r0
 1800794:	80 09 c7 fc 	lwz     r0,-14340(r9)
 1800798:	31 20 00 03 	addic   r9,r0,3
 180079c:	3c 00 01 82 	lis     r0,386
 18007a0:	7c 0b 03 78 	mr      r11,r0
 18007a4:	91 2b c7 fc 	stw     r9,-14340(r11)
 18007a8:	3c 00 01 82 	lis     r0,386
 18007ac:	7c 09 03 78 	mr      r9,r0
 18007b0:	80 09 c7 f4 	lwz     r0,-14348(r9)
 18007b4:	2f 80 00 02 	cmpwi   cr7,r0,2
 18007b8:	40 9d 01 44 	ble-    cr7,18008fc <main+0x6dc>
 18007bc:	3c 00 01 82 	lis     r0,386
 18007c0:	7c 0b 03 78 	mr      r11,r0
 18007c4:	80 0b c7 fc 	lwz     r0,-14340(r11)
 18007c8:	30 00 00 03 	addic   r0,r0,3
 18007cc:	2f 80 00 06 	cmpwi   cr7,r0,6
 18007d0:	41 9d 01 2c 	bgt-    cr7,18008fc <main+0x6dc>
 18007d4:	3c 00 01 82 	lis     r0,386
 18007d8:	30 00 c8 38 	addic   r0,r0,-14280
 18007dc:	7c 0b 03 78 	mr      r11,r0
 18007e0:	81 2b 00 00 	lwz     r9,0(r11)
 18007e4:	3c 00 01 82 	lis     r0,386
 18007e8:	30 00 c8 38 	addic   r0,r0,-14280
 18007ec:	7c 0b 03 78 	mr      r11,r0
 18007f0:	80 0b 00 04 	lwz     r0,4(r11)
 18007f4:	7f 89 00 00 	cmpw    cr7,r9,r0
 18007f8:	40 9e 01 04 	bne-    cr7,18008fc <main+0x6dc>
 18007fc:	3c 00 01 82 	lis     r0,386
 1800800:	30 00 c8 38 	addic   r0,r0,-14280
 1800804:	7c 09 03 78 	mr      r9,r0
 1800808:	80 09 00 08 	lwz     r0,8(r9)
 180080c:	90 1f 05 bc 	stw     r0,1468(r31)
 1800810:	3c 00 01 82 	lis     r0,386
 1800814:	30 00 c8 38 	addic   r0,r0,-14280
 1800818:	7c 0b 03 78 	mr      r11,r0
 180081c:	80 0b 00 00 	lwz     r0,0(r11)
 1800820:	90 1f 05 b8 	stw     r0,1464(r31)
 1800824:	81 3f 05 bc 	lwz     r9,1468(r31)
 1800828:	80 1f 05 b8 	lwz     r0,1464(r31)
 180082c:	7f 89 00 00 	cmpw    cr7,r9,r0
 1800830:	40 9c 00 cc 	bge-    cr7,18008fc <main+0x6dc>
 1800834:	3c 00 01 82 	lis     r0,386
 1800838:	7c 09 03 78 	mr      r9,r0
 180083c:	80 09 c7 f4 	lwz     r0,-14348(r9)
 1800840:	31 20 ff fd 	addic   r9,r0,-3
 1800844:	3c 00 01 82 	lis     r0,386
 1800848:	7c 0b 03 78 	mr      r11,r0
 180084c:	91 2b c7 f4 	stw     r9,-14348(r11)
 1800850:	81 3f 05 bc 	lwz     r9,1468(r31)
 1800854:	80 1f 05 b8 	lwz     r0,1464(r31)
 1800858:	7c 00 48 50 	subf    r0,r0,r9
 180085c:	90 1f 05 b4 	stw     r0,1460(r31)
 1800860:	3c 00 01 82 	lis     r0,386
 1800864:	7c 09 03 78 	mr      r9,r0
 1800868:	80 09 c7 fc 	lwz     r0,-14340(r9)
 180086c:	3d 20 01 82 	lis     r9,386
 1800870:	39 29 c8 20 	addi    r9,r9,-14304
 1800874:	54 00 10 3a 	rlwinm  r0,r0,2,0,29
 1800878:	7c 09 02 14 	add     r0,r9,r0
 180087c:	81 3f 05 bc 	lwz     r9,1468(r31)
 1800880:	7c 0b 03 78 	mr      r11,r0
 1800884:	91 2b 00 00 	stw     r9,0(r11)
 1800888:	3c 00 01 82 	lis     r0,386
 180088c:	7c 09 03 78 	mr      r9,r0
 1800890:	80 09 c7 fc 	lwz     r0,-14340(r9)
 1800894:	30 00 00 01 	addic   r0,r0,1
 1800898:	3d 20 01 82 	lis     r9,386
 180089c:	39 29 c8 20 	addi    r9,r9,-14304
 18008a0:	54 00 10 3a 	rlwinm  r0,r0,2,0,29
 18008a4:	7c 09 02 14 	add     r0,r9,r0
 18008a8:	81 3f 05 b8 	lwz     r9,1464(r31)
 18008ac:	7c 0b 03 78 	mr      r11,r0
 18008b0:	91 2b 00 00 	stw     r9,0(r11)
 18008b4:	3c 00 01 82 	lis     r0,386
 18008b8:	7c 09 03 78 	mr      r9,r0
 18008bc:	80 09 c7 fc 	lwz     r0,-14340(r9)
 18008c0:	30 00 00 02 	addic   r0,r0,2
 18008c4:	3d 20 01 82 	lis     r9,386
 18008c8:	39 29 c8 20 	addi    r9,r9,-14304
 18008cc:	54 00 10 3a 	rlwinm  r0,r0,2,0,29
 18008d0:	7c 09 02 14 	add     r0,r9,r0
 18008d4:	81 3f 05 b4 	lwz     r9,1460(r31)
 18008d8:	7c 0b 03 78 	mr      r11,r0
 18008dc:	91 2b 00 00 	stw     r9,0(r11)
 18008e0:	3c 00 01 82 	lis     r0,386
 18008e4:	7c 09 03 78 	mr      r9,r0
 18008e8:	80 09 c7 fc 	lwz     r0,-14340(r9)
 18008ec:	31 20 00 03 	addic   r9,r0,3
 18008f0:	3c 00 01 82 	lis     r0,386
 18008f4:	7c 0b 03 78 	mr      r11,r0
 18008f8:	91 2b c7 fc 	stw     r9,-14340(r11)
 18008fc:	3c 00 01 82 	lis     r0,386
 1800900:	7c 09 03 78 	mr      r9,r0
 1800904:	80 09 c7 f4 	lwz     r0,-14348(r9)
 1800908:	2f 80 00 02 	cmpwi   cr7,r0,2
 180090c:	40 9d 01 44 	ble-    cr7,1800a50 <main+0x830>
 1800910:	3c 00 01 82 	lis     r0,386
 1800914:	7c 0b 03 78 	mr      r11,r0
 1800918:	80 0b c7 fc 	lwz     r0,-14340(r11)
 180091c:	30 00 00 03 	addic   r0,r0,3
 1800920:	2f 80 00 06 	cmpwi   cr7,r0,6
 1800924:	41 9d 01 2c 	bgt-    cr7,1800a50 <main+0x830>
 1800928:	3c 00 01 82 	lis     r0,386
 180092c:	30 00 c8 38 	addic   r0,r0,-14280
 1800930:	7c 0b 03 78 	mr      r11,r0
 1800934:	81 2b 00 04 	lwz     r9,4(r11)
 1800938:	3c 00 01 82 	lis     r0,386
 180093c:	30 00 c8 38 	addic   r0,r0,-14280
 1800940:	7c 0b 03 78 	mr      r11,r0
 1800944:	80 0b 00 00 	lwz     r0,0(r11)
 1800948:	7f 89 00 00 	cmpw    cr7,r9,r0
 180094c:	40 9e 01 04 	bne-    cr7,1800a50 <main+0x830>
 1800950:	3c 00 01 82 	lis     r0,386
 1800954:	30 00 c8 38 	addic   r0,r0,-14280
 1800958:	7c 09 03 78 	mr      r9,r0
 180095c:	80 09 00 08 	lwz     r0,8(r9)
 1800960:	90 1f 05 b0 	stw     r0,1456(r31)
 1800964:	3c 00 01 82 	lis     r0,386
 1800968:	30 00 c8 38 	addic   r0,r0,-14280
 180096c:	7c 0b 03 78 	mr      r11,r0
 1800970:	80 0b 00 04 	lwz     r0,4(r11)
 1800974:	90 1f 05 ac 	stw     r0,1452(r31)
 1800978:	81 3f 05 b0 	lwz     r9,1456(r31)
 180097c:	80 1f 05 ac 	lwz     r0,1452(r31)
 1800980:	7f 89 00 00 	cmpw    cr7,r9,r0
 1800984:	40 9c 00 cc 	bge-    cr7,1800a50 <main+0x830>
 1800988:	3c 00 01 82 	lis     r0,386
 180098c:	7c 09 03 78 	mr      r9,r0
 1800990:	80 09 c7 f4 	lwz     r0,-14348(r9)
 1800994:	31 20 ff fd 	addic   r9,r0,-3
 1800998:	3c 00 01 82 	lis     r0,386
 180099c:	7c 0b 03 78 	mr      r11,r0
 18009a0:	91 2b c7 f4 	stw     r9,-14348(r11)
 18009a4:	81 3f 05 b0 	lwz     r9,1456(r31)
 18009a8:	80 1f 05 ac 	lwz     r0,1452(r31)
 18009ac:	7c 00 48 50 	subf    r0,r0,r9
 18009b0:	90 1f 05 a8 	stw     r0,1448(r31)
 18009b4:	3c 00 01 82 	lis     r0,386
 18009b8:	7c 09 03 78 	mr      r9,r0
 18009bc:	80 09 c7 fc 	lwz     r0,-14340(r9)
 18009c0:	3d 20 01 82 	lis     r9,386
 18009c4:	39 29 c8 20 	addi    r9,r9,-14304
 18009c8:	54 00 10 3a 	rlwinm  r0,r0,2,0,29
 18009cc:	7c 09 02 14 	add     r0,r9,r0
 18009d0:	81 3f 05 b0 	lwz     r9,1456(r31)
 18009d4:	7c 0b 03 78 	mr      r11,r0
 18009d8:	91 2b 00 00 	stw     r9,0(r11)
 18009dc:	3c 00 01 82 	lis     r0,386
 18009e0:	7c 09 03 78 	mr      r9,r0
 18009e4:	80 09 c7 fc 	lwz     r0,-14340(r9)
 18009e8:	30 00 00 01 	addic   r0,r0,1
 18009ec:	3d 20 01 82 	lis     r9,386
 18009f0:	39 29 c8 20 	addi    r9,r9,-14304
 18009f4:	54 00 10 3a 	rlwinm  r0,r0,2,0,29
 18009f8:	7c 09 02 14 	add     r0,r9,r0
 18009fc:	81 3f 05 ac 	lwz     r9,1452(r31)
 1800a00:	7c 0b 03 78 	mr      r11,r0
 1800a04:	91 2b 00 00 	stw     r9,0(r11)
 1800a08:	3c 00 01 82 	lis     r0,386
 1800a0c:	7c 09 03 78 	mr      r9,r0
 1800a10:	80 09 c7 fc 	lwz     r0,-14340(r9)
 1800a14:	30 00 00 02 	addic   r0,r0,2
 1800a18:	3d 20 01 82 	lis     r9,386
 1800a1c:	39 29 c8 20 	addi    r9,r9,-14304
 1800a20:	54 00 10 3a 	rlwinm  r0,r0,2,0,29
 1800a24:	7c 09 02 14 	add     r0,r9,r0
 1800a28:	81 3f 05 a8 	lwz     r9,1448(r31)
 1800a2c:	7c 0b 03 78 	mr      r11,r0
 1800a30:	91 2b 00 00 	stw     r9,0(r11)
 1800a34:	3c 00 01 82 	lis     r0,386
 1800a38:	7c 09 03 78 	mr      r9,r0
 1800a3c:	80 09 c7 fc 	lwz     r0,-14340(r9)
 1800a40:	31 20 00 03 	addic   r9,r0,3
 1800a44:	3c 00 01 82 	lis     r0,386
 1800a48:	7c 0b 03 78 	mr      r11,r0
 1800a4c:	91 2b c7 fc 	stw     r9,-14340(r11)
 1800a50:	3c 00 01 82 	lis     r0,386
 1800a54:	7c 09 03 78 	mr      r9,r0
 1800a58:	80 09 c7 f8 	lwz     r0,-14344(r9)
 1800a5c:	2f 80 00 03 	cmpwi   cr7,r0,3
 1800a60:	40 9d 01 6c 	ble-    cr7,1800bcc <main+0x9ac>
 1800a64:	3c 00 01 82 	lis     r0,386
 1800a68:	7c 0b 03 78 	mr      r11,r0
 1800a6c:	80 0b c7 fc 	lwz     r0,-14340(r11)
 1800a70:	30 00 00 03 	addic   r0,r0,3
 1800a74:	2f 80 00 06 	cmpwi   cr7,r0,6
 1800a78:	41 9d 01 54 	bgt-    cr7,1800bcc <main+0x9ac>
 1800a7c:	3c 00 01 82 	lis     r0,386
 1800a80:	30 00 c8 44 	addic   r0,r0,-14268
 1800a84:	7c 0b 03 78 	mr      r11,r0
 1800a88:	81 2b 00 04 	lwz     r9,4(r11)
 1800a8c:	3c 00 01 82 	lis     r0,386
 1800a90:	30 00 c8 44 	addic   r0,r0,-14268
 1800a94:	7c 0b 03 78 	mr      r11,r0
 1800a98:	80 0b 00 08 	lwz     r0,8(r11)
 1800a9c:	7f 89 00 00 	cmpw    cr7,r9,r0
 1800aa0:	40 9e 01 2c 	bne-    cr7,1800bcc <main+0x9ac>
 1800aa4:	3c 00 01 82 	lis     r0,386
 1800aa8:	30 00 c8 44 	addic   r0,r0,-14268
 1800aac:	7c 0b 03 78 	mr      r11,r0
 1800ab0:	81 2b 00 04 	lwz     r9,4(r11)
 1800ab4:	3c 00 01 82 	lis     r0,386
 1800ab8:	30 00 c8 44 	addic   r0,r0,-14268
 1800abc:	7c 0b 03 78 	mr      r11,r0
 1800ac0:	80 0b 00 0c 	lwz     r0,12(r11)
 1800ac4:	7f 89 00 00 	cmpw    cr7,r9,r0
 1800ac8:	40 9e 01 04 	bne-    cr7,1800bcc <main+0x9ac>
 1800acc:	3c 00 01 82 	lis     r0,386
 1800ad0:	30 00 c8 44 	addic   r0,r0,-14268
 1800ad4:	7c 09 03 78 	mr      r9,r0
 1800ad8:	80 09 00 00 	lwz     r0,0(r9)
 1800adc:	90 1f 05 a4 	stw     r0,1444(r31)
 1800ae0:	3c 00 01 82 	lis     r0,386
 1800ae4:	30 00 c8 44 	addic   r0,r0,-14268
 1800ae8:	7c 0b 03 78 	mr      r11,r0
 1800aec:	80 0b 00 04 	lwz     r0,4(r11)
 1800af0:	90 1f 05 a0 	stw     r0,1440(r31)
 1800af4:	81 3f 05 a0 	lwz     r9,1440(r31)
 1800af8:	80 1f 05 a4 	lwz     r0,1444(r31)
 1800afc:	7f 89 00 00 	cmpw    cr7,r9,r0
 1800b00:	40 9d 00 cc 	ble-    cr7,1800bcc <main+0x9ac>
 1800b04:	3c 00 01 82 	lis     r0,386
 1800b08:	7c 09 03 78 	mr      r9,r0
 1800b0c:	80 09 c7 f8 	lwz     r0,-14344(r9)
 1800b10:	31 20 ff fc 	addic   r9,r0,-4
 1800b14:	3c 00 01 82 	lis     r0,386
 1800b18:	7c 0b 03 78 	mr      r11,r0
 1800b1c:	91 2b c7 f8 	stw     r9,-14344(r11)
 1800b20:	81 3f 05 a4 	lwz     r9,1444(r31)
 1800b24:	80 1f 05 a0 	lwz     r0,1440(r31)
 1800b28:	7c 09 02 14 	add     r0,r9,r0
 1800b2c:	90 1f 05 9c 	stw     r0,1436(r31)
 1800b30:	3c 00 01 82 	lis     r0,386
 1800b34:	7c 09 03 78 	mr      r9,r0
 1800b38:	80 09 c7 fc 	lwz     r0,-14340(r9)
 1800b3c:	3d 20 01 82 	lis     r9,386
 1800b40:	39 29 c8 20 	addi    r9,r9,-14304
 1800b44:	54 00 10 3a 	rlwinm  r0,r0,2,0,29
 1800b48:	7c 09 02 14 	add     r0,r9,r0
 1800b4c:	81 3f 05 a4 	lwz     r9,1444(r31)
 1800b50:	7c 0b 03 78 	mr      r11,r0
 1800b54:	91 2b 00 00 	stw     r9,0(r11)
 1800b58:	3c 00 01 82 	lis     r0,386
 1800b5c:	7c 09 03 78 	mr      r9,r0
 1800b60:	80 09 c7 fc 	lwz     r0,-14340(r9)
 1800b64:	30 00 00 01 	addic   r0,r0,1
 1800b68:	3d 20 01 82 	lis     r9,386
 1800b6c:	39 29 c8 20 	addi    r9,r9,-14304
 1800b70:	54 00 10 3a 	rlwinm  r0,r0,2,0,29
 1800b74:	7c 09 02 14 	add     r0,r9,r0
 1800b78:	81 3f 05 a0 	lwz     r9,1440(r31)
 1800b7c:	7c 0b 03 78 	mr      r11,r0
 1800b80:	91 2b 00 00 	stw     r9,0(r11)
 1800b84:	3c 00 01 82 	lis     r0,386
 1800b88:	7c 09 03 78 	mr      r9,r0
 1800b8c:	80 09 c7 fc 	lwz     r0,-14340(r9)
 1800b90:	30 00 00 02 	addic   r0,r0,2
 1800b94:	3d 20 01 82 	lis     r9,386
 1800b98:	39 29 c8 20 	addi    r9,r9,-14304
 1800b9c:	54 00 10 3a 	rlwinm  r0,r0,2,0,29
 1800ba0:	7c 09 02 14 	add     r0,r9,r0
 1800ba4:	81 3f 05 9c 	lwz     r9,1436(r31)
 1800ba8:	7c 0b 03 78 	mr      r11,r0
 1800bac:	91 2b 00 00 	stw     r9,0(r11)
 1800bb0:	3c 00 01 82 	lis     r0,386
 1800bb4:	7c 09 03 78 	mr      r9,r0
 1800bb8:	80 09 c7 fc 	lwz     r0,-14340(r9)
 1800bbc:	31 20 00 03 	addic   r9,r0,3
 1800bc0:	3c 00 01 82 	lis     r0,386
 1800bc4:	7c 0b 03 78 	mr      r11,r0
 1800bc8:	91 2b c7 fc 	stw     r9,-14340(r11)
 1800bcc:	3c 00 01 82 	lis     r0,386
 1800bd0:	7c 09 03 78 	mr      r9,r0
 1800bd4:	80 09 c7 f8 	lwz     r0,-14344(r9)
 1800bd8:	2f 80 00 03 	cmpwi   cr7,r0,3
 1800bdc:	40 9d 01 6c 	ble-    cr7,1800d48 <main+0xb28>
 1800be0:	3c 00 01 82 	lis     r0,386
 1800be4:	7c 0b 03 78 	mr      r11,r0
 1800be8:	80 0b c7 fc 	lwz     r0,-14340(r11)
 1800bec:	30 00 00 03 	addic   r0,r0,3
 1800bf0:	2f 80 00 06 	cmpwi   cr7,r0,6
 1800bf4:	41 9d 01 54 	bgt-    cr7,1800d48 <main+0xb28>
 1800bf8:	3c 00 01 82 	lis     r0,386
 1800bfc:	30 00 c8 44 	addic   r0,r0,-14268
 1800c00:	7c 0b 03 78 	mr      r11,r0
 1800c04:	81 2b 00 04 	lwz     r9,4(r11)
 1800c08:	3c 00 01 82 	lis     r0,386
 1800c0c:	30 00 c8 44 	addic   r0,r0,-14268
 1800c10:	7c 0b 03 78 	mr      r11,r0
 1800c14:	80 0b 00 0c 	lwz     r0,12(r11)
 1800c18:	7f 89 00 00 	cmpw    cr7,r9,r0
 1800c1c:	40 9e 01 2c 	bne-    cr7,1800d48 <main+0xb28>
 1800c20:	3c 00 01 82 	lis     r0,386
 1800c24:	30 00 c8 44 	addic   r0,r0,-14268
 1800c28:	7c 0b 03 78 	mr      r11,r0
 1800c2c:	81 2b 00 04 	lwz     r9,4(r11)
 1800c30:	3c 00 01 82 	lis     r0,386
 1800c34:	30 00 c8 44 	addic   r0,r0,-14268
 1800c38:	7c 0b 03 78 	mr      r11,r0
 1800c3c:	80 0b 00 08 	lwz     r0,8(r11)
 1800c40:	7f 89 00 00 	cmpw    cr7,r9,r0
 1800c44:	40 9e 01 04 	bne-    cr7,1800d48 <main+0xb28>
 1800c48:	3c 00 01 82 	lis     r0,386
 1800c4c:	30 00 c8 44 	addic   r0,r0,-14268
 1800c50:	7c 09 03 78 	mr      r9,r0
 1800c54:	80 09 00 00 	lwz     r0,0(r9)
 1800c58:	90 1f 05 98 	stw     r0,1432(r31)
 1800c5c:	3c 00 01 82 	lis     r0,386
 1800c60:	30 00 c8 44 	addic   r0,r0,-14268
 1800c64:	7c 0b 03 78 	mr      r11,r0
 1800c68:	80 0b 00 04 	lwz     r0,4(r11)
 1800c6c:	90 1f 05 94 	stw     r0,1428(r31)
 1800c70:	81 3f 05 94 	lwz     r9,1428(r31)
 1800c74:	80 1f 05 98 	lwz     r0,1432(r31)
 1800c78:	7f 89 00 00 	cmpw    cr7,r9,r0
 1800c7c:	40 9d 00 cc 	ble-    cr7,1800d48 <main+0xb28>
 1800c80:	3c 00 01 82 	lis     r0,386
 1800c84:	7c 09 03 78 	mr      r9,r0
 1800c88:	80 09 c7 f8 	lwz     r0,-14344(r9)
 1800c8c:	31 20 ff fc 	addic   r9,r0,-4
 1800c90:	3c 00 01 82 	lis     r0,386
 1800c94:	7c 0b 03 78 	mr      r11,r0
 1800c98:	91 2b c7 f8 	stw     r9,-14344(r11)
 1800c9c:	81 3f 05 98 	lwz     r9,1432(r31)
 1800ca0:	80 1f 05 94 	lwz     r0,1428(r31)
 1800ca4:	7c 09 02 14 	add     r0,r9,r0
 1800ca8:	90 1f 05 90 	stw     r0,1424(r31)
 1800cac:	3c 00 01 82 	lis     r0,386
 1800cb0:	7c 09 03 78 	mr      r9,r0
 1800cb4:	80 09 c7 fc 	lwz     r0,-14340(r9)
 1800cb8:	3d 20 01 82 	lis     r9,386
 1800cbc:	39 29 c8 20 	addi    r9,r9,-14304
 1800cc0:	54 00 10 3a 	rlwinm  r0,r0,2,0,29
 1800cc4:	7c 09 02 14 	add     r0,r9,r0
 1800cc8:	81 3f 05 98 	lwz     r9,1432(r31)
 1800ccc:	7c 0b 03 78 	mr      r11,r0
 1800cd0:	91 2b 00 00 	stw     r9,0(r11)
 1800cd4:	3c 00 01 82 	lis     r0,386
 1800cd8:	7c 09 03 78 	mr      r9,r0
 1800cdc:	80 09 c7 fc 	lwz     r0,-14340(r9)
 1800ce0:	30 00 00 01 	addic   r0,r0,1
 1800ce4:	3d 20 01 82 	lis     r9,386
 1800ce8:	39 29 c8 20 	addi    r9,r9,-14304
 1800cec:	54 00 10 3a 	rlwinm  r0,r0,2,0,29
 1800cf0:	7c 09 02 14 	add     r0,r9,r0
 1800cf4:	81 3f 05 94 	lwz     r9,1428(r31)
 1800cf8:	7c 0b 03 78 	mr      r11,r0
 1800cfc:	91 2b 00 00 	stw     r9,0(r11)
 1800d00:	3c 00 01 82 	lis     r0,386
 1800d04:	7c 09 03 78 	mr      r9,r0
 1800d08:	80 09 c7 fc 	lwz     r0,-14340(r9)
 1800d0c:	30 00 00 02 	addic   r0,r0,2
 1800d10:	3d 20 01 82 	lis     r9,386
 1800d14:	39 29 c8 20 	addi    r9,r9,-14304
 1800d18:	54 00 10 3a 	rlwinm  r0,r0,2,0,29
 1800d1c:	7c 09 02 14 	add     r0,r9,r0
 1800d20:	81 3f 05 90 	lwz     r9,1424(r31)
 1800d24:	7c 0b 03 78 	mr      r11,r0
 1800d28:	91 2b 00 00 	stw     r9,0(r11)
 1800d2c:	3c 00 01 82 	lis     r0,386
 1800d30:	7c 09 03 78 	mr      r9,r0
 1800d34:	80 09 c7 fc 	lwz     r0,-14340(r9)
 1800d38:	31 20 00 03 	addic   r9,r0,3
 1800d3c:	3c 00 01 82 	lis     r0,386
 1800d40:	7c 0b 03 78 	mr      r11,r0
 1800d44:	91 2b c7 fc 	stw     r9,-14340(r11)
 1800d48:	3c 00 01 82 	lis     r0,386
 1800d4c:	7c 09 03 78 	mr      r9,r0
 1800d50:	80 09 c7 f8 	lwz     r0,-14344(r9)
 1800d54:	2f 80 00 03 	cmpwi   cr7,r0,3
 1800d58:	40 9d 01 6c 	ble-    cr7,1800ec4 <main+0xca4>
 1800d5c:	3c 00 01 82 	lis     r0,386
 1800d60:	7c 0b 03 78 	mr      r11,r0
 1800d64:	80 0b c7 fc 	lwz     r0,-14340(r11)
 1800d68:	30 00 00 03 	addic   r0,r0,3
 1800d6c:	2f 80 00 06 	cmpwi   cr7,r0,6
 1800d70:	41 9d 01 54 	bgt-    cr7,1800ec4 <main+0xca4>
 1800d74:	3c 00 01 82 	lis     r0,386
 1800d78:	30 00 c8 44 	addic   r0,r0,-14268
 1800d7c:	7c 0b 03 78 	mr      r11,r0
 1800d80:	81 2b 00 08 	lwz     r9,8(r11)
 1800d84:	3c 00 01 82 	lis     r0,386
 1800d88:	30 00 c8 44 	addic   r0,r0,-14268
 1800d8c:	7c 0b 03 78 	mr      r11,r0
 1800d90:	80 0b 00 04 	lwz     r0,4(r11)
 1800d94:	7f 89 00 00 	cmpw    cr7,r9,r0
 1800d98:	40 9e 01 2c 	bne-    cr7,1800ec4 <main+0xca4>
 1800d9c:	3c 00 01 82 	lis     r0,386
 1800da0:	30 00 c8 44 	addic   r0,r0,-14268
 1800da4:	7c 0b 03 78 	mr      r11,r0
 1800da8:	81 2b 00 08 	lwz     r9,8(r11)
 1800dac:	3c 00 01 82 	lis     r0,386
 1800db0:	30 00 c8 44 	addic   r0,r0,-14268
 1800db4:	7c 0b 03 78 	mr      r11,r0
 1800db8:	80 0b 00 0c 	lwz     r0,12(r11)
 1800dbc:	7f 89 00 00 	cmpw    cr7,r9,r0
 1800dc0:	40 9e 01 04 	bne-    cr7,1800ec4 <main+0xca4>
 1800dc4:	3c 00 01 82 	lis     r0,386
 1800dc8:	30 00 c8 44 	addic   r0,r0,-14268
 1800dcc:	7c 09 03 78 	mr      r9,r0
 1800dd0:	80 09 00 00 	lwz     r0,0(r9)
 1800dd4:	90 1f 05 8c 	stw     r0,1420(r31)
 1800dd8:	3c 00 01 82 	lis     r0,386
 1800ddc:	30 00 c8 44 	addic   r0,r0,-14268
 1800de0:	7c 0b 03 78 	mr      r11,r0
 1800de4:	80 0b 00 08 	lwz     r0,8(r11)
 1800de8:	90 1f 05 88 	stw     r0,1416(r31)
 1800dec:	81 3f 05 88 	lwz     r9,1416(r31)
 1800df0:	80 1f 05 8c 	lwz     r0,1420(r31)
 1800df4:	7f 89 00 00 	cmpw    cr7,r9,r0
 1800df8:	40 9d 00 cc 	ble-    cr7,1800ec4 <main+0xca4>
 1800dfc:	3c 00 01 82 	lis     r0,386
 1800e00:	7c 09 03 78 	mr      r9,r0
 1800e04:	80 09 c7 f8 	lwz     r0,-14344(r9)
 1800e08:	31 20 ff fc 	addic   r9,r0,-4
 1800e0c:	3c 00 01 82 	lis     r0,386
 1800e10:	7c 0b 03 78 	mr      r11,r0
 1800e14:	91 2b c7 f8 	stw     r9,-14344(r11)
 1800e18:	81 3f 05 8c 	lwz     r9,1420(r31)
 1800e1c:	80 1f 05 88 	lwz     r0,1416(r31)
 1800e20:	7c 09 02 14 	add     r0,r9,r0
 1800e24:	90 1f 05 84 	stw     r0,1412(r31)
 1800e28:	3c 00 01 82 	lis     r0,386
 1800e2c:	7c 09 03 78 	mr      r9,r0
 1800e30:	80 09 c7 fc 	lwz     r0,-14340(r9)
 1800e34:	3d 20 01 82 	lis     r9,386
 1800e38:	39 29 c8 20 	addi    r9,r9,-14304
 1800e3c:	54 00 10 3a 	rlwinm  r0,r0,2,0,29
 1800e40:	7c 09 02 14 	add     r0,r9,r0
 1800e44:	81 3f 05 8c 	lwz     r9,1420(r31)
 1800e48:	7c 0b 03 78 	mr      r11,r0
 1800e4c:	91 2b 00 00 	stw     r9,0(r11)
 1800e50:	3c 00 01 82 	lis     r0,386
 1800e54:	7c 09 03 78 	mr      r9,r0
 1800e58:	80 09 c7 fc 	lwz     r0,-14340(r9)
 1800e5c:	30 00 00 01 	addic   r0,r0,1
 1800e60:	3d 20 01 82 	lis     r9,386
 1800e64:	39 29 c8 20 	addi    r9,r9,-14304
 1800e68:	54 00 10 3a 	rlwinm  r0,r0,2,0,29
 1800e6c:	7c 09 02 14 	add     r0,r9,r0
 1800e70:	81 3f 05 88 	lwz     r9,1416(r31)
 1800e74:	7c 0b 03 78 	mr      r11,r0
 1800e78:	91 2b 00 00 	stw     r9,0(r11)
 1800e7c:	3c 00 01 82 	lis     r0,386
 1800e80:	7c 09 03 78 	mr      r9,r0
 1800e84:	80 09 c7 fc 	lwz     r0,-14340(r9)
 1800e88:	30 00 00 02 	addic   r0,r0,2
 1800e8c:	3d 20 01 82 	lis     r9,386
 1800e90:	39 29 c8 20 	addi    r9,r9,-14304
 1800e94:	54 00 10 3a 	rlwinm  r0,r0,2,0,29
 1800e98:	7c 09 02 14 	add     r0,r9,r0
 1800e9c:	81 3f 05 84 	lwz     r9,1412(r31)
 1800ea0:	7c 0b 03 78 	mr      r11,r0
 1800ea4:	91 2b 00 00 	stw     r9,0(r11)
 1800ea8:	3c 00 01 82 	lis     r0,386
 1800eac:	7c 09 03 78 	mr      r9,r0
 1800eb0:	80 09 c7 fc 	lwz     r0,-14340(r9)
 1800eb4:	31 20 00 03 	addic   r9,r0,3
 1800eb8:	3c 00 01 82 	lis     r0,386
 1800ebc:	7c 0b 03 78 	mr      r11,r0
 1800ec0:	91 2b c7 fc 	stw     r9,-14340(r11)
 1800ec4:	3c 00 01 82 	lis     r0,386
 1800ec8:	7c 09 03 78 	mr      r9,r0
 1800ecc:	80 09 c7 f8 	lwz     r0,-14344(r9)
 1800ed0:	2f 80 00 03 	cmpwi   cr7,r0,3
 1800ed4:	40 9d 01 6c 	ble-    cr7,1801040 <main+0xe20>
 1800ed8:	3c 00 01 82 	lis     r0,386
 1800edc:	7c 0b 03 78 	mr      r11,r0
 1800ee0:	80 0b c7 fc 	lwz     r0,-14340(r11)
 1800ee4:	30 00 00 03 	addic   r0,r0,3
 1800ee8:	2f 80 00 06 	cmpwi   cr7,r0,6
 1800eec:	41 9d 01 54 	bgt-    cr7,1801040 <main+0xe20>
 1800ef0:	3c 00 01 82 	lis     r0,386
 1800ef4:	30 00 c8 44 	addic   r0,r0,-14268
 1800ef8:	7c 0b 03 78 	mr      r11,r0
 1800efc:	81 2b 00 08 	lwz     r9,8(r11)
 1800f00:	3c 00 01 82 	lis     r0,386
 1800f04:	30 00 c8 44 	addic   r0,r0,-14268
 1800f08:	7c 0b 03 78 	mr      r11,r0
 1800f0c:	80 0b 00 0c 	lwz     r0,12(r11)
 1800f10:	7f 89 00 00 	cmpw    cr7,r9,r0
 1800f14:	40 9e 01 2c 	bne-    cr7,1801040 <main+0xe20>
 1800f18:	3c 00 01 82 	lis     r0,386
 1800f1c:	30 00 c8 44 	addic   r0,r0,-14268
 1800f20:	7c 0b 03 78 	mr      r11,r0
 1800f24:	81 2b 00 08 	lwz     r9,8(r11)
 1800f28:	3c 00 01 82 	lis     r0,386
 1800f2c:	30 00 c8 44 	addic   r0,r0,-14268
 1800f30:	7c 0b 03 78 	mr      r11,r0
 1800f34:	80 0b 00 04 	lwz     r0,4(r11)
 1800f38:	7f 89 00 00 	cmpw    cr7,r9,r0
 1800f3c:	40 9e 01 04 	bne-    cr7,1801040 <main+0xe20>
 1800f40:	3c 00 01 82 	lis     r0,386
 1800f44:	30 00 c8 44 	addic   r0,r0,-14268
 1800f48:	7c 09 03 78 	mr      r9,r0
 1800f4c:	80 09 00 00 	lwz     r0,0(r9)
 1800f50:	90 1f 05 80 	stw     r0,1408(r31)
 1800f54:	3c 00 01 82 	lis     r0,386
 1800f58:	30 00 c8 44 	addic   r0,r0,-14268
 1800f5c:	7c 0b 03 78 	mr      r11,r0
 1800f60:	80 0b 00 08 	lwz     r0,8(r11)
 1800f64:	90 1f 05 7c 	stw     r0,1404(r31)
 1800f68:	81 3f 05 7c 	lwz     r9,1404(r31)
 1800f6c:	80 1f 05 80 	lwz     r0,1408(r31)
 1800f70:	7f 89 00 00 	cmpw    cr7,r9,r0
 1800f74:	40 9d 00 cc 	ble-    cr7,1801040 <main+0xe20>
 1800f78:	3c 00 01 82 	lis     r0,386
 1800f7c:	7c 09 03 78 	mr      r9,r0
 1800f80:	80 09 c7 f8 	lwz     r0,-14344(r9)
 1800f84:	31 20 ff fc 	addic   r9,r0,-4
 1800f88:	3c 00 01 82 	lis     r0,386
 1800f8c:	7c 0b 03 78 	mr      r11,r0
 1800f90:	91 2b c7 f8 	stw     r9,-14344(r11)
 1800f94:	81 3f 05 80 	lwz     r9,1408(r31)
 1800f98:	80 1f 05 7c 	lwz     r0,1404(r31)
 1800f9c:	7c 09 02 14 	add     r0,r9,r0
 1800fa0:	90 1f 05 78 	stw     r0,1400(r31)
 1800fa4:	3c 00 01 82 	lis     r0,386
 1800fa8:	7c 09 03 78 	mr      r9,r0
 1800fac:	80 09 c7 fc 	lwz     r0,-14340(r9)
 1800fb0:	3d 20 01 82 	lis     r9,386
 1800fb4:	39 29 c8 20 	addi    r9,r9,-14304
 1800fb8:	54 00 10 3a 	rlwinm  r0,r0,2,0,29
 1800fbc:	7c 09 02 14 	add     r0,r9,r0
 1800fc0:	81 3f 05 80 	lwz     r9,1408(r31)
 1800fc4:	7c 0b 03 78 	mr      r11,r0
 1800fc8:	91 2b 00 00 	stw     r9,0(r11)
 1800fcc:	3c 00 01 82 	lis     r0,386
 1800fd0:	7c 09 03 78 	mr      r9,r0
 1800fd4:	80 09 c7 fc 	lwz     r0,-14340(r9)
 1800fd8:	30 00 00 01 	addic   r0,r0,1
 1800fdc:	3d 20 01 82 	lis     r9,386
 1800fe0:	39 29 c8 20 	addi    r9,r9,-14304
 1800fe4:	54 00 10 3a 	rlwinm  r0,r0,2,0,29
 1800fe8:	7c 09 02 14 	add     r0,r9,r0
 1800fec:	81 3f 05 7c 	lwz     r9,1404(r31)
 1800ff0:	7c 0b 03 78 	mr      r11,r0
 1800ff4:	91 2b 00 00 	stw     r9,0(r11)
 1800ff8:	3c 00 01 82 	lis     r0,386
 1800ffc:	7c 09 03 78 	mr      r9,r0
 1801000:	80 09 c7 fc 	lwz     r0,-14340(r9)
 1801004:	30 00 00 02 	addic   r0,r0,2
 1801008:	3d 20 01 82 	lis     r9,386
 180100c:	39 29 c8 20 	addi    r9,r9,-14304
 1801010:	54 00 10 3a 	rlwinm  r0,r0,2,0,29
 1801014:	7c 09 02 14 	add     r0,r9,r0
 1801018:	81 3f 05 78 	lwz     r9,1400(r31)
 180101c:	7c 0b 03 78 	mr      r11,r0
 1801020:	91 2b 00 00 	stw     r9,0(r11)
 1801024:	3c 00 01 82 	lis     r0,386
 1801028:	7c 09 03 78 	mr      r9,r0
 180102c:	80 09 c7 fc 	lwz     r0,-14340(r9)
 1801030:	31 20 00 03 	addic   r9,r0,3
 1801034:	3c 00 01 82 	lis     r0,386
 1801038:	7c 0b 03 78 	mr      r11,r0
 180103c:	91 2b c7 fc 	stw     r9,-14340(r11)
 1801040:	3c 00 01 82 	lis     r0,386
 1801044:	7c 09 03 78 	mr      r9,r0
 1801048:	80 09 c7 f8 	lwz     r0,-14344(r9)
 180104c:	2f 80 00 03 	cmpwi   cr7,r0,3
 1801050:	40 9d 01 6c 	ble-    cr7,18011bc <main+0xf9c>
 1801054:	3c 00 01 82 	lis     r0,386
 1801058:	7c 0b 03 78 	mr      r11,r0
 180105c:	80 0b c7 fc 	lwz     r0,-14340(r11)
 1801060:	30 00 00 03 	addic   r0,r0,3
 1801064:	2f 80 00 06 	cmpwi   cr7,r0,6
 1801068:	41 9d 01 54 	bgt-    cr7,18011bc <main+0xf9c>
 180106c:	3c 00 01 82 	lis     r0,386
 1801070:	30 00 c8 44 	addic   r0,r0,-14268
 1801074:	7c 0b 03 78 	mr      r11,r0
 1801078:	81 2b 00 0c 	lwz     r9,12(r11)
 180107c:	3c 00 01 82 	lis     r0,386
 1801080:	30 00 c8 44 	addic   r0,r0,-14268
 1801084:	7c 0b 03 78 	mr      r11,r0
 1801088:	80 0b 00 04 	lwz     r0,4(r11)
 180108c:	7f 89 00 00 	cmpw    cr7,r9,r0
 1801090:	40 9e 01 2c 	bne-    cr7,18011bc <main+0xf9c>
 1801094:	3c 00 01 82 	lis     r0,386
 1801098:	30 00 c8 44 	addic   r0,r0,-14268
 180109c:	7c 0b 03 78 	mr      r11,r0
 18010a0:	81 2b 00 0c 	lwz     r9,12(r11)
 18010a4:	3c 00 01 82 	lis     r0,386
 18010a8:	30 00 c8 44 	addic   r0,r0,-14268
 18010ac:	7c 0b 03 78 	mr      r11,r0
 18010b0:	80 0b 00 08 	lwz     r0,8(r11)
 18010b4:	7f 89 00 00 	cmpw    cr7,r9,r0
 18010b8:	40 9e 01 04 	bne-    cr7,18011bc <main+0xf9c>
 18010bc:	3c 00 01 82 	lis     r0,386
 18010c0:	30 00 c8 44 	addic   r0,r0,-14268
 18010c4:	7c 09 03 78 	mr      r9,r0
 18010c8:	80 09 00 00 	lwz     r0,0(r9)
 18010cc:	90 1f 05 74 	stw     r0,1396(r31)
 18010d0:	3c 00 01 82 	lis     r0,386
 18010d4:	30 00 c8 44 	addic   r0,r0,-14268
 18010d8:	7c 0b 03 78 	mr      r11,r0
 18010dc:	80 0b 00 0c 	lwz     r0,12(r11)
 18010e0:	90 1f 05 70 	stw     r0,1392(r31)
 18010e4:	81 3f 05 70 	lwz     r9,1392(r31)
 18010e8:	80 1f 05 74 	lwz     r0,1396(r31)
 18010ec:	7f 89 00 00 	cmpw    cr7,r9,r0
 18010f0:	40 9d 00 cc 	ble-    cr7,18011bc <main+0xf9c>
 18010f4:	3c 00 01 82 	lis     r0,386
 18010f8:	7c 09 03 78 	mr      r9,r0
 18010fc:	80 09 c7 f8 	lwz     r0,-14344(r9)
 1801100:	31 20 ff fc 	addic   r9,r0,-4
 1801104:	3c 00 01 82 	lis     r0,386
 1801108:	7c 0b 03 78 	mr      r11,r0
 180110c:	91 2b c7 f8 	stw     r9,-14344(r11)
 1801110:	81 3f 05 74 	lwz     r9,1396(r31)
 1801114:	80 1f 05 70 	lwz     r0,1392(r31)
 1801118:	7c 09 02 14 	add     r0,r9,r0
 180111c:	90 1f 05 6c 	stw     r0,1388(r31)
 1801120:	3c 00 01 82 	lis     r0,386
 1801124:	7c 09 03 78 	mr      r9,r0
 1801128:	80 09 c7 fc 	lwz     r0,-14340(r9)
 180112c:	3d 20 01 82 	lis     r9,386
 1801130:	39 29 c8 20 	addi    r9,r9,-14304
 1801134:	54 00 10 3a 	rlwinm  r0,r0,2,0,29
 1801138:	7c 09 02 14 	add     r0,r9,r0
 180113c:	81 3f 05 74 	lwz     r9,1396(r31)
 1801140:	7c 0b 03 78 	mr      r11,r0
 1801144:	91 2b 00 00 	stw     r9,0(r11)
 1801148:	3c 00 01 82 	lis     r0,386
 180114c:	7c 09 03 78 	mr      r9,r0
 1801150:	80 09 c7 fc 	lwz     r0,-14340(r9)
 1801154:	30 00 00 01 	addic   r0,r0,1
 1801158:	3d 20 01 82 	lis     r9,386
 180115c:	39 29 c8 20 	addi    r9,r9,-14304
 1801160:	54 00 10 3a 	rlwinm  r0,r0,2,0,29
 1801164:	7c 09 02 14 	add     r0,r9,r0
 1801168:	81 3f 05 70 	lwz     r9,1392(r31)
 180116c:	7c 0b 03 78 	mr      r11,r0
 1801170:	91 2b 00 00 	stw     r9,0(r11)
 1801174:	3c 00 01 82 	lis     r0,386
 1801178:	7c 09 03 78 	mr      r9,r0
 180117c:	80 09 c7 fc 	lwz     r0,-14340(r9)
 1801180:	30 00 00 02 	addic   r0,r0,2
 1801184:	3d 20 01 82 	lis     r9,386
 1801188:	39 29 c8 20 	addi    r9,r9,-14304
 180118c:	54 00 10 3a 	rlwinm  r0,r0,2,0,29
 1801190:	7c 09 02 14 	add     r0,r9,r0
 1801194:	81 3f 05 6c 	lwz     r9,1388(r31)
 1801198:	7c 0b 03 78 	mr      r11,r0
 180119c:	91 2b 00 00 	stw     r9,0(r11)
 18011a0:	3c 00 01 82 	lis     r0,386
 18011a4:	7c 09 03 78 	mr      r9,r0
 18011a8:	80 09 c7 fc 	lwz     r0,-14340(r9)
 18011ac:	31 20 00 03 	addic   r9,r0,3
 18011b0:	3c 00 01 82 	lis     r0,386
 18011b4:	7c 0b 03 78 	mr      r11,r0
 18011b8:	91 2b c7 fc 	stw     r9,-14340(r11)
 18011bc:	3c 00 01 82 	lis     r0,386
 18011c0:	7c 09 03 78 	mr      r9,r0
 18011c4:	80 09 c7 f8 	lwz     r0,-14344(r9)
 18011c8:	2f 80 00 03 	cmpwi   cr7,r0,3
 18011cc:	40 9d 01 6c 	ble-    cr7,1801338 <main+0x1118>
 18011d0:	3c 00 01 82 	lis     r0,386
 18011d4:	7c 0b 03 78 	mr      r11,r0
 18011d8:	80 0b c7 fc 	lwz     r0,-14340(r11)
 18011dc:	30 00 00 03 	addic   r0,r0,3
 18011e0:	2f 80 00 06 	cmpwi   cr7,r0,6
 18011e4:	41 9d 01 54 	bgt-    cr7,1801338 <main+0x1118>
 18011e8:	3c 00 01 82 	lis     r0,386
 18011ec:	30 00 c8 44 	addic   r0,r0,-14268
 18011f0:	7c 0b 03 78 	mr      r11,r0
 18011f4:	81 2b 00 0c 	lwz     r9,12(r11)
 18011f8:	3c 00 01 82 	lis     r0,386
 18011fc:	30 00 c8 44 	addic   r0,r0,-14268
 1801200:	7c 0b 03 78 	mr      r11,r0
 1801204:	80 0b 00 08 	lwz     r0,8(r11)
 1801208:	7f 89 00 00 	cmpw    cr7,r9,r0
 180120c:	40 9e 01 2c 	bne-    cr7,1801338 <main+0x1118>
 1801210:	3c 00 01 82 	lis     r0,386
 1801214:	30 00 c8 44 	addic   r0,r0,-14268
 1801218:	7c 0b 03 78 	mr      r11,r0
 180121c:	81 2b 00 0c 	lwz     r9,12(r11)
 1801220:	3c 00 01 82 	lis     r0,386
 1801224:	30 00 c8 44 	addic   r0,r0,-14268
 1801228:	7c 0b 03 78 	mr      r11,r0
 180122c:	80 0b 00 04 	lwz     r0,4(r11)
 1801230:	7f 89 00 00 	cmpw    cr7,r9,r0
 1801234:	40 9e 01 04 	bne-    cr7,1801338 <main+0x1118>
 1801238:	3c 00 01 82 	lis     r0,386
 180123c:	30 00 c8 44 	addic   r0,r0,-14268
 1801240:	7c 09 03 78 	mr      r9,r0
 1801244:	80 09 00 00 	lwz     r0,0(r9)
 1801248:	90 1f 05 68 	stw     r0,1384(r31)
 180124c:	3c 00 01 82 	lis     r0,386
 1801250:	30 00 c8 44 	addic   r0,r0,-14268
 1801254:	7c 0b 03 78 	mr      r11,r0
 1801258:	80 0b 00 0c 	lwz     r0,12(r11)
 180125c:	90 1f 05 64 	stw     r0,1380(r31)
 1801260:	81 3f 05 64 	lwz     r9,1380(r31)
 1801264:	80 1f 05 68 	lwz     r0,1384(r31)
 1801268:	7f 89 00 00 	cmpw    cr7,r9,r0
 180126c:	40 9d 00 cc 	ble-    cr7,1801338 <main+0x1118>
 1801270:	3c 00 01 82 	lis     r0,386
 1801274:	7c 09 03 78 	mr      r9,r0
 1801278:	80 09 c7 f8 	lwz     r0,-14344(r9)
 180127c:	31 20 ff fc 	addic   r9,r0,-4
 1801280:	3c 00 01 82 	lis     r0,386
 1801284:	7c 0b 03 78 	mr      r11,r0
 1801288:	91 2b c7 f8 	stw     r9,-14344(r11)
 180128c:	81 3f 05 68 	lwz     r9,1384(r31)
 1801290:	80 1f 05 64 	lwz     r0,1380(r31)
 1801294:	7c 09 02 14 	add     r0,r9,r0
 1801298:	90 1f 05 60 	stw     r0,1376(r31)
 180129c:	3c 00 01 82 	lis     r0,386
 18012a0:	7c 09 03 78 	mr      r9,r0
 18012a4:	80 09 c7 fc 	lwz     r0,-14340(r9)
 18012a8:	3d 20 01 82 	lis     r9,386
 18012ac:	39 29 c8 20 	addi    r9,r9,-14304
 18012b0:	54 00 10 3a 	rlwinm  r0,r0,2,0,29
 18012b4:	7c 09 02 14 	add     r0,r9,r0
 18012b8:	81 3f 05 68 	lwz     r9,1384(r31)
 18012bc:	7c 0b 03 78 	mr      r11,r0
 18012c0:	91 2b 00 00 	stw     r9,0(r11)
 18012c4:	3c 00 01 82 	lis     r0,386
 18012c8:	7c 09 03 78 	mr      r9,r0
 18012cc:	80 09 c7 fc 	lwz     r0,-14340(r9)
 18012d0:	30 00 00 01 	addic   r0,r0,1
 18012d4:	3d 20 01 82 	lis     r9,386
 18012d8:	39 29 c8 20 	addi    r9,r9,-14304
 18012dc:	54 00 10 3a 	rlwinm  r0,r0,2,0,29
 18012e0:	7c 09 02 14 	add     r0,r9,r0
 18012e4:	81 3f 05 64 	lwz     r9,1380(r31)
 18012e8:	7c 0b 03 78 	mr      r11,r0
 18012ec:	91 2b 00 00 	stw     r9,0(r11)
 18012f0:	3c 00 01 82 	lis     r0,386
 18012f4:	7c 09 03 78 	mr      r9,r0
 18012f8:	80 09 c7 fc 	lwz     r0,-14340(r9)
 18012fc:	30 00 00 02 	addic   r0,r0,2
 1801300:	3d 20 01 82 	lis     r9,386
 1801304:	39 29 c8 20 	addi    r9,r9,-14304
 1801308:	54 00 10 3a 	rlwinm  r0,r0,2,0,29
 180130c:	7c 09 02 14 	add     r0,r9,r0
 1801310:	81 3f 05 60 	lwz     r9,1376(r31)
 1801314:	7c 0b 03 78 	mr      r11,r0
 1801318:	91 2b 00 00 	stw     r9,0(r11)
 180131c:	3c 00 01 82 	lis     r0,386
 1801320:	7c 09 03 78 	mr      r9,r0
 1801324:	80 09 c7 fc 	lwz     r0,-14340(r9)
 1801328:	31 20 00 03 	addic   r9,r0,3
 180132c:	3c 00 01 82 	lis     r0,386
 1801330:	7c 0b 03 78 	mr      r11,r0
 1801334:	91 2b c7 fc 	stw     r9,-14340(r11)
 1801338:	3c 00 01 82 	lis     r0,386
 180133c:	7c 09 03 78 	mr      r9,r0
 1801340:	80 09 c7 f8 	lwz     r0,-14344(r9)
 1801344:	2f 80 00 03 	cmpwi   cr7,r0,3
 1801348:	40 9d 01 6c 	ble-    cr7,18014b4 <main+0x1294>
 180134c:	3c 00 01 82 	lis     r0,386
 1801350:	7c 0b 03 78 	mr      r11,r0
 1801354:	80 0b c7 fc 	lwz     r0,-14340(r11)
 1801358:	30 00 00 03 	addic   r0,r0,3
 180135c:	2f 80 00 06 	cmpwi   cr7,r0,6
 1801360:	41 9d 01 54 	bgt-    cr7,18014b4 <main+0x1294>
 1801364:	3c 00 01 82 	lis     r0,386
 1801368:	30 00 c8 44 	addic   r0,r0,-14268
 180136c:	7c 0b 03 78 	mr      r11,r0
 1801370:	81 2b 00 00 	lwz     r9,0(r11)
 1801374:	3c 00 01 82 	lis     r0,386
 1801378:	30 00 c8 44 	addic   r0,r0,-14268
 180137c:	7c 0b 03 78 	mr      r11,r0
 1801380:	80 0b 00 08 	lwz     r0,8(r11)
 1801384:	7f 89 00 00 	cmpw    cr7,r9,r0
 1801388:	40 9e 01 2c 	bne-    cr7,18014b4 <main+0x1294>
 180138c:	3c 00 01 82 	lis     r0,386
 1801390:	30 00 c8 44 	addic   r0,r0,-14268
 1801394:	7c 0b 03 78 	mr      r11,r0
 1801398:	81 2b 00 00 	lwz     r9,0(r11)
 180139c:	3c 00 01 82 	lis     r0,386
 18013a0:	30 00 c8 44 	addic   r0,r0,-14268
 18013a4:	7c 0b 03 78 	mr      r11,r0
 18013a8:	80 0b 00 0c 	lwz     r0,12(r11)
 18013ac:	7f 89 00 00 	cmpw    cr7,r9,r0
 18013b0:	40 9e 01 04 	bne-    cr7,18014b4 <main+0x1294>
 18013b4:	3c 00 01 82 	lis     r0,386
 18013b8:	30 00 c8 44 	addic   r0,r0,-14268
 18013bc:	7c 09 03 78 	mr      r9,r0
 18013c0:	80 09 00 04 	lwz     r0,4(r9)
 18013c4:	90 1f 05 5c 	stw     r0,1372(r31)
 18013c8:	3c 00 01 82 	lis     r0,386
 18013cc:	30 00 c8 44 	addic   r0,r0,-14268
 18013d0:	7c 0b 03 78 	mr      r11,r0
 18013d4:	80 0b 00 00 	lwz     r0,0(r11)
 18013d8:	90 1f 05 58 	stw     r0,1368(r31)
 18013dc:	81 3f 05 58 	lwz     r9,1368(r31)
 18013e0:	80 1f 05 5c 	lwz     r0,1372(r31)
 18013e4:	7f 89 00 00 	cmpw    cr7,r9,r0
 18013e8:	40 9d 00 cc 	ble-    cr7,18014b4 <main+0x1294>
 18013ec:	3c 00 01 82 	lis     r0,386
 18013f0:	7c 09 03 78 	mr      r9,r0
 18013f4:	80 09 c7 f8 	lwz     r0,-14344(r9)
 18013f8:	31 20 ff fc 	addic   r9,r0,-4
 18013fc:	3c 00 01 82 	lis     r0,386
 1801400:	7c 0b 03 78 	mr      r11,r0
 1801404:	91 2b c7 f8 	stw     r9,-14344(r11)
 1801408:	81 3f 05 5c 	lwz     r9,1372(r31)
 180140c:	80 1f 05 58 	lwz     r0,1368(r31)
 1801410:	7c 09 02 14 	add     r0,r9,r0
 1801414:	90 1f 05 54 	stw     r0,1364(r31)
 1801418:	3c 00 01 82 	lis     r0,386
 180141c:	7c 09 03 78 	mr      r9,r0
 1801420:	80 09 c7 fc 	lwz     r0,-14340(r9)
 1801424:	3d 20 01 82 	lis     r9,386
 1801428:	39 29 c8 20 	addi    r9,r9,-14304
 180142c:	54 00 10 3a 	rlwinm  r0,r0,2,0,29
 1801430:	7c 09 02 14 	add     r0,r9,r0
 1801434:	81 3f 05 5c 	lwz     r9,1372(r31)
 1801438:	7c 0b 03 78 	mr      r11,r0
 180143c:	91 2b 00 00 	stw     r9,0(r11)
 1801440:	3c 00 01 82 	lis     r0,386
 1801444:	7c 09 03 78 	mr      r9,r0
 1801448:	80 09 c7 fc 	lwz     r0,-14340(r9)
 180144c:	30 00 00 01 	addic   r0,r0,1
 1801450:	3d 20 01 82 	lis     r9,386
 1801454:	39 29 c8 20 	addi    r9,r9,-14304
 1801458:	54 00 10 3a 	rlwinm  r0,r0,2,0,29
 180145c:	7c 09 02 14 	add     r0,r9,r0
 1801460:	81 3f 05 58 	lwz     r9,1368(r31)
 1801464:	7c 0b 03 78 	mr      r11,r0
 1801468:	91 2b 00 00 	stw     r9,0(r11)
 180146c:	3c 00 01 82 	lis     r0,386
 1801470:	7c 09 03 78 	mr      r9,r0
 1801474:	80 09 c7 fc 	lwz     r0,-14340(r9)
 1801478:	30 00 00 02 	addic   r0,r0,2
 180147c:	3d 20 01 82 	lis     r9,386
 1801480:	39 29 c8 20 	addi    r9,r9,-14304
 1801484:	54 00 10 3a 	rlwinm  r0,r0,2,0,29
 1801488:	7c 09 02 14 	add     r0,r9,r0
 180148c:	81 3f 05 54 	lwz     r9,1364(r31)
 1801490:	7c 0b 03 78 	mr      r11,r0
 1801494:	91 2b 00 00 	stw     r9,0(r11)
 1801498:	3c 00 01 82 	lis     r0,386
 180149c:	7c 09 03 78 	mr      r9,r0
 18014a0:	80 09 c7 fc 	lwz     r0,-14340(r9)
 18014a4:	31 20 00 03 	addic   r9,r0,3
 18014a8:	3c 00 01 82 	lis     r0,386
 18014ac:	7c 0b 03 78 	mr      r11,r0
 18014b0:	91 2b c7 fc 	stw     r9,-14340(r11)
 18014b4:	3c 00 01 82 	lis     r0,386
 18014b8:	7c 09 03 78 	mr      r9,r0
 18014bc:	80 09 c7 f8 	lwz     r0,-14344(r9)
 18014c0:	2f 80 00 03 	cmpwi   cr7,r0,3
 18014c4:	40 9d 01 6c 	ble-    cr7,1801630 <main+0x1410>
 18014c8:	3c 00 01 82 	lis     r0,386
 18014cc:	7c 0b 03 78 	mr      r11,r0
 18014d0:	80 0b c7 fc 	lwz     r0,-14340(r11)
 18014d4:	30 00 00 03 	addic   r0,r0,3
 18014d8:	2f 80 00 06 	cmpwi   cr7,r0,6
 18014dc:	41 9d 01 54 	bgt-    cr7,1801630 <main+0x1410>
 18014e0:	3c 00 01 82 	lis     r0,386
 18014e4:	30 00 c8 44 	addic   r0,r0,-14268
 18014e8:	7c 0b 03 78 	mr      r11,r0
 18014ec:	81 2b 00 00 	lwz     r9,0(r11)
 18014f0:	3c 00 01 82 	lis     r0,386
 18014f4:	30 00 c8 44 	addic   r0,r0,-14268
 18014f8:	7c 0b 03 78 	mr      r11,r0
 18014fc:	80 0b 00 0c 	lwz     r0,12(r11)
 1801500:	7f 89 00 00 	cmpw    cr7,r9,r0
 1801504:	40 9e 01 2c 	bne-    cr7,1801630 <main+0x1410>
 1801508:	3c 00 01 82 	lis     r0,386
 180150c:	30 00 c8 44 	addic   r0,r0,-14268
 1801510:	7c 0b 03 78 	mr      r11,r0
 1801514:	81 2b 00 00 	lwz     r9,0(r11)
 1801518:	3c 00 01 82 	lis     r0,386
 180151c:	30 00 c8 44 	addic   r0,r0,-14268
 1801520:	7c 0b 03 78 	mr      r11,r0
 1801524:	80 0b 00 08 	lwz     r0,8(r11)
 1801528:	7f 89 00 00 	cmpw    cr7,r9,r0
 180152c:	40 9e 01 04 	bne-    cr7,1801630 <main+0x1410>
 1801530:	3c 00 01 82 	lis     r0,386
 1801534:	30 00 c8 44 	addic   r0,r0,-14268
 1801538:	7c 09 03 78 	mr      r9,r0
 180153c:	80 09 00 04 	lwz     r0,4(r9)
 1801540:	90 1f 05 50 	stw     r0,1360(r31)
 1801544:	3c 00 01 82 	lis     r0,386
 1801548:	30 00 c8 44 	addic   r0,r0,-14268
 180154c:	7c 0b 03 78 	mr      r11,r0
 1801550:	80 0b 00 00 	lwz     r0,0(r11)
 1801554:	90 1f 05 4c 	stw     r0,1356(r31)
 1801558:	81 3f 05 4c 	lwz     r9,1356(r31)
 180155c:	80 1f 05 50 	lwz     r0,1360(r31)
 1801560:	7f 89 00 00 	cmpw    cr7,r9,r0
 1801564:	40 9d 00 cc 	ble-    cr7,1801630 <main+0x1410>
 1801568:	3c 00 01 82 	lis     r0,386
 180156c:	7c 09 03 78 	mr      r9,r0
 1801570:	80 09 c7 f8 	lwz     r0,-14344(r9)
 1801574:	31 20 ff fc 	addic   r9,r0,-4
 1801578:	3c 00 01 82 	lis     r0,386
 180157c:	7c 0b 03 78 	mr      r11,r0
 1801580:	91 2b c7 f8 	stw     r9,-14344(r11)
 1801584:	81 3f 05 50 	lwz     r9,1360(r31)
 1801588:	80 1f 05 4c 	lwz     r0,1356(r31)
 180158c:	7c 09 02 14 	add     r0,r9,r0
 1801590:	90 1f 05 48 	stw     r0,1352(r31)
 1801594:	3c 00 01 82 	lis     r0,386
 1801598:	7c 09 03 78 	mr      r9,r0
 180159c:	80 09 c7 fc 	lwz     r0,-14340(r9)
 18015a0:	3d 20 01 82 	lis     r9,386
 18015a4:	39 29 c8 20 	addi    r9,r9,-14304
 18015a8:	54 00 10 3a 	rlwinm  r0,r0,2,0,29
 18015ac:	7c 09 02 14 	add     r0,r9,r0
 18015b0:	81 3f 05 50 	lwz     r9,1360(r31)
 18015b4:	7c 0b 03 78 	mr      r11,r0
 18015b8:	91 2b 00 00 	stw     r9,0(r11)
 18015bc:	3c 00 01 82 	lis     r0,386
 18015c0:	7c 09 03 78 	mr      r9,r0
 18015c4:	80 09 c7 fc 	lwz     r0,-14340(r9)
 18015c8:	30 00 00 01 	addic   r0,r0,1
 18015cc:	3d 20 01 82 	lis     r9,386
 18015d0:	39 29 c8 20 	addi    r9,r9,-14304
 18015d4:	54 00 10 3a 	rlwinm  r0,r0,2,0,29
 18015d8:	7c 09 02 14 	add     r0,r9,r0
 18015dc:	81 3f 05 4c 	lwz     r9,1356(r31)
 18015e0:	7c 0b 03 78 	mr      r11,r0
 18015e4:	91 2b 00 00 	stw     r9,0(r11)
 18015e8:	3c 00 01 82 	lis     r0,386
 18015ec:	7c 09 03 78 	mr      r9,r0
 18015f0:	80 09 c7 fc 	lwz     r0,-14340(r9)
 18015f4:	30 00 00 02 	addic   r0,r0,2
 18015f8:	3d 20 01 82 	lis     r9,386
 18015fc:	39 29 c8 20 	addi    r9,r9,-14304
 1801600:	54 00 10 3a 	rlwinm  r0,r0,2,0,29
 1801604:	7c 09 02 14 	add     r0,r9,r0
 1801608:	81 3f 05 48 	lwz     r9,1352(r31)
 180160c:	7c 0b 03 78 	mr      r11,r0
 1801610:	91 2b 00 00 	stw     r9,0(r11)
 1801614:	3c 00 01 82 	lis     r0,386
 1801618:	7c 09 03 78 	mr      r9,r0
 180161c:	80 09 c7 fc 	lwz     r0,-14340(r9)
 1801620:	31 20 00 03 	addic   r9,r0,3
 1801624:	3c 00 01 82 	lis     r0,386
 1801628:	7c 0b 03 78 	mr      r11,r0
 180162c:	91 2b c7 fc 	stw     r9,-14340(r11)
 1801630:	3c 00 01 82 	lis     r0,386
 1801634:	7c 09 03 78 	mr      r9,r0
 1801638:	80 09 c7 f8 	lwz     r0,-14344(r9)
 180163c:	2f 80 00 03 	cmpwi   cr7,r0,3
 1801640:	40 9d 01 6c 	ble-    cr7,18017ac <main+0x158c>
 1801644:	3c 00 01 82 	lis     r0,386
 1801648:	7c 0b 03 78 	mr      r11,r0
 180164c:	80 0b c7 fc 	lwz     r0,-14340(r11)
 1801650:	30 00 00 03 	addic   r0,r0,3
 1801654:	2f 80 00 06 	cmpwi   cr7,r0,6
 1801658:	41 9d 01 54 	bgt-    cr7,18017ac <main+0x158c>
 180165c:	3c 00 01 82 	lis     r0,386
 1801660:	30 00 c8 44 	addic   r0,r0,-14268
 1801664:	7c 0b 03 78 	mr      r11,r0
 1801668:	81 2b 00 08 	lwz     r9,8(r11)
 180166c:	3c 00 01 82 	lis     r0,386
 1801670:	30 00 c8 44 	addic   r0,r0,-14268
 1801674:	7c 0b 03 78 	mr      r11,r0
 1801678:	80 0b 00 00 	lwz     r0,0(r11)
 180167c:	7f 89 00 00 	cmpw    cr7,r9,r0
 1801680:	40 9e 01 2c 	bne-    cr7,18017ac <main+0x158c>
 1801684:	3c 00 01 82 	lis     r0,386
 1801688:	30 00 c8 44 	addic   r0,r0,-14268
 180168c:	7c 0b 03 78 	mr      r11,r0
 1801690:	81 2b 00 08 	lwz     r9,8(r11)
 1801694:	3c 00 01 82 	lis     r0,386
 1801698:	30 00 c8 44 	addic   r0,r0,-14268
 180169c:	7c 0b 03 78 	mr      r11,r0
 18016a0:	80 0b 00 0c 	lwz     r0,12(r11)
 18016a4:	7f 89 00 00 	cmpw    cr7,r9,r0
 18016a8:	40 9e 01 04 	bne-    cr7,18017ac <main+0x158c>
 18016ac:	3c 00 01 82 	lis     r0,386
 18016b0:	30 00 c8 44 	addic   r0,r0,-14268
 18016b4:	7c 09 03 78 	mr      r9,r0
 18016b8:	80 09 00 04 	lwz     r0,4(r9)
 18016bc:	90 1f 05 44 	stw     r0,1348(r31)
 18016c0:	3c 00 01 82 	lis     r0,386
 18016c4:	30 00 c8 44 	addic   r0,r0,-14268
 18016c8:	7c 0b 03 78 	mr      r11,r0
 18016cc:	80 0b 00 08 	lwz     r0,8(r11)
 18016d0:	90 1f 05 40 	stw     r0,1344(r31)
 18016d4:	81 3f 05 40 	lwz     r9,1344(r31)
 18016d8:	80 1f 05 44 	lwz     r0,1348(r31)
 18016dc:	7f 89 00 00 	cmpw    cr7,r9,r0
 18016e0:	40 9d 00 cc 	ble-    cr7,18017ac <main+0x158c>
 18016e4:	3c 00 01 82 	lis     r0,386
 18016e8:	7c 09 03 78 	mr      r9,r0
 18016ec:	80 09 c7 f8 	lwz     r0,-14344(r9)
 18016f0:	31 20 ff fc 	addic   r9,r0,-4
 18016f4:	3c 00 01 82 	lis     r0,386
 18016f8:	7c 0b 03 78 	mr      r11,r0
 18016fc:	91 2b c7 f8 	stw     r9,-14344(r11)
 1801700:	81 3f 05 44 	lwz     r9,1348(r31)
 1801704:	80 1f 05 40 	lwz     r0,1344(r31)
 1801708:	7c 09 02 14 	add     r0,r9,r0
 180170c:	90 1f 05 3c 	stw     r0,1340(r31)
 1801710:	3c 00 01 82 	lis     r0,386
 1801714:	7c 09 03 78 	mr      r9,r0
 1801718:	80 09 c7 fc 	lwz     r0,-14340(r9)
 180171c:	3d 20 01 82 	lis     r9,386
 1801720:	39 29 c8 20 	addi    r9,r9,-14304
 1801724:	54 00 10 3a 	rlwinm  r0,r0,2,0,29
 1801728:	7c 09 02 14 	add     r0,r9,r0
 180172c:	81 3f 05 44 	lwz     r9,1348(r31)
 1801730:	7c 0b 03 78 	mr      r11,r0
 1801734:	91 2b 00 00 	stw     r9,0(r11)
 1801738:	3c 00 01 82 	lis     r0,386
 180173c:	7c 09 03 78 	mr      r9,r0
 1801740:	80 09 c7 fc 	lwz     r0,-14340(r9)
 1801744:	30 00 00 01 	addic   r0,r0,1
 1801748:	3d 20 01 82 	lis     r9,386
 180174c:	39 29 c8 20 	addi    r9,r9,-14304
 1801750:	54 00 10 3a 	rlwinm  r0,r0,2,0,29
 1801754:	7c 09 02 14 	add     r0,r9,r0
 1801758:	81 3f 05 40 	lwz     r9,1344(r31)
 180175c:	7c 0b 03 78 	mr      r11,r0
 1801760:	91 2b 00 00 	stw     r9,0(r11)
 1801764:	3c 00 01 82 	lis     r0,386
 1801768:	7c 09 03 78 	mr      r9,r0
 180176c:	80 09 c7 fc 	lwz     r0,-14340(r9)
 1801770:	30 00 00 02 	addic   r0,r0,2
 1801774:	3d 20 01 82 	lis     r9,386
 1801778:	39 29 c8 20 	addi    r9,r9,-14304
 180177c:	54 00 10 3a 	rlwinm  r0,r0,2,0,29
 1801780:	7c 09 02 14 	add     r0,r9,r0
 1801784:	81 3f 05 3c 	lwz     r9,1340(r31)
 1801788:	7c 0b 03 78 	mr      r11,r0
 180178c:	91 2b 00 00 	stw     r9,0(r11)
 1801790:	3c 00 01 82 	lis     r0,386
 1801794:	7c 09 03 78 	mr      r9,r0
 1801798:	80 09 c7 fc 	lwz     r0,-14340(r9)
 180179c:	31 20 00 03 	addic   r9,r0,3
 18017a0:	3c 00 01 82 	lis     r0,386
 18017a4:	7c 0b 03 78 	mr      r11,r0
 18017a8:	91 2b c7 fc 	stw     r9,-14340(r11)
 18017ac:	3c 00 01 82 	lis     r0,386
 18017b0:	7c 09 03 78 	mr      r9,r0
 18017b4:	80 09 c7 f8 	lwz     r0,-14344(r9)
 18017b8:	2f 80 00 03 	cmpwi   cr7,r0,3
 18017bc:	40 9d 01 6c 	ble-    cr7,1801928 <main+0x1708>
 18017c0:	3c 00 01 82 	lis     r0,386
 18017c4:	7c 0b 03 78 	mr      r11,r0
 18017c8:	80 0b c7 fc 	lwz     r0,-14340(r11)
 18017cc:	30 00 00 03 	addic   r0,r0,3
 18017d0:	2f 80 00 06 	cmpwi   cr7,r0,6
 18017d4:	41 9d 01 54 	bgt-    cr7,1801928 <main+0x1708>
 18017d8:	3c 00 01 82 	lis     r0,386
 18017dc:	30 00 c8 44 	addic   r0,r0,-14268
 18017e0:	7c 0b 03 78 	mr      r11,r0
 18017e4:	81 2b 00 08 	lwz     r9,8(r11)
 18017e8:	3c 00 01 82 	lis     r0,386
 18017ec:	30 00 c8 44 	addic   r0,r0,-14268
 18017f0:	7c 0b 03 78 	mr      r11,r0
 18017f4:	80 0b 00 0c 	lwz     r0,12(r11)
 18017f8:	7f 89 00 00 	cmpw    cr7,r9,r0
 18017fc:	40 9e 01 2c 	bne-    cr7,1801928 <main+0x1708>
 1801800:	3c 00 01 82 	lis     r0,386
 1801804:	30 00 c8 44 	addic   r0,r0,-14268
 1801808:	7c 0b 03 78 	mr      r11,r0
 180180c:	81 2b 00 08 	lwz     r9,8(r11)
 1801810:	3c 00 01 82 	lis     r0,386
 1801814:	30 00 c8 44 	addic   r0,r0,-14268
 1801818:	7c 0b 03 78 	mr      r11,r0
 180181c:	80 0b 00 00 	lwz     r0,0(r11)
 1801820:	7f 89 00 00 	cmpw    cr7,r9,r0
 1801824:	40 9e 01 04 	bne-    cr7,1801928 <main+0x1708>
 1801828:	3c 00 01 82 	lis     r0,386
 180182c:	30 00 c8 44 	addic   r0,r0,-14268
 1801830:	7c 09 03 78 	mr      r9,r0
 1801834:	80 09 00 04 	lwz     r0,4(r9)
 1801838:	90 1f 05 38 	stw     r0,1336(r31)
 180183c:	3c 00 01 82 	lis     r0,386
 1801840:	30 00 c8 44 	addic   r0,r0,-14268
 1801844:	7c 0b 03 78 	mr      r11,r0
 1801848:	80 0b 00 08 	lwz     r0,8(r11)
 180184c:	90 1f 05 34 	stw     r0,1332(r31)
 1801850:	81 3f 05 34 	lwz     r9,1332(r31)
 1801854:	80 1f 05 38 	lwz     r0,1336(r31)
 1801858:	7f 89 00 00 	cmpw    cr7,r9,r0
 180185c:	40 9d 00 cc 	ble-    cr7,1801928 <main+0x1708>
 1801860:	3c 00 01 82 	lis     r0,386
 1801864:	7c 09 03 78 	mr      r9,r0
 1801868:	80 09 c7 f8 	lwz     r0,-14344(r9)
 180186c:	31 20 ff fc 	addic   r9,r0,-4
 1801870:	3c 00 01 82 	lis     r0,386
 1801874:	7c 0b 03 78 	mr      r11,r0
 1801878:	91 2b c7 f8 	stw     r9,-14344(r11)
 180187c:	81 3f 05 38 	lwz     r9,1336(r31)
 1801880:	80 1f 05 34 	lwz     r0,1332(r31)
 1801884:	7c 09 02 14 	add     r0,r9,r0
 1801888:	90 1f 05 30 	stw     r0,1328(r31)
 180188c:	3c 00 01 82 	lis     r0,386
 1801890:	7c 09 03 78 	mr      r9,r0
 1801894:	80 09 c7 fc 	lwz     r0,-14340(r9)
 1801898:	3d 20 01 82 	lis     r9,386
 180189c:	39 29 c8 20 	addi    r9,r9,-14304
 18018a0:	54 00 10 3a 	rlwinm  r0,r0,2,0,29
 18018a4:	7c 09 02 14 	add     r0,r9,r0
 18018a8:	81 3f 05 38 	lwz     r9,1336(r31)
 18018ac:	7c 0b 03 78 	mr      r11,r0
 18018b0:	91 2b 00 00 	stw     r9,0(r11)
 18018b4:	3c 00 01 82 	lis     r0,386
 18018b8:	7c 09 03 78 	mr      r9,r0
 18018bc:	80 09 c7 fc 	lwz     r0,-14340(r9)
 18018c0:	30 00 00 01 	addic   r0,r0,1
 18018c4:	3d 20 01 82 	lis     r9,386
 18018c8:	39 29 c8 20 	addi    r9,r9,-14304
 18018cc:	54 00 10 3a 	rlwinm  r0,r0,2,0,29
 18018d0:	7c 09 02 14 	add     r0,r9,r0
 18018d4:	81 3f 05 34 	lwz     r9,1332(r31)
 18018d8:	7c 0b 03 78 	mr      r11,r0
 18018dc:	91 2b 00 00 	stw     r9,0(r11)
 18018e0:	3c 00 01 82 	lis     r0,386
 18018e4:	7c 09 03 78 	mr      r9,r0
 18018e8:	80 09 c7 fc 	lwz     r0,-14340(r9)
 18018ec:	30 00 00 02 	addic   r0,r0,2
 18018f0:	3d 20 01 82 	lis     r9,386
 18018f4:	39 29 c8 20 	addi    r9,r9,-14304
 18018f8:	54 00 10 3a 	rlwinm  r0,r0,2,0,29
 18018fc:	7c 09 02 14 	add     r0,r9,r0
 1801900:	81 3f 05 30 	lwz     r9,1328(r31)
 1801904:	7c 0b 03 78 	mr      r11,r0
 1801908:	91 2b 00 00 	stw     r9,0(r11)
 180190c:	3c 00 01 82 	lis     r0,386
 1801910:	7c 09 03 78 	mr      r9,r0
 1801914:	80 09 c7 fc 	lwz     r0,-14340(r9)
 1801918:	31 20 00 03 	addic   r9,r0,3
 180191c:	3c 00 01 82 	lis     r0,386
 1801920:	7c 0b 03 78 	mr      r11,r0
 1801924:	91 2b c7 fc 	stw     r9,-14340(r11)
 1801928:	3c 00 01 82 	lis     r0,386
 180192c:	7c 09 03 78 	mr      r9,r0
 1801930:	80 09 c7 f8 	lwz     r0,-14344(r9)
 1801934:	2f 80 00 03 	cmpwi   cr7,r0,3
 1801938:	40 9d 01 6c 	ble-    cr7,1801aa4 <main+0x1884>
 180193c:	3c 00 01 82 	lis     r0,386
 1801940:	7c 0b 03 78 	mr      r11,r0
 1801944:	80 0b c7 fc 	lwz     r0,-14340(r11)
 1801948:	30 00 00 03 	addic   r0,r0,3
 180194c:	2f 80 00 06 	cmpwi   cr7,r0,6
 1801950:	41 9d 01 54 	bgt-    cr7,1801aa4 <main+0x1884>
 1801954:	3c 00 01 82 	lis     r0,386
 1801958:	30 00 c8 44 	addic   r0,r0,-14268
 180195c:	7c 0b 03 78 	mr      r11,r0
 1801960:	81 2b 00 0c 	lwz     r9,12(r11)
 1801964:	3c 00 01 82 	lis     r0,386
 1801968:	30 00 c8 44 	addic   r0,r0,-14268
 180196c:	7c 0b 03 78 	mr      r11,r0
 1801970:	80 0b 00 00 	lwz     r0,0(r11)
 1801974:	7f 89 00 00 	cmpw    cr7,r9,r0
 1801978:	40 9e 01 2c 	bne-    cr7,1801aa4 <main+0x1884>
 180197c:	3c 00 01 82 	lis     r0,386
 1801980:	30 00 c8 44 	addic   r0,r0,-14268
 1801984:	7c 0b 03 78 	mr      r11,r0
 1801988:	81 2b 00 0c 	lwz     r9,12(r11)
 180198c:	3c 00 01 82 	lis     r0,386
 1801990:	30 00 c8 44 	addic   r0,r0,-14268
 1801994:	7c 0b 03 78 	mr      r11,r0
 1801998:	80 0b 00 08 	lwz     r0,8(r11)
 180199c:	7f 89 00 00 	cmpw    cr7,r9,r0
 18019a0:	40 9e 01 04 	bne-    cr7,1801aa4 <main+0x1884>
 18019a4:	3c 00 01 82 	lis     r0,386
 18019a8:	30 00 c8 44 	addic   r0,r0,-14268
 18019ac:	7c 09 03 78 	mr      r9,r0
 18019b0:	80 09 00 04 	lwz     r0,4(r9)
 18019b4:	90 1f 05 2c 	stw     r0,1324(r31)
 18019b8:	3c 00 01 82 	lis     r0,386
 18019bc:	30 00 c8 44 	addic   r0,r0,-14268
 18019c0:	7c 0b 03 78 	mr      r11,r0
 18019c4:	80 0b 00 0c 	lwz     r0,12(r11)
 18019c8:	90 1f 05 28 	stw     r0,1320(r31)
 18019cc:	81 3f 05 28 	lwz     r9,1320(r31)
 18019d0:	80 1f 05 2c 	lwz     r0,1324(r31)
 18019d4:	7f 89 00 00 	cmpw    cr7,r9,r0
 18019d8:	40 9d 00 cc 	ble-    cr7,1801aa4 <main+0x1884>
 18019dc:	3c 00 01 82 	lis     r0,386
 18019e0:	7c 09 03 78 	mr      r9,r0
 18019e4:	80 09 c7 f8 	lwz     r0,-14344(r9)
 18019e8:	31 20 ff fc 	addic   r9,r0,-4
 18019ec:	3c 00 01 82 	lis     r0,386
 18019f0:	7c 0b 03 78 	mr      r11,r0
 18019f4:	91 2b c7 f8 	stw     r9,-14344(r11)
 18019f8:	81 3f 05 2c 	lwz     r9,1324(r31)
 18019fc:	80 1f 05 28 	lwz     r0,1320(r31)
 1801a00:	7c 09 02 14 	add     r0,r9,r0
 1801a04:	90 1f 05 24 	stw     r0,1316(r31)
 1801a08:	3c 00 01 82 	lis     r0,386
 1801a0c:	7c 09 03 78 	mr      r9,r0
 1801a10:	80 09 c7 fc 	lwz     r0,-14340(r9)
 1801a14:	3d 20 01 82 	lis     r9,386
 1801a18:	39 29 c8 20 	addi    r9,r9,-14304
 1801a1c:	54 00 10 3a 	rlwinm  r0,r0,2,0,29
 1801a20:	7c 09 02 14 	add     r0,r9,r0
 1801a24:	81 3f 05 2c 	lwz     r9,1324(r31)
 1801a28:	7c 0b 03 78 	mr      r11,r0
 1801a2c:	91 2b 00 00 	stw     r9,0(r11)
 1801a30:	3c 00 01 82 	lis     r0,386
 1801a34:	7c 09 03 78 	mr      r9,r0
 1801a38:	80 09 c7 fc 	lwz     r0,-14340(r9)
 1801a3c:	30 00 00 01 	addic   r0,r0,1
 1801a40:	3d 20 01 82 	lis     r9,386
 1801a44:	39 29 c8 20 	addi    r9,r9,-14304
 1801a48:	54 00 10 3a 	rlwinm  r0,r0,2,0,29
 1801a4c:	7c 09 02 14 	add     r0,r9,r0
 1801a50:	81 3f 05 28 	lwz     r9,1320(r31)
 1801a54:	7c 0b 03 78 	mr      r11,r0
 1801a58:	91 2b 00 00 	stw     r9,0(r11)
 1801a5c:	3c 00 01 82 	lis     r0,386
 1801a60:	7c 09 03 78 	mr      r9,r0
 1801a64:	80 09 c7 fc 	lwz     r0,-14340(r9)
 1801a68:	30 00 00 02 	addic   r0,r0,2
 1801a6c:	3d 20 01 82 	lis     r9,386
 1801a70:	39 29 c8 20 	addi    r9,r9,-14304
 1801a74:	54 00 10 3a 	rlwinm  r0,r0,2,0,29
 1801a78:	7c 09 02 14 	add     r0,r9,r0
 1801a7c:	81 3f 05 24 	lwz     r9,1316(r31)
 1801a80:	7c 0b 03 78 	mr      r11,r0
 1801a84:	91 2b 00 00 	stw     r9,0(r11)
 1801a88:	3c 00 01 82 	lis     r0,386
 1801a8c:	7c 09 03 78 	mr      r9,r0
 1801a90:	80 09 c7 fc 	lwz     r0,-14340(r9)
 1801a94:	31 20 00 03 	addic   r9,r0,3
 1801a98:	3c 00 01 82 	lis     r0,386
 1801a9c:	7c 0b 03 78 	mr      r11,r0
 1801aa0:	91 2b c7 fc 	stw     r9,-14340(r11)
 1801aa4:	3c 00 01 82 	lis     r0,386
 1801aa8:	7c 09 03 78 	mr      r9,r0
 1801aac:	80 09 c7 f8 	lwz     r0,-14344(r9)
 1801ab0:	2f 80 00 03 	cmpwi   cr7,r0,3
 1801ab4:	40 9d 01 6c 	ble-    cr7,1801c20 <main+0x1a00>
 1801ab8:	3c 00 01 82 	lis     r0,386
 1801abc:	7c 0b 03 78 	mr      r11,r0
 1801ac0:	80 0b c7 fc 	lwz     r0,-14340(r11)
 1801ac4:	30 00 00 03 	addic   r0,r0,3
 1801ac8:	2f 80 00 06 	cmpwi   cr7,r0,6
 1801acc:	41 9d 01 54 	bgt-    cr7,1801c20 <main+0x1a00>
 1801ad0:	3c 00 01 82 	lis     r0,386
 1801ad4:	30 00 c8 44 	addic   r0,r0,-14268
 1801ad8:	7c 0b 03 78 	mr      r11,r0
 1801adc:	81 2b 00 0c 	lwz     r9,12(r11)
 1801ae0:	3c 00 01 82 	lis     r0,386
 1801ae4:	30 00 c8 44 	addic   r0,r0,-14268
 1801ae8:	7c 0b 03 78 	mr      r11,r0
 1801aec:	80 0b 00 08 	lwz     r0,8(r11)
 1801af0:	7f 89 00 00 	cmpw    cr7,r9,r0
 1801af4:	40 9e 01 2c 	bne-    cr7,1801c20 <main+0x1a00>
 1801af8:	3c 00 01 82 	lis     r0,386
 1801afc:	30 00 c8 44 	addic   r0,r0,-14268
 1801b00:	7c 0b 03 78 	mr      r11,r0
 1801b04:	81 2b 00 0c 	lwz     r9,12(r11)
 1801b08:	3c 00 01 82 	lis     r0,386
 1801b0c:	30 00 c8 44 	addic   r0,r0,-14268
 1801b10:	7c 0b 03 78 	mr      r11,r0
 1801b14:	80 0b 00 00 	lwz     r0,0(r11)
 1801b18:	7f 89 00 00 	cmpw    cr7,r9,r0
 1801b1c:	40 9e 01 04 	bne-    cr7,1801c20 <main+0x1a00>
 1801b20:	3c 00 01 82 	lis     r0,386
 1801b24:	30 00 c8 44 	addic   r0,r0,-14268
 1801b28:	7c 09 03 78 	mr      r9,r0
 1801b2c:	80 09 00 04 	lwz     r0,4(r9)
 1801b30:	90 1f 05 20 	stw     r0,1312(r31)
 1801b34:	3c 00 01 82 	lis     r0,386
 1801b38:	30 00 c8 44 	addic   r0,r0,-14268
 1801b3c:	7c 0b 03 78 	mr      r11,r0
 1801b40:	80 0b 00 0c 	lwz     r0,12(r11)
 1801b44:	90 1f 05 1c 	stw     r0,1308(r31)
 1801b48:	81 3f 05 1c 	lwz     r9,1308(r31)
 1801b4c:	80 1f 05 20 	lwz     r0,1312(r31)
 1801b50:	7f 89 00 00 	cmpw    cr7,r9,r0
 1801b54:	40 9d 00 cc 	ble-    cr7,1801c20 <main+0x1a00>
 1801b58:	3c 00 01 82 	lis     r0,386
 1801b5c:	7c 09 03 78 	mr      r9,r0
 1801b60:	80 09 c7 f8 	lwz     r0,-14344(r9)
 1801b64:	31 20 ff fc 	addic   r9,r0,-4
 1801b68:	3c 00 01 82 	lis     r0,386
 1801b6c:	7c 0b 03 78 	mr      r11,r0
 1801b70:	91 2b c7 f8 	stw     r9,-14344(r11)
 1801b74:	81 3f 05 20 	lwz     r9,1312(r31)
 1801b78:	80 1f 05 1c 	lwz     r0,1308(r31)
 1801b7c:	7c 09 02 14 	add     r0,r9,r0
 1801b80:	90 1f 05 18 	stw     r0,1304(r31)
 1801b84:	3c 00 01 82 	lis     r0,386
 1801b88:	7c 09 03 78 	mr      r9,r0
 1801b8c:	80 09 c7 fc 	lwz     r0,-14340(r9)
 1801b90:	3d 20 01 82 	lis     r9,386
 1801b94:	39 29 c8 20 	addi    r9,r9,-14304
 1801b98:	54 00 10 3a 	rlwinm  r0,r0,2,0,29
 1801b9c:	7c 09 02 14 	add     r0,r9,r0
 1801ba0:	81 3f 05 20 	lwz     r9,1312(r31)
 1801ba4:	7c 0b 03 78 	mr      r11,r0
 1801ba8:	91 2b 00 00 	stw     r9,0(r11)
 1801bac:	3c 00 01 82 	lis     r0,386
 1801bb0:	7c 09 03 78 	mr      r9,r0
 1801bb4:	80 09 c7 fc 	lwz     r0,-14340(r9)
 1801bb8:	30 00 00 01 	addic   r0,r0,1
 1801bbc:	3d 20 01 82 	lis     r9,386
 1801bc0:	39 29 c8 20 	addi    r9,r9,-14304
 1801bc4:	54 00 10 3a 	rlwinm  r0,r0,2,0,29
 1801bc8:	7c 09 02 14 	add     r0,r9,r0
 1801bcc:	81 3f 05 1c 	lwz     r9,1308(r31)
 1801bd0:	7c 0b 03 78 	mr      r11,r0
 1801bd4:	91 2b 00 00 	stw     r9,0(r11)
 1801bd8:	3c 00 01 82 	lis     r0,386
 1801bdc:	7c 09 03 78 	mr      r9,r0
 1801be0:	80 09 c7 fc 	lwz     r0,-14340(r9)
 1801be4:	30 00 00 02 	addic   r0,r0,2
 1801be8:	3d 20 01 82 	lis     r9,386
 1801bec:	39 29 c8 20 	addi    r9,r9,-14304
 1801bf0:	54 00 10 3a 	rlwinm  r0,r0,2,0,29
 1801bf4:	7c 09 02 14 	add     r0,r9,r0
 1801bf8:	81 3f 05 18 	lwz     r9,1304(r31)
 1801bfc:	7c 0b 03 78 	mr      r11,r0
 1801c00:	91 2b 00 00 	stw     r9,0(r11)
 1801c04:	3c 00 01 82 	lis     r0,386
 1801c08:	7c 09 03 78 	mr      r9,r0
 1801c0c:	80 09 c7 fc 	lwz     r0,-14340(r9)
 1801c10:	31 20 00 03 	addic   r9,r0,3
 1801c14:	3c 00 01 82 	lis     r0,386
 1801c18:	7c 0b 03 78 	mr      r11,r0
 1801c1c:	91 2b c7 fc 	stw     r9,-14340(r11)
 1801c20:	3c 00 01 82 	lis     r0,386
 1801c24:	7c 09 03 78 	mr      r9,r0
 1801c28:	80 09 c7 f8 	lwz     r0,-14344(r9)
 1801c2c:	2f 80 00 03 	cmpwi   cr7,r0,3
 1801c30:	40 9d 01 6c 	ble-    cr7,1801d9c <main+0x1b7c>
 1801c34:	3c 00 01 82 	lis     r0,386
 1801c38:	7c 0b 03 78 	mr      r11,r0
 1801c3c:	80 0b c7 fc 	lwz     r0,-14340(r11)
 1801c40:	30 00 00 03 	addic   r0,r0,3
 1801c44:	2f 80 00 06 	cmpwi   cr7,r0,6
 1801c48:	41 9d 01 54 	bgt-    cr7,1801d9c <main+0x1b7c>
 1801c4c:	3c 00 01 82 	lis     r0,386
 1801c50:	30 00 c8 44 	addic   r0,r0,-14268
 1801c54:	7c 0b 03 78 	mr      r11,r0
 1801c58:	81 2b 00 00 	lwz     r9,0(r11)
 1801c5c:	3c 00 01 82 	lis     r0,386
 1801c60:	30 00 c8 44 	addic   r0,r0,-14268
 1801c64:	7c 0b 03 78 	mr      r11,r0
 1801c68:	80 0b 00 04 	lwz     r0,4(r11)
 1801c6c:	7f 89 00 00 	cmpw    cr7,r9,r0
 1801c70:	40 9e 01 2c 	bne-    cr7,1801d9c <main+0x1b7c>
 1801c74:	3c 00 01 82 	lis     r0,386
 1801c78:	30 00 c8 44 	addic   r0,r0,-14268
 1801c7c:	7c 0b 03 78 	mr      r11,r0
 1801c80:	81 2b 00 00 	lwz     r9,0(r11)
 1801c84:	3c 00 01 82 	lis     r0,386
 1801c88:	30 00 c8 44 	addic   r0,r0,-14268
 1801c8c:	7c 0b 03 78 	mr      r11,r0
 1801c90:	80 0b 00 0c 	lwz     r0,12(r11)
 1801c94:	7f 89 00 00 	cmpw    cr7,r9,r0
 1801c98:	40 9e 01 04 	bne-    cr7,1801d9c <main+0x1b7c>
 1801c9c:	3c 00 01 82 	lis     r0,386
 1801ca0:	30 00 c8 44 	addic   r0,r0,-14268
 1801ca4:	7c 09 03 78 	mr      r9,r0
 1801ca8:	80 09 00 08 	lwz     r0,8(r9)
 1801cac:	90 1f 05 14 	stw     r0,1300(r31)
 1801cb0:	3c 00 01 82 	lis     r0,386
 1801cb4:	30 00 c8 44 	addic   r0,r0,-14268
 1801cb8:	7c 0b 03 78 	mr      r11,r0
 1801cbc:	80 0b 00 00 	lwz     r0,0(r11)
 1801cc0:	90 1f 05 10 	stw     r0,1296(r31)
 1801cc4:	81 3f 05 10 	lwz     r9,1296(r31)
 1801cc8:	80 1f 05 14 	lwz     r0,1300(r31)
 1801ccc:	7f 89 00 00 	cmpw    cr7,r9,r0
 1801cd0:	40 9d 00 cc 	ble-    cr7,1801d9c <main+0x1b7c>
 1801cd4:	3c 00 01 82 	lis     r0,386
 1801cd8:	7c 09 03 78 	mr      r9,r0
 1801cdc:	80 09 c7 f8 	lwz     r0,-14344(r9)
 1801ce0:	31 20 ff fc 	addic   r9,r0,-4
 1801ce4:	3c 00 01 82 	lis     r0,386
 1801ce8:	7c 0b 03 78 	mr      r11,r0
 1801cec:	91 2b c7 f8 	stw     r9,-14344(r11)
 1801cf0:	81 3f 05 14 	lwz     r9,1300(r31)
 1801cf4:	80 1f 05 10 	lwz     r0,1296(r31)
 1801cf8:	7c 09 02 14 	add     r0,r9,r0
 1801cfc:	90 1f 05 0c 	stw     r0,1292(r31)
 1801d00:	3c 00 01 82 	lis     r0,386
 1801d04:	7c 09 03 78 	mr      r9,r0
 1801d08:	80 09 c7 fc 	lwz     r0,-14340(r9)
 1801d0c:	3d 20 01 82 	lis     r9,386
 1801d10:	39 29 c8 20 	addi    r9,r9,-14304
 1801d14:	54 00 10 3a 	rlwinm  r0,r0,2,0,29
 1801d18:	7c 09 02 14 	add     r0,r9,r0
 1801d1c:	81 3f 05 14 	lwz     r9,1300(r31)
 1801d20:	7c 0b 03 78 	mr      r11,r0
 1801d24:	91 2b 00 00 	stw     r9,0(r11)
 1801d28:	3c 00 01 82 	lis     r0,386
 1801d2c:	7c 09 03 78 	mr      r9,r0
 1801d30:	80 09 c7 fc 	lwz     r0,-14340(r9)
 1801d34:	30 00 00 01 	addic   r0,r0,1
 1801d38:	3d 20 01 82 	lis     r9,386
 1801d3c:	39 29 c8 20 	addi    r9,r9,-14304
 1801d40:	54 00 10 3a 	rlwinm  r0,r0,2,0,29
 1801d44:	7c 09 02 14 	add     r0,r9,r0
 1801d48:	81 3f 05 10 	lwz     r9,1296(r31)
 1801d4c:	7c 0b 03 78 	mr      r11,r0
 1801d50:	91 2b 00 00 	stw     r9,0(r11)
 1801d54:	3c 00 01 82 	lis     r0,386
 1801d58:	7c 09 03 78 	mr      r9,r0
 1801d5c:	80 09 c7 fc 	lwz     r0,-14340(r9)
 1801d60:	30 00 00 02 	addic   r0,r0,2
 1801d64:	3d 20 01 82 	lis     r9,386
 1801d68:	39 29 c8 20 	addi    r9,r9,-14304
 1801d6c:	54 00 10 3a 	rlwinm  r0,r0,2,0,29
 1801d70:	7c 09 02 14 	add     r0,r9,r0
 1801d74:	81 3f 05 0c 	lwz     r9,1292(r31)
 1801d78:	7c 0b 03 78 	mr      r11,r0
 1801d7c:	91 2b 00 00 	stw     r9,0(r11)
 1801d80:	3c 00 01 82 	lis     r0,386
 1801d84:	7c 09 03 78 	mr      r9,r0
 1801d88:	80 09 c7 fc 	lwz     r0,-14340(r9)
 1801d8c:	31 20 00 03 	addic   r9,r0,3
 1801d90:	3c 00 01 82 	lis     r0,386
 1801d94:	7c 0b 03 78 	mr      r11,r0
 1801d98:	91 2b c7 fc 	stw     r9,-14340(r11)
 1801d9c:	3c 00 01 82 	lis     r0,386
 1801da0:	7c 09 03 78 	mr      r9,r0
 1801da4:	80 09 c7 f8 	lwz     r0,-14344(r9)
 1801da8:	2f 80 00 03 	cmpwi   cr7,r0,3
 1801dac:	40 9d 01 6c 	ble-    cr7,1801f18 <main+0x1cf8>
 1801db0:	3c 00 01 82 	lis     r0,386
 1801db4:	7c 0b 03 78 	mr      r11,r0
 1801db8:	80 0b c7 fc 	lwz     r0,-14340(r11)
 1801dbc:	30 00 00 03 	addic   r0,r0,3
 1801dc0:	2f 80 00 06 	cmpwi   cr7,r0,6
 1801dc4:	41 9d 01 54 	bgt-    cr7,1801f18 <main+0x1cf8>
 1801dc8:	3c 00 01 82 	lis     r0,386
 1801dcc:	30 00 c8 44 	addic   r0,r0,-14268
 1801dd0:	7c 0b 03 78 	mr      r11,r0
 1801dd4:	81 2b 00 00 	lwz     r9,0(r11)
 1801dd8:	3c 00 01 82 	lis     r0,386
 1801ddc:	30 00 c8 44 	addic   r0,r0,-14268
 1801de0:	7c 0b 03 78 	mr      r11,r0
 1801de4:	80 0b 00 0c 	lwz     r0,12(r11)
 1801de8:	7f 89 00 00 	cmpw    cr7,r9,r0
 1801dec:	40 9e 01 2c 	bne-    cr7,1801f18 <main+0x1cf8>
 1801df0:	3c 00 01 82 	lis     r0,386
 1801df4:	30 00 c8 44 	addic   r0,r0,-14268
 1801df8:	7c 0b 03 78 	mr      r11,r0
 1801dfc:	81 2b 00 00 	lwz     r9,0(r11)
 1801e00:	3c 00 01 82 	lis     r0,386
 1801e04:	30 00 c8 44 	addic   r0,r0,-14268
 1801e08:	7c 0b 03 78 	mr      r11,r0
 1801e0c:	80 0b 00 04 	lwz     r0,4(r11)
 1801e10:	7f 89 00 00 	cmpw    cr7,r9,r0
 1801e14:	40 9e 01 04 	bne-    cr7,1801f18 <main+0x1cf8>
 1801e18:	3c 00 01 82 	lis     r0,386
 1801e1c:	30 00 c8 44 	addic   r0,r0,-14268
 1801e20:	7c 09 03 78 	mr      r9,r0
 1801e24:	80 09 00 08 	lwz     r0,8(r9)
 1801e28:	90 1f 05 08 	stw     r0,1288(r31)
 1801e2c:	3c 00 01 82 	lis     r0,386
 1801e30:	30 00 c8 44 	addic   r0,r0,-14268
 1801e34:	7c 0b 03 78 	mr      r11,r0
 1801e38:	80 0b 00 00 	lwz     r0,0(r11)
 1801e3c:	90 1f 05 04 	stw     r0,1284(r31)
 1801e40:	81 3f 05 04 	lwz     r9,1284(r31)
 1801e44:	80 1f 05 08 	lwz     r0,1288(r31)
 1801e48:	7f 89 00 00 	cmpw    cr7,r9,r0
 1801e4c:	40 9d 00 cc 	ble-    cr7,1801f18 <main+0x1cf8>
 1801e50:	3c 00 01 82 	lis     r0,386
 1801e54:	7c 09 03 78 	mr      r9,r0
 1801e58:	80 09 c7 f8 	lwz     r0,-14344(r9)
 1801e5c:	31 20 ff fc 	addic   r9,r0,-4
 1801e60:	3c 00 01 82 	lis     r0,386
 1801e64:	7c 0b 03 78 	mr      r11,r0
 1801e68:	91 2b c7 f8 	stw     r9,-14344(r11)
 1801e6c:	81 3f 05 08 	lwz     r9,1288(r31)
 1801e70:	80 1f 05 04 	lwz     r0,1284(r31)
 1801e74:	7c 09 02 14 	add     r0,r9,r0
 1801e78:	90 1f 05 00 	stw     r0,1280(r31)
 1801e7c:	3c 00 01 82 	lis     r0,386
 1801e80:	7c 09 03 78 	mr      r9,r0
 1801e84:	80 09 c7 fc 	lwz     r0,-14340(r9)
 1801e88:	3d 20 01 82 	lis     r9,386
 1801e8c:	39 29 c8 20 	addi    r9,r9,-14304
 1801e90:	54 00 10 3a 	rlwinm  r0,r0,2,0,29
 1801e94:	7c 09 02 14 	add     r0,r9,r0
 1801e98:	81 3f 05 08 	lwz     r9,1288(r31)
 1801e9c:	7c 0b 03 78 	mr      r11,r0
 1801ea0:	91 2b 00 00 	stw     r9,0(r11)
 1801ea4:	3c 00 01 82 	lis     r0,386
 1801ea8:	7c 09 03 78 	mr      r9,r0
 1801eac:	80 09 c7 fc 	lwz     r0,-14340(r9)
 1801eb0:	30 00 00 01 	addic   r0,r0,1
 1801eb4:	3d 20 01 82 	lis     r9,386
 1801eb8:	39 29 c8 20 	addi    r9,r9,-14304
 1801ebc:	54 00 10 3a 	rlwinm  r0,r0,2,0,29
 1801ec0:	7c 09 02 14 	add     r0,r9,r0
 1801ec4:	81 3f 05 04 	lwz     r9,1284(r31)
 1801ec8:	7c 0b 03 78 	mr      r11,r0
 1801ecc:	91 2b 00 00 	stw     r9,0(r11)
 1801ed0:	3c 00 01 82 	lis     r0,386
 1801ed4:	7c 09 03 78 	mr      r9,r0
 1801ed8:	80 09 c7 fc 	lwz     r0,-14340(r9)
 1801edc:	30 00 00 02 	addic   r0,r0,2
 1801ee0:	3d 20 01 82 	lis     r9,386
 1801ee4:	39 29 c8 20 	addi    r9,r9,-14304
 1801ee8:	54 00 10 3a 	rlwinm  r0,r0,2,0,29
 1801eec:	7c 09 02 14 	add     r0,r9,r0
 1801ef0:	81 3f 05 00 	lwz     r9,1280(r31)
 1801ef4:	7c 0b 03 78 	mr      r11,r0
 1801ef8:	91 2b 00 00 	stw     r9,0(r11)
 1801efc:	3c 00 01 82 	lis     r0,386
 1801f00:	7c 09 03 78 	mr      r9,r0
 1801f04:	80 09 c7 fc 	lwz     r0,-14340(r9)
 1801f08:	31 20 00 03 	addic   r9,r0,3
 1801f0c:	3c 00 01 82 	lis     r0,386
 1801f10:	7c 0b 03 78 	mr      r11,r0
 1801f14:	91 2b c7 fc 	stw     r9,-14340(r11)
 1801f18:	3c 00 01 82 	lis     r0,386
 1801f1c:	7c 09 03 78 	mr      r9,r0
 1801f20:	80 09 c7 f8 	lwz     r0,-14344(r9)
 1801f24:	2f 80 00 03 	cmpwi   cr7,r0,3
 1801f28:	40 9d 01 6c 	ble-    cr7,1802094 <main+0x1e74>
 1801f2c:	3c 00 01 82 	lis     r0,386
 1801f30:	7c 0b 03 78 	mr      r11,r0
 1801f34:	80 0b c7 fc 	lwz     r0,-14340(r11)
 1801f38:	30 00 00 03 	addic   r0,r0,3
 1801f3c:	2f 80 00 06 	cmpwi   cr7,r0,6
 1801f40:	41 9d 01 54 	bgt-    cr7,1802094 <main+0x1e74>
 1801f44:	3c 00 01 82 	lis     r0,386
 1801f48:	30 00 c8 44 	addic   r0,r0,-14268
 1801f4c:	7c 0b 03 78 	mr      r11,r0
 1801f50:	81 2b 00 04 	lwz     r9,4(r11)
 1801f54:	3c 00 01 82 	lis     r0,386
 1801f58:	30 00 c8 44 	addic   r0,r0,-14268
 1801f5c:	7c 0b 03 78 	mr      r11,r0
 1801f60:	80 0b 00 00 	lwz     r0,0(r11)
 1801f64:	7f 89 00 00 	cmpw    cr7,r9,r0
 1801f68:	40 9e 01 2c 	bne-    cr7,1802094 <main+0x1e74>
 1801f6c:	3c 00 01 82 	lis     r0,386
 1801f70:	30 00 c8 44 	addic   r0,r0,-14268
 1801f74:	7c 0b 03 78 	mr      r11,r0
 1801f78:	81 2b 00 04 	lwz     r9,4(r11)
 1801f7c:	3c 00 01 82 	lis     r0,386
 1801f80:	30 00 c8 44 	addic   r0,r0,-14268
 1801f84:	7c 0b 03 78 	mr      r11,r0
 1801f88:	80 0b 00 0c 	lwz     r0,12(r11)
 1801f8c:	7f 89 00 00 	cmpw    cr7,r9,r0
 1801f90:	40 9e 01 04 	bne-    cr7,1802094 <main+0x1e74>
 1801f94:	3c 00 01 82 	lis     r0,386
 1801f98:	30 00 c8 44 	addic   r0,r0,-14268
 1801f9c:	7c 09 03 78 	mr      r9,r0
 1801fa0:	80 09 00 08 	lwz     r0,8(r9)
 1801fa4:	90 1f 04 fc 	stw     r0,1276(r31)
 1801fa8:	3c 00 01 82 	lis     r0,386
 1801fac:	30 00 c8 44 	addic   r0,r0,-14268
 1801fb0:	7c 0b 03 78 	mr      r11,r0
 1801fb4:	80 0b 00 04 	lwz     r0,4(r11)
 1801fb8:	90 1f 04 f8 	stw     r0,1272(r31)
 1801fbc:	81 3f 04 f8 	lwz     r9,1272(r31)
 1801fc0:	80 1f 04 fc 	lwz     r0,1276(r31)
 1801fc4:	7f 89 00 00 	cmpw    cr7,r9,r0
 1801fc8:	40 9d 00 cc 	ble-    cr7,1802094 <main+0x1e74>
 1801fcc:	3c 00 01 82 	lis     r0,386
 1801fd0:	7c 09 03 78 	mr      r9,r0
 1801fd4:	80 09 c7 f8 	lwz     r0,-14344(r9)
 1801fd8:	31 20 ff fc 	addic   r9,r0,-4
 1801fdc:	3c 00 01 82 	lis     r0,386
 1801fe0:	7c 0b 03 78 	mr      r11,r0
 1801fe4:	91 2b c7 f8 	stw     r9,-14344(r11)
 1801fe8:	81 3f 04 fc 	lwz     r9,1276(r31)
 1801fec:	80 1f 04 f8 	lwz     r0,1272(r31)
 1801ff0:	7c 09 02 14 	add     r0,r9,r0
 1801ff4:	90 1f 04 f4 	stw     r0,1268(r31)
 1801ff8:	3c 00 01 82 	lis     r0,386
 1801ffc:	7c 09 03 78 	mr      r9,r0
 1802000:	80 09 c7 fc 	lwz     r0,-14340(r9)
 1802004:	3d 20 01 82 	lis     r9,386
 1802008:	39 29 c8 20 	addi    r9,r9,-14304
 180200c:	54 00 10 3a 	rlwinm  r0,r0,2,0,29
 1802010:	7c 09 02 14 	add     r0,r9,r0
 1802014:	81 3f 04 fc 	lwz     r9,1276(r31)
 1802018:	7c 0b 03 78 	mr      r11,r0
 180201c:	91 2b 00 00 	stw     r9,0(r11)
 1802020:	3c 00 01 82 	lis     r0,386
 1802024:	7c 09 03 78 	mr      r9,r0
 1802028:	80 09 c7 fc 	lwz     r0,-14340(r9)
 180202c:	30 00 00 01 	addic   r0,r0,1
 1802030:	3d 20 01 82 	lis     r9,386
 1802034:	39 29 c8 20 	addi    r9,r9,-14304
 1802038:	54 00 10 3a 	rlwinm  r0,r0,2,0,29
 180203c:	7c 09 02 14 	add     r0,r9,r0
 1802040:	81 3f 04 f8 	lwz     r9,1272(r31)
 1802044:	7c 0b 03 78 	mr      r11,r0
 1802048:	91 2b 00 00 	stw     r9,0(r11)
 180204c:	3c 00 01 82 	lis     r0,386
 1802050:	7c 09 03 78 	mr      r9,r0
 1802054:	80 09 c7 fc 	lwz     r0,-14340(r9)
 1802058:	30 00 00 02 	addic   r0,r0,2
 180205c:	3d 20 01 82 	lis     r9,386
 1802060:	39 29 c8 20 	addi    r9,r9,-14304
 1802064:	54 00 10 3a 	rlwinm  r0,r0,2,0,29
 1802068:	7c 09 02 14 	add     r0,r9,r0
 180206c:	81 3f 04 f4 	lwz     r9,1268(r31)
 1802070:	7c 0b 03 78 	mr      r11,r0
 1802074:	91 2b 00 00 	stw     r9,0(r11)
 1802078:	3c 00 01 82 	lis     r0,386
 180207c:	7c 09 03 78 	mr      r9,r0
 1802080:	80 09 c7 fc 	lwz     r0,-14340(r9)
 1802084:	31 20 00 03 	addic   r9,r0,3
 1802088:	3c 00 01 82 	lis     r0,386
 180208c:	7c 0b 03 78 	mr      r11,r0
 1802090:	91 2b c7 fc 	stw     r9,-14340(r11)
 1802094:	3c 00 01 82 	lis     r0,386
 1802098:	7c 09 03 78 	mr      r9,r0
 180209c:	80 09 c7 f8 	lwz     r0,-14344(r9)
 18020a0:	2f 80 00 03 	cmpwi   cr7,r0,3
 18020a4:	40 9d 01 6c 	ble-    cr7,1802210 <main+0x1ff0>
 18020a8:	3c 00 01 82 	lis     r0,386
 18020ac:	7c 0b 03 78 	mr      r11,r0
 18020b0:	80 0b c7 fc 	lwz     r0,-14340(r11)
 18020b4:	30 00 00 03 	addic   r0,r0,3
 18020b8:	2f 80 00 06 	cmpwi   cr7,r0,6
 18020bc:	41 9d 01 54 	bgt-    cr7,1802210 <main+0x1ff0>
 18020c0:	3c 00 01 82 	lis     r0,386
 18020c4:	30 00 c8 44 	addic   r0,r0,-14268
 18020c8:	7c 0b 03 78 	mr      r11,r0
 18020cc:	81 2b 00 04 	lwz     r9,4(r11)
 18020d0:	3c 00 01 82 	lis     r0,386
 18020d4:	30 00 c8 44 	addic   r0,r0,-14268
 18020d8:	7c 0b 03 78 	mr      r11,r0
 18020dc:	80 0b 00 0c 	lwz     r0,12(r11)
 18020e0:	7f 89 00 00 	cmpw    cr7,r9,r0
 18020e4:	40 9e 01 2c 	bne-    cr7,1802210 <main+0x1ff0>
 18020e8:	3c 00 01 82 	lis     r0,386
 18020ec:	30 00 c8 44 	addic   r0,r0,-14268
 18020f0:	7c 0b 03 78 	mr      r11,r0
 18020f4:	81 2b 00 04 	lwz     r9,4(r11)
 18020f8:	3c 00 01 82 	lis     r0,386
 18020fc:	30 00 c8 44 	addic   r0,r0,-14268
 1802100:	7c 0b 03 78 	mr      r11,r0
 1802104:	80 0b 00 00 	lwz     r0,0(r11)
 1802108:	7f 89 00 00 	cmpw    cr7,r9,r0
 180210c:	40 9e 01 04 	bne-    cr7,1802210 <main+0x1ff0>
 1802110:	3c 00 01 82 	lis     r0,386
 1802114:	30 00 c8 44 	addic   r0,r0,-14268
 1802118:	7c 09 03 78 	mr      r9,r0
 180211c:	80 09 00 08 	lwz     r0,8(r9)
 1802120:	90 1f 04 f0 	stw     r0,1264(r31)
 1802124:	3c 00 01 82 	lis     r0,386
 1802128:	30 00 c8 44 	addic   r0,r0,-14268
 180212c:	7c 0b 03 78 	mr      r11,r0
 1802130:	80 0b 00 04 	lwz     r0,4(r11)
 1802134:	90 1f 04 ec 	stw     r0,1260(r31)
 1802138:	81 3f 04 ec 	lwz     r9,1260(r31)
 180213c:	80 1f 04 f0 	lwz     r0,1264(r31)
 1802140:	7f 89 00 00 	cmpw    cr7,r9,r0
 1802144:	40 9d 00 cc 	ble-    cr7,1802210 <main+0x1ff0>
 1802148:	3c 00 01 82 	lis     r0,386
 180214c:	7c 09 03 78 	mr      r9,r0
 1802150:	80 09 c7 f8 	lwz     r0,-14344(r9)
 1802154:	31 20 ff fc 	addic   r9,r0,-4
 1802158:	3c 00 01 82 	lis     r0,386
 180215c:	7c 0b 03 78 	mr      r11,r0
 1802160:	91 2b c7 f8 	stw     r9,-14344(r11)
 1802164:	81 3f 04 f0 	lwz     r9,1264(r31)
 1802168:	80 1f 04 ec 	lwz     r0,1260(r31)
 180216c:	7c 09 02 14 	add     r0,r9,r0
 1802170:	90 1f 04 e8 	stw     r0,1256(r31)
 1802174:	3c 00 01 82 	lis     r0,386
 1802178:	7c 09 03 78 	mr      r9,r0
 180217c:	80 09 c7 fc 	lwz     r0,-14340(r9)
 1802180:	3d 20 01 82 	lis     r9,386
 1802184:	39 29 c8 20 	addi    r9,r9,-14304
 1802188:	54 00 10 3a 	rlwinm  r0,r0,2,0,29
 180218c:	7c 09 02 14 	add     r0,r9,r0
 1802190:	81 3f 04 f0 	lwz     r9,1264(r31)
 1802194:	7c 0b 03 78 	mr      r11,r0
 1802198:	91 2b 00 00 	stw     r9,0(r11)
 180219c:	3c 00 01 82 	lis     r0,386
 18021a0:	7c 09 03 78 	mr      r9,r0
 18021a4:	80 09 c7 fc 	lwz     r0,-14340(r9)
 18021a8:	30 00 00 01 	addic   r0,r0,1
 18021ac:	3d 20 01 82 	lis     r9,386
 18021b0:	39 29 c8 20 	addi    r9,r9,-14304
 18021b4:	54 00 10 3a 	rlwinm  r0,r0,2,0,29
 18021b8:	7c 09 02 14 	add     r0,r9,r0
 18021bc:	81 3f 04 ec 	lwz     r9,1260(r31)
 18021c0:	7c 0b 03 78 	mr      r11,r0
 18021c4:	91 2b 00 00 	stw     r9,0(r11)
 18021c8:	3c 00 01 82 	lis     r0,386
 18021cc:	7c 09 03 78 	mr      r9,r0
 18021d0:	80 09 c7 fc 	lwz     r0,-14340(r9)
 18021d4:	30 00 00 02 	addic   r0,r0,2
 18021d8:	3d 20 01 82 	lis     r9,386
 18021dc:	39 29 c8 20 	addi    r9,r9,-14304
 18021e0:	54 00 10 3a 	rlwinm  r0,r0,2,0,29
 18021e4:	7c 09 02 14 	add     r0,r9,r0
 18021e8:	81 3f 04 e8 	lwz     r9,1256(r31)
 18021ec:	7c 0b 03 78 	mr      r11,r0
 18021f0:	91 2b 00 00 	stw     r9,0(r11)
 18021f4:	3c 00 01 82 	lis     r0,386
 18021f8:	7c 09 03 78 	mr      r9,r0
 18021fc:	80 09 c7 fc 	lwz     r0,-14340(r9)
 1802200:	31 20 00 03 	addic   r9,r0,3
 1802204:	3c 00 01 82 	lis     r0,386
 1802208:	7c 0b 03 78 	mr      r11,r0
 180220c:	91 2b c7 fc 	stw     r9,-14340(r11)
 1802210:	3c 00 01 82 	lis     r0,386
 1802214:	7c 09 03 78 	mr      r9,r0
 1802218:	80 09 c7 f8 	lwz     r0,-14344(r9)
 180221c:	2f 80 00 03 	cmpwi   cr7,r0,3
 1802220:	40 9d 01 6c 	ble-    cr7,180238c <main+0x216c>
 1802224:	3c 00 01 82 	lis     r0,386
 1802228:	7c 0b 03 78 	mr      r11,r0
 180222c:	80 0b c7 fc 	lwz     r0,-14340(r11)
 1802230:	30 00 00 03 	addic   r0,r0,3
 1802234:	2f 80 00 06 	cmpwi   cr7,r0,6
 1802238:	41 9d 01 54 	bgt-    cr7,180238c <main+0x216c>
 180223c:	3c 00 01 82 	lis     r0,386
 1802240:	30 00 c8 44 	addic   r0,r0,-14268
 1802244:	7c 0b 03 78 	mr      r11,r0
 1802248:	81 2b 00 0c 	lwz     r9,12(r11)
 180224c:	3c 00 01 82 	lis     r0,386
 1802250:	30 00 c8 44 	addic   r0,r0,-14268
 1802254:	7c 0b 03 78 	mr      r11,r0
 1802258:	80 0b 00 00 	lwz     r0,0(r11)
 180225c:	7f 89 00 00 	cmpw    cr7,r9,r0
 1802260:	40 9e 01 2c 	bne-    cr7,180238c <main+0x216c>
 1802264:	3c 00 01 82 	lis     r0,386
 1802268:	30 00 c8 44 	addic   r0,r0,-14268
 180226c:	7c 0b 03 78 	mr      r11,r0
 1802270:	81 2b 00 0c 	lwz     r9,12(r11)
 1802274:	3c 00 01 82 	lis     r0,386
 1802278:	30 00 c8 44 	addic   r0,r0,-14268
 180227c:	7c 0b 03 78 	mr      r11,r0
 1802280:	80 0b 00 04 	lwz     r0,4(r11)
 1802284:	7f 89 00 00 	cmpw    cr7,r9,r0
 1802288:	40 9e 01 04 	bne-    cr7,180238c <main+0x216c>
 180228c:	3c 00 01 82 	lis     r0,386
 1802290:	30 00 c8 44 	addic   r0,r0,-14268
 1802294:	7c 09 03 78 	mr      r9,r0
 1802298:	80 09 00 08 	lwz     r0,8(r9)
 180229c:	90 1f 04 e4 	stw     r0,1252(r31)
 18022a0:	3c 00 01 82 	lis     r0,386
 18022a4:	30 00 c8 44 	addic   r0,r0,-14268
 18022a8:	7c 0b 03 78 	mr      r11,r0
 18022ac:	80 0b 00 0c 	lwz     r0,12(r11)
 18022b0:	90 1f 04 e0 	stw     r0,1248(r31)
 18022b4:	81 3f 04 e0 	lwz     r9,1248(r31)
 18022b8:	80 1f 04 e4 	lwz     r0,1252(r31)
 18022bc:	7f 89 00 00 	cmpw    cr7,r9,r0
 18022c0:	40 9d 00 cc 	ble-    cr7,180238c <main+0x216c>
 18022c4:	3c 00 01 82 	lis     r0,386
 18022c8:	7c 09 03 78 	mr      r9,r0
 18022cc:	80 09 c7 f8 	lwz     r0,-14344(r9)
 18022d0:	31 20 ff fc 	addic   r9,r0,-4
 18022d4:	3c 00 01 82 	lis     r0,386
 18022d8:	7c 0b 03 78 	mr      r11,r0
 18022dc:	91 2b c7 f8 	stw     r9,-14344(r11)
 18022e0:	81 3f 04 e4 	lwz     r9,1252(r31)
 18022e4:	80 1f 04 e0 	lwz     r0,1248(r31)
 18022e8:	7c 09 02 14 	add     r0,r9,r0
 18022ec:	90 1f 04 dc 	stw     r0,1244(r31)
 18022f0:	3c 00 01 82 	lis     r0,386
 18022f4:	7c 09 03 78 	mr      r9,r0
 18022f8:	80 09 c7 fc 	lwz     r0,-14340(r9)
 18022fc:	3d 20 01 82 	lis     r9,386
 1802300:	39 29 c8 20 	addi    r9,r9,-14304
 1802304:	54 00 10 3a 	rlwinm  r0,r0,2,0,29
 1802308:	7c 09 02 14 	add     r0,r9,r0
 180230c:	81 3f 04 e4 	lwz     r9,1252(r31)
 1802310:	7c 0b 03 78 	mr      r11,r0
 1802314:	91 2b 00 00 	stw     r9,0(r11)
 1802318:	3c 00 01 82 	lis     r0,386
 180231c:	7c 09 03 78 	mr      r9,r0
 1802320:	80 09 c7 fc 	lwz     r0,-14340(r9)
 1802324:	30 00 00 01 	addic   r0,r0,1
 1802328:	3d 20 01 82 	lis     r9,386
 180232c:	39 29 c8 20 	addi    r9,r9,-14304
 1802330:	54 00 10 3a 	rlwinm  r0,r0,2,0,29
 1802334:	7c 09 02 14 	add     r0,r9,r0
 1802338:	81 3f 04 e0 	lwz     r9,1248(r31)
 180233c:	7c 0b 03 78 	mr      r11,r0
 1802340:	91 2b 00 00 	stw     r9,0(r11)
 1802344:	3c 00 01 82 	lis     r0,386
 1802348:	7c 09 03 78 	mr      r9,r0
 180234c:	80 09 c7 fc 	lwz     r0,-14340(r9)
 1802350:	30 00 00 02 	addic   r0,r0,2
 1802354:	3d 20 01 82 	lis     r9,386
 1802358:	39 29 c8 20 	addi    r9,r9,-14304
 180235c:	54 00 10 3a 	rlwinm  r0,r0,2,0,29
 1802360:	7c 09 02 14 	add     r0,r9,r0
 1802364:	81 3f 04 dc 	lwz     r9,1244(r31)
 1802368:	7c 0b 03 78 	mr      r11,r0
 180236c:	91 2b 00 00 	stw     r9,0(r11)
 1802370:	3c 00 01 82 	lis     r0,386
 1802374:	7c 09 03 78 	mr      r9,r0
 1802378:	80 09 c7 fc 	lwz     r0,-14340(r9)
 180237c:	31 20 00 03 	addic   r9,r0,3
 1802380:	3c 00 01 82 	lis     r0,386
 1802384:	7c 0b 03 78 	mr      r11,r0
 1802388:	91 2b c7 fc 	stw     r9,-14340(r11)
 180238c:	3c 00 01 82 	lis     r0,386
 1802390:	7c 09 03 78 	mr      r9,r0
 1802394:	80 09 c7 f8 	lwz     r0,-14344(r9)
 1802398:	2f 80 00 03 	cmpwi   cr7,r0,3
 180239c:	40 9d 01 6c 	ble-    cr7,1802508 <main+0x22e8>
 18023a0:	3c 00 01 82 	lis     r0,386
 18023a4:	7c 0b 03 78 	mr      r11,r0
 18023a8:	80 0b c7 fc 	lwz     r0,-14340(r11)
 18023ac:	30 00 00 03 	addic   r0,r0,3
 18023b0:	2f 80 00 06 	cmpwi   cr7,r0,6
 18023b4:	41 9d 01 54 	bgt-    cr7,1802508 <main+0x22e8>
 18023b8:	3c 00 01 82 	lis     r0,386
 18023bc:	30 00 c8 44 	addic   r0,r0,-14268
 18023c0:	7c 0b 03 78 	mr      r11,r0
 18023c4:	81 2b 00 0c 	lwz     r9,12(r11)
 18023c8:	3c 00 01 82 	lis     r0,386
 18023cc:	30 00 c8 44 	addic   r0,r0,-14268
 18023d0:	7c 0b 03 78 	mr      r11,r0
 18023d4:	80 0b 00 04 	lwz     r0,4(r11)
 18023d8:	7f 89 00 00 	cmpw    cr7,r9,r0
 18023dc:	40 9e 01 2c 	bne-    cr7,1802508 <main+0x22e8>
 18023e0:	3c 00 01 82 	lis     r0,386
 18023e4:	30 00 c8 44 	addic   r0,r0,-14268
 18023e8:	7c 0b 03 78 	mr      r11,r0
 18023ec:	81 2b 00 0c 	lwz     r9,12(r11)
 18023f0:	3c 00 01 82 	lis     r0,386
 18023f4:	30 00 c8 44 	addic   r0,r0,-14268
 18023f8:	7c 0b 03 78 	mr      r11,r0
 18023fc:	80 0b 00 00 	lwz     r0,0(r11)
 1802400:	7f 89 00 00 	cmpw    cr7,r9,r0
 1802404:	40 9e 01 04 	bne-    cr7,1802508 <main+0x22e8>
 1802408:	3c 00 01 82 	lis     r0,386
 180240c:	30 00 c8 44 	addic   r0,r0,-14268
 1802410:	7c 09 03 78 	mr      r9,r0
 1802414:	80 09 00 08 	lwz     r0,8(r9)
 1802418:	90 1f 04 d8 	stw     r0,1240(r31)
 180241c:	3c 00 01 82 	lis     r0,386
 1802420:	30 00 c8 44 	addic   r0,r0,-14268
 1802424:	7c 0b 03 78 	mr      r11,r0
 1802428:	80 0b 00 0c 	lwz     r0,12(r11)
 180242c:	90 1f 04 d4 	stw     r0,1236(r31)
 1802430:	81 3f 04 d4 	lwz     r9,1236(r31)
 1802434:	80 1f 04 d8 	lwz     r0,1240(r31)
 1802438:	7f 89 00 00 	cmpw    cr7,r9,r0
 180243c:	40 9d 00 cc 	ble-    cr7,1802508 <main+0x22e8>
 1802440:	3c 00 01 82 	lis     r0,386
 1802444:	7c 09 03 78 	mr      r9,r0
 1802448:	80 09 c7 f8 	lwz     r0,-14344(r9)
 180244c:	31 20 ff fc 	addic   r9,r0,-4
 1802450:	3c 00 01 82 	lis     r0,386
 1802454:	7c 0b 03 78 	mr      r11,r0
 1802458:	91 2b c7 f8 	stw     r9,-14344(r11)
 180245c:	81 3f 04 d8 	lwz     r9,1240(r31)
 1802460:	80 1f 04 d4 	lwz     r0,1236(r31)
 1802464:	7c 09 02 14 	add     r0,r9,r0
 1802468:	90 1f 04 d0 	stw     r0,1232(r31)
 180246c:	3c 00 01 82 	lis     r0,386
 1802470:	7c 09 03 78 	mr      r9,r0
 1802474:	80 09 c7 fc 	lwz     r0,-14340(r9)
 1802478:	3d 20 01 82 	lis     r9,386
 180247c:	39 29 c8 20 	addi    r9,r9,-14304
 1802480:	54 00 10 3a 	rlwinm  r0,r0,2,0,29
 1802484:	7c 09 02 14 	add     r0,r9,r0
 1802488:	81 3f 04 d8 	lwz     r9,1240(r31)
 180248c:	7c 0b 03 78 	mr      r11,r0
 1802490:	91 2b 00 00 	stw     r9,0(r11)
 1802494:	3c 00 01 82 	lis     r0,386
 1802498:	7c 09 03 78 	mr      r9,r0
 180249c:	80 09 c7 fc 	lwz     r0,-14340(r9)
 18024a0:	30 00 00 01 	addic   r0,r0,1
 18024a4:	3d 20 01 82 	lis     r9,386
 18024a8:	39 29 c8 20 	addi    r9,r9,-14304
 18024ac:	54 00 10 3a 	rlwinm  r0,r0,2,0,29
 18024b0:	7c 09 02 14 	add     r0,r9,r0
 18024b4:	81 3f 04 d4 	lwz     r9,1236(r31)
 18024b8:	7c 0b 03 78 	mr      r11,r0
 18024bc:	91 2b 00 00 	stw     r9,0(r11)
 18024c0:	3c 00 01 82 	lis     r0,386
 18024c4:	7c 09 03 78 	mr      r9,r0
 18024c8:	80 09 c7 fc 	lwz     r0,-14340(r9)
 18024cc:	30 00 00 02 	addic   r0,r0,2
 18024d0:	3d 20 01 82 	lis     r9,386
 18024d4:	39 29 c8 20 	addi    r9,r9,-14304
 18024d8:	54 00 10 3a 	rlwinm  r0,r0,2,0,29
 18024dc:	7c 09 02 14 	add     r0,r9,r0
 18024e0:	81 3f 04 d0 	lwz     r9,1232(r31)
 18024e4:	7c 0b 03 78 	mr      r11,r0
 18024e8:	91 2b 00 00 	stw     r9,0(r11)
 18024ec:	3c 00 01 82 	lis     r0,386
 18024f0:	7c 09 03 78 	mr      r9,r0
 18024f4:	80 09 c7 fc 	lwz     r0,-14340(r9)
 18024f8:	31 20 00 03 	addic   r9,r0,3
 18024fc:	3c 00 01 82 	lis     r0,386
 1802500:	7c 0b 03 78 	mr      r11,r0
 1802504:	91 2b c7 fc 	stw     r9,-14340(r11)
 1802508:	3c 00 01 82 	lis     r0,386
 180250c:	7c 09 03 78 	mr      r9,r0
 1802510:	80 09 c7 f8 	lwz     r0,-14344(r9)
 1802514:	2f 80 00 03 	cmpwi   cr7,r0,3
 1802518:	40 9d 01 6c 	ble-    cr7,1802684 <main+0x2464>
 180251c:	3c 00 01 82 	lis     r0,386
 1802520:	7c 0b 03 78 	mr      r11,r0
 1802524:	80 0b c7 fc 	lwz     r0,-14340(r11)
 1802528:	30 00 00 03 	addic   r0,r0,3
 180252c:	2f 80 00 06 	cmpwi   cr7,r0,6
 1802530:	41 9d 01 54 	bgt-    cr7,1802684 <main+0x2464>
 1802534:	3c 00 01 82 	lis     r0,386
 1802538:	30 00 c8 44 	addic   r0,r0,-14268
 180253c:	7c 0b 03 78 	mr      r11,r0
 1802540:	81 2b 00 00 	lwz     r9,0(r11)
 1802544:	3c 00 01 82 	lis     r0,386
 1802548:	30 00 c8 44 	addic   r0,r0,-14268
 180254c:	7c 0b 03 78 	mr      r11,r0
 1802550:	80 0b 00 04 	lwz     r0,4(r11)
 1802554:	7f 89 00 00 	cmpw    cr7,r9,r0
 1802558:	40 9e 01 2c 	bne-    cr7,1802684 <main+0x2464>
 180255c:	3c 00 01 82 	lis     r0,386
 1802560:	30 00 c8 44 	addic   r0,r0,-14268
 1802564:	7c 0b 03 78 	mr      r11,r0
 1802568:	81 2b 00 00 	lwz     r9,0(r11)
 180256c:	3c 00 01 82 	lis     r0,386
 1802570:	30 00 c8 44 	addic   r0,r0,-14268
 1802574:	7c 0b 03 78 	mr      r11,r0
 1802578:	80 0b 00 08 	lwz     r0,8(r11)
 180257c:	7f 89 00 00 	cmpw    cr7,r9,r0
 1802580:	40 9e 01 04 	bne-    cr7,1802684 <main+0x2464>
 1802584:	3c 00 01 82 	lis     r0,386
 1802588:	30 00 c8 44 	addic   r0,r0,-14268
 180258c:	7c 09 03 78 	mr      r9,r0
 1802590:	80 09 00 0c 	lwz     r0,12(r9)
 1802594:	90 1f 04 cc 	stw     r0,1228(r31)
 1802598:	3c 00 01 82 	lis     r0,386
 180259c:	30 00 c8 44 	addic   r0,r0,-14268
 18025a0:	7c 0b 03 78 	mr      r11,r0
 18025a4:	80 0b 00 00 	lwz     r0,0(r11)
 18025a8:	90 1f 04 c8 	stw     r0,1224(r31)
 18025ac:	81 3f 04 c8 	lwz     r9,1224(r31)
 18025b0:	80 1f 04 cc 	lwz     r0,1228(r31)
 18025b4:	7f 89 00 00 	cmpw    cr7,r9,r0
 18025b8:	40 9d 00 cc 	ble-    cr7,1802684 <main+0x2464>
 18025bc:	3c 00 01 82 	lis     r0,386
 18025c0:	7c 09 03 78 	mr      r9,r0
 18025c4:	80 09 c7 f8 	lwz     r0,-14344(r9)
 18025c8:	31 20 ff fc 	addic   r9,r0,-4
 18025cc:	3c 00 01 82 	lis     r0,386
 18025d0:	7c 0b 03 78 	mr      r11,r0
 18025d4:	91 2b c7 f8 	stw     r9,-14344(r11)
 18025d8:	81 3f 04 cc 	lwz     r9,1228(r31)
 18025dc:	80 1f 04 c8 	lwz     r0,1224(r31)
 18025e0:	7c 09 02 14 	add     r0,r9,r0
 18025e4:	90 1f 04 c4 	stw     r0,1220(r31)
 18025e8:	3c 00 01 82 	lis     r0,386
 18025ec:	7c 09 03 78 	mr      r9,r0
 18025f0:	80 09 c7 fc 	lwz     r0,-14340(r9)
 18025f4:	3d 20 01 82 	lis     r9,386
 18025f8:	39 29 c8 20 	addi    r9,r9,-14304
 18025fc:	54 00 10 3a 	rlwinm  r0,r0,2,0,29
 1802600:	7c 09 02 14 	add     r0,r9,r0
 1802604:	81 3f 04 cc 	lwz     r9,1228(r31)
 1802608:	7c 0b 03 78 	mr      r11,r0
 180260c:	91 2b 00 00 	stw     r9,0(r11)
 1802610:	3c 00 01 82 	lis     r0,386
 1802614:	7c 09 03 78 	mr      r9,r0
 1802618:	80 09 c7 fc 	lwz     r0,-14340(r9)
 180261c:	30 00 00 01 	addic   r0,r0,1
 1802620:	3d 20 01 82 	lis     r9,386
 1802624:	39 29 c8 20 	addi    r9,r9,-14304
 1802628:	54 00 10 3a 	rlwinm  r0,r0,2,0,29
 180262c:	7c 09 02 14 	add     r0,r9,r0
 1802630:	81 3f 04 c8 	lwz     r9,1224(r31)
 1802634:	7c 0b 03 78 	mr      r11,r0
 1802638:	91 2b 00 00 	stw     r9,0(r11)
 180263c:	3c 00 01 82 	lis     r0,386
 1802640:	7c 09 03 78 	mr      r9,r0
 1802644:	80 09 c7 fc 	lwz     r0,-14340(r9)
 1802648:	30 00 00 02 	addic   r0,r0,2
 180264c:	3d 20 01 82 	lis     r9,386
 1802650:	39 29 c8 20 	addi    r9,r9,-14304
 1802654:	54 00 10 3a 	rlwinm  r0,r0,2,0,29
 1802658:	7c 09 02 14 	add     r0,r9,r0
 180265c:	81 3f 04 c4 	lwz     r9,1220(r31)
 1802660:	7c 0b 03 78 	mr      r11,r0
 1802664:	91 2b 00 00 	stw     r9,0(r11)
 1802668:	3c 00 01 82 	lis     r0,386
 180266c:	7c 09 03 78 	mr      r9,r0
 1802670:	80 09 c7 fc 	lwz     r0,-14340(r9)
 1802674:	31 20 00 03 	addic   r9,r0,3
 1802678:	3c 00 01 82 	lis     r0,386
 180267c:	7c 0b 03 78 	mr      r11,r0
 1802680:	91 2b c7 fc 	stw     r9,-14340(r11)
 1802684:	3c 00 01 82 	lis     r0,386
 1802688:	7c 09 03 78 	mr      r9,r0
 180268c:	80 09 c7 f8 	lwz     r0,-14344(r9)
 1802690:	2f 80 00 03 	cmpwi   cr7,r0,3
 1802694:	40 9d 01 6c 	ble-    cr7,1802800 <main+0x25e0>
 1802698:	3c 00 01 82 	lis     r0,386
 180269c:	7c 0b 03 78 	mr      r11,r0
 18026a0:	80 0b c7 fc 	lwz     r0,-14340(r11)
 18026a4:	30 00 00 03 	addic   r0,r0,3
 18026a8:	2f 80 00 06 	cmpwi   cr7,r0,6
 18026ac:	41 9d 01 54 	bgt-    cr7,1802800 <main+0x25e0>
 18026b0:	3c 00 01 82 	lis     r0,386
 18026b4:	30 00 c8 44 	addic   r0,r0,-14268
 18026b8:	7c 0b 03 78 	mr      r11,r0
 18026bc:	81 2b 00 00 	lwz     r9,0(r11)
 18026c0:	3c 00 01 82 	lis     r0,386
 18026c4:	30 00 c8 44 	addic   r0,r0,-14268
 18026c8:	7c 0b 03 78 	mr      r11,r0
 18026cc:	80 0b 00 08 	lwz     r0,8(r11)
 18026d0:	7f 89 00 00 	cmpw    cr7,r9,r0
 18026d4:	40 9e 01 2c 	bne-    cr7,1802800 <main+0x25e0>
 18026d8:	3c 00 01 82 	lis     r0,386
 18026dc:	30 00 c8 44 	addic   r0,r0,-14268
 18026e0:	7c 0b 03 78 	mr      r11,r0
 18026e4:	81 2b 00 00 	lwz     r9,0(r11)
 18026e8:	3c 00 01 82 	lis     r0,386
 18026ec:	30 00 c8 44 	addic   r0,r0,-14268
 18026f0:	7c 0b 03 78 	mr      r11,r0
 18026f4:	80 0b 00 04 	lwz     r0,4(r11)
 18026f8:	7f 89 00 00 	cmpw    cr7,r9,r0
 18026fc:	40 9e 01 04 	bne-    cr7,1802800 <main+0x25e0>
 1802700:	3c 00 01 82 	lis     r0,386
 1802704:	30 00 c8 44 	addic   r0,r0,-14268
 1802708:	7c 09 03 78 	mr      r9,r0
 180270c:	80 09 00 0c 	lwz     r0,12(r9)
 1802710:	90 1f 04 c0 	stw     r0,1216(r31)
 1802714:	3c 00 01 82 	lis     r0,386
 1802718:	30 00 c8 44 	addic   r0,r0,-14268
 180271c:	7c 0b 03 78 	mr      r11,r0
 1802720:	80 0b 00 00 	lwz     r0,0(r11)
 1802724:	90 1f 04 bc 	stw     r0,1212(r31)
 1802728:	81 3f 04 bc 	lwz     r9,1212(r31)
 180272c:	80 1f 04 c0 	lwz     r0,1216(r31)
 1802730:	7f 89 00 00 	cmpw    cr7,r9,r0
 1802734:	40 9d 00 cc 	ble-    cr7,1802800 <main+0x25e0>
 1802738:	3c 00 01 82 	lis     r0,386
 180273c:	7c 09 03 78 	mr      r9,r0
 1802740:	80 09 c7 f8 	lwz     r0,-14344(r9)
 1802744:	31 20 ff fc 	addic   r9,r0,-4
 1802748:	3c 00 01 82 	lis     r0,386
 180274c:	7c 0b 03 78 	mr      r11,r0
 1802750:	91 2b c7 f8 	stw     r9,-14344(r11)
 1802754:	81 3f 04 c0 	lwz     r9,1216(r31)
 1802758:	80 1f 04 bc 	lwz     r0,1212(r31)
 180275c:	7c 09 02 14 	add     r0,r9,r0
 1802760:	90 1f 04 b8 	stw     r0,1208(r31)
 1802764:	3c 00 01 82 	lis     r0,386
 1802768:	7c 09 03 78 	mr      r9,r0
 180276c:	80 09 c7 fc 	lwz     r0,-14340(r9)
 1802770:	3d 20 01 82 	lis     r9,386
 1802774:	39 29 c8 20 	addi    r9,r9,-14304
 1802778:	54 00 10 3a 	rlwinm  r0,r0,2,0,29
 180277c:	7c 09 02 14 	add     r0,r9,r0
 1802780:	81 3f 04 c0 	lwz     r9,1216(r31)
 1802784:	7c 0b 03 78 	mr      r11,r0
 1802788:	91 2b 00 00 	stw     r9,0(r11)
 180278c:	3c 00 01 82 	lis     r0,386
 1802790:	7c 09 03 78 	mr      r9,r0
 1802794:	80 09 c7 fc 	lwz     r0,-14340(r9)
 1802798:	30 00 00 01 	addic   r0,r0,1
 180279c:	3d 20 01 82 	lis     r9,386
 18027a0:	39 29 c8 20 	addi    r9,r9,-14304
 18027a4:	54 00 10 3a 	rlwinm  r0,r0,2,0,29
 18027a8:	7c 09 02 14 	add     r0,r9,r0
 18027ac:	81 3f 04 bc 	lwz     r9,1212(r31)
 18027b0:	7c 0b 03 78 	mr      r11,r0
 18027b4:	91 2b 00 00 	stw     r9,0(r11)
 18027b8:	3c 00 01 82 	lis     r0,386
 18027bc:	7c 09 03 78 	mr      r9,r0
 18027c0:	80 09 c7 fc 	lwz     r0,-14340(r9)
 18027c4:	30 00 00 02 	addic   r0,r0,2
 18027c8:	3d 20 01 82 	lis     r9,386
 18027cc:	39 29 c8 20 	addi    r9,r9,-14304
 18027d0:	54 00 10 3a 	rlwinm  r0,r0,2,0,29
 18027d4:	7c 09 02 14 	add     r0,r9,r0
 18027d8:	81 3f 04 b8 	lwz     r9,1208(r31)
 18027dc:	7c 0b 03 78 	mr      r11,r0
 18027e0:	91 2b 00 00 	stw     r9,0(r11)
 18027e4:	3c 00 01 82 	lis     r0,386
 18027e8:	7c 09 03 78 	mr      r9,r0
 18027ec:	80 09 c7 fc 	lwz     r0,-14340(r9)
 18027f0:	31 20 00 03 	addic   r9,r0,3
 18027f4:	3c 00 01 82 	lis     r0,386
 18027f8:	7c 0b 03 78 	mr      r11,r0
 18027fc:	91 2b c7 fc 	stw     r9,-14340(r11)
 1802800:	3c 00 01 82 	lis     r0,386
 1802804:	7c 09 03 78 	mr      r9,r0
 1802808:	80 09 c7 f8 	lwz     r0,-14344(r9)
 180280c:	2f 80 00 03 	cmpwi   cr7,r0,3
 1802810:	40 9d 01 6c 	ble-    cr7,180297c <main+0x275c>
 1802814:	3c 00 01 82 	lis     r0,386
 1802818:	7c 0b 03 78 	mr      r11,r0
 180281c:	80 0b c7 fc 	lwz     r0,-14340(r11)
 1802820:	30 00 00 03 	addic   r0,r0,3
 1802824:	2f 80 00 06 	cmpwi   cr7,r0,6
 1802828:	41 9d 01 54 	bgt-    cr7,180297c <main+0x275c>
 180282c:	3c 00 01 82 	lis     r0,386
 1802830:	30 00 c8 44 	addic   r0,r0,-14268
 1802834:	7c 0b 03 78 	mr      r11,r0
 1802838:	81 2b 00 04 	lwz     r9,4(r11)
 180283c:	3c 00 01 82 	lis     r0,386
 1802840:	30 00 c8 44 	addic   r0,r0,-14268
 1802844:	7c 0b 03 78 	mr      r11,r0
 1802848:	80 0b 00 00 	lwz     r0,0(r11)
 180284c:	7f 89 00 00 	cmpw    cr7,r9,r0
 1802850:	40 9e 01 2c 	bne-    cr7,180297c <main+0x275c>
 1802854:	3c 00 01 82 	lis     r0,386
 1802858:	30 00 c8 44 	addic   r0,r0,-14268
 180285c:	7c 0b 03 78 	mr      r11,r0
 1802860:	81 2b 00 04 	lwz     r9,4(r11)
 1802864:	3c 00 01 82 	lis     r0,386
 1802868:	30 00 c8 44 	addic   r0,r0,-14268
 180286c:	7c 0b 03 78 	mr      r11,r0
 1802870:	80 0b 00 08 	lwz     r0,8(r11)
 1802874:	7f 89 00 00 	cmpw    cr7,r9,r0
 1802878:	40 9e 01 04 	bne-    cr7,180297c <main+0x275c>
 180287c:	3c 00 01 82 	lis     r0,386
 1802880:	30 00 c8 44 	addic   r0,r0,-14268
 1802884:	7c 09 03 78 	mr      r9,r0
 1802888:	80 09 00 0c 	lwz     r0,12(r9)
 180288c:	90 1f 04 b4 	stw     r0,1204(r31)
 1802890:	3c 00 01 82 	lis     r0,386
 1802894:	30 00 c8 44 	addic   r0,r0,-14268
 1802898:	7c 0b 03 78 	mr      r11,r0
 180289c:	80 0b 00 04 	lwz     r0,4(r11)
 18028a0:	90 1f 04 b0 	stw     r0,1200(r31)
 18028a4:	81 3f 04 b0 	lwz     r9,1200(r31)
 18028a8:	80 1f 04 b4 	lwz     r0,1204(r31)
 18028ac:	7f 89 00 00 	cmpw    cr7,r9,r0
 18028b0:	40 9d 00 cc 	ble-    cr7,180297c <main+0x275c>
 18028b4:	3c 00 01 82 	lis     r0,386
 18028b8:	7c 09 03 78 	mr      r9,r0
 18028bc:	80 09 c7 f8 	lwz     r0,-14344(r9)
 18028c0:	31 20 ff fc 	addic   r9,r0,-4
 18028c4:	3c 00 01 82 	lis     r0,386
 18028c8:	7c 0b 03 78 	mr      r11,r0
 18028cc:	91 2b c7 f8 	stw     r9,-14344(r11)
 18028d0:	81 3f 04 b4 	lwz     r9,1204(r31)
 18028d4:	80 1f 04 b0 	lwz     r0,1200(r31)
 18028d8:	7c 09 02 14 	add     r0,r9,r0
 18028dc:	90 1f 04 ac 	stw     r0,1196(r31)
 18028e0:	3c 00 01 82 	lis     r0,386
 18028e4:	7c 09 03 78 	mr      r9,r0
 18028e8:	80 09 c7 fc 	lwz     r0,-14340(r9)
 18028ec:	3d 20 01 82 	lis     r9,386
 18028f0:	39 29 c8 20 	addi    r9,r9,-14304
 18028f4:	54 00 10 3a 	rlwinm  r0,r0,2,0,29
 18028f8:	7c 09 02 14 	add     r0,r9,r0
 18028fc:	81 3f 04 b4 	lwz     r9,1204(r31)
 1802900:	7c 0b 03 78 	mr      r11,r0
 1802904:	91 2b 00 00 	stw     r9,0(r11)
 1802908:	3c 00 01 82 	lis     r0,386
 180290c:	7c 09 03 78 	mr      r9,r0
 1802910:	80 09 c7 fc 	lwz     r0,-14340(r9)
 1802914:	30 00 00 01 	addic   r0,r0,1
 1802918:	3d 20 01 82 	lis     r9,386
 180291c:	39 29 c8 20 	addi    r9,r9,-14304
 1802920:	54 00 10 3a 	rlwinm  r0,r0,2,0,29
 1802924:	7c 09 02 14 	add     r0,r9,r0
 1802928:	81 3f 04 b0 	lwz     r9,1200(r31)
 180292c:	7c 0b 03 78 	mr      r11,r0
 1802930:	91 2b 00 00 	stw     r9,0(r11)
 1802934:	3c 00 01 82 	lis     r0,386
 1802938:	7c 09 03 78 	mr      r9,r0
 180293c:	80 09 c7 fc 	lwz     r0,-14340(r9)
 1802940:	30 00 00 02 	addic   r0,r0,2
 1802944:	3d 20 01 82 	lis     r9,386
 1802948:	39 29 c8 20 	addi    r9,r9,-14304
 180294c:	54 00 10 3a 	rlwinm  r0,r0,2,0,29
 1802950:	7c 09 02 14 	add     r0,r9,r0
 1802954:	81 3f 04 ac 	lwz     r9,1196(r31)
 1802958:	7c 0b 03 78 	mr      r11,r0
 180295c:	91 2b 00 00 	stw     r9,0(r11)
 1802960:	3c 00 01 82 	lis     r0,386
 1802964:	7c 09 03 78 	mr      r9,r0
 1802968:	80 09 c7 fc 	lwz     r0,-14340(r9)
 180296c:	31 20 00 03 	addic   r9,r0,3
 1802970:	3c 00 01 82 	lis     r0,386
 1802974:	7c 0b 03 78 	mr      r11,r0
 1802978:	91 2b c7 fc 	stw     r9,-14340(r11)
 180297c:	3c 00 01 82 	lis     r0,386
 1802980:	7c 09 03 78 	mr      r9,r0
 1802984:	80 09 c7 f8 	lwz     r0,-14344(r9)
 1802988:	2f 80 00 03 	cmpwi   cr7,r0,3
 180298c:	40 9d 01 6c 	ble-    cr7,1802af8 <main+0x28d8>
 1802990:	3c 00 01 82 	lis     r0,386
 1802994:	7c 0b 03 78 	mr      r11,r0
 1802998:	80 0b c7 fc 	lwz     r0,-14340(r11)
 180299c:	30 00 00 03 	addic   r0,r0,3
 18029a0:	2f 80 00 06 	cmpwi   cr7,r0,6
 18029a4:	41 9d 01 54 	bgt-    cr7,1802af8 <main+0x28d8>
 18029a8:	3c 00 01 82 	lis     r0,386
 18029ac:	30 00 c8 44 	addic   r0,r0,-14268
 18029b0:	7c 0b 03 78 	mr      r11,r0
 18029b4:	81 2b 00 04 	lwz     r9,4(r11)
 18029b8:	3c 00 01 82 	lis     r0,386
 18029bc:	30 00 c8 44 	addic   r0,r0,-14268
 18029c0:	7c 0b 03 78 	mr      r11,r0
 18029c4:	80 0b 00 08 	lwz     r0,8(r11)
 18029c8:	7f 89 00 00 	cmpw    cr7,r9,r0
 18029cc:	40 9e 01 2c 	bne-    cr7,1802af8 <main+0x28d8>
 18029d0:	3c 00 01 82 	lis     r0,386
 18029d4:	30 00 c8 44 	addic   r0,r0,-14268
 18029d8:	7c 0b 03 78 	mr      r11,r0
 18029dc:	81 2b 00 04 	lwz     r9,4(r11)
 18029e0:	3c 00 01 82 	lis     r0,386
 18029e4:	30 00 c8 44 	addic   r0,r0,-14268
 18029e8:	7c 0b 03 78 	mr      r11,r0
 18029ec:	80 0b 00 00 	lwz     r0,0(r11)
 18029f0:	7f 89 00 00 	cmpw    cr7,r9,r0
 18029f4:	40 9e 01 04 	bne-    cr7,1802af8 <main+0x28d8>
 18029f8:	3c 00 01 82 	lis     r0,386
 18029fc:	30 00 c8 44 	addic   r0,r0,-14268
 1802a00:	7c 09 03 78 	mr      r9,r0
 1802a04:	80 09 00 0c 	lwz     r0,12(r9)
 1802a08:	90 1f 04 a8 	stw     r0,1192(r31)
 1802a0c:	3c 00 01 82 	lis     r0,386
 1802a10:	30 00 c8 44 	addic   r0,r0,-14268
 1802a14:	7c 0b 03 78 	mr      r11,r0
 1802a18:	80 0b 00 04 	lwz     r0,4(r11)
 1802a1c:	90 1f 04 a4 	stw     r0,1188(r31)
 1802a20:	81 3f 04 a4 	lwz     r9,1188(r31)
 1802a24:	80 1f 04 a8 	lwz     r0,1192(r31)
 1802a28:	7f 89 00 00 	cmpw    cr7,r9,r0
 1802a2c:	40 9d 00 cc 	ble-    cr7,1802af8 <main+0x28d8>
 1802a30:	3c 00 01 82 	lis     r0,386
 1802a34:	7c 09 03 78 	mr      r9,r0
 1802a38:	80 09 c7 f8 	lwz     r0,-14344(r9)
 1802a3c:	31 20 ff fc 	addic   r9,r0,-4
 1802a40:	3c 00 01 82 	lis     r0,386
 1802a44:	7c 0b 03 78 	mr      r11,r0
 1802a48:	91 2b c7 f8 	stw     r9,-14344(r11)
 1802a4c:	81 3f 04 a8 	lwz     r9,1192(r31)
 1802a50:	80 1f 04 a4 	lwz     r0,1188(r31)
 1802a54:	7c 09 02 14 	add     r0,r9,r0
 1802a58:	90 1f 04 a0 	stw     r0,1184(r31)
 1802a5c:	3c 00 01 82 	lis     r0,386
 1802a60:	7c 09 03 78 	mr      r9,r0
 1802a64:	80 09 c7 fc 	lwz     r0,-14340(r9)
 1802a68:	3d 20 01 82 	lis     r9,386
 1802a6c:	39 29 c8 20 	addi    r9,r9,-14304
 1802a70:	54 00 10 3a 	rlwinm  r0,r0,2,0,29
 1802a74:	7c 09 02 14 	add     r0,r9,r0
 1802a78:	81 3f 04 a8 	lwz     r9,1192(r31)
 1802a7c:	7c 0b 03 78 	mr      r11,r0
 1802a80:	91 2b 00 00 	stw     r9,0(r11)
 1802a84:	3c 00 01 82 	lis     r0,386
 1802a88:	7c 09 03 78 	mr      r9,r0
 1802a8c:	80 09 c7 fc 	lwz     r0,-14340(r9)
 1802a90:	30 00 00 01 	addic   r0,r0,1
 1802a94:	3d 20 01 82 	lis     r9,386
 1802a98:	39 29 c8 20 	addi    r9,r9,-14304
 1802a9c:	54 00 10 3a 	rlwinm  r0,r0,2,0,29
 1802aa0:	7c 09 02 14 	add     r0,r9,r0
 1802aa4:	81 3f 04 a4 	lwz     r9,1188(r31)
 1802aa8:	7c 0b 03 78 	mr      r11,r0
 1802aac:	91 2b 00 00 	stw     r9,0(r11)
 1802ab0:	3c 00 01 82 	lis     r0,386
 1802ab4:	7c 09 03 78 	mr      r9,r0
 1802ab8:	80 09 c7 fc 	lwz     r0,-14340(r9)
 1802abc:	30 00 00 02 	addic   r0,r0,2
 1802ac0:	3d 20 01 82 	lis     r9,386
 1802ac4:	39 29 c8 20 	addi    r9,r9,-14304
 1802ac8:	54 00 10 3a 	rlwinm  r0,r0,2,0,29
 1802acc:	7c 09 02 14 	add     r0,r9,r0
 1802ad0:	81 3f 04 a0 	lwz     r9,1184(r31)
 1802ad4:	7c 0b 03 78 	mr      r11,r0
 1802ad8:	91 2b 00 00 	stw     r9,0(r11)
 1802adc:	3c 00 01 82 	lis     r0,386
 1802ae0:	7c 09 03 78 	mr      r9,r0
 1802ae4:	80 09 c7 fc 	lwz     r0,-14340(r9)
 1802ae8:	31 20 00 03 	addic   r9,r0,3
 1802aec:	3c 00 01 82 	lis     r0,386
 1802af0:	7c 0b 03 78 	mr      r11,r0
 1802af4:	91 2b c7 fc 	stw     r9,-14340(r11)
 1802af8:	3c 00 01 82 	lis     r0,386
 1802afc:	7c 09 03 78 	mr      r9,r0
 1802b00:	80 09 c7 f8 	lwz     r0,-14344(r9)
 1802b04:	2f 80 00 03 	cmpwi   cr7,r0,3
 1802b08:	40 9d 01 6c 	ble-    cr7,1802c74 <main+0x2a54>
 1802b0c:	3c 00 01 82 	lis     r0,386
 1802b10:	7c 0b 03 78 	mr      r11,r0
 1802b14:	80 0b c7 fc 	lwz     r0,-14340(r11)
 1802b18:	30 00 00 03 	addic   r0,r0,3
 1802b1c:	2f 80 00 06 	cmpwi   cr7,r0,6
 1802b20:	41 9d 01 54 	bgt-    cr7,1802c74 <main+0x2a54>
 1802b24:	3c 00 01 82 	lis     r0,386
 1802b28:	30 00 c8 44 	addic   r0,r0,-14268
 1802b2c:	7c 0b 03 78 	mr      r11,r0
 1802b30:	81 2b 00 08 	lwz     r9,8(r11)
 1802b34:	3c 00 01 82 	lis     r0,386
 1802b38:	30 00 c8 44 	addic   r0,r0,-14268
 1802b3c:	7c 0b 03 78 	mr      r11,r0
 1802b40:	80 0b 00 00 	lwz     r0,0(r11)
 1802b44:	7f 89 00 00 	cmpw    cr7,r9,r0
 1802b48:	40 9e 01 2c 	bne-    cr7,1802c74 <main+0x2a54>
 1802b4c:	3c 00 01 82 	lis     r0,386
 1802b50:	30 00 c8 44 	addic   r0,r0,-14268
 1802b54:	7c 0b 03 78 	mr      r11,r0
 1802b58:	81 2b 00 08 	lwz     r9,8(r11)
 1802b5c:	3c 00 01 82 	lis     r0,386
 1802b60:	30 00 c8 44 	addic   r0,r0,-14268
 1802b64:	7c 0b 03 78 	mr      r11,r0
 1802b68:	80 0b 00 04 	lwz     r0,4(r11)
 1802b6c:	7f 89 00 00 	cmpw    cr7,r9,r0
 1802b70:	40 9e 01 04 	bne-    cr7,1802c74 <main+0x2a54>
 1802b74:	3c 00 01 82 	lis     r0,386
 1802b78:	30 00 c8 44 	addic   r0,r0,-14268
 1802b7c:	7c 09 03 78 	mr      r9,r0
 1802b80:	80 09 00 0c 	lwz     r0,12(r9)
 1802b84:	90 1f 04 9c 	stw     r0,1180(r31)
 1802b88:	3c 00 01 82 	lis     r0,386
 1802b8c:	30 00 c8 44 	addic   r0,r0,-14268
 1802b90:	7c 0b 03 78 	mr      r11,r0
 1802b94:	80 0b 00 08 	lwz     r0,8(r11)
 1802b98:	90 1f 04 98 	stw     r0,1176(r31)
 1802b9c:	81 3f 04 98 	lwz     r9,1176(r31)
 1802ba0:	80 1f 04 9c 	lwz     r0,1180(r31)
 1802ba4:	7f 89 00 00 	cmpw    cr7,r9,r0
 1802ba8:	40 9d 00 cc 	ble-    cr7,1802c74 <main+0x2a54>
 1802bac:	3c 00 01 82 	lis     r0,386
 1802bb0:	7c 09 03 78 	mr      r9,r0
 1802bb4:	80 09 c7 f8 	lwz     r0,-14344(r9)
 1802bb8:	31 20 ff fc 	addic   r9,r0,-4
 1802bbc:	3c 00 01 82 	lis     r0,386
 1802bc0:	7c 0b 03 78 	mr      r11,r0
 1802bc4:	91 2b c7 f8 	stw     r9,-14344(r11)
 1802bc8:	81 3f 04 9c 	lwz     r9,1180(r31)
 1802bcc:	80 1f 04 98 	lwz     r0,1176(r31)
 1802bd0:	7c 09 02 14 	add     r0,r9,r0
 1802bd4:	90 1f 04 94 	stw     r0,1172(r31)
 1802bd8:	3c 00 01 82 	lis     r0,386
 1802bdc:	7c 09 03 78 	mr      r9,r0
 1802be0:	80 09 c7 fc 	lwz     r0,-14340(r9)
 1802be4:	3d 20 01 82 	lis     r9,386
 1802be8:	39 29 c8 20 	addi    r9,r9,-14304
 1802bec:	54 00 10 3a 	rlwinm  r0,r0,2,0,29
 1802bf0:	7c 09 02 14 	add     r0,r9,r0
 1802bf4:	81 3f 04 9c 	lwz     r9,1180(r31)
 1802bf8:	7c 0b 03 78 	mr      r11,r0
 1802bfc:	91 2b 00 00 	stw     r9,0(r11)
 1802c00:	3c 00 01 82 	lis     r0,386
 1802c04:	7c 09 03 78 	mr      r9,r0
 1802c08:	80 09 c7 fc 	lwz     r0,-14340(r9)
 1802c0c:	30 00 00 01 	addic   r0,r0,1
 1802c10:	3d 20 01 82 	lis     r9,386
 1802c14:	39 29 c8 20 	addi    r9,r9,-14304
 1802c18:	54 00 10 3a 	rlwinm  r0,r0,2,0,29
 1802c1c:	7c 09 02 14 	add     r0,r9,r0
 1802c20:	81 3f 04 98 	lwz     r9,1176(r31)
 1802c24:	7c 0b 03 78 	mr      r11,r0
 1802c28:	91 2b 00 00 	stw     r9,0(r11)
 1802c2c:	3c 00 01 82 	lis     r0,386
 1802c30:	7c 09 03 78 	mr      r9,r0
 1802c34:	80 09 c7 fc 	lwz     r0,-14340(r9)
 1802c38:	30 00 00 02 	addic   r0,r0,2
 1802c3c:	3d 20 01 82 	lis     r9,386
 1802c40:	39 29 c8 20 	addi    r9,r9,-14304
 1802c44:	54 00 10 3a 	rlwinm  r0,r0,2,0,29
 1802c48:	7c 09 02 14 	add     r0,r9,r0
 1802c4c:	81 3f 04 94 	lwz     r9,1172(r31)
 1802c50:	7c 0b 03 78 	mr      r11,r0
 1802c54:	91 2b 00 00 	stw     r9,0(r11)
 1802c58:	3c 00 01 82 	lis     r0,386
 1802c5c:	7c 09 03 78 	mr      r9,r0
 1802c60:	80 09 c7 fc 	lwz     r0,-14340(r9)
 1802c64:	31 20 00 03 	addic   r9,r0,3
 1802c68:	3c 00 01 82 	lis     r0,386
 1802c6c:	7c 0b 03 78 	mr      r11,r0
 1802c70:	91 2b c7 fc 	stw     r9,-14340(r11)
 1802c74:	3c 00 01 82 	lis     r0,386
 1802c78:	7c 09 03 78 	mr      r9,r0
 1802c7c:	80 09 c7 f8 	lwz     r0,-14344(r9)
 1802c80:	2f 80 00 03 	cmpwi   cr7,r0,3
 1802c84:	40 9d 01 6c 	ble-    cr7,1802df0 <main+0x2bd0>
 1802c88:	3c 00 01 82 	lis     r0,386
 1802c8c:	7c 0b 03 78 	mr      r11,r0
 1802c90:	80 0b c7 fc 	lwz     r0,-14340(r11)
 1802c94:	30 00 00 03 	addic   r0,r0,3
 1802c98:	2f 80 00 06 	cmpwi   cr7,r0,6
 1802c9c:	41 9d 01 54 	bgt-    cr7,1802df0 <main+0x2bd0>
 1802ca0:	3c 00 01 82 	lis     r0,386
 1802ca4:	30 00 c8 44 	addic   r0,r0,-14268
 1802ca8:	7c 0b 03 78 	mr      r11,r0
 1802cac:	81 2b 00 08 	lwz     r9,8(r11)
 1802cb0:	3c 00 01 82 	lis     r0,386
 1802cb4:	30 00 c8 44 	addic   r0,r0,-14268
 1802cb8:	7c 0b 03 78 	mr      r11,r0
 1802cbc:	80 0b 00 04 	lwz     r0,4(r11)
 1802cc0:	7f 89 00 00 	cmpw    cr7,r9,r0
 1802cc4:	40 9e 01 2c 	bne-    cr7,1802df0 <main+0x2bd0>
 1802cc8:	3c 00 01 82 	lis     r0,386
 1802ccc:	30 00 c8 44 	addic   r0,r0,-14268
 1802cd0:	7c 0b 03 78 	mr      r11,r0
 1802cd4:	81 2b 00 08 	lwz     r9,8(r11)
 1802cd8:	3c 00 01 82 	lis     r0,386
 1802cdc:	30 00 c8 44 	addic   r0,r0,-14268
 1802ce0:	7c 0b 03 78 	mr      r11,r0
 1802ce4:	80 0b 00 00 	lwz     r0,0(r11)
 1802ce8:	7f 89 00 00 	cmpw    cr7,r9,r0
 1802cec:	40 9e 01 04 	bne-    cr7,1802df0 <main+0x2bd0>
 1802cf0:	3c 00 01 82 	lis     r0,386
 1802cf4:	30 00 c8 44 	addic   r0,r0,-14268
 1802cf8:	7c 09 03 78 	mr      r9,r0
 1802cfc:	80 09 00 0c 	lwz     r0,12(r9)
 1802d00:	90 1f 04 90 	stw     r0,1168(r31)
 1802d04:	3c 00 01 82 	lis     r0,386
 1802d08:	30 00 c8 44 	addic   r0,r0,-14268
 1802d0c:	7c 0b 03 78 	mr      r11,r0
 1802d10:	80 0b 00 08 	lwz     r0,8(r11)
 1802d14:	90 1f 04 8c 	stw     r0,1164(r31)
 1802d18:	81 3f 04 8c 	lwz     r9,1164(r31)
 1802d1c:	80 1f 04 90 	lwz     r0,1168(r31)
 1802d20:	7f 89 00 00 	cmpw    cr7,r9,r0
 1802d24:	40 9d 00 cc 	ble-    cr7,1802df0 <main+0x2bd0>
 1802d28:	3c 00 01 82 	lis     r0,386
 1802d2c:	7c 09 03 78 	mr      r9,r0
 1802d30:	80 09 c7 f8 	lwz     r0,-14344(r9)
 1802d34:	31 20 ff fc 	addic   r9,r0,-4
 1802d38:	3c 00 01 82 	lis     r0,386
 1802d3c:	7c 0b 03 78 	mr      r11,r0
 1802d40:	91 2b c7 f8 	stw     r9,-14344(r11)
 1802d44:	81 3f 04 90 	lwz     r9,1168(r31)
 1802d48:	80 1f 04 8c 	lwz     r0,1164(r31)
 1802d4c:	7c 09 02 14 	add     r0,r9,r0
 1802d50:	90 1f 04 88 	stw     r0,1160(r31)
 1802d54:	3c 00 01 82 	lis     r0,386
 1802d58:	7c 09 03 78 	mr      r9,r0
 1802d5c:	80 09 c7 fc 	lwz     r0,-14340(r9)
 1802d60:	3d 20 01 82 	lis     r9,386
 1802d64:	39 29 c8 20 	addi    r9,r9,-14304
 1802d68:	54 00 10 3a 	rlwinm  r0,r0,2,0,29
 1802d6c:	7c 09 02 14 	add     r0,r9,r0
 1802d70:	81 3f 04 90 	lwz     r9,1168(r31)
 1802d74:	7c 0b 03 78 	mr      r11,r0
 1802d78:	91 2b 00 00 	stw     r9,0(r11)
 1802d7c:	3c 00 01 82 	lis     r0,386
 1802d80:	7c 09 03 78 	mr      r9,r0
 1802d84:	80 09 c7 fc 	lwz     r0,-14340(r9)
 1802d88:	30 00 00 01 	addic   r0,r0,1
 1802d8c:	3d 20 01 82 	lis     r9,386
 1802d90:	39 29 c8 20 	addi    r9,r9,-14304
 1802d94:	54 00 10 3a 	rlwinm  r0,r0,2,0,29
 1802d98:	7c 09 02 14 	add     r0,r9,r0
 1802d9c:	81 3f 04 8c 	lwz     r9,1164(r31)
 1802da0:	7c 0b 03 78 	mr      r11,r0
 1802da4:	91 2b 00 00 	stw     r9,0(r11)
 1802da8:	3c 00 01 82 	lis     r0,386
 1802dac:	7c 09 03 78 	mr      r9,r0
 1802db0:	80 09 c7 fc 	lwz     r0,-14340(r9)
 1802db4:	30 00 00 02 	addic   r0,r0,2
 1802db8:	3d 20 01 82 	lis     r9,386
 1802dbc:	39 29 c8 20 	addi    r9,r9,-14304
 1802dc0:	54 00 10 3a 	rlwinm  r0,r0,2,0,29
 1802dc4:	7c 09 02 14 	add     r0,r9,r0
 1802dc8:	81 3f 04 88 	lwz     r9,1160(r31)
 1802dcc:	7c 0b 03 78 	mr      r11,r0
 1802dd0:	91 2b 00 00 	stw     r9,0(r11)
 1802dd4:	3c 00 01 82 	lis     r0,386
 1802dd8:	7c 09 03 78 	mr      r9,r0
 1802ddc:	80 09 c7 fc 	lwz     r0,-14340(r9)
 1802de0:	31 20 00 03 	addic   r9,r0,3
 1802de4:	3c 00 01 82 	lis     r0,386
 1802de8:	7c 0b 03 78 	mr      r11,r0
 1802dec:	91 2b c7 fc 	stw     r9,-14340(r11)
 1802df0:	3c 00 01 82 	lis     r0,386
 1802df4:	7c 09 03 78 	mr      r9,r0
 1802df8:	80 09 c7 f8 	lwz     r0,-14344(r9)
 1802dfc:	2f 80 00 04 	cmpwi   cr7,r0,4
 1802e00:	40 9d 01 8c 	ble-    cr7,1802f8c <main+0x2d6c>
 1802e04:	3c 00 01 82 	lis     r0,386
 1802e08:	7c 0b 03 78 	mr      r11,r0
 1802e0c:	80 0b c7 fc 	lwz     r0,-14340(r11)
 1802e10:	30 00 00 03 	addic   r0,r0,3
 1802e14:	2f 80 00 06 	cmpwi   cr7,r0,6
 1802e18:	41 9d 01 74 	bgt-    cr7,1802f8c <main+0x2d6c>
 1802e1c:	3c 00 01 82 	lis     r0,386
 1802e20:	30 00 c8 44 	addic   r0,r0,-14268
 1802e24:	7c 0b 03 78 	mr      r11,r0
 1802e28:	81 2b 00 04 	lwz     r9,4(r11)
 1802e2c:	3c 00 01 82 	lis     r0,386
 1802e30:	30 00 c8 44 	addic   r0,r0,-14268
 1802e34:	7c 0b 03 78 	mr      r11,r0
 1802e38:	80 0b 00 08 	lwz     r0,8(r11)
 1802e3c:	7f 89 00 00 	cmpw    cr7,r9,r0
 1802e40:	40 9e 01 4c 	bne-    cr7,1802f8c <main+0x2d6c>
 1802e44:	3c 00 01 82 	lis     r0,386
 1802e48:	30 00 c8 44 	addic   r0,r0,-14268
 1802e4c:	7c 0b 03 78 	mr      r11,r0
 1802e50:	81 2b 00 04 	lwz     r9,4(r11)
 1802e54:	3c 00 01 82 	lis     r0,386
 1802e58:	30 00 c8 44 	addic   r0,r0,-14268
 1802e5c:	7c 0b 03 78 	mr      r11,r0
 1802e60:	80 0b 00 10 	lwz     r0,16(r11)
 1802e64:	7f 89 00 00 	cmpw    cr7,r9,r0
 1802e68:	40 9e 01 24 	bne-    cr7,1802f8c <main+0x2d6c>
 1802e6c:	3c 00 01 82 	lis     r0,386
 1802e70:	30 00 c8 44 	addic   r0,r0,-14268
 1802e74:	7c 09 03 78 	mr      r9,r0
 1802e78:	80 09 00 00 	lwz     r0,0(r9)
 1802e7c:	90 1f 04 84 	stw     r0,1156(r31)
 1802e80:	3c 00 01 82 	lis     r0,386
 1802e84:	30 00 c8 44 	addic   r0,r0,-14268
 1802e88:	7c 0b 03 78 	mr      r11,r0
 1802e8c:	80 0b 00 04 	lwz     r0,4(r11)
 1802e90:	90 1f 04 80 	stw     r0,1152(r31)
 1802e94:	81 3f 04 80 	lwz     r9,1152(r31)
 1802e98:	80 1f 04 84 	lwz     r0,1156(r31)
 1802e9c:	7f 89 00 00 	cmpw    cr7,r9,r0
 1802ea0:	40 9d 00 ec 	ble-    cr7,1802f8c <main+0x2d6c>
 1802ea4:	3c 00 01 82 	lis     r0,386
 1802ea8:	30 00 c8 44 	addic   r0,r0,-14268
 1802eac:	7c 0b 03 78 	mr      r11,r0
 1802eb0:	81 2b 00 0c 	lwz     r9,12(r11)
 1802eb4:	3c 00 01 82 	lis     r0,386
 1802eb8:	30 00 c8 44 	addic   r0,r0,-14268
 1802ebc:	7c 0b 03 78 	mr      r11,r0
 1802ec0:	91 2b 00 00 	stw     r9,0(r11)
 1802ec4:	3c 00 01 82 	lis     r0,386
 1802ec8:	7c 09 03 78 	mr      r9,r0
 1802ecc:	80 09 c7 f8 	lwz     r0,-14344(r9)
 1802ed0:	31 20 ff fc 	addic   r9,r0,-4
 1802ed4:	3c 00 01 82 	lis     r0,386
 1802ed8:	7c 0b 03 78 	mr      r11,r0
 1802edc:	91 2b c7 f8 	stw     r9,-14344(r11)
 1802ee0:	81 3f 04 84 	lwz     r9,1156(r31)
 1802ee4:	80 1f 04 80 	lwz     r0,1152(r31)
 1802ee8:	7c 09 02 14 	add     r0,r9,r0
 1802eec:	90 1f 04 7c 	stw     r0,1148(r31)
 1802ef0:	3c 00 01 82 	lis     r0,386
 1802ef4:	7c 09 03 78 	mr      r9,r0
 1802ef8:	80 09 c7 fc 	lwz     r0,-14340(r9)
 1802efc:	3d 20 01 82 	lis     r9,386
 1802f00:	39 29 c8 20 	addi    r9,r9,-14304
 1802f04:	54 00 10 3a 	rlwinm  r0,r0,2,0,29
 1802f08:	7c 09 02 14 	add     r0,r9,r0
 1802f0c:	81 3f 04 84 	lwz     r9,1156(r31)
 1802f10:	7c 0b 03 78 	mr      r11,r0
 1802f14:	91 2b 00 00 	stw     r9,0(r11)
 1802f18:	3c 00 01 82 	lis     r0,386
 1802f1c:	7c 09 03 78 	mr      r9,r0
 1802f20:	80 09 c7 fc 	lwz     r0,-14340(r9)
 1802f24:	30 00 00 01 	addic   r0,r0,1
 1802f28:	3d 20 01 82 	lis     r9,386
 1802f2c:	39 29 c8 20 	addi    r9,r9,-14304
 1802f30:	54 00 10 3a 	rlwinm  r0,r0,2,0,29
 1802f34:	7c 09 02 14 	add     r0,r9,r0
 1802f38:	81 3f 04 80 	lwz     r9,1152(r31)
 1802f3c:	7c 0b 03 78 	mr      r11,r0
 1802f40:	91 2b 00 00 	stw     r9,0(r11)
 1802f44:	3c 00 01 82 	lis     r0,386
 1802f48:	7c 09 03 78 	mr      r9,r0
 1802f4c:	80 09 c7 fc 	lwz     r0,-14340(r9)
 1802f50:	30 00 00 02 	addic   r0,r0,2
 1802f54:	3d 20 01 82 	lis     r9,386
 1802f58:	39 29 c8 20 	addi    r9,r9,-14304
 1802f5c:	54 00 10 3a 	rlwinm  r0,r0,2,0,29
 1802f60:	7c 09 02 14 	add     r0,r9,r0
 1802f64:	81 3f 04 7c 	lwz     r9,1148(r31)
 1802f68:	7c 0b 03 78 	mr      r11,r0
 1802f6c:	91 2b 00 00 	stw     r9,0(r11)
 1802f70:	3c 00 01 82 	lis     r0,386
 1802f74:	7c 09 03 78 	mr      r9,r0
 1802f78:	80 09 c7 fc 	lwz     r0,-14340(r9)
 1802f7c:	31 20 00 03 	addic   r9,r0,3
 1802f80:	3c 00 01 82 	lis     r0,386
 1802f84:	7c 0b 03 78 	mr      r11,r0
 1802f88:	91 2b c7 fc 	stw     r9,-14340(r11)
 1802f8c:	3c 00 01 82 	lis     r0,386
 1802f90:	7c 09 03 78 	mr      r9,r0
 1802f94:	80 09 c7 f8 	lwz     r0,-14344(r9)
 1802f98:	2f 80 00 04 	cmpwi   cr7,r0,4
 1802f9c:	40 9d 01 8c 	ble-    cr7,1803128 <main+0x2f08>
 1802fa0:	3c 00 01 82 	lis     r0,386
 1802fa4:	7c 0b 03 78 	mr      r11,r0
 1802fa8:	80 0b c7 fc 	lwz     r0,-14340(r11)
 1802fac:	30 00 00 03 	addic   r0,r0,3
 1802fb0:	2f 80 00 06 	cmpwi   cr7,r0,6
 1802fb4:	41 9d 01 74 	bgt-    cr7,1803128 <main+0x2f08>
 1802fb8:	3c 00 01 82 	lis     r0,386
 1802fbc:	30 00 c8 44 	addic   r0,r0,-14268
 1802fc0:	7c 0b 03 78 	mr      r11,r0
 1802fc4:	81 2b 00 04 	lwz     r9,4(r11)
 1802fc8:	3c 00 01 82 	lis     r0,386
 1802fcc:	30 00 c8 44 	addic   r0,r0,-14268
 1802fd0:	7c 0b 03 78 	mr      r11,r0
 1802fd4:	80 0b 00 0c 	lwz     r0,12(r11)
 1802fd8:	7f 89 00 00 	cmpw    cr7,r9,r0
 1802fdc:	40 9e 01 4c 	bne-    cr7,1803128 <main+0x2f08>
 1802fe0:	3c 00 01 82 	lis     r0,386
 1802fe4:	30 00 c8 44 	addic   r0,r0,-14268
 1802fe8:	7c 0b 03 78 	mr      r11,r0
 1802fec:	81 2b 00 04 	lwz     r9,4(r11)
 1802ff0:	3c 00 01 82 	lis     r0,386
 1802ff4:	30 00 c8 44 	addic   r0,r0,-14268
 1802ff8:	7c 0b 03 78 	mr      r11,r0
 1802ffc:	80 0b 00 10 	lwz     r0,16(r11)
 1803000:	7f 89 00 00 	cmpw    cr7,r9,r0
 1803004:	40 9e 01 24 	bne-    cr7,1803128 <main+0x2f08>
 1803008:	3c 00 01 82 	lis     r0,386
 180300c:	30 00 c8 44 	addic   r0,r0,-14268
 1803010:	7c 09 03 78 	mr      r9,r0
 1803014:	80 09 00 00 	lwz     r0,0(r9)
 1803018:	90 1f 04 78 	stw     r0,1144(r31)
 180301c:	3c 00 01 82 	lis     r0,386
 1803020:	30 00 c8 44 	addic   r0,r0,-14268
 1803024:	7c 0b 03 78 	mr      r11,r0
 1803028:	80 0b 00 04 	lwz     r0,4(r11)
 180302c:	90 1f 04 74 	stw     r0,1140(r31)
 1803030:	81 3f 04 74 	lwz     r9,1140(r31)
 1803034:	80 1f 04 78 	lwz     r0,1144(r31)
 1803038:	7f 89 00 00 	cmpw    cr7,r9,r0
 180303c:	40 9d 00 ec 	ble-    cr7,1803128 <main+0x2f08>
 1803040:	3c 00 01 82 	lis     r0,386
 1803044:	30 00 c8 44 	addic   r0,r0,-14268
 1803048:	7c 0b 03 78 	mr      r11,r0
 180304c:	81 2b 00 08 	lwz     r9,8(r11)
 1803050:	3c 00 01 82 	lis     r0,386
 1803054:	30 00 c8 44 	addic   r0,r0,-14268
 1803058:	7c 0b 03 78 	mr      r11,r0
 180305c:	91 2b 00 00 	stw     r9,0(r11)
 1803060:	3c 00 01 82 	lis     r0,386
 1803064:	7c 09 03 78 	mr      r9,r0
 1803068:	80 09 c7 f8 	lwz     r0,-14344(r9)
 180306c:	31 20 ff fc 	addic   r9,r0,-4
 1803070:	3c 00 01 82 	lis     r0,386
 1803074:	7c 0b 03 78 	mr      r11,r0
 1803078:	91 2b c7 f8 	stw     r9,-14344(r11)
 180307c:	81 3f 04 78 	lwz     r9,1144(r31)
 1803080:	80 1f 04 74 	lwz     r0,1140(r31)
 1803084:	7c 09 02 14 	add     r0,r9,r0
 1803088:	90 1f 04 70 	stw     r0,1136(r31)
 180308c:	3c 00 01 82 	lis     r0,386
 1803090:	7c 09 03 78 	mr      r9,r0
 1803094:	80 09 c7 fc 	lwz     r0,-14340(r9)
 1803098:	3d 20 01 82 	lis     r9,386
 180309c:	39 29 c8 20 	addi    r9,r9,-14304
 18030a0:	54 00 10 3a 	rlwinm  r0,r0,2,0,29
 18030a4:	7c 09 02 14 	add     r0,r9,r0
 18030a8:	81 3f 04 78 	lwz     r9,1144(r31)
 18030ac:	7c 0b 03 78 	mr      r11,r0
 18030b0:	91 2b 00 00 	stw     r9,0(r11)
 18030b4:	3c 00 01 82 	lis     r0,386
 18030b8:	7c 09 03 78 	mr      r9,r0
 18030bc:	80 09 c7 fc 	lwz     r0,-14340(r9)
 18030c0:	30 00 00 01 	addic   r0,r0,1
 18030c4:	3d 20 01 82 	lis     r9,386
 18030c8:	39 29 c8 20 	addi    r9,r9,-14304
 18030cc:	54 00 10 3a 	rlwinm  r0,r0,2,0,29
 18030d0:	7c 09 02 14 	add     r0,r9,r0
 18030d4:	81 3f 04 74 	lwz     r9,1140(r31)
 18030d8:	7c 0b 03 78 	mr      r11,r0
 18030dc:	91 2b 00 00 	stw     r9,0(r11)
 18030e0:	3c 00 01 82 	lis     r0,386
 18030e4:	7c 09 03 78 	mr      r9,r0
 18030e8:	80 09 c7 fc 	lwz     r0,-14340(r9)
 18030ec:	30 00 00 02 	addic   r0,r0,2
 18030f0:	3d 20 01 82 	lis     r9,386
 18030f4:	39 29 c8 20 	addi    r9,r9,-14304
 18030f8:	54 00 10 3a 	rlwinm  r0,r0,2,0,29
 18030fc:	7c 09 02 14 	add     r0,r9,r0
 1803100:	81 3f 04 70 	lwz     r9,1136(r31)
 1803104:	7c 0b 03 78 	mr      r11,r0
 1803108:	91 2b 00 00 	stw     r9,0(r11)
 180310c:	3c 00 01 82 	lis     r0,386
 1803110:	7c 09 03 78 	mr      r9,r0
 1803114:	80 09 c7 fc 	lwz     r0,-14340(r9)
 1803118:	31 20 00 03 	addic   r9,r0,3
 180311c:	3c 00 01 82 	lis     r0,386
 1803120:	7c 0b 03 78 	mr      r11,r0
 1803124:	91 2b c7 fc 	stw     r9,-14340(r11)
 1803128:	3c 00 01 82 	lis     r0,386
 180312c:	7c 09 03 78 	mr      r9,r0
 1803130:	80 09 c7 f8 	lwz     r0,-14344(r9)
 1803134:	2f 80 00 04 	cmpwi   cr7,r0,4
 1803138:	40 9d 01 8c 	ble-    cr7,18032c4 <main+0x30a4>
 180313c:	3c 00 01 82 	lis     r0,386
 1803140:	7c 0b 03 78 	mr      r11,r0
 1803144:	80 0b c7 fc 	lwz     r0,-14340(r11)
 1803148:	30 00 00 03 	addic   r0,r0,3
 180314c:	2f 80 00 06 	cmpwi   cr7,r0,6
 1803150:	41 9d 01 74 	bgt-    cr7,18032c4 <main+0x30a4>
 1803154:	3c 00 01 82 	lis     r0,386
 1803158:	30 00 c8 44 	addic   r0,r0,-14268
 180315c:	7c 0b 03 78 	mr      r11,r0
 1803160:	81 2b 00 04 	lwz     r9,4(r11)
 1803164:	3c 00 01 82 	lis     r0,386
 1803168:	30 00 c8 44 	addic   r0,r0,-14268
 180316c:	7c 0b 03 78 	mr      r11,r0
 1803170:	80 0b 00 10 	lwz     r0,16(r11)
 1803174:	7f 89 00 00 	cmpw    cr7,r9,r0
 1803178:	40 9e 01 4c 	bne-    cr7,18032c4 <main+0x30a4>
 180317c:	3c 00 01 82 	lis     r0,386
 1803180:	30 00 c8 44 	addic   r0,r0,-14268
 1803184:	7c 0b 03 78 	mr      r11,r0
 1803188:	81 2b 00 04 	lwz     r9,4(r11)
 180318c:	3c 00 01 82 	lis     r0,386
 1803190:	30 00 c8 44 	addic   r0,r0,-14268
 1803194:	7c 0b 03 78 	mr      r11,r0
 1803198:	80 0b 00 08 	lwz     r0,8(r11)
 180319c:	7f 89 00 00 	cmpw    cr7,r9,r0
 18031a0:	40 9e 01 24 	bne-    cr7,18032c4 <main+0x30a4>
 18031a4:	3c 00 01 82 	lis     r0,386
 18031a8:	30 00 c8 44 	addic   r0,r0,-14268
 18031ac:	7c 09 03 78 	mr      r9,r0
 18031b0:	80 09 00 00 	lwz     r0,0(r9)
 18031b4:	90 1f 04 6c 	stw     r0,1132(r31)
 18031b8:	3c 00 01 82 	lis     r0,386
 18031bc:	30 00 c8 44 	addic   r0,r0,-14268
 18031c0:	7c 0b 03 78 	mr      r11,r0
 18031c4:	80 0b 00 04 	lwz     r0,4(r11)
 18031c8:	90 1f 04 68 	stw     r0,1128(r31)
 18031cc:	81 3f 04 68 	lwz     r9,1128(r31)
 18031d0:	80 1f 04 6c 	lwz     r0,1132(r31)
 18031d4:	7f 89 00 00 	cmpw    cr7,r9,r0
 18031d8:	40 9d 00 ec 	ble-    cr7,18032c4 <main+0x30a4>
 18031dc:	3c 00 01 82 	lis     r0,386
 18031e0:	30 00 c8 44 	addic   r0,r0,-14268
 18031e4:	7c 0b 03 78 	mr      r11,r0
 18031e8:	81 2b 00 0c 	lwz     r9,12(r11)
 18031ec:	3c 00 01 82 	lis     r0,386
 18031f0:	30 00 c8 44 	addic   r0,r0,-14268
 18031f4:	7c 0b 03 78 	mr      r11,r0
 18031f8:	91 2b 00 00 	stw     r9,0(r11)
 18031fc:	3c 00 01 82 	lis     r0,386
 1803200:	7c 09 03 78 	mr      r9,r0
 1803204:	80 09 c7 f8 	lwz     r0,-14344(r9)
 1803208:	31 20 ff fc 	addic   r9,r0,-4
 180320c:	3c 00 01 82 	lis     r0,386
 1803210:	7c 0b 03 78 	mr      r11,r0
 1803214:	91 2b c7 f8 	stw     r9,-14344(r11)
 1803218:	81 3f 04 6c 	lwz     r9,1132(r31)
 180321c:	80 1f 04 68 	lwz     r0,1128(r31)
 1803220:	7c 09 02 14 	add     r0,r9,r0
 1803224:	90 1f 04 64 	stw     r0,1124(r31)
 1803228:	3c 00 01 82 	lis     r0,386
 180322c:	7c 09 03 78 	mr      r9,r0
 1803230:	80 09 c7 fc 	lwz     r0,-14340(r9)
 1803234:	3d 20 01 82 	lis     r9,386
 1803238:	39 29 c8 20 	addi    r9,r9,-14304
 180323c:	54 00 10 3a 	rlwinm  r0,r0,2,0,29
 1803240:	7c 09 02 14 	add     r0,r9,r0
 1803244:	81 3f 04 6c 	lwz     r9,1132(r31)
 1803248:	7c 0b 03 78 	mr      r11,r0
 180324c:	91 2b 00 00 	stw     r9,0(r11)
 1803250:	3c 00 01 82 	lis     r0,386
 1803254:	7c 09 03 78 	mr      r9,r0
 1803258:	80 09 c7 fc 	lwz     r0,-14340(r9)
 180325c:	30 00 00 01 	addic   r0,r0,1
 1803260:	3d 20 01 82 	lis     r9,386
 1803264:	39 29 c8 20 	addi    r9,r9,-14304
 1803268:	54 00 10 3a 	rlwinm  r0,r0,2,0,29
 180326c:	7c 09 02 14 	add     r0,r9,r0
 1803270:	81 3f 04 68 	lwz     r9,1128(r31)
 1803274:	7c 0b 03 78 	mr      r11,r0
 1803278:	91 2b 00 00 	stw     r9,0(r11)
 180327c:	3c 00 01 82 	lis     r0,386
 1803280:	7c 09 03 78 	mr      r9,r0
 1803284:	80 09 c7 fc 	lwz     r0,-14340(r9)
 1803288:	30 00 00 02 	addic   r0,r0,2
 180328c:	3d 20 01 82 	lis     r9,386
 1803290:	39 29 c8 20 	addi    r9,r9,-14304
 1803294:	54 00 10 3a 	rlwinm  r0,r0,2,0,29
 1803298:	7c 09 02 14 	add     r0,r9,r0
 180329c:	81 3f 04 64 	lwz     r9,1124(r31)
 18032a0:	7c 0b 03 78 	mr      r11,r0
 18032a4:	91 2b 00 00 	stw     r9,0(r11)
 18032a8:	3c 00 01 82 	lis     r0,386
 18032ac:	7c 09 03 78 	mr      r9,r0
 18032b0:	80 09 c7 fc 	lwz     r0,-14340(r9)
 18032b4:	31 20 00 03 	addic   r9,r0,3
 18032b8:	3c 00 01 82 	lis     r0,386
 18032bc:	7c 0b 03 78 	mr      r11,r0
 18032c0:	91 2b c7 fc 	stw     r9,-14340(r11)
 18032c4:	3c 00 01 82 	lis     r0,386
 18032c8:	7c 09 03 78 	mr      r9,r0
 18032cc:	80 09 c7 f8 	lwz     r0,-14344(r9)
 18032d0:	2f 80 00 04 	cmpwi   cr7,r0,4
 18032d4:	40 9d 01 8c 	ble-    cr7,1803460 <main+0x3240>
 18032d8:	3c 00 01 82 	lis     r0,386
 18032dc:	7c 0b 03 78 	mr      r11,r0
 18032e0:	80 0b c7 fc 	lwz     r0,-14340(r11)
 18032e4:	30 00 00 03 	addic   r0,r0,3
 18032e8:	2f 80 00 06 	cmpwi   cr7,r0,6
 18032ec:	41 9d 01 74 	bgt-    cr7,1803460 <main+0x3240>
 18032f0:	3c 00 01 82 	lis     r0,386
 18032f4:	30 00 c8 44 	addic   r0,r0,-14268
 18032f8:	7c 0b 03 78 	mr      r11,r0
 18032fc:	81 2b 00 04 	lwz     r9,4(r11)
 1803300:	3c 00 01 82 	lis     r0,386
 1803304:	30 00 c8 44 	addic   r0,r0,-14268
 1803308:	7c 0b 03 78 	mr      r11,r0
 180330c:	80 0b 00 10 	lwz     r0,16(r11)
 1803310:	7f 89 00 00 	cmpw    cr7,r9,r0
 1803314:	40 9e 01 4c 	bne-    cr7,1803460 <main+0x3240>
 1803318:	3c 00 01 82 	lis     r0,386
 180331c:	30 00 c8 44 	addic   r0,r0,-14268
 1803320:	7c 0b 03 78 	mr      r11,r0
 1803324:	81 2b 00 04 	lwz     r9,4(r11)
 1803328:	3c 00 01 82 	lis     r0,386
 180332c:	30 00 c8 44 	addic   r0,r0,-14268
 1803330:	7c 0b 03 78 	mr      r11,r0
 1803334:	80 0b 00 0c 	lwz     r0,12(r11)
 1803338:	7f 89 00 00 	cmpw    cr7,r9,r0
 180333c:	40 9e 01 24 	bne-    cr7,1803460 <main+0x3240>
 1803340:	3c 00 01 82 	lis     r0,386
 1803344:	30 00 c8 44 	addic   r0,r0,-14268
 1803348:	7c 09 03 78 	mr      r9,r0
 180334c:	80 09 00 00 	lwz     r0,0(r9)
 1803350:	90 1f 04 60 	stw     r0,1120(r31)
 1803354:	3c 00 01 82 	lis     r0,386
 1803358:	30 00 c8 44 	addic   r0,r0,-14268
 180335c:	7c 0b 03 78 	mr      r11,r0
 1803360:	80 0b 00 04 	lwz     r0,4(r11)
 1803364:	90 1f 04 5c 	stw     r0,1116(r31)
 1803368:	81 3f 04 5c 	lwz     r9,1116(r31)
 180336c:	80 1f 04 60 	lwz     r0,1120(r31)
 1803370:	7f 89 00 00 	cmpw    cr7,r9,r0
 1803374:	40 9d 00 ec 	ble-    cr7,1803460 <main+0x3240>
 1803378:	3c 00 01 82 	lis     r0,386
 180337c:	30 00 c8 44 	addic   r0,r0,-14268
 1803380:	7c 0b 03 78 	mr      r11,r0
 1803384:	81 2b 00 08 	lwz     r9,8(r11)
 1803388:	3c 00 01 82 	lis     r0,386
 180338c:	30 00 c8 44 	addic   r0,r0,-14268
 1803390:	7c 0b 03 78 	mr      r11,r0
 1803394:	91 2b 00 00 	stw     r9,0(r11)
 1803398:	3c 00 01 82 	lis     r0,386
 180339c:	7c 09 03 78 	mr      r9,r0
 18033a0:	80 09 c7 f8 	lwz     r0,-14344(r9)
 18033a4:	31 20 ff fc 	addic   r9,r0,-4
 18033a8:	3c 00 01 82 	lis     r0,386
 18033ac:	7c 0b 03 78 	mr      r11,r0
 18033b0:	91 2b c7 f8 	stw     r9,-14344(r11)
 18033b4:	81 3f 04 60 	lwz     r9,1120(r31)
 18033b8:	80 1f 04 5c 	lwz     r0,1116(r31)
 18033bc:	7c 09 02 14 	add     r0,r9,r0
 18033c0:	90 1f 04 58 	stw     r0,1112(r31)
 18033c4:	3c 00 01 82 	lis     r0,386
 18033c8:	7c 09 03 78 	mr      r9,r0
 18033cc:	80 09 c7 fc 	lwz     r0,-14340(r9)
 18033d0:	3d 20 01 82 	lis     r9,386
 18033d4:	39 29 c8 20 	addi    r9,r9,-14304
 18033d8:	54 00 10 3a 	rlwinm  r0,r0,2,0,29
 18033dc:	7c 09 02 14 	add     r0,r9,r0
 18033e0:	81 3f 04 60 	lwz     r9,1120(r31)
 18033e4:	7c 0b 03 78 	mr      r11,r0
 18033e8:	91 2b 00 00 	stw     r9,0(r11)
 18033ec:	3c 00 01 82 	lis     r0,386
 18033f0:	7c 09 03 78 	mr      r9,r0
 18033f4:	80 09 c7 fc 	lwz     r0,-14340(r9)
 18033f8:	30 00 00 01 	addic   r0,r0,1
 18033fc:	3d 20 01 82 	lis     r9,386
 1803400:	39 29 c8 20 	addi    r9,r9,-14304
 1803404:	54 00 10 3a 	rlwinm  r0,r0,2,0,29
 1803408:	7c 09 02 14 	add     r0,r9,r0
 180340c:	81 3f 04 5c 	lwz     r9,1116(r31)
 1803410:	7c 0b 03 78 	mr      r11,r0
 1803414:	91 2b 00 00 	stw     r9,0(r11)
 1803418:	3c 00 01 82 	lis     r0,386
 180341c:	7c 09 03 78 	mr      r9,r0
 1803420:	80 09 c7 fc 	lwz     r0,-14340(r9)
 1803424:	30 00 00 02 	addic   r0,r0,2
 1803428:	3d 20 01 82 	lis     r9,386
 180342c:	39 29 c8 20 	addi    r9,r9,-14304
 1803430:	54 00 10 3a 	rlwinm  r0,r0,2,0,29
 1803434:	7c 09 02 14 	add     r0,r9,r0
 1803438:	81 3f 04 58 	lwz     r9,1112(r31)
 180343c:	7c 0b 03 78 	mr      r11,r0
 1803440:	91 2b 00 00 	stw     r9,0(r11)
 1803444:	3c 00 01 82 	lis     r0,386
 1803448:	7c 09 03 78 	mr      r9,r0
 180344c:	80 09 c7 fc 	lwz     r0,-14340(r9)
 1803450:	31 20 00 03 	addic   r9,r0,3
 1803454:	3c 00 01 82 	lis     r0,386
 1803458:	7c 0b 03 78 	mr      r11,r0
 180345c:	91 2b c7 fc 	stw     r9,-14340(r11)
 1803460:	3c 00 01 82 	lis     r0,386
 1803464:	7c 09 03 78 	mr      r9,r0
 1803468:	80 09 c7 f8 	lwz     r0,-14344(r9)
 180346c:	2f 80 00 04 	cmpwi   cr7,r0,4
 1803470:	40 9d 01 8c 	ble-    cr7,18035fc <main+0x33dc>
 1803474:	3c 00 01 82 	lis     r0,386
 1803478:	7c 0b 03 78 	mr      r11,r0
 180347c:	80 0b c7 fc 	lwz     r0,-14340(r11)
 1803480:	30 00 00 03 	addic   r0,r0,3
 1803484:	2f 80 00 06 	cmpwi   cr7,r0,6
 1803488:	41 9d 01 74 	bgt-    cr7,18035fc <main+0x33dc>
 180348c:	3c 00 01 82 	lis     r0,386
 1803490:	30 00 c8 44 	addic   r0,r0,-14268
 1803494:	7c 0b 03 78 	mr      r11,r0
 1803498:	81 2b 00 08 	lwz     r9,8(r11)
 180349c:	3c 00 01 82 	lis     r0,386
 18034a0:	30 00 c8 44 	addic   r0,r0,-14268
 18034a4:	7c 0b 03 78 	mr      r11,r0
 18034a8:	80 0b 00 04 	lwz     r0,4(r11)
 18034ac:	7f 89 00 00 	cmpw    cr7,r9,r0
 18034b0:	40 9e 01 4c 	bne-    cr7,18035fc <main+0x33dc>
 18034b4:	3c 00 01 82 	lis     r0,386
 18034b8:	30 00 c8 44 	addic   r0,r0,-14268
 18034bc:	7c 0b 03 78 	mr      r11,r0
 18034c0:	81 2b 00 08 	lwz     r9,8(r11)
 18034c4:	3c 00 01 82 	lis     r0,386
 18034c8:	30 00 c8 44 	addic   r0,r0,-14268
 18034cc:	7c 0b 03 78 	mr      r11,r0
 18034d0:	80 0b 00 10 	lwz     r0,16(r11)
 18034d4:	7f 89 00 00 	cmpw    cr7,r9,r0
 18034d8:	40 9e 01 24 	bne-    cr7,18035fc <main+0x33dc>
 18034dc:	3c 00 01 82 	lis     r0,386
 18034e0:	30 00 c8 44 	addic   r0,r0,-14268
 18034e4:	7c 09 03 78 	mr      r9,r0
 18034e8:	80 09 00 00 	lwz     r0,0(r9)
 18034ec:	90 1f 04 54 	stw     r0,1108(r31)
 18034f0:	3c 00 01 82 	lis     r0,386
 18034f4:	30 00 c8 44 	addic   r0,r0,-14268
 18034f8:	7c 0b 03 78 	mr      r11,r0
 18034fc:	80 0b 00 08 	lwz     r0,8(r11)
 1803500:	90 1f 04 50 	stw     r0,1104(r31)
 1803504:	81 3f 04 50 	lwz     r9,1104(r31)
 1803508:	80 1f 04 54 	lwz     r0,1108(r31)
 180350c:	7f 89 00 00 	cmpw    cr7,r9,r0
 1803510:	40 9d 00 ec 	ble-    cr7,18035fc <main+0x33dc>
 1803514:	3c 00 01 82 	lis     r0,386
 1803518:	30 00 c8 44 	addic   r0,r0,-14268
 180351c:	7c 0b 03 78 	mr      r11,r0
 1803520:	81 2b 00 0c 	lwz     r9,12(r11)
 1803524:	3c 00 01 82 	lis     r0,386
 1803528:	30 00 c8 44 	addic   r0,r0,-14268
 180352c:	7c 0b 03 78 	mr      r11,r0
 1803530:	91 2b 00 00 	stw     r9,0(r11)
 1803534:	3c 00 01 82 	lis     r0,386
 1803538:	7c 09 03 78 	mr      r9,r0
 180353c:	80 09 c7 f8 	lwz     r0,-14344(r9)
 1803540:	31 20 ff fc 	addic   r9,r0,-4
 1803544:	3c 00 01 82 	lis     r0,386
 1803548:	7c 0b 03 78 	mr      r11,r0
 180354c:	91 2b c7 f8 	stw     r9,-14344(r11)
 1803550:	81 3f 04 54 	lwz     r9,1108(r31)
 1803554:	80 1f 04 50 	lwz     r0,1104(r31)
 1803558:	7c 09 02 14 	add     r0,r9,r0
 180355c:	90 1f 04 4c 	stw     r0,1100(r31)
 1803560:	3c 00 01 82 	lis     r0,386
 1803564:	7c 09 03 78 	mr      r9,r0
 1803568:	80 09 c7 fc 	lwz     r0,-14340(r9)
 180356c:	3d 20 01 82 	lis     r9,386
 1803570:	39 29 c8 20 	addi    r9,r9,-14304
 1803574:	54 00 10 3a 	rlwinm  r0,r0,2,0,29
 1803578:	7c 09 02 14 	add     r0,r9,r0
 180357c:	81 3f 04 54 	lwz     r9,1108(r31)
 1803580:	7c 0b 03 78 	mr      r11,r0
 1803584:	91 2b 00 00 	stw     r9,0(r11)
 1803588:	3c 00 01 82 	lis     r0,386
 180358c:	7c 09 03 78 	mr      r9,r0
 1803590:	80 09 c7 fc 	lwz     r0,-14340(r9)
 1803594:	30 00 00 01 	addic   r0,r0,1
 1803598:	3d 20 01 82 	lis     r9,386
 180359c:	39 29 c8 20 	addi    r9,r9,-14304
 18035a0:	54 00 10 3a 	rlwinm  r0,r0,2,0,29
 18035a4:	7c 09 02 14 	add     r0,r9,r0
 18035a8:	81 3f 04 50 	lwz     r9,1104(r31)
 18035ac:	7c 0b 03 78 	mr      r11,r0
 18035b0:	91 2b 00 00 	stw     r9,0(r11)
 18035b4:	3c 00 01 82 	lis     r0,386
 18035b8:	7c 09 03 78 	mr      r9,r0
 18035bc:	80 09 c7 fc 	lwz     r0,-14340(r9)
 18035c0:	30 00 00 02 	addic   r0,r0,2
 18035c4:	3d 20 01 82 	lis     r9,386
 18035c8:	39 29 c8 20 	addi    r9,r9,-14304
 18035cc:	54 00 10 3a 	rlwinm  r0,r0,2,0,29
 18035d0:	7c 09 02 14 	add     r0,r9,r0
 18035d4:	81 3f 04 4c 	lwz     r9,1100(r31)
 18035d8:	7c 0b 03 78 	mr      r11,r0
 18035dc:	91 2b 00 00 	stw     r9,0(r11)
 18035e0:	3c 00 01 82 	lis     r0,386
 18035e4:	7c 09 03 78 	mr      r9,r0
 18035e8:	80 09 c7 fc 	lwz     r0,-14340(r9)
 18035ec:	31 20 00 03 	addic   r9,r0,3
 18035f0:	3c 00 01 82 	lis     r0,386
 18035f4:	7c 0b 03 78 	mr      r11,r0
 18035f8:	91 2b c7 fc 	stw     r9,-14340(r11)
 18035fc:	3c 00 01 82 	lis     r0,386
 1803600:	7c 09 03 78 	mr      r9,r0
 1803604:	80 09 c7 f8 	lwz     r0,-14344(r9)
 1803608:	2f 80 00 04 	cmpwi   cr7,r0,4
 180360c:	40 9d 01 8c 	ble-    cr7,1803798 <main+0x3578>
 1803610:	3c 00 01 82 	lis     r0,386
 1803614:	7c 0b 03 78 	mr      r11,r0
 1803618:	80 0b c7 fc 	lwz     r0,-14340(r11)
 180361c:	30 00 00 03 	addic   r0,r0,3
 1803620:	2f 80 00 06 	cmpwi   cr7,r0,6
 1803624:	41 9d 01 74 	bgt-    cr7,1803798 <main+0x3578>
 1803628:	3c 00 01 82 	lis     r0,386
 180362c:	30 00 c8 44 	addic   r0,r0,-14268
 1803630:	7c 0b 03 78 	mr      r11,r0
 1803634:	81 2b 00 08 	lwz     r9,8(r11)
 1803638:	3c 00 01 82 	lis     r0,386
 180363c:	30 00 c8 44 	addic   r0,r0,-14268
 1803640:	7c 0b 03 78 	mr      r11,r0
 1803644:	80 0b 00 0c 	lwz     r0,12(r11)
 1803648:	7f 89 00 00 	cmpw    cr7,r9,r0
 180364c:	40 9e 01 4c 	bne-    cr7,1803798 <main+0x3578>
 1803650:	3c 00 01 82 	lis     r0,386
 1803654:	30 00 c8 44 	addic   r0,r0,-14268
 1803658:	7c 0b 03 78 	mr      r11,r0
 180365c:	81 2b 00 08 	lwz     r9,8(r11)
 1803660:	3c 00 01 82 	lis     r0,386
 1803664:	30 00 c8 44 	addic   r0,r0,-14268
 1803668:	7c 0b 03 78 	mr      r11,r0
 180366c:	80 0b 00 10 	lwz     r0,16(r11)
 1803670:	7f 89 00 00 	cmpw    cr7,r9,r0
 1803674:	40 9e 01 24 	bne-    cr7,1803798 <main+0x3578>
 1803678:	3c 00 01 82 	lis     r0,386
 180367c:	30 00 c8 44 	addic   r0,r0,-14268
 1803680:	7c 09 03 78 	mr      r9,r0
 1803684:	80 09 00 00 	lwz     r0,0(r9)
 1803688:	90 1f 04 48 	stw     r0,1096(r31)
 180368c:	3c 00 01 82 	lis     r0,386
 1803690:	30 00 c8 44 	addic   r0,r0,-14268
 1803694:	7c 0b 03 78 	mr      r11,r0
 1803698:	80 0b 00 08 	lwz     r0,8(r11)
 180369c:	90 1f 04 44 	stw     r0,1092(r31)
 18036a0:	81 3f 04 44 	lwz     r9,1092(r31)
 18036a4:	80 1f 04 48 	lwz     r0,1096(r31)
 18036a8:	7f 89 00 00 	cmpw    cr7,r9,r0
 18036ac:	40 9d 00 ec 	ble-    cr7,1803798 <main+0x3578>
 18036b0:	3c 00 01 82 	lis     r0,386
 18036b4:	30 00 c8 44 	addic   r0,r0,-14268
 18036b8:	7c 0b 03 78 	mr      r11,r0
 18036bc:	81 2b 00 04 	lwz     r9,4(r11)
 18036c0:	3c 00 01 82 	lis     r0,386
 18036c4:	30 00 c8 44 	addic   r0,r0,-14268
 18036c8:	7c 0b 03 78 	mr      r11,r0
 18036cc:	91 2b 00 00 	stw     r9,0(r11)
 18036d0:	3c 00 01 82 	lis     r0,386
 18036d4:	7c 09 03 78 	mr      r9,r0
 18036d8:	80 09 c7 f8 	lwz     r0,-14344(r9)
 18036dc:	31 20 ff fc 	addic   r9,r0,-4
 18036e0:	3c 00 01 82 	lis     r0,386
 18036e4:	7c 0b 03 78 	mr      r11,r0
 18036e8:	91 2b c7 f8 	stw     r9,-14344(r11)
 18036ec:	81 3f 04 48 	lwz     r9,1096(r31)
 18036f0:	80 1f 04 44 	lwz     r0,1092(r31)
 18036f4:	7c 09 02 14 	add     r0,r9,r0
 18036f8:	90 1f 04 40 	stw     r0,1088(r31)
 18036fc:	3c 00 01 82 	lis     r0,386
 1803700:	7c 09 03 78 	mr      r9,r0
 1803704:	80 09 c7 fc 	lwz     r0,-14340(r9)
 1803708:	3d 20 01 82 	lis     r9,386
 180370c:	39 29 c8 20 	addi    r9,r9,-14304
 1803710:	54 00 10 3a 	rlwinm  r0,r0,2,0,29
 1803714:	7c 09 02 14 	add     r0,r9,r0
 1803718:	81 3f 04 48 	lwz     r9,1096(r31)
 180371c:	7c 0b 03 78 	mr      r11,r0
 1803720:	91 2b 00 00 	stw     r9,0(r11)
 1803724:	3c 00 01 82 	lis     r0,386
 1803728:	7c 09 03 78 	mr      r9,r0
 180372c:	80 09 c7 fc 	lwz     r0,-14340(r9)
 1803730:	30 00 00 01 	addic   r0,r0,1
 1803734:	3d 20 01 82 	lis     r9,386
 1803738:	39 29 c8 20 	addi    r9,r9,-14304
 180373c:	54 00 10 3a 	rlwinm  r0,r0,2,0,29
 1803740:	7c 09 02 14 	add     r0,r9,r0
 1803744:	81 3f 04 44 	lwz     r9,1092(r31)
 1803748:	7c 0b 03 78 	mr      r11,r0
 180374c:	91 2b 00 00 	stw     r9,0(r11)
 1803750:	3c 00 01 82 	lis     r0,386
 1803754:	7c 09 03 78 	mr      r9,r0
 1803758:	80 09 c7 fc 	lwz     r0,-14340(r9)
 180375c:	30 00 00 02 	addic   r0,r0,2
 1803760:	3d 20 01 82 	lis     r9,386
 1803764:	39 29 c8 20 	addi    r9,r9,-14304
 1803768:	54 00 10 3a 	rlwinm  r0,r0,2,0,29
 180376c:	7c 09 02 14 	add     r0,r9,r0
 1803770:	81 3f 04 40 	lwz     r9,1088(r31)
 1803774:	7c 0b 03 78 	mr      r11,r0
 1803778:	91 2b 00 00 	stw     r9,0(r11)
 180377c:	3c 00 01 82 	lis     r0,386
 1803780:	7c 09 03 78 	mr      r9,r0
 1803784:	80 09 c7 fc 	lwz     r0,-14340(r9)
 1803788:	31 20 00 03 	addic   r9,r0,3
 180378c:	3c 00 01 82 	lis     r0,386
 1803790:	7c 0b 03 78 	mr      r11,r0
 1803794:	91 2b c7 fc 	stw     r9,-14340(r11)
 1803798:	3c 00 01 82 	lis     r0,386
 180379c:	7c 09 03 78 	mr      r9,r0
 18037a0:	80 09 c7 f8 	lwz     r0,-14344(r9)
 18037a4:	2f 80 00 04 	cmpwi   cr7,r0,4
 18037a8:	40 9d 01 8c 	ble-    cr7,1803934 <main+0x3714>
 18037ac:	3c 00 01 82 	lis     r0,386
 18037b0:	7c 0b 03 78 	mr      r11,r0
 18037b4:	80 0b c7 fc 	lwz     r0,-14340(r11)
 18037b8:	30 00 00 03 	addic   r0,r0,3
 18037bc:	2f 80 00 06 	cmpwi   cr7,r0,6
 18037c0:	41 9d 01 74 	bgt-    cr7,1803934 <main+0x3714>
 18037c4:	3c 00 01 82 	lis     r0,386
 18037c8:	30 00 c8 44 	addic   r0,r0,-14268
 18037cc:	7c 0b 03 78 	mr      r11,r0
 18037d0:	81 2b 00 08 	lwz     r9,8(r11)
 18037d4:	3c 00 01 82 	lis     r0,386
 18037d8:	30 00 c8 44 	addic   r0,r0,-14268
 18037dc:	7c 0b 03 78 	mr      r11,r0
 18037e0:	80 0b 00 10 	lwz     r0,16(r11)
 18037e4:	7f 89 00 00 	cmpw    cr7,r9,r0
 18037e8:	40 9e 01 4c 	bne-    cr7,1803934 <main+0x3714>
 18037ec:	3c 00 01 82 	lis     r0,386
 18037f0:	30 00 c8 44 	addic   r0,r0,-14268
 18037f4:	7c 0b 03 78 	mr      r11,r0
 18037f8:	81 2b 00 08 	lwz     r9,8(r11)
 18037fc:	3c 00 01 82 	lis     r0,386
 1803800:	30 00 c8 44 	addic   r0,r0,-14268
 1803804:	7c 0b 03 78 	mr      r11,r0
 1803808:	80 0b 00 04 	lwz     r0,4(r11)
 180380c:	7f 89 00 00 	cmpw    cr7,r9,r0
 1803810:	40 9e 01 24 	bne-    cr7,1803934 <main+0x3714>
 1803814:	3c 00 01 82 	lis     r0,386
 1803818:	30 00 c8 44 	addic   r0,r0,-14268
 180381c:	7c 09 03 78 	mr      r9,r0
 1803820:	80 09 00 00 	lwz     r0,0(r9)
 1803824:	90 1f 04 3c 	stw     r0,1084(r31)
 1803828:	3c 00 01 82 	lis     r0,386
 180382c:	30 00 c8 44 	addic   r0,r0,-14268
 1803830:	7c 0b 03 78 	mr      r11,r0
 1803834:	80 0b 00 08 	lwz     r0,8(r11)
 1803838:	90 1f 04 38 	stw     r0,1080(r31)
 180383c:	81 3f 04 38 	lwz     r9,1080(r31)
 1803840:	80 1f 04 3c 	lwz     r0,1084(r31)
 1803844:	7f 89 00 00 	cmpw    cr7,r9,r0
 1803848:	40 9d 00 ec 	ble-    cr7,1803934 <main+0x3714>
 180384c:	3c 00 01 82 	lis     r0,386
 1803850:	30 00 c8 44 	addic   r0,r0,-14268
 1803854:	7c 0b 03 78 	mr      r11,r0
 1803858:	81 2b 00 0c 	lwz     r9,12(r11)
 180385c:	3c 00 01 82 	lis     r0,386
 1803860:	30 00 c8 44 	addic   r0,r0,-14268
 1803864:	7c 0b 03 78 	mr      r11,r0
 1803868:	91 2b 00 00 	stw     r9,0(r11)
 180386c:	3c 00 01 82 	lis     r0,386
 1803870:	7c 09 03 78 	mr      r9,r0
 1803874:	80 09 c7 f8 	lwz     r0,-14344(r9)
 1803878:	31 20 ff fc 	addic   r9,r0,-4
 180387c:	3c 00 01 82 	lis     r0,386
 1803880:	7c 0b 03 78 	mr      r11,r0
 1803884:	91 2b c7 f8 	stw     r9,-14344(r11)
 1803888:	81 3f 04 3c 	lwz     r9,1084(r31)
 180388c:	80 1f 04 38 	lwz     r0,1080(r31)
 1803890:	7c 09 02 14 	add     r0,r9,r0
 1803894:	90 1f 04 34 	stw     r0,1076(r31)
 1803898:	3c 00 01 82 	lis     r0,386
 180389c:	7c 09 03 78 	mr      r9,r0
 18038a0:	80 09 c7 fc 	lwz     r0,-14340(r9)
 18038a4:	3d 20 01 82 	lis     r9,386
 18038a8:	39 29 c8 20 	addi    r9,r9,-14304
 18038ac:	54 00 10 3a 	rlwinm  r0,r0,2,0,29
 18038b0:	7c 09 02 14 	add     r0,r9,r0
 18038b4:	81 3f 04 3c 	lwz     r9,1084(r31)
 18038b8:	7c 0b 03 78 	mr      r11,r0
 18038bc:	91 2b 00 00 	stw     r9,0(r11)
 18038c0:	3c 00 01 82 	lis     r0,386
 18038c4:	7c 09 03 78 	mr      r9,r0
 18038c8:	80 09 c7 fc 	lwz     r0,-14340(r9)
 18038cc:	30 00 00 01 	addic   r0,r0,1
 18038d0:	3d 20 01 82 	lis     r9,386
 18038d4:	39 29 c8 20 	addi    r9,r9,-14304
 18038d8:	54 00 10 3a 	rlwinm  r0,r0,2,0,29
 18038dc:	7c 09 02 14 	add     r0,r9,r0
 18038e0:	81 3f 04 38 	lwz     r9,1080(r31)
 18038e4:	7c 0b 03 78 	mr      r11,r0
 18038e8:	91 2b 00 00 	stw     r9,0(r11)
 18038ec:	3c 00 01 82 	lis     r0,386
 18038f0:	7c 09 03 78 	mr      r9,r0
 18038f4:	80 09 c7 fc 	lwz     r0,-14340(r9)
 18038f8:	30 00 00 02 	addic   r0,r0,2
 18038fc:	3d 20 01 82 	lis     r9,386
 1803900:	39 29 c8 20 	addi    r9,r9,-14304
 1803904:	54 00 10 3a 	rlwinm  r0,r0,2,0,29
 1803908:	7c 09 02 14 	add     r0,r9,r0
 180390c:	81 3f 04 34 	lwz     r9,1076(r31)
 1803910:	7c 0b 03 78 	mr      r11,r0
 1803914:	91 2b 00 00 	stw     r9,0(r11)
 1803918:	3c 00 01 82 	lis     r0,386
 180391c:	7c 09 03 78 	mr      r9,r0
 1803920:	80 09 c7 fc 	lwz     r0,-14340(r9)
 1803924:	31 20 00 03 	addic   r9,r0,3
 1803928:	3c 00 01 82 	lis     r0,386
 180392c:	7c 0b 03 78 	mr      r11,r0
 1803930:	91 2b c7 fc 	stw     r9,-14340(r11)
 1803934:	3c 00 01 82 	lis     r0,386
 1803938:	7c 09 03 78 	mr      r9,r0
 180393c:	80 09 c7 f8 	lwz     r0,-14344(r9)
 1803940:	2f 80 00 04 	cmpwi   cr7,r0,4
 1803944:	40 9d 01 8c 	ble-    cr7,1803ad0 <main+0x38b0>
 1803948:	3c 00 01 82 	lis     r0,386
 180394c:	7c 0b 03 78 	mr      r11,r0
 1803950:	80 0b c7 fc 	lwz     r0,-14340(r11)
 1803954:	30 00 00 03 	addic   r0,r0,3
 1803958:	2f 80 00 06 	cmpwi   cr7,r0,6
 180395c:	41 9d 01 74 	bgt-    cr7,1803ad0 <main+0x38b0>
 1803960:	3c 00 01 82 	lis     r0,386
 1803964:	30 00 c8 44 	addic   r0,r0,-14268
 1803968:	7c 0b 03 78 	mr      r11,r0
 180396c:	81 2b 00 08 	lwz     r9,8(r11)
 1803970:	3c 00 01 82 	lis     r0,386
 1803974:	30 00 c8 44 	addic   r0,r0,-14268
 1803978:	7c 0b 03 78 	mr      r11,r0
 180397c:	80 0b 00 10 	lwz     r0,16(r11)
 1803980:	7f 89 00 00 	cmpw    cr7,r9,r0
 1803984:	40 9e 01 4c 	bne-    cr7,1803ad0 <main+0x38b0>
 1803988:	3c 00 01 82 	lis     r0,386
 180398c:	30 00 c8 44 	addic   r0,r0,-14268
 1803990:	7c 0b 03 78 	mr      r11,r0
 1803994:	81 2b 00 08 	lwz     r9,8(r11)
 1803998:	3c 00 01 82 	lis     r0,386
 180399c:	30 00 c8 44 	addic   r0,r0,-14268
 18039a0:	7c 0b 03 78 	mr      r11,r0
 18039a4:	80 0b 00 0c 	lwz     r0,12(r11)
 18039a8:	7f 89 00 00 	cmpw    cr7,r9,r0
 18039ac:	40 9e 01 24 	bne-    cr7,1803ad0 <main+0x38b0>
 18039b0:	3c 00 01 82 	lis     r0,386
 18039b4:	30 00 c8 44 	addic   r0,r0,-14268
 18039b8:	7c 09 03 78 	mr      r9,r0
 18039bc:	80 09 00 00 	lwz     r0,0(r9)
 18039c0:	90 1f 04 30 	stw     r0,1072(r31)
 18039c4:	3c 00 01 82 	lis     r0,386
 18039c8:	30 00 c8 44 	addic   r0,r0,-14268
 18039cc:	7c 0b 03 78 	mr      r11,r0
 18039d0:	80 0b 00 08 	lwz     r0,8(r11)
 18039d4:	90 1f 04 2c 	stw     r0,1068(r31)
 18039d8:	81 3f 04 2c 	lwz     r9,1068(r31)
 18039dc:	80 1f 04 30 	lwz     r0,1072(r31)
 18039e0:	7f 89 00 00 	cmpw    cr7,r9,r0
 18039e4:	40 9d 00 ec 	ble-    cr7,1803ad0 <main+0x38b0>
 18039e8:	3c 00 01 82 	lis     r0,386
 18039ec:	30 00 c8 44 	addic   r0,r0,-14268
 18039f0:	7c 0b 03 78 	mr      r11,r0
 18039f4:	81 2b 00 04 	lwz     r9,4(r11)
 18039f8:	3c 00 01 82 	lis     r0,386
 18039fc:	30 00 c8 44 	addic   r0,r0,-14268
 1803a00:	7c 0b 03 78 	mr      r11,r0
 1803a04:	91 2b 00 00 	stw     r9,0(r11)
 1803a08:	3c 00 01 82 	lis     r0,386
 1803a0c:	7c 09 03 78 	mr      r9,r0
 1803a10:	80 09 c7 f8 	lwz     r0,-14344(r9)
 1803a14:	31 20 ff fc 	addic   r9,r0,-4
 1803a18:	3c 00 01 82 	lis     r0,386
 1803a1c:	7c 0b 03 78 	mr      r11,r0
 1803a20:	91 2b c7 f8 	stw     r9,-14344(r11)
 1803a24:	81 3f 04 30 	lwz     r9,1072(r31)
 1803a28:	80 1f 04 2c 	lwz     r0,1068(r31)
 1803a2c:	7c 09 02 14 	add     r0,r9,r0
 1803a30:	90 1f 04 28 	stw     r0,1064(r31)
 1803a34:	3c 00 01 82 	lis     r0,386
 1803a38:	7c 09 03 78 	mr      r9,r0
 1803a3c:	80 09 c7 fc 	lwz     r0,-14340(r9)
 1803a40:	3d 20 01 82 	lis     r9,386
 1803a44:	39 29 c8 20 	addi    r9,r9,-14304
 1803a48:	54 00 10 3a 	rlwinm  r0,r0,2,0,29
 1803a4c:	7c 09 02 14 	add     r0,r9,r0
 1803a50:	81 3f 04 30 	lwz     r9,1072(r31)
 1803a54:	7c 0b 03 78 	mr      r11,r0
 1803a58:	91 2b 00 00 	stw     r9,0(r11)
 1803a5c:	3c 00 01 82 	lis     r0,386
 1803a60:	7c 09 03 78 	mr      r9,r0
 1803a64:	80 09 c7 fc 	lwz     r0,-14340(r9)
 1803a68:	30 00 00 01 	addic   r0,r0,1
 1803a6c:	3d 20 01 82 	lis     r9,386
 1803a70:	39 29 c8 20 	addi    r9,r9,-14304
 1803a74:	54 00 10 3a 	rlwinm  r0,r0,2,0,29
 1803a78:	7c 09 02 14 	add     r0,r9,r0
 1803a7c:	81 3f 04 2c 	lwz     r9,1068(r31)
 1803a80:	7c 0b 03 78 	mr      r11,r0
 1803a84:	91 2b 00 00 	stw     r9,0(r11)
 1803a88:	3c 00 01 82 	lis     r0,386
 1803a8c:	7c 09 03 78 	mr      r9,r0
 1803a90:	80 09 c7 fc 	lwz     r0,-14340(r9)
 1803a94:	30 00 00 02 	addic   r0,r0,2
 1803a98:	3d 20 01 82 	lis     r9,386
 1803a9c:	39 29 c8 20 	addi    r9,r9,-14304
 1803aa0:	54 00 10 3a 	rlwinm  r0,r0,2,0,29
 1803aa4:	7c 09 02 14 	add     r0,r9,r0
 1803aa8:	81 3f 04 28 	lwz     r9,1064(r31)
 1803aac:	7c 0b 03 78 	mr      r11,r0
 1803ab0:	91 2b 00 00 	stw     r9,0(r11)
 1803ab4:	3c 00 01 82 	lis     r0,386
 1803ab8:	7c 09 03 78 	mr      r9,r0
 1803abc:	80 09 c7 fc 	lwz     r0,-14340(r9)
 1803ac0:	31 20 00 03 	addic   r9,r0,3
 1803ac4:	3c 00 01 82 	lis     r0,386
 1803ac8:	7c 0b 03 78 	mr      r11,r0
 1803acc:	91 2b c7 fc 	stw     r9,-14340(r11)
 1803ad0:	3c 00 01 82 	lis     r0,386
 1803ad4:	7c 09 03 78 	mr      r9,r0
 1803ad8:	80 09 c7 f8 	lwz     r0,-14344(r9)
 1803adc:	2f 80 00 04 	cmpwi   cr7,r0,4
 1803ae0:	40 9d 01 8c 	ble-    cr7,1803c6c <main+0x3a4c>
 1803ae4:	3c 00 01 82 	lis     r0,386
 1803ae8:	7c 0b 03 78 	mr      r11,r0
 1803aec:	80 0b c7 fc 	lwz     r0,-14340(r11)
 1803af0:	30 00 00 03 	addic   r0,r0,3
 1803af4:	2f 80 00 06 	cmpwi   cr7,r0,6
 1803af8:	41 9d 01 74 	bgt-    cr7,1803c6c <main+0x3a4c>
 1803afc:	3c 00 01 82 	lis     r0,386
 1803b00:	30 00 c8 44 	addic   r0,r0,-14268
 1803b04:	7c 0b 03 78 	mr      r11,r0
 1803b08:	81 2b 00 0c 	lwz     r9,12(r11)
 1803b0c:	3c 00 01 82 	lis     r0,386
 1803b10:	30 00 c8 44 	addic   r0,r0,-14268
 1803b14:	7c 0b 03 78 	mr      r11,r0
 1803b18:	80 0b 00 04 	lwz     r0,4(r11)
 1803b1c:	7f 89 00 00 	cmpw    cr7,r9,r0
 1803b20:	40 9e 01 4c 	bne-    cr7,1803c6c <main+0x3a4c>
 1803b24:	3c 00 01 82 	lis     r0,386
 1803b28:	30 00 c8 44 	addic   r0,r0,-14268
 1803b2c:	7c 0b 03 78 	mr      r11,r0
 1803b30:	81 2b 00 0c 	lwz     r9,12(r11)
 1803b34:	3c 00 01 82 	lis     r0,386
 1803b38:	30 00 c8 44 	addic   r0,r0,-14268
 1803b3c:	7c 0b 03 78 	mr      r11,r0
 1803b40:	80 0b 00 10 	lwz     r0,16(r11)
 1803b44:	7f 89 00 00 	cmpw    cr7,r9,r0
 1803b48:	40 9e 01 24 	bne-    cr7,1803c6c <main+0x3a4c>
 1803b4c:	3c 00 01 82 	lis     r0,386
 1803b50:	30 00 c8 44 	addic   r0,r0,-14268
 1803b54:	7c 09 03 78 	mr      r9,r0
 1803b58:	80 09 00 00 	lwz     r0,0(r9)
 1803b5c:	90 1f 04 24 	stw     r0,1060(r31)
 1803b60:	3c 00 01 82 	lis     r0,386
 1803b64:	30 00 c8 44 	addic   r0,r0,-14268
 1803b68:	7c 0b 03 78 	mr      r11,r0
 1803b6c:	80 0b 00 0c 	lwz     r0,12(r11)
 1803b70:	90 1f 04 20 	stw     r0,1056(r31)
 1803b74:	81 3f 04 20 	lwz     r9,1056(r31)
 1803b78:	80 1f 04 24 	lwz     r0,1060(r31)
 1803b7c:	7f 89 00 00 	cmpw    cr7,r9,r0
 1803b80:	40 9d 00 ec 	ble-    cr7,1803c6c <main+0x3a4c>
 1803b84:	3c 00 01 82 	lis     r0,386
 1803b88:	30 00 c8 44 	addic   r0,r0,-14268
 1803b8c:	7c 0b 03 78 	mr      r11,r0
 1803b90:	81 2b 00 08 	lwz     r9,8(r11)
 1803b94:	3c 00 01 82 	lis     r0,386
 1803b98:	30 00 c8 44 	addic   r0,r0,-14268
 1803b9c:	7c 0b 03 78 	mr      r11,r0
 1803ba0:	91 2b 00 00 	stw     r9,0(r11)
 1803ba4:	3c 00 01 82 	lis     r0,386
 1803ba8:	7c 09 03 78 	mr      r9,r0
 1803bac:	80 09 c7 f8 	lwz     r0,-14344(r9)
 1803bb0:	31 20 ff fc 	addic   r9,r0,-4
 1803bb4:	3c 00 01 82 	lis     r0,386
 1803bb8:	7c 0b 03 78 	mr      r11,r0
 1803bbc:	91 2b c7 f8 	stw     r9,-14344(r11)
 1803bc0:	81 3f 04 24 	lwz     r9,1060(r31)
 1803bc4:	80 1f 04 20 	lwz     r0,1056(r31)
 1803bc8:	7c 09 02 14 	add     r0,r9,r0
 1803bcc:	90 1f 04 1c 	stw     r0,1052(r31)
 1803bd0:	3c 00 01 82 	lis     r0,386
 1803bd4:	7c 09 03 78 	mr      r9,r0
 1803bd8:	80 09 c7 fc 	lwz     r0,-14340(r9)
 1803bdc:	3d 20 01 82 	lis     r9,386
 1803be0:	39 29 c8 20 	addi    r9,r9,-14304
 1803be4:	54 00 10 3a 	rlwinm  r0,r0,2,0,29
 1803be8:	7c 09 02 14 	add     r0,r9,r0
 1803bec:	81 3f 04 24 	lwz     r9,1060(r31)
 1803bf0:	7c 0b 03 78 	mr      r11,r0
 1803bf4:	91 2b 00 00 	stw     r9,0(r11)
 1803bf8:	3c 00 01 82 	lis     r0,386
 1803bfc:	7c 09 03 78 	mr      r9,r0
 1803c00:	80 09 c7 fc 	lwz     r0,-14340(r9)
 1803c04:	30 00 00 01 	addic   r0,r0,1
 1803c08:	3d 20 01 82 	lis     r9,386
 1803c0c:	39 29 c8 20 	addi    r9,r9,-14304
 1803c10:	54 00 10 3a 	rlwinm  r0,r0,2,0,29
 1803c14:	7c 09 02 14 	add     r0,r9,r0
 1803c18:	81 3f 04 20 	lwz     r9,1056(r31)
 1803c1c:	7c 0b 03 78 	mr      r11,r0
 1803c20:	91 2b 00 00 	stw     r9,0(r11)
 1803c24:	3c 00 01 82 	lis     r0,386
 1803c28:	7c 09 03 78 	mr      r9,r0
 1803c2c:	80 09 c7 fc 	lwz     r0,-14340(r9)
 1803c30:	30 00 00 02 	addic   r0,r0,2
 1803c34:	3d 20 01 82 	lis     r9,386
 1803c38:	39 29 c8 20 	addi    r9,r9,-14304
 1803c3c:	54 00 10 3a 	rlwinm  r0,r0,2,0,29
 1803c40:	7c 09 02 14 	add     r0,r9,r0
 1803c44:	81 3f 04 1c 	lwz     r9,1052(r31)
 1803c48:	7c 0b 03 78 	mr      r11,r0
 1803c4c:	91 2b 00 00 	stw     r9,0(r11)
 1803c50:	3c 00 01 82 	lis     r0,386
 1803c54:	7c 09 03 78 	mr      r9,r0
 1803c58:	80 09 c7 fc 	lwz     r0,-14340(r9)
 1803c5c:	31 20 00 03 	addic   r9,r0,3
 1803c60:	3c 00 01 82 	lis     r0,386
 1803c64:	7c 0b 03 78 	mr      r11,r0
 1803c68:	91 2b c7 fc 	stw     r9,-14340(r11)
 1803c6c:	3c 00 01 82 	lis     r0,386
 1803c70:	7c 09 03 78 	mr      r9,r0
 1803c74:	80 09 c7 f8 	lwz     r0,-14344(r9)
 1803c78:	2f 80 00 04 	cmpwi   cr7,r0,4
 1803c7c:	40 9d 01 8c 	ble-    cr7,1803e08 <main+0x3be8>
 1803c80:	3c 00 01 82 	lis     r0,386
 1803c84:	7c 0b 03 78 	mr      r11,r0
 1803c88:	80 0b c7 fc 	lwz     r0,-14340(r11)
 1803c8c:	30 00 00 03 	addic   r0,r0,3
 1803c90:	2f 80 00 06 	cmpwi   cr7,r0,6
 1803c94:	41 9d 01 74 	bgt-    cr7,1803e08 <main+0x3be8>
 1803c98:	3c 00 01 82 	lis     r0,386
 1803c9c:	30 00 c8 44 	addic   r0,r0,-14268
 1803ca0:	7c 0b 03 78 	mr      r11,r0
 1803ca4:	81 2b 00 0c 	lwz     r9,12(r11)
 1803ca8:	3c 00 01 82 	lis     r0,386
 1803cac:	30 00 c8 44 	addic   r0,r0,-14268
 1803cb0:	7c 0b 03 78 	mr      r11,r0
 1803cb4:	80 0b 00 08 	lwz     r0,8(r11)
 1803cb8:	7f 89 00 00 	cmpw    cr7,r9,r0
 1803cbc:	40 9e 01 4c 	bne-    cr7,1803e08 <main+0x3be8>
 1803cc0:	3c 00 01 82 	lis     r0,386
 1803cc4:	30 00 c8 44 	addic   r0,r0,-14268
 1803cc8:	7c 0b 03 78 	mr      r11,r0
 1803ccc:	81 2b 00 0c 	lwz     r9,12(r11)
 1803cd0:	3c 00 01 82 	lis     r0,386
 1803cd4:	30 00 c8 44 	addic   r0,r0,-14268
 1803cd8:	7c 0b 03 78 	mr      r11,r0
 1803cdc:	80 0b 00 10 	lwz     r0,16(r11)
 1803ce0:	7f 89 00 00 	cmpw    cr7,r9,r0
 1803ce4:	40 9e 01 24 	bne-    cr7,1803e08 <main+0x3be8>
 1803ce8:	3c 00 01 82 	lis     r0,386
 1803cec:	30 00 c8 44 	addic   r0,r0,-14268
 1803cf0:	7c 09 03 78 	mr      r9,r0
 1803cf4:	80 09 00 00 	lwz     r0,0(r9)
 1803cf8:	90 1f 04 18 	stw     r0,1048(r31)
 1803cfc:	3c 00 01 82 	lis     r0,386
 1803d00:	30 00 c8 44 	addic   r0,r0,-14268
 1803d04:	7c 0b 03 78 	mr      r11,r0
 1803d08:	80 0b 00 0c 	lwz     r0,12(r11)
 1803d0c:	90 1f 04 14 	stw     r0,1044(r31)
 1803d10:	81 3f 04 14 	lwz     r9,1044(r31)
 1803d14:	80 1f 04 18 	lwz     r0,1048(r31)
 1803d18:	7f 89 00 00 	cmpw    cr7,r9,r0
 1803d1c:	40 9d 00 ec 	ble-    cr7,1803e08 <main+0x3be8>
 1803d20:	3c 00 01 82 	lis     r0,386
 1803d24:	30 00 c8 44 	addic   r0,r0,-14268
 1803d28:	7c 0b 03 78 	mr      r11,r0
 1803d2c:	81 2b 00 04 	lwz     r9,4(r11)
 1803d30:	3c 00 01 82 	lis     r0,386
 1803d34:	30 00 c8 44 	addic   r0,r0,-14268
 1803d38:	7c 0b 03 78 	mr      r11,r0
 1803d3c:	91 2b 00 00 	stw     r9,0(r11)
 1803d40:	3c 00 01 82 	lis     r0,386
 1803d44:	7c 09 03 78 	mr      r9,r0
 1803d48:	80 09 c7 f8 	lwz     r0,-14344(r9)
 1803d4c:	31 20 ff fc 	addic   r9,r0,-4
 1803d50:	3c 00 01 82 	lis     r0,386
 1803d54:	7c 0b 03 78 	mr      r11,r0
 1803d58:	91 2b c7 f8 	stw     r9,-14344(r11)
 1803d5c:	81 3f 04 18 	lwz     r9,1048(r31)
 1803d60:	80 1f 04 14 	lwz     r0,1044(r31)
 1803d64:	7c 09 02 14 	add     r0,r9,r0
 1803d68:	90 1f 04 10 	stw     r0,1040(r31)
 1803d6c:	3c 00 01 82 	lis     r0,386
 1803d70:	7c 09 03 78 	mr      r9,r0
 1803d74:	80 09 c7 fc 	lwz     r0,-14340(r9)
 1803d78:	3d 20 01 82 	lis     r9,386
 1803d7c:	39 29 c8 20 	addi    r9,r9,-14304
 1803d80:	54 00 10 3a 	rlwinm  r0,r0,2,0,29
 1803d84:	7c 09 02 14 	add     r0,r9,r0
 1803d88:	81 3f 04 18 	lwz     r9,1048(r31)
 1803d8c:	7c 0b 03 78 	mr      r11,r0
 1803d90:	91 2b 00 00 	stw     r9,0(r11)
 1803d94:	3c 00 01 82 	lis     r0,386
 1803d98:	7c 09 03 78 	mr      r9,r0
 1803d9c:	80 09 c7 fc 	lwz     r0,-14340(r9)
 1803da0:	30 00 00 01 	addic   r0,r0,1
 1803da4:	3d 20 01 82 	lis     r9,386
 1803da8:	39 29 c8 20 	addi    r9,r9,-14304
 1803dac:	54 00 10 3a 	rlwinm  r0,r0,2,0,29
 1803db0:	7c 09 02 14 	add     r0,r9,r0
 1803db4:	81 3f 04 14 	lwz     r9,1044(r31)
 1803db8:	7c 0b 03 78 	mr      r11,r0
 1803dbc:	91 2b 00 00 	stw     r9,0(r11)
 1803dc0:	3c 00 01 82 	lis     r0,386
 1803dc4:	7c 09 03 78 	mr      r9,r0
 1803dc8:	80 09 c7 fc 	lwz     r0,-14340(r9)
 1803dcc:	30 00 00 02 	addic   r0,r0,2
 1803dd0:	3d 20 01 82 	lis     r9,386
 1803dd4:	39 29 c8 20 	addi    r9,r9,-14304
 1803dd8:	54 00 10 3a 	rlwinm  r0,r0,2,0,29
 1803ddc:	7c 09 02 14 	add     r0,r9,r0
 1803de0:	81 3f 04 10 	lwz     r9,1040(r31)
 1803de4:	7c 0b 03 78 	mr      r11,r0
 1803de8:	91 2b 00 00 	stw     r9,0(r11)
 1803dec:	3c 00 01 82 	lis     r0,386
 1803df0:	7c 09 03 78 	mr      r9,r0
 1803df4:	80 09 c7 fc 	lwz     r0,-14340(r9)
 1803df8:	31 20 00 03 	addic   r9,r0,3
 1803dfc:	3c 00 01 82 	lis     r0,386
 1803e00:	7c 0b 03 78 	mr      r11,r0
 1803e04:	91 2b c7 fc 	stw     r9,-14340(r11)
 1803e08:	3c 00 01 82 	lis     r0,386
 1803e0c:	7c 09 03 78 	mr      r9,r0
 1803e10:	80 09 c7 f8 	lwz     r0,-14344(r9)
 1803e14:	2f 80 00 04 	cmpwi   cr7,r0,4
 1803e18:	40 9d 01 8c 	ble-    cr7,1803fa4 <main+0x3d84>
 1803e1c:	3c 00 01 82 	lis     r0,386
 1803e20:	7c 0b 03 78 	mr      r11,r0
 1803e24:	80 0b c7 fc 	lwz     r0,-14340(r11)
 1803e28:	30 00 00 03 	addic   r0,r0,3
 1803e2c:	2f 80 00 06 	cmpwi   cr7,r0,6
 1803e30:	41 9d 01 74 	bgt-    cr7,1803fa4 <main+0x3d84>
 1803e34:	3c 00 01 82 	lis     r0,386
 1803e38:	30 00 c8 44 	addic   r0,r0,-14268
 1803e3c:	7c 0b 03 78 	mr      r11,r0
 1803e40:	81 2b 00 0c 	lwz     r9,12(r11)
 1803e44:	3c 00 01 82 	lis     r0,386
 1803e48:	30 00 c8 44 	addic   r0,r0,-14268
 1803e4c:	7c 0b 03 78 	mr      r11,r0
 1803e50:	80 0b 00 10 	lwz     r0,16(r11)
 1803e54:	7f 89 00 00 	cmpw    cr7,r9,r0
 1803e58:	40 9e 01 4c 	bne-    cr7,1803fa4 <main+0x3d84>
 1803e5c:	3c 00 01 82 	lis     r0,386
 1803e60:	30 00 c8 44 	addic   r0,r0,-14268
 1803e64:	7c 0b 03 78 	mr      r11,r0
 1803e68:	81 2b 00 0c 	lwz     r9,12(r11)
 1803e6c:	3c 00 01 82 	lis     r0,386
 1803e70:	30 00 c8 44 	addic   r0,r0,-14268
 1803e74:	7c 0b 03 78 	mr      r11,r0
 1803e78:	80 0b 00 04 	lwz     r0,4(r11)
 1803e7c:	7f 89 00 00 	cmpw    cr7,r9,r0
 1803e80:	40 9e 01 24 	bne-    cr7,1803fa4 <main+0x3d84>
 1803e84:	3c 00 01 82 	lis     r0,386
 1803e88:	30 00 c8 44 	addic   r0,r0,-14268
 1803e8c:	7c 09 03 78 	mr      r9,r0
 1803e90:	80 09 00 00 	lwz     r0,0(r9)
 1803e94:	90 1f 04 0c 	stw     r0,1036(r31)
 1803e98:	3c 00 01 82 	lis     r0,386
 1803e9c:	30 00 c8 44 	addic   r0,r0,-14268
 1803ea0:	7c 0b 03 78 	mr      r11,r0
 1803ea4:	80 0b 00 0c 	lwz     r0,12(r11)
 1803ea8:	90 1f 04 08 	stw     r0,1032(r31)
 1803eac:	81 3f 04 08 	lwz     r9,1032(r31)
 1803eb0:	80 1f 04 0c 	lwz     r0,1036(r31)
 1803eb4:	7f 89 00 00 	cmpw    cr7,r9,r0
 1803eb8:	40 9d 00 ec 	ble-    cr7,1803fa4 <main+0x3d84>
 1803ebc:	3c 00 01 82 	lis     r0,386
 1803ec0:	30 00 c8 44 	addic   r0,r0,-14268
 1803ec4:	7c 0b 03 78 	mr      r11,r0
 1803ec8:	81 2b 00 08 	lwz     r9,8(r11)
 1803ecc:	3c 00 01 82 	lis     r0,386
 1803ed0:	30 00 c8 44 	addic   r0,r0,-14268
 1803ed4:	7c 0b 03 78 	mr      r11,r0
 1803ed8:	91 2b 00 00 	stw     r9,0(r11)
 1803edc:	3c 00 01 82 	lis     r0,386
 1803ee0:	7c 09 03 78 	mr      r9,r0
 1803ee4:	80 09 c7 f8 	lwz     r0,-14344(r9)
 1803ee8:	31 20 ff fc 	addic   r9,r0,-4
 1803eec:	3c 00 01 82 	lis     r0,386
 1803ef0:	7c 0b 03 78 	mr      r11,r0
 1803ef4:	91 2b c7 f8 	stw     r9,-14344(r11)
 1803ef8:	81 3f 04 0c 	lwz     r9,1036(r31)
 1803efc:	80 1f 04 08 	lwz     r0,1032(r31)
 1803f00:	7c 09 02 14 	add     r0,r9,r0
 1803f04:	90 1f 04 04 	stw     r0,1028(r31)
 1803f08:	3c 00 01 82 	lis     r0,386
 1803f0c:	7c 09 03 78 	mr      r9,r0
 1803f10:	80 09 c7 fc 	lwz     r0,-14340(r9)
 1803f14:	3d 20 01 82 	lis     r9,386
 1803f18:	39 29 c8 20 	addi    r9,r9,-14304
 1803f1c:	54 00 10 3a 	rlwinm  r0,r0,2,0,29
 1803f20:	7c 09 02 14 	add     r0,r9,r0
 1803f24:	81 3f 04 0c 	lwz     r9,1036(r31)
 1803f28:	7c 0b 03 78 	mr      r11,r0
 1803f2c:	91 2b 00 00 	stw     r9,0(r11)
 1803f30:	3c 00 01 82 	lis     r0,386
 1803f34:	7c 09 03 78 	mr      r9,r0
 1803f38:	80 09 c7 fc 	lwz     r0,-14340(r9)
 1803f3c:	30 00 00 01 	addic   r0,r0,1
 1803f40:	3d 20 01 82 	lis     r9,386
 1803f44:	39 29 c8 20 	addi    r9,r9,-14304
 1803f48:	54 00 10 3a 	rlwinm  r0,r0,2,0,29
 1803f4c:	7c 09 02 14 	add     r0,r9,r0
 1803f50:	81 3f 04 08 	lwz     r9,1032(r31)
 1803f54:	7c 0b 03 78 	mr      r11,r0
 1803f58:	91 2b 00 00 	stw     r9,0(r11)
 1803f5c:	3c 00 01 82 	lis     r0,386
 1803f60:	7c 09 03 78 	mr      r9,r0
 1803f64:	80 09 c7 fc 	lwz     r0,-14340(r9)
 1803f68:	30 00 00 02 	addic   r0,r0,2
 1803f6c:	3d 20 01 82 	lis     r9,386
 1803f70:	39 29 c8 20 	addi    r9,r9,-14304
 1803f74:	54 00 10 3a 	rlwinm  r0,r0,2,0,29
 1803f78:	7c 09 02 14 	add     r0,r9,r0
 1803f7c:	81 3f 04 04 	lwz     r9,1028(r31)
 1803f80:	7c 0b 03 78 	mr      r11,r0
 1803f84:	91 2b 00 00 	stw     r9,0(r11)
 1803f88:	3c 00 01 82 	lis     r0,386
 1803f8c:	7c 09 03 78 	mr      r9,r0
 1803f90:	80 09 c7 fc 	lwz     r0,-14340(r9)
 1803f94:	31 20 00 03 	addic   r9,r0,3
 1803f98:	3c 00 01 82 	lis     r0,386
 1803f9c:	7c 0b 03 78 	mr      r11,r0
 1803fa0:	91 2b c7 fc 	stw     r9,-14340(r11)
 1803fa4:	3c 00 01 82 	lis     r0,386
 1803fa8:	7c 09 03 78 	mr      r9,r0
 1803fac:	80 09 c7 f8 	lwz     r0,-14344(r9)
 1803fb0:	2f 80 00 04 	cmpwi   cr7,r0,4
 1803fb4:	40 9d 01 8c 	ble-    cr7,1804140 <main+0x3f20>
 1803fb8:	3c 00 01 82 	lis     r0,386
 1803fbc:	7c 0b 03 78 	mr      r11,r0
 1803fc0:	80 0b c7 fc 	lwz     r0,-14340(r11)
 1803fc4:	30 00 00 03 	addic   r0,r0,3
 1803fc8:	2f 80 00 06 	cmpwi   cr7,r0,6
 1803fcc:	41 9d 01 74 	bgt-    cr7,1804140 <main+0x3f20>
 1803fd0:	3c 00 01 82 	lis     r0,386
 1803fd4:	30 00 c8 44 	addic   r0,r0,-14268
 1803fd8:	7c 0b 03 78 	mr      r11,r0
 1803fdc:	81 2b 00 0c 	lwz     r9,12(r11)
 1803fe0:	3c 00 01 82 	lis     r0,386
 1803fe4:	30 00 c8 44 	addic   r0,r0,-14268
 1803fe8:	7c 0b 03 78 	mr      r11,r0
 1803fec:	80 0b 00 10 	lwz     r0,16(r11)
 1803ff0:	7f 89 00 00 	cmpw    cr7,r9,r0
 1803ff4:	40 9e 01 4c 	bne-    cr7,1804140 <main+0x3f20>
 1803ff8:	3c 00 01 82 	lis     r0,386
 1803ffc:	30 00 c8 44 	addic   r0,r0,-14268
 1804000:	7c 0b 03 78 	mr      r11,r0
 1804004:	81 2b 00 0c 	lwz     r9,12(r11)
 1804008:	3c 00 01 82 	lis     r0,386
 180400c:	30 00 c8 44 	addic   r0,r0,-14268
 1804010:	7c 0b 03 78 	mr      r11,r0
 1804014:	80 0b 00 08 	lwz     r0,8(r11)
 1804018:	7f 89 00 00 	cmpw    cr7,r9,r0
 180401c:	40 9e 01 24 	bne-    cr7,1804140 <main+0x3f20>
 1804020:	3c 00 01 82 	lis     r0,386
 1804024:	30 00 c8 44 	addic   r0,r0,-14268
 1804028:	7c 09 03 78 	mr      r9,r0
 180402c:	80 09 00 00 	lwz     r0,0(r9)
 1804030:	90 1f 04 00 	stw     r0,1024(r31)
 1804034:	3c 00 01 82 	lis     r0,386
 1804038:	30 00 c8 44 	addic   r0,r0,-14268
 180403c:	7c 0b 03 78 	mr      r11,r0
 1804040:	80 0b 00 0c 	lwz     r0,12(r11)
 1804044:	90 1f 03 fc 	stw     r0,1020(r31)
 1804048:	81 3f 03 fc 	lwz     r9,1020(r31)
 180404c:	80 1f 04 00 	lwz     r0,1024(r31)
 1804050:	7f 89 00 00 	cmpw    cr7,r9,r0
 1804054:	40 9d 00 ec 	ble-    cr7,1804140 <main+0x3f20>
 1804058:	3c 00 01 82 	lis     r0,386
 180405c:	30 00 c8 44 	addic   r0,r0,-14268
 1804060:	7c 0b 03 78 	mr      r11,r0
 1804064:	81 2b 00 04 	lwz     r9,4(r11)
 1804068:	3c 00 01 82 	lis     r0,386
 180406c:	30 00 c8 44 	addic   r0,r0,-14268
 1804070:	7c 0b 03 78 	mr      r11,r0
 1804074:	91 2b 00 00 	stw     r9,0(r11)
 1804078:	3c 00 01 82 	lis     r0,386
 180407c:	7c 09 03 78 	mr      r9,r0
 1804080:	80 09 c7 f8 	lwz     r0,-14344(r9)
 1804084:	31 20 ff fc 	addic   r9,r0,-4
 1804088:	3c 00 01 82 	lis     r0,386
 180408c:	7c 0b 03 78 	mr      r11,r0
 1804090:	91 2b c7 f8 	stw     r9,-14344(r11)
 1804094:	81 3f 04 00 	lwz     r9,1024(r31)
 1804098:	80 1f 03 fc 	lwz     r0,1020(r31)
 180409c:	7c 09 02 14 	add     r0,r9,r0
 18040a0:	90 1f 03 f8 	stw     r0,1016(r31)
 18040a4:	3c 00 01 82 	lis     r0,386
 18040a8:	7c 09 03 78 	mr      r9,r0
 18040ac:	80 09 c7 fc 	lwz     r0,-14340(r9)
 18040b0:	3d 20 01 82 	lis     r9,386
 18040b4:	39 29 c8 20 	addi    r9,r9,-14304
 18040b8:	54 00 10 3a 	rlwinm  r0,r0,2,0,29
 18040bc:	7c 09 02 14 	add     r0,r9,r0
 18040c0:	81 3f 04 00 	lwz     r9,1024(r31)
 18040c4:	7c 0b 03 78 	mr      r11,r0
 18040c8:	91 2b 00 00 	stw     r9,0(r11)
 18040cc:	3c 00 01 82 	lis     r0,386
 18040d0:	7c 09 03 78 	mr      r9,r0
 18040d4:	80 09 c7 fc 	lwz     r0,-14340(r9)
 18040d8:	30 00 00 01 	addic   r0,r0,1
 18040dc:	3d 20 01 82 	lis     r9,386
 18040e0:	39 29 c8 20 	addi    r9,r9,-14304
 18040e4:	54 00 10 3a 	rlwinm  r0,r0,2,0,29
 18040e8:	7c 09 02 14 	add     r0,r9,r0
 18040ec:	81 3f 03 fc 	lwz     r9,1020(r31)
 18040f0:	7c 0b 03 78 	mr      r11,r0
 18040f4:	91 2b 00 00 	stw     r9,0(r11)
 18040f8:	3c 00 01 82 	lis     r0,386
 18040fc:	7c 09 03 78 	mr      r9,r0
 1804100:	80 09 c7 fc 	lwz     r0,-14340(r9)
 1804104:	30 00 00 02 	addic   r0,r0,2
 1804108:	3d 20 01 82 	lis     r9,386
 180410c:	39 29 c8 20 	addi    r9,r9,-14304
 1804110:	54 00 10 3a 	rlwinm  r0,r0,2,0,29
 1804114:	7c 09 02 14 	add     r0,r9,r0
 1804118:	81 3f 03 f8 	lwz     r9,1016(r31)
 180411c:	7c 0b 03 78 	mr      r11,r0
 1804120:	91 2b 00 00 	stw     r9,0(r11)
 1804124:	3c 00 01 82 	lis     r0,386
 1804128:	7c 09 03 78 	mr      r9,r0
 180412c:	80 09 c7 fc 	lwz     r0,-14340(r9)
 1804130:	31 20 00 03 	addic   r9,r0,3
 1804134:	3c 00 01 82 	lis     r0,386
 1804138:	7c 0b 03 78 	mr      r11,r0
 180413c:	91 2b c7 fc 	stw     r9,-14340(r11)
 1804140:	3c 00 01 82 	lis     r0,386
 1804144:	7c 09 03 78 	mr      r9,r0
 1804148:	80 09 c7 f8 	lwz     r0,-14344(r9)
 180414c:	2f 80 00 04 	cmpwi   cr7,r0,4
 1804150:	40 9d 01 8c 	ble-    cr7,18042dc <main+0x40bc>
 1804154:	3c 00 01 82 	lis     r0,386
 1804158:	7c 0b 03 78 	mr      r11,r0
 180415c:	80 0b c7 fc 	lwz     r0,-14340(r11)
 1804160:	30 00 00 03 	addic   r0,r0,3
 1804164:	2f 80 00 06 	cmpwi   cr7,r0,6
 1804168:	41 9d 01 74 	bgt-    cr7,18042dc <main+0x40bc>
 180416c:	3c 00 01 82 	lis     r0,386
 1804170:	30 00 c8 44 	addic   r0,r0,-14268
 1804174:	7c 0b 03 78 	mr      r11,r0
 1804178:	81 2b 00 10 	lwz     r9,16(r11)
 180417c:	3c 00 01 82 	lis     r0,386
 1804180:	30 00 c8 44 	addic   r0,r0,-14268
 1804184:	7c 0b 03 78 	mr      r11,r0
 1804188:	80 0b 00 04 	lwz     r0,4(r11)
 180418c:	7f 89 00 00 	cmpw    cr7,r9,r0
 1804190:	40 9e 01 4c 	bne-    cr7,18042dc <main+0x40bc>
 1804194:	3c 00 01 82 	lis     r0,386
 1804198:	30 00 c8 44 	addic   r0,r0,-14268
 180419c:	7c 0b 03 78 	mr      r11,r0
 18041a0:	81 2b 00 10 	lwz     r9,16(r11)
 18041a4:	3c 00 01 82 	lis     r0,386
 18041a8:	30 00 c8 44 	addic   r0,r0,-14268
 18041ac:	7c 0b 03 78 	mr      r11,r0
 18041b0:	80 0b 00 08 	lwz     r0,8(r11)
 18041b4:	7f 89 00 00 	cmpw    cr7,r9,r0
 18041b8:	40 9e 01 24 	bne-    cr7,18042dc <main+0x40bc>
 18041bc:	3c 00 01 82 	lis     r0,386
 18041c0:	30 00 c8 44 	addic   r0,r0,-14268
 18041c4:	7c 09 03 78 	mr      r9,r0
 18041c8:	80 09 00 00 	lwz     r0,0(r9)
 18041cc:	90 1f 03 f4 	stw     r0,1012(r31)
 18041d0:	3c 00 01 82 	lis     r0,386
 18041d4:	30 00 c8 44 	addic   r0,r0,-14268
 18041d8:	7c 0b 03 78 	mr      r11,r0
 18041dc:	80 0b 00 10 	lwz     r0,16(r11)
 18041e0:	90 1f 03 f0 	stw     r0,1008(r31)
 18041e4:	81 3f 03 f0 	lwz     r9,1008(r31)
 18041e8:	80 1f 03 f4 	lwz     r0,1012(r31)
 18041ec:	7f 89 00 00 	cmpw    cr7,r9,r0
 18041f0:	40 9d 00 ec 	ble-    cr7,18042dc <main+0x40bc>
 18041f4:	3c 00 01 82 	lis     r0,386
 18041f8:	30 00 c8 44 	addic   r0,r0,-14268
 18041fc:	7c 0b 03 78 	mr      r11,r0
 1804200:	81 2b 00 0c 	lwz     r9,12(r11)
 1804204:	3c 00 01 82 	lis     r0,386
 1804208:	30 00 c8 44 	addic   r0,r0,-14268
 180420c:	7c 0b 03 78 	mr      r11,r0
 1804210:	91 2b 00 00 	stw     r9,0(r11)
 1804214:	3c 00 01 82 	lis     r0,386
 1804218:	7c 09 03 78 	mr      r9,r0
 180421c:	80 09 c7 f8 	lwz     r0,-14344(r9)
 1804220:	31 20 ff fc 	addic   r9,r0,-4
 1804224:	3c 00 01 82 	lis     r0,386
 1804228:	7c 0b 03 78 	mr      r11,r0
 180422c:	91 2b c7 f8 	stw     r9,-14344(r11)
 1804230:	81 3f 03 f4 	lwz     r9,1012(r31)
 1804234:	80 1f 03 f0 	lwz     r0,1008(r31)
 1804238:	7c 09 02 14 	add     r0,r9,r0
 180423c:	90 1f 03 ec 	stw     r0,1004(r31)
 1804240:	3c 00 01 82 	lis     r0,386
 1804244:	7c 09 03 78 	mr      r9,r0
 1804248:	80 09 c7 fc 	lwz     r0,-14340(r9)
 180424c:	3d 20 01 82 	lis     r9,386
 1804250:	39 29 c8 20 	addi    r9,r9,-14304
 1804254:	54 00 10 3a 	rlwinm  r0,r0,2,0,29
 1804258:	7c 09 02 14 	add     r0,r9,r0
 180425c:	81 3f 03 f4 	lwz     r9,1012(r31)
 1804260:	7c 0b 03 78 	mr      r11,r0
 1804264:	91 2b 00 00 	stw     r9,0(r11)
 1804268:	3c 00 01 82 	lis     r0,386
 180426c:	7c 09 03 78 	mr      r9,r0
 1804270:	80 09 c7 fc 	lwz     r0,-14340(r9)
 1804274:	30 00 00 01 	addic   r0,r0,1
 1804278:	3d 20 01 82 	lis     r9,386
 180427c:	39 29 c8 20 	addi    r9,r9,-14304
 1804280:	54 00 10 3a 	rlwinm  r0,r0,2,0,29
 1804284:	7c 09 02 14 	add     r0,r9,r0
 1804288:	81 3f 03 f0 	lwz     r9,1008(r31)
 180428c:	7c 0b 03 78 	mr      r11,r0
 1804290:	91 2b 00 00 	stw     r9,0(r11)
 1804294:	3c 00 01 82 	lis     r0,386
 1804298:	7c 09 03 78 	mr      r9,r0
 180429c:	80 09 c7 fc 	lwz     r0,-14340(r9)
 18042a0:	30 00 00 02 	addic   r0,r0,2
 18042a4:	3d 20 01 82 	lis     r9,386
 18042a8:	39 29 c8 20 	addi    r9,r9,-14304
 18042ac:	54 00 10 3a 	rlwinm  r0,r0,2,0,29
 18042b0:	7c 09 02 14 	add     r0,r9,r0
 18042b4:	81 3f 03 ec 	lwz     r9,1004(r31)
 18042b8:	7c 0b 03 78 	mr      r11,r0
 18042bc:	91 2b 00 00 	stw     r9,0(r11)
 18042c0:	3c 00 01 82 	lis     r0,386
 18042c4:	7c 09 03 78 	mr      r9,r0
 18042c8:	80 09 c7 fc 	lwz     r0,-14340(r9)
 18042cc:	31 20 00 03 	addic   r9,r0,3
 18042d0:	3c 00 01 82 	lis     r0,386
 18042d4:	7c 0b 03 78 	mr      r11,r0
 18042d8:	91 2b c7 fc 	stw     r9,-14340(r11)
 18042dc:	3c 00 01 82 	lis     r0,386
 18042e0:	7c 09 03 78 	mr      r9,r0
 18042e4:	80 09 c7 f8 	lwz     r0,-14344(r9)
 18042e8:	2f 80 00 04 	cmpwi   cr7,r0,4
 18042ec:	40 9d 01 8c 	ble-    cr7,1804478 <main+0x4258>
 18042f0:	3c 00 01 82 	lis     r0,386
 18042f4:	7c 0b 03 78 	mr      r11,r0
 18042f8:	80 0b c7 fc 	lwz     r0,-14340(r11)
 18042fc:	30 00 00 03 	addic   r0,r0,3
 1804300:	2f 80 00 06 	cmpwi   cr7,r0,6
 1804304:	41 9d 01 74 	bgt-    cr7,1804478 <main+0x4258>
 1804308:	3c 00 01 82 	lis     r0,386
 180430c:	30 00 c8 44 	addic   r0,r0,-14268
 1804310:	7c 0b 03 78 	mr      r11,r0
 1804314:	81 2b 00 10 	lwz     r9,16(r11)
 1804318:	3c 00 01 82 	lis     r0,386
 180431c:	30 00 c8 44 	addic   r0,r0,-14268
 1804320:	7c 0b 03 78 	mr      r11,r0
 1804324:	80 0b 00 04 	lwz     r0,4(r11)
 1804328:	7f 89 00 00 	cmpw    cr7,r9,r0
 180432c:	40 9e 01 4c 	bne-    cr7,1804478 <main+0x4258>
 1804330:	3c 00 01 82 	lis     r0,386
 1804334:	30 00 c8 44 	addic   r0,r0,-14268
 1804338:	7c 0b 03 78 	mr      r11,r0
 180433c:	81 2b 00 10 	lwz     r9,16(r11)
 1804340:	3c 00 01 82 	lis     r0,386
 1804344:	30 00 c8 44 	addic   r0,r0,-14268
 1804348:	7c 0b 03 78 	mr      r11,r0
 180434c:	80 0b 00 0c 	lwz     r0,12(r11)
 1804350:	7f 89 00 00 	cmpw    cr7,r9,r0
 1804354:	40 9e 01 24 	bne-    cr7,1804478 <main+0x4258>
 1804358:	3c 00 01 82 	lis     r0,386
 180435c:	30 00 c8 44 	addic   r0,r0,-14268
 1804360:	7c 09 03 78 	mr      r9,r0
 1804364:	80 09 00 00 	lwz     r0,0(r9)
 1804368:	90 1f 03 e8 	stw     r0,1000(r31)
 180436c:	3c 00 01 82 	lis     r0,386
 1804370:	30 00 c8 44 	addic   r0,r0,-14268
 1804374:	7c 0b 03 78 	mr      r11,r0
 1804378:	80 0b 00 10 	lwz     r0,16(r11)
 180437c:	90 1f 03 e4 	stw     r0,996(r31)
 1804380:	81 3f 03 e4 	lwz     r9,996(r31)
 1804384:	80 1f 03 e8 	lwz     r0,1000(r31)
 1804388:	7f 89 00 00 	cmpw    cr7,r9,r0
 180438c:	40 9d 00 ec 	ble-    cr7,1804478 <main+0x4258>
 1804390:	3c 00 01 82 	lis     r0,386
 1804394:	30 00 c8 44 	addic   r0,r0,-14268
 1804398:	7c 0b 03 78 	mr      r11,r0
 180439c:	81 2b 00 08 	lwz     r9,8(r11)
 18043a0:	3c 00 01 82 	lis     r0,386
 18043a4:	30 00 c8 44 	addic   r0,r0,-14268
 18043a8:	7c 0b 03 78 	mr      r11,r0
 18043ac:	91 2b 00 00 	stw     r9,0(r11)
 18043b0:	3c 00 01 82 	lis     r0,386
 18043b4:	7c 09 03 78 	mr      r9,r0
 18043b8:	80 09 c7 f8 	lwz     r0,-14344(r9)
 18043bc:	31 20 ff fc 	addic   r9,r0,-4
 18043c0:	3c 00 01 82 	lis     r0,386
 18043c4:	7c 0b 03 78 	mr      r11,r0
 18043c8:	91 2b c7 f8 	stw     r9,-14344(r11)
 18043cc:	81 3f 03 e8 	lwz     r9,1000(r31)
 18043d0:	80 1f 03 e4 	lwz     r0,996(r31)
 18043d4:	7c 09 02 14 	add     r0,r9,r0
 18043d8:	90 1f 03 e0 	stw     r0,992(r31)
 18043dc:	3c 00 01 82 	lis     r0,386
 18043e0:	7c 09 03 78 	mr      r9,r0
 18043e4:	80 09 c7 fc 	lwz     r0,-14340(r9)
 18043e8:	3d 20 01 82 	lis     r9,386
 18043ec:	39 29 c8 20 	addi    r9,r9,-14304
 18043f0:	54 00 10 3a 	rlwinm  r0,r0,2,0,29
 18043f4:	7c 09 02 14 	add     r0,r9,r0
 18043f8:	81 3f 03 e8 	lwz     r9,1000(r31)
 18043fc:	7c 0b 03 78 	mr      r11,r0
 1804400:	91 2b 00 00 	stw     r9,0(r11)
 1804404:	3c 00 01 82 	lis     r0,386
 1804408:	7c 09 03 78 	mr      r9,r0
 180440c:	80 09 c7 fc 	lwz     r0,-14340(r9)
 1804410:	30 00 00 01 	addic   r0,r0,1
 1804414:	3d 20 01 82 	lis     r9,386
 1804418:	39 29 c8 20 	addi    r9,r9,-14304
 180441c:	54 00 10 3a 	rlwinm  r0,r0,2,0,29
 1804420:	7c 09 02 14 	add     r0,r9,r0
 1804424:	81 3f 03 e4 	lwz     r9,996(r31)
 1804428:	7c 0b 03 78 	mr      r11,r0
 180442c:	91 2b 00 00 	stw     r9,0(r11)
 1804430:	3c 00 01 82 	lis     r0,386
 1804434:	7c 09 03 78 	mr      r9,r0
 1804438:	80 09 c7 fc 	lwz     r0,-14340(r9)
 180443c:	30 00 00 02 	addic   r0,r0,2
 1804440:	3d 20 01 82 	lis     r9,386
 1804444:	39 29 c8 20 	addi    r9,r9,-14304
 1804448:	54 00 10 3a 	rlwinm  r0,r0,2,0,29
 180444c:	7c 09 02 14 	add     r0,r9,r0
 1804450:	81 3f 03 e0 	lwz     r9,992(r31)
 1804454:	7c 0b 03 78 	mr      r11,r0
 1804458:	91 2b 00 00 	stw     r9,0(r11)
 180445c:	3c 00 01 82 	lis     r0,386
 1804460:	7c 09 03 78 	mr      r9,r0
 1804464:	80 09 c7 fc 	lwz     r0,-14340(r9)
 1804468:	31 20 00 03 	addic   r9,r0,3
 180446c:	3c 00 01 82 	lis     r0,386
 1804470:	7c 0b 03 78 	mr      r11,r0
 1804474:	91 2b c7 fc 	stw     r9,-14340(r11)
 1804478:	3c 00 01 82 	lis     r0,386
 180447c:	7c 09 03 78 	mr      r9,r0
 1804480:	80 09 c7 f8 	lwz     r0,-14344(r9)
 1804484:	2f 80 00 04 	cmpwi   cr7,r0,4
 1804488:	40 9d 01 8c 	ble-    cr7,1804614 <main+0x43f4>
 180448c:	3c 00 01 82 	lis     r0,386
 1804490:	7c 0b 03 78 	mr      r11,r0
 1804494:	80 0b c7 fc 	lwz     r0,-14340(r11)
 1804498:	30 00 00 03 	addic   r0,r0,3
 180449c:	2f 80 00 06 	cmpwi   cr7,r0,6
 18044a0:	41 9d 01 74 	bgt-    cr7,1804614 <main+0x43f4>
 18044a4:	3c 00 01 82 	lis     r0,386
 18044a8:	30 00 c8 44 	addic   r0,r0,-14268
 18044ac:	7c 0b 03 78 	mr      r11,r0
 18044b0:	81 2b 00 10 	lwz     r9,16(r11)
 18044b4:	3c 00 01 82 	lis     r0,386
 18044b8:	30 00 c8 44 	addic   r0,r0,-14268
 18044bc:	7c 0b 03 78 	mr      r11,r0
 18044c0:	80 0b 00 08 	lwz     r0,8(r11)
 18044c4:	7f 89 00 00 	cmpw    cr7,r9,r0
 18044c8:	40 9e 01 4c 	bne-    cr7,1804614 <main+0x43f4>
 18044cc:	3c 00 01 82 	lis     r0,386
 18044d0:	30 00 c8 44 	addic   r0,r0,-14268
 18044d4:	7c 0b 03 78 	mr      r11,r0
 18044d8:	81 2b 00 10 	lwz     r9,16(r11)
 18044dc:	3c 00 01 82 	lis     r0,386
 18044e0:	30 00 c8 44 	addic   r0,r0,-14268
 18044e4:	7c 0b 03 78 	mr      r11,r0
 18044e8:	80 0b 00 04 	lwz     r0,4(r11)
 18044ec:	7f 89 00 00 	cmpw    cr7,r9,r0
 18044f0:	40 9e 01 24 	bne-    cr7,1804614 <main+0x43f4>
 18044f4:	3c 00 01 82 	lis     r0,386
 18044f8:	30 00 c8 44 	addic   r0,r0,-14268
 18044fc:	7c 09 03 78 	mr      r9,r0
 1804500:	80 09 00 00 	lwz     r0,0(r9)
 1804504:	90 1f 03 dc 	stw     r0,988(r31)
 1804508:	3c 00 01 82 	lis     r0,386
 180450c:	30 00 c8 44 	addic   r0,r0,-14268
 1804510:	7c 0b 03 78 	mr      r11,r0
 1804514:	80 0b 00 10 	lwz     r0,16(r11)
 1804518:	90 1f 03 d8 	stw     r0,984(r31)
 180451c:	81 3f 03 d8 	lwz     r9,984(r31)
 1804520:	80 1f 03 dc 	lwz     r0,988(r31)
 1804524:	7f 89 00 00 	cmpw    cr7,r9,r0
 1804528:	40 9d 00 ec 	ble-    cr7,1804614 <main+0x43f4>
 180452c:	3c 00 01 82 	lis     r0,386
 1804530:	30 00 c8 44 	addic   r0,r0,-14268
 1804534:	7c 0b 03 78 	mr      r11,r0
 1804538:	81 2b 00 0c 	lwz     r9,12(r11)
 180453c:	3c 00 01 82 	lis     r0,386
 1804540:	30 00 c8 44 	addic   r0,r0,-14268
 1804544:	7c 0b 03 78 	mr      r11,r0
 1804548:	91 2b 00 00 	stw     r9,0(r11)
 180454c:	3c 00 01 82 	lis     r0,386
 1804550:	7c 09 03 78 	mr      r9,r0
 1804554:	80 09 c7 f8 	lwz     r0,-14344(r9)
 1804558:	31 20 ff fc 	addic   r9,r0,-4
 180455c:	3c 00 01 82 	lis     r0,386
 1804560:	7c 0b 03 78 	mr      r11,r0
 1804564:	91 2b c7 f8 	stw     r9,-14344(r11)
 1804568:	81 3f 03 dc 	lwz     r9,988(r31)
 180456c:	80 1f 03 d8 	lwz     r0,984(r31)
 1804570:	7c 09 02 14 	add     r0,r9,r0
 1804574:	90 1f 03 d4 	stw     r0,980(r31)
 1804578:	3c 00 01 82 	lis     r0,386
 180457c:	7c 09 03 78 	mr      r9,r0
 1804580:	80 09 c7 fc 	lwz     r0,-14340(r9)
 1804584:	3d 20 01 82 	lis     r9,386
 1804588:	39 29 c8 20 	addi    r9,r9,-14304
 180458c:	54 00 10 3a 	rlwinm  r0,r0,2,0,29
 1804590:	7c 09 02 14 	add     r0,r9,r0
 1804594:	81 3f 03 dc 	lwz     r9,988(r31)
 1804598:	7c 0b 03 78 	mr      r11,r0
 180459c:	91 2b 00 00 	stw     r9,0(r11)
 18045a0:	3c 00 01 82 	lis     r0,386
 18045a4:	7c 09 03 78 	mr      r9,r0
 18045a8:	80 09 c7 fc 	lwz     r0,-14340(r9)
 18045ac:	30 00 00 01 	addic   r0,r0,1
 18045b0:	3d 20 01 82 	lis     r9,386
 18045b4:	39 29 c8 20 	addi    r9,r9,-14304
 18045b8:	54 00 10 3a 	rlwinm  r0,r0,2,0,29
 18045bc:	7c 09 02 14 	add     r0,r9,r0
 18045c0:	81 3f 03 d8 	lwz     r9,984(r31)
 18045c4:	7c 0b 03 78 	mr      r11,r0
 18045c8:	91 2b 00 00 	stw     r9,0(r11)
 18045cc:	3c 00 01 82 	lis     r0,386
 18045d0:	7c 09 03 78 	mr      r9,r0
 18045d4:	80 09 c7 fc 	lwz     r0,-14340(r9)
 18045d8:	30 00 00 02 	addic   r0,r0,2
 18045dc:	3d 20 01 82 	lis     r9,386
 18045e0:	39 29 c8 20 	addi    r9,r9,-14304
 18045e4:	54 00 10 3a 	rlwinm  r0,r0,2,0,29
 18045e8:	7c 09 02 14 	add     r0,r9,r0
 18045ec:	81 3f 03 d4 	lwz     r9,980(r31)
 18045f0:	7c 0b 03 78 	mr      r11,r0
 18045f4:	91 2b 00 00 	stw     r9,0(r11)
 18045f8:	3c 00 01 82 	lis     r0,386
 18045fc:	7c 09 03 78 	mr      r9,r0
 1804600:	80 09 c7 fc 	lwz     r0,-14340(r9)
 1804604:	31 20 00 03 	addic   r9,r0,3
 1804608:	3c 00 01 82 	lis     r0,386
 180460c:	7c 0b 03 78 	mr      r11,r0
 1804610:	91 2b c7 fc 	stw     r9,-14340(r11)
 1804614:	3c 00 01 82 	lis     r0,386
 1804618:	7c 09 03 78 	mr      r9,r0
 180461c:	80 09 c7 f8 	lwz     r0,-14344(r9)
 1804620:	2f 80 00 04 	cmpwi   cr7,r0,4
 1804624:	40 9d 01 8c 	ble-    cr7,18047b0 <main+0x4590>
 1804628:	3c 00 01 82 	lis     r0,386
 180462c:	7c 0b 03 78 	mr      r11,r0
 1804630:	80 0b c7 fc 	lwz     r0,-14340(r11)
 1804634:	30 00 00 03 	addic   r0,r0,3
 1804638:	2f 80 00 06 	cmpwi   cr7,r0,6
 180463c:	41 9d 01 74 	bgt-    cr7,18047b0 <main+0x4590>
 1804640:	3c 00 01 82 	lis     r0,386
 1804644:	30 00 c8 44 	addic   r0,r0,-14268
 1804648:	7c 0b 03 78 	mr      r11,r0
 180464c:	81 2b 00 10 	lwz     r9,16(r11)
 1804650:	3c 00 01 82 	lis     r0,386
 1804654:	30 00 c8 44 	addic   r0,r0,-14268
 1804658:	7c 0b 03 78 	mr      r11,r0
 180465c:	80 0b 00 08 	lwz     r0,8(r11)
 1804660:	7f 89 00 00 	cmpw    cr7,r9,r0
 1804664:	40 9e 01 4c 	bne-    cr7,18047b0 <main+0x4590>
 1804668:	3c 00 01 82 	lis     r0,386
 180466c:	30 00 c8 44 	addic   r0,r0,-14268
 1804670:	7c 0b 03 78 	mr      r11,r0
 1804674:	81 2b 00 10 	lwz     r9,16(r11)
 1804678:	3c 00 01 82 	lis     r0,386
 180467c:	30 00 c8 44 	addic   r0,r0,-14268
 1804680:	7c 0b 03 78 	mr      r11,r0
 1804684:	80 0b 00 0c 	lwz     r0,12(r11)
 1804688:	7f 89 00 00 	cmpw    cr7,r9,r0
 180468c:	40 9e 01 24 	bne-    cr7,18047b0 <main+0x4590>
 1804690:	3c 00 01 82 	lis     r0,386
 1804694:	30 00 c8 44 	addic   r0,r0,-14268
 1804698:	7c 09 03 78 	mr      r9,r0
 180469c:	80 09 00 00 	lwz     r0,0(r9)
 18046a0:	90 1f 03 d0 	stw     r0,976(r31)
 18046a4:	3c 00 01 82 	lis     r0,386
 18046a8:	30 00 c8 44 	addic   r0,r0,-14268
 18046ac:	7c 0b 03 78 	mr      r11,r0
 18046b0:	80 0b 00 10 	lwz     r0,16(r11)
 18046b4:	90 1f 03 cc 	stw     r0,972(r31)
 18046b8:	81 3f 03 cc 	lwz     r9,972(r31)
 18046bc:	80 1f 03 d0 	lwz     r0,976(r31)
 18046c0:	7f 89 00 00 	cmpw    cr7,r9,r0
 18046c4:	40 9d 00 ec 	ble-    cr7,18047b0 <main+0x4590>
 18046c8:	3c 00 01 82 	lis     r0,386
 18046cc:	30 00 c8 44 	addic   r0,r0,-14268
 18046d0:	7c 0b 03 78 	mr      r11,r0
 18046d4:	81 2b 00 04 	lwz     r9,4(r11)
 18046d8:	3c 00 01 82 	lis     r0,386
 18046dc:	30 00 c8 44 	addic   r0,r0,-14268
 18046e0:	7c 0b 03 78 	mr      r11,r0
 18046e4:	91 2b 00 00 	stw     r9,0(r11)
 18046e8:	3c 00 01 82 	lis     r0,386
 18046ec:	7c 09 03 78 	mr      r9,r0
 18046f0:	80 09 c7 f8 	lwz     r0,-14344(r9)
 18046f4:	31 20 ff fc 	addic   r9,r0,-4
 18046f8:	3c 00 01 82 	lis     r0,386
 18046fc:	7c 0b 03 78 	mr      r11,r0
 1804700:	91 2b c7 f8 	stw     r9,-14344(r11)
 1804704:	81 3f 03 d0 	lwz     r9,976(r31)
 1804708:	80 1f 03 cc 	lwz     r0,972(r31)
 180470c:	7c 09 02 14 	add     r0,r9,r0
 1804710:	90 1f 03 c8 	stw     r0,968(r31)
 1804714:	3c 00 01 82 	lis     r0,386
 1804718:	7c 09 03 78 	mr      r9,r0
 180471c:	80 09 c7 fc 	lwz     r0,-14340(r9)
 1804720:	3d 20 01 82 	lis     r9,386
 1804724:	39 29 c8 20 	addi    r9,r9,-14304
 1804728:	54 00 10 3a 	rlwinm  r0,r0,2,0,29
 180472c:	7c 09 02 14 	add     r0,r9,r0
 1804730:	81 3f 03 d0 	lwz     r9,976(r31)
 1804734:	7c 0b 03 78 	mr      r11,r0
 1804738:	91 2b 00 00 	stw     r9,0(r11)
 180473c:	3c 00 01 82 	lis     r0,386
 1804740:	7c 09 03 78 	mr      r9,r0
 1804744:	80 09 c7 fc 	lwz     r0,-14340(r9)
 1804748:	30 00 00 01 	addic   r0,r0,1
 180474c:	3d 20 01 82 	lis     r9,386
 1804750:	39 29 c8 20 	addi    r9,r9,-14304
 1804754:	54 00 10 3a 	rlwinm  r0,r0,2,0,29
 1804758:	7c 09 02 14 	add     r0,r9,r0
 180475c:	81 3f 03 cc 	lwz     r9,972(r31)
 1804760:	7c 0b 03 78 	mr      r11,r0
 1804764:	91 2b 00 00 	stw     r9,0(r11)
 1804768:	3c 00 01 82 	lis     r0,386
 180476c:	7c 09 03 78 	mr      r9,r0
 1804770:	80 09 c7 fc 	lwz     r0,-14340(r9)
 1804774:	30 00 00 02 	addic   r0,r0,2
 1804778:	3d 20 01 82 	lis     r9,386
 180477c:	39 29 c8 20 	addi    r9,r9,-14304
 1804780:	54 00 10 3a 	rlwinm  r0,r0,2,0,29
 1804784:	7c 09 02 14 	add     r0,r9,r0
 1804788:	81 3f 03 c8 	lwz     r9,968(r31)
 180478c:	7c 0b 03 78 	mr      r11,r0
 1804790:	91 2b 00 00 	stw     r9,0(r11)
 1804794:	3c 00 01 82 	lis     r0,386
 1804798:	7c 09 03 78 	mr      r9,r0
 180479c:	80 09 c7 fc 	lwz     r0,-14340(r9)
 18047a0:	31 20 00 03 	addic   r9,r0,3
 18047a4:	3c 00 01 82 	lis     r0,386
 18047a8:	7c 0b 03 78 	mr      r11,r0
 18047ac:	91 2b c7 fc 	stw     r9,-14340(r11)
 18047b0:	3c 00 01 82 	lis     r0,386
 18047b4:	7c 09 03 78 	mr      r9,r0
 18047b8:	80 09 c7 f8 	lwz     r0,-14344(r9)
 18047bc:	2f 80 00 04 	cmpwi   cr7,r0,4
 18047c0:	40 9d 01 8c 	ble-    cr7,180494c <main+0x472c>
 18047c4:	3c 00 01 82 	lis     r0,386
 18047c8:	7c 0b 03 78 	mr      r11,r0
 18047cc:	80 0b c7 fc 	lwz     r0,-14340(r11)
 18047d0:	30 00 00 03 	addic   r0,r0,3
 18047d4:	2f 80 00 06 	cmpwi   cr7,r0,6
 18047d8:	41 9d 01 74 	bgt-    cr7,180494c <main+0x472c>
 18047dc:	3c 00 01 82 	lis     r0,386
 18047e0:	30 00 c8 44 	addic   r0,r0,-14268
 18047e4:	7c 0b 03 78 	mr      r11,r0
 18047e8:	81 2b 00 10 	lwz     r9,16(r11)
 18047ec:	3c 00 01 82 	lis     r0,386
 18047f0:	30 00 c8 44 	addic   r0,r0,-14268
 18047f4:	7c 0b 03 78 	mr      r11,r0
 18047f8:	80 0b 00 0c 	lwz     r0,12(r11)
 18047fc:	7f 89 00 00 	cmpw    cr7,r9,r0
 1804800:	40 9e 01 4c 	bne-    cr7,180494c <main+0x472c>
 1804804:	3c 00 01 82 	lis     r0,386
 1804808:	30 00 c8 44 	addic   r0,r0,-14268
 180480c:	7c 0b 03 78 	mr      r11,r0
 1804810:	81 2b 00 10 	lwz     r9,16(r11)
 1804814:	3c 00 01 82 	lis     r0,386
 1804818:	30 00 c8 44 	addic   r0,r0,-14268
 180481c:	7c 0b 03 78 	mr      r11,r0
 1804820:	80 0b 00 04 	lwz     r0,4(r11)
 1804824:	7f 89 00 00 	cmpw    cr7,r9,r0
 1804828:	40 9e 01 24 	bne-    cr7,180494c <main+0x472c>
 180482c:	3c 00 01 82 	lis     r0,386
 1804830:	30 00 c8 44 	addic   r0,r0,-14268
 1804834:	7c 09 03 78 	mr      r9,r0
 1804838:	80 09 00 00 	lwz     r0,0(r9)
 180483c:	90 1f 03 c4 	stw     r0,964(r31)
 1804840:	3c 00 01 82 	lis     r0,386
 1804844:	30 00 c8 44 	addic   r0,r0,-14268
 1804848:	7c 0b 03 78 	mr      r11,r0
 180484c:	80 0b 00 10 	lwz     r0,16(r11)
 1804850:	90 1f 03 c0 	stw     r0,960(r31)
 1804854:	81 3f 03 c0 	lwz     r9,960(r31)
 1804858:	80 1f 03 c4 	lwz     r0,964(r31)
 180485c:	7f 89 00 00 	cmpw    cr7,r9,r0
 1804860:	40 9d 00 ec 	ble-    cr7,180494c <main+0x472c>
 1804864:	3c 00 01 82 	lis     r0,386
 1804868:	30 00 c8 44 	addic   r0,r0,-14268
 180486c:	7c 0b 03 78 	mr      r11,r0
 1804870:	81 2b 00 08 	lwz     r9,8(r11)
 1804874:	3c 00 01 82 	lis     r0,386
 1804878:	30 00 c8 44 	addic   r0,r0,-14268
 180487c:	7c 0b 03 78 	mr      r11,r0
 1804880:	91 2b 00 00 	stw     r9,0(r11)
 1804884:	3c 00 01 82 	lis     r0,386
 1804888:	7c 09 03 78 	mr      r9,r0
 180488c:	80 09 c7 f8 	lwz     r0,-14344(r9)
 1804890:	31 20 ff fc 	addic   r9,r0,-4
 1804894:	3c 00 01 82 	lis     r0,386
 1804898:	7c 0b 03 78 	mr      r11,r0
 180489c:	91 2b c7 f8 	stw     r9,-14344(r11)
 18048a0:	81 3f 03 c4 	lwz     r9,964(r31)
 18048a4:	80 1f 03 c0 	lwz     r0,960(r31)
 18048a8:	7c 09 02 14 	add     r0,r9,r0
 18048ac:	90 1f 03 bc 	stw     r0,956(r31)
 18048b0:	3c 00 01 82 	lis     r0,386
 18048b4:	7c 09 03 78 	mr      r9,r0
 18048b8:	80 09 c7 fc 	lwz     r0,-14340(r9)
 18048bc:	3d 20 01 82 	lis     r9,386
 18048c0:	39 29 c8 20 	addi    r9,r9,-14304
 18048c4:	54 00 10 3a 	rlwinm  r0,r0,2,0,29
 18048c8:	7c 09 02 14 	add     r0,r9,r0
 18048cc:	81 3f 03 c4 	lwz     r9,964(r31)
 18048d0:	7c 0b 03 78 	mr      r11,r0
 18048d4:	91 2b 00 00 	stw     r9,0(r11)
 18048d8:	3c 00 01 82 	lis     r0,386
 18048dc:	7c 09 03 78 	mr      r9,r0
 18048e0:	80 09 c7 fc 	lwz     r0,-14340(r9)
 18048e4:	30 00 00 01 	addic   r0,r0,1
 18048e8:	3d 20 01 82 	lis     r9,386
 18048ec:	39 29 c8 20 	addi    r9,r9,-14304
 18048f0:	54 00 10 3a 	rlwinm  r0,r0,2,0,29
 18048f4:	7c 09 02 14 	add     r0,r9,r0
 18048f8:	81 3f 03 c0 	lwz     r9,960(r31)
 18048fc:	7c 0b 03 78 	mr      r11,r0
 1804900:	91 2b 00 00 	stw     r9,0(r11)
 1804904:	3c 00 01 82 	lis     r0,386
 1804908:	7c 09 03 78 	mr      r9,r0
 180490c:	80 09 c7 fc 	lwz     r0,-14340(r9)
 1804910:	30 00 00 02 	addic   r0,r0,2
 1804914:	3d 20 01 82 	lis     r9,386
 1804918:	39 29 c8 20 	addi    r9,r9,-14304
 180491c:	54 00 10 3a 	rlwinm  r0,r0,2,0,29
 1804920:	7c 09 02 14 	add     r0,r9,r0
 1804924:	81 3f 03 bc 	lwz     r9,956(r31)
 1804928:	7c 0b 03 78 	mr      r11,r0
 180492c:	91 2b 00 00 	stw     r9,0(r11)
 1804930:	3c 00 01 82 	lis     r0,386
 1804934:	7c 09 03 78 	mr      r9,r0
 1804938:	80 09 c7 fc 	lwz     r0,-14340(r9)
 180493c:	31 20 00 03 	addic   r9,r0,3
 1804940:	3c 00 01 82 	lis     r0,386
 1804944:	7c 0b 03 78 	mr      r11,r0
 1804948:	91 2b c7 fc 	stw     r9,-14340(r11)
 180494c:	3c 00 01 82 	lis     r0,386
 1804950:	7c 09 03 78 	mr      r9,r0
 1804954:	80 09 c7 f8 	lwz     r0,-14344(r9)
 1804958:	2f 80 00 04 	cmpwi   cr7,r0,4
 180495c:	40 9d 01 8c 	ble-    cr7,1804ae8 <main+0x48c8>
 1804960:	3c 00 01 82 	lis     r0,386
 1804964:	7c 0b 03 78 	mr      r11,r0
 1804968:	80 0b c7 fc 	lwz     r0,-14340(r11)
 180496c:	30 00 00 03 	addic   r0,r0,3
 1804970:	2f 80 00 06 	cmpwi   cr7,r0,6
 1804974:	41 9d 01 74 	bgt-    cr7,1804ae8 <main+0x48c8>
 1804978:	3c 00 01 82 	lis     r0,386
 180497c:	30 00 c8 44 	addic   r0,r0,-14268
 1804980:	7c 0b 03 78 	mr      r11,r0
 1804984:	81 2b 00 10 	lwz     r9,16(r11)
 1804988:	3c 00 01 82 	lis     r0,386
 180498c:	30 00 c8 44 	addic   r0,r0,-14268
 1804990:	7c 0b 03 78 	mr      r11,r0
 1804994:	80 0b 00 0c 	lwz     r0,12(r11)
 1804998:	7f 89 00 00 	cmpw    cr7,r9,r0
 180499c:	40 9e 01 4c 	bne-    cr7,1804ae8 <main+0x48c8>
 18049a0:	3c 00 01 82 	lis     r0,386
 18049a4:	30 00 c8 44 	addic   r0,r0,-14268
 18049a8:	7c 0b 03 78 	mr      r11,r0
 18049ac:	81 2b 00 10 	lwz     r9,16(r11)
 18049b0:	3c 00 01 82 	lis     r0,386
 18049b4:	30 00 c8 44 	addic   r0,r0,-14268
 18049b8:	7c 0b 03 78 	mr      r11,r0
 18049bc:	80 0b 00 08 	lwz     r0,8(r11)
 18049c0:	7f 89 00 00 	cmpw    cr7,r9,r0
 18049c4:	40 9e 01 24 	bne-    cr7,1804ae8 <main+0x48c8>
 18049c8:	3c 00 01 82 	lis     r0,386
 18049cc:	30 00 c8 44 	addic   r0,r0,-14268
 18049d0:	7c 09 03 78 	mr      r9,r0
 18049d4:	80 09 00 00 	lwz     r0,0(r9)
 18049d8:	90 1f 03 b8 	stw     r0,952(r31)
 18049dc:	3c 00 01 82 	lis     r0,386
 18049e0:	30 00 c8 44 	addic   r0,r0,-14268
 18049e4:	7c 0b 03 78 	mr      r11,r0
 18049e8:	80 0b 00 10 	lwz     r0,16(r11)
 18049ec:	90 1f 03 b4 	stw     r0,948(r31)
 18049f0:	81 3f 03 b4 	lwz     r9,948(r31)
 18049f4:	80 1f 03 b8 	lwz     r0,952(r31)
 18049f8:	7f 89 00 00 	cmpw    cr7,r9,r0
 18049fc:	40 9d 00 ec 	ble-    cr7,1804ae8 <main+0x48c8>
 1804a00:	3c 00 01 82 	lis     r0,386
 1804a04:	30 00 c8 44 	addic   r0,r0,-14268
 1804a08:	7c 0b 03 78 	mr      r11,r0
 1804a0c:	81 2b 00 04 	lwz     r9,4(r11)
 1804a10:	3c 00 01 82 	lis     r0,386
 1804a14:	30 00 c8 44 	addic   r0,r0,-14268
 1804a18:	7c 0b 03 78 	mr      r11,r0
 1804a1c:	91 2b 00 00 	stw     r9,0(r11)
 1804a20:	3c 00 01 82 	lis     r0,386
 1804a24:	7c 09 03 78 	mr      r9,r0
 1804a28:	80 09 c7 f8 	lwz     r0,-14344(r9)
 1804a2c:	31 20 ff fc 	addic   r9,r0,-4
 1804a30:	3c 00 01 82 	lis     r0,386
 1804a34:	7c 0b 03 78 	mr      r11,r0
 1804a38:	91 2b c7 f8 	stw     r9,-14344(r11)
 1804a3c:	81 3f 03 b8 	lwz     r9,952(r31)
 1804a40:	80 1f 03 b4 	lwz     r0,948(r31)
 1804a44:	7c 09 02 14 	add     r0,r9,r0
 1804a48:	90 1f 03 b0 	stw     r0,944(r31)
 1804a4c:	3c 00 01 82 	lis     r0,386
 1804a50:	7c 09 03 78 	mr      r9,r0
 1804a54:	80 09 c7 fc 	lwz     r0,-14340(r9)
 1804a58:	3d 20 01 82 	lis     r9,386
 1804a5c:	39 29 c8 20 	addi    r9,r9,-14304
 1804a60:	54 00 10 3a 	rlwinm  r0,r0,2,0,29
 1804a64:	7c 09 02 14 	add     r0,r9,r0
 1804a68:	81 3f 03 b8 	lwz     r9,952(r31)
 1804a6c:	7c 0b 03 78 	mr      r11,r0
 1804a70:	91 2b 00 00 	stw     r9,0(r11)
 1804a74:	3c 00 01 82 	lis     r0,386
 1804a78:	7c 09 03 78 	mr      r9,r0
 1804a7c:	80 09 c7 fc 	lwz     r0,-14340(r9)
 1804a80:	30 00 00 01 	addic   r0,r0,1
 1804a84:	3d 20 01 82 	lis     r9,386
 1804a88:	39 29 c8 20 	addi    r9,r9,-14304
 1804a8c:	54 00 10 3a 	rlwinm  r0,r0,2,0,29
 1804a90:	7c 09 02 14 	add     r0,r9,r0
 1804a94:	81 3f 03 b4 	lwz     r9,948(r31)
 1804a98:	7c 0b 03 78 	mr      r11,r0
 1804a9c:	91 2b 00 00 	stw     r9,0(r11)
 1804aa0:	3c 00 01 82 	lis     r0,386
 1804aa4:	7c 09 03 78 	mr      r9,r0
 1804aa8:	80 09 c7 fc 	lwz     r0,-14340(r9)
 1804aac:	30 00 00 02 	addic   r0,r0,2
 1804ab0:	3d 20 01 82 	lis     r9,386
 1804ab4:	39 29 c8 20 	addi    r9,r9,-14304
 1804ab8:	54 00 10 3a 	rlwinm  r0,r0,2,0,29
 1804abc:	7c 09 02 14 	add     r0,r9,r0
 1804ac0:	81 3f 03 b0 	lwz     r9,944(r31)
 1804ac4:	7c 0b 03 78 	mr      r11,r0
 1804ac8:	91 2b 00 00 	stw     r9,0(r11)
 1804acc:	3c 00 01 82 	lis     r0,386
 1804ad0:	7c 09 03 78 	mr      r9,r0
 1804ad4:	80 09 c7 fc 	lwz     r0,-14340(r9)
 1804ad8:	31 20 00 03 	addic   r9,r0,3
 1804adc:	3c 00 01 82 	lis     r0,386
 1804ae0:	7c 0b 03 78 	mr      r11,r0
 1804ae4:	91 2b c7 fc 	stw     r9,-14340(r11)
 1804ae8:	3c 00 01 82 	lis     r0,386
 1804aec:	7c 09 03 78 	mr      r9,r0
 1804af0:	80 09 c7 f8 	lwz     r0,-14344(r9)
 1804af4:	2f 80 00 04 	cmpwi   cr7,r0,4
 1804af8:	40 9d 01 8c 	ble-    cr7,1804c84 <main+0x4a64>
 1804afc:	3c 00 01 82 	lis     r0,386
 1804b00:	7c 0b 03 78 	mr      r11,r0
 1804b04:	80 0b c7 fc 	lwz     r0,-14340(r11)
 1804b08:	30 00 00 03 	addic   r0,r0,3
 1804b0c:	2f 80 00 06 	cmpwi   cr7,r0,6
 1804b10:	41 9d 01 74 	bgt-    cr7,1804c84 <main+0x4a64>
 1804b14:	3c 00 01 82 	lis     r0,386
 1804b18:	30 00 c8 44 	addic   r0,r0,-14268
 1804b1c:	7c 0b 03 78 	mr      r11,r0
 1804b20:	81 2b 00 00 	lwz     r9,0(r11)
 1804b24:	3c 00 01 82 	lis     r0,386
 1804b28:	30 00 c8 44 	addic   r0,r0,-14268
 1804b2c:	7c 0b 03 78 	mr      r11,r0
 1804b30:	80 0b 00 08 	lwz     r0,8(r11)
 1804b34:	7f 89 00 00 	cmpw    cr7,r9,r0
 1804b38:	40 9e 01 4c 	bne-    cr7,1804c84 <main+0x4a64>
 1804b3c:	3c 00 01 82 	lis     r0,386
 1804b40:	30 00 c8 44 	addic   r0,r0,-14268
 1804b44:	7c 0b 03 78 	mr      r11,r0
 1804b48:	81 2b 00 00 	lwz     r9,0(r11)
 1804b4c:	3c 00 01 82 	lis     r0,386
 1804b50:	30 00 c8 44 	addic   r0,r0,-14268
 1804b54:	7c 0b 03 78 	mr      r11,r0
 1804b58:	80 0b 00 10 	lwz     r0,16(r11)
 1804b5c:	7f 89 00 00 	cmpw    cr7,r9,r0
 1804b60:	40 9e 01 24 	bne-    cr7,1804c84 <main+0x4a64>
 1804b64:	3c 00 01 82 	lis     r0,386
 1804b68:	30 00 c8 44 	addic   r0,r0,-14268
 1804b6c:	7c 09 03 78 	mr      r9,r0
 1804b70:	80 09 00 04 	lwz     r0,4(r9)
 1804b74:	90 1f 03 ac 	stw     r0,940(r31)
 1804b78:	3c 00 01 82 	lis     r0,386
 1804b7c:	30 00 c8 44 	addic   r0,r0,-14268
 1804b80:	7c 0b 03 78 	mr      r11,r0
 1804b84:	80 0b 00 00 	lwz     r0,0(r11)
 1804b88:	90 1f 03 a8 	stw     r0,936(r31)
 1804b8c:	81 3f 03 a8 	lwz     r9,936(r31)
 1804b90:	80 1f 03 ac 	lwz     r0,940(r31)
 1804b94:	7f 89 00 00 	cmpw    cr7,r9,r0
 1804b98:	40 9d 00 ec 	ble-    cr7,1804c84 <main+0x4a64>
 1804b9c:	3c 00 01 82 	lis     r0,386
 1804ba0:	30 00 c8 44 	addic   r0,r0,-14268
 1804ba4:	7c 0b 03 78 	mr      r11,r0
 1804ba8:	81 2b 00 0c 	lwz     r9,12(r11)
 1804bac:	3c 00 01 82 	lis     r0,386
 1804bb0:	30 00 c8 44 	addic   r0,r0,-14268
 1804bb4:	7c 0b 03 78 	mr      r11,r0
 1804bb8:	91 2b 00 00 	stw     r9,0(r11)
 1804bbc:	3c 00 01 82 	lis     r0,386
 1804bc0:	7c 09 03 78 	mr      r9,r0
 1804bc4:	80 09 c7 f8 	lwz     r0,-14344(r9)
 1804bc8:	31 20 ff fc 	addic   r9,r0,-4
 1804bcc:	3c 00 01 82 	lis     r0,386
 1804bd0:	7c 0b 03 78 	mr      r11,r0
 1804bd4:	91 2b c7 f8 	stw     r9,-14344(r11)
 1804bd8:	81 3f 03 ac 	lwz     r9,940(r31)
 1804bdc:	80 1f 03 a8 	lwz     r0,936(r31)
 1804be0:	7c 09 02 14 	add     r0,r9,r0
 1804be4:	90 1f 03 a4 	stw     r0,932(r31)
 1804be8:	3c 00 01 82 	lis     r0,386
 1804bec:	7c 09 03 78 	mr      r9,r0
 1804bf0:	80 09 c7 fc 	lwz     r0,-14340(r9)
 1804bf4:	3d 20 01 82 	lis     r9,386
 1804bf8:	39 29 c8 20 	addi    r9,r9,-14304
 1804bfc:	54 00 10 3a 	rlwinm  r0,r0,2,0,29
 1804c00:	7c 09 02 14 	add     r0,r9,r0
 1804c04:	81 3f 03 ac 	lwz     r9,940(r31)
 1804c08:	7c 0b 03 78 	mr      r11,r0
 1804c0c:	91 2b 00 00 	stw     r9,0(r11)
 1804c10:	3c 00 01 82 	lis     r0,386
 1804c14:	7c 09 03 78 	mr      r9,r0
 1804c18:	80 09 c7 fc 	lwz     r0,-14340(r9)
 1804c1c:	30 00 00 01 	addic   r0,r0,1
 1804c20:	3d 20 01 82 	lis     r9,386
 1804c24:	39 29 c8 20 	addi    r9,r9,-14304
 1804c28:	54 00 10 3a 	rlwinm  r0,r0,2,0,29
 1804c2c:	7c 09 02 14 	add     r0,r9,r0
 1804c30:	81 3f 03 a8 	lwz     r9,936(r31)
 1804c34:	7c 0b 03 78 	mr      r11,r0
 1804c38:	91 2b 00 00 	stw     r9,0(r11)
 1804c3c:	3c 00 01 82 	lis     r0,386
 1804c40:	7c 09 03 78 	mr      r9,r0
 1804c44:	80 09 c7 fc 	lwz     r0,-14340(r9)
 1804c48:	30 00 00 02 	addic   r0,r0,2
 1804c4c:	3d 20 01 82 	lis     r9,386
 1804c50:	39 29 c8 20 	addi    r9,r9,-14304
 1804c54:	54 00 10 3a 	rlwinm  r0,r0,2,0,29
 1804c58:	7c 09 02 14 	add     r0,r9,r0
 1804c5c:	81 3f 03 a4 	lwz     r9,932(r31)
 1804c60:	7c 0b 03 78 	mr      r11,r0
 1804c64:	91 2b 00 00 	stw     r9,0(r11)
 1804c68:	3c 00 01 82 	lis     r0,386
 1804c6c:	7c 09 03 78 	mr      r9,r0
 1804c70:	80 09 c7 fc 	lwz     r0,-14340(r9)
 1804c74:	31 20 00 03 	addic   r9,r0,3
 1804c78:	3c 00 01 82 	lis     r0,386
 1804c7c:	7c 0b 03 78 	mr      r11,r0
 1804c80:	91 2b c7 fc 	stw     r9,-14340(r11)
 1804c84:	3c 00 01 82 	lis     r0,386
 1804c88:	7c 09 03 78 	mr      r9,r0
 1804c8c:	80 09 c7 f8 	lwz     r0,-14344(r9)
 1804c90:	2f 80 00 04 	cmpwi   cr7,r0,4
 1804c94:	40 9d 01 8c 	ble-    cr7,1804e20 <main+0x4c00>
 1804c98:	3c 00 01 82 	lis     r0,386
 1804c9c:	7c 0b 03 78 	mr      r11,r0
 1804ca0:	80 0b c7 fc 	lwz     r0,-14340(r11)
 1804ca4:	30 00 00 03 	addic   r0,r0,3
 1804ca8:	2f 80 00 06 	cmpwi   cr7,r0,6
 1804cac:	41 9d 01 74 	bgt-    cr7,1804e20 <main+0x4c00>
 1804cb0:	3c 00 01 82 	lis     r0,386
 1804cb4:	30 00 c8 44 	addic   r0,r0,-14268
 1804cb8:	7c 0b 03 78 	mr      r11,r0
 1804cbc:	81 2b 00 00 	lwz     r9,0(r11)
 1804cc0:	3c 00 01 82 	lis     r0,386
 1804cc4:	30 00 c8 44 	addic   r0,r0,-14268
 1804cc8:	7c 0b 03 78 	mr      r11,r0
 1804ccc:	80 0b 00 0c 	lwz     r0,12(r11)
 1804cd0:	7f 89 00 00 	cmpw    cr7,r9,r0
 1804cd4:	40 9e 01 4c 	bne-    cr7,1804e20 <main+0x4c00>
 1804cd8:	3c 00 01 82 	lis     r0,386
 1804cdc:	30 00 c8 44 	addic   r0,r0,-14268
 1804ce0:	7c 0b 03 78 	mr      r11,r0
 1804ce4:	81 2b 00 00 	lwz     r9,0(r11)
 1804ce8:	3c 00 01 82 	lis     r0,386
 1804cec:	30 00 c8 44 	addic   r0,r0,-14268
 1804cf0:	7c 0b 03 78 	mr      r11,r0
 1804cf4:	80 0b 00 10 	lwz     r0,16(r11)
 1804cf8:	7f 89 00 00 	cmpw    cr7,r9,r0
 1804cfc:	40 9e 01 24 	bne-    cr7,1804e20 <main+0x4c00>
 1804d00:	3c 00 01 82 	lis     r0,386
 1804d04:	30 00 c8 44 	addic   r0,r0,-14268
 1804d08:	7c 09 03 78 	mr      r9,r0
 1804d0c:	80 09 00 04 	lwz     r0,4(r9)
 1804d10:	90 1f 03 a0 	stw     r0,928(r31)
 1804d14:	3c 00 01 82 	lis     r0,386
 1804d18:	30 00 c8 44 	addic   r0,r0,-14268
 1804d1c:	7c 0b 03 78 	mr      r11,r0
 1804d20:	80 0b 00 00 	lwz     r0,0(r11)
 1804d24:	90 1f 03 9c 	stw     r0,924(r31)
 1804d28:	81 3f 03 9c 	lwz     r9,924(r31)
 1804d2c:	80 1f 03 a0 	lwz     r0,928(r31)
 1804d30:	7f 89 00 00 	cmpw    cr7,r9,r0
 1804d34:	40 9d 00 ec 	ble-    cr7,1804e20 <main+0x4c00>
 1804d38:	3c 00 01 82 	lis     r0,386
 1804d3c:	30 00 c8 44 	addic   r0,r0,-14268
 1804d40:	7c 0b 03 78 	mr      r11,r0
 1804d44:	81 2b 00 08 	lwz     r9,8(r11)
 1804d48:	3c 00 01 82 	lis     r0,386
 1804d4c:	30 00 c8 44 	addic   r0,r0,-14268
 1804d50:	7c 0b 03 78 	mr      r11,r0
 1804d54:	91 2b 00 00 	stw     r9,0(r11)
 1804d58:	3c 00 01 82 	lis     r0,386
 1804d5c:	7c 09 03 78 	mr      r9,r0
 1804d60:	80 09 c7 f8 	lwz     r0,-14344(r9)
 1804d64:	31 20 ff fc 	addic   r9,r0,-4
 1804d68:	3c 00 01 82 	lis     r0,386
 1804d6c:	7c 0b 03 78 	mr      r11,r0
 1804d70:	91 2b c7 f8 	stw     r9,-14344(r11)
 1804d74:	81 3f 03 a0 	lwz     r9,928(r31)
 1804d78:	80 1f 03 9c 	lwz     r0,924(r31)
 1804d7c:	7c 09 02 14 	add     r0,r9,r0
 1804d80:	90 1f 03 98 	stw     r0,920(r31)
 1804d84:	3c 00 01 82 	lis     r0,386
 1804d88:	7c 09 03 78 	mr      r9,r0
 1804d8c:	80 09 c7 fc 	lwz     r0,-14340(r9)
 1804d90:	3d 20 01 82 	lis     r9,386
 1804d94:	39 29 c8 20 	addi    r9,r9,-14304
 1804d98:	54 00 10 3a 	rlwinm  r0,r0,2,0,29
 1804d9c:	7c 09 02 14 	add     r0,r9,r0
 1804da0:	81 3f 03 a0 	lwz     r9,928(r31)
 1804da4:	7c 0b 03 78 	mr      r11,r0
 1804da8:	91 2b 00 00 	stw     r9,0(r11)
 1804dac:	3c 00 01 82 	lis     r0,386
 1804db0:	7c 09 03 78 	mr      r9,r0
 1804db4:	80 09 c7 fc 	lwz     r0,-14340(r9)
 1804db8:	30 00 00 01 	addic   r0,r0,1
 1804dbc:	3d 20 01 82 	lis     r9,386
 1804dc0:	39 29 c8 20 	addi    r9,r9,-14304
 1804dc4:	54 00 10 3a 	rlwinm  r0,r0,2,0,29
 1804dc8:	7c 09 02 14 	add     r0,r9,r0
 1804dcc:	81 3f 03 9c 	lwz     r9,924(r31)
 1804dd0:	7c 0b 03 78 	mr      r11,r0
 1804dd4:	91 2b 00 00 	stw     r9,0(r11)
 1804dd8:	3c 00 01 82 	lis     r0,386
 1804ddc:	7c 09 03 78 	mr      r9,r0
 1804de0:	80 09 c7 fc 	lwz     r0,-14340(r9)
 1804de4:	30 00 00 02 	addic   r0,r0,2
 1804de8:	3d 20 01 82 	lis     r9,386
 1804dec:	39 29 c8 20 	addi    r9,r9,-14304
 1804df0:	54 00 10 3a 	rlwinm  r0,r0,2,0,29
 1804df4:	7c 09 02 14 	add     r0,r9,r0
 1804df8:	81 3f 03 98 	lwz     r9,920(r31)
 1804dfc:	7c 0b 03 78 	mr      r11,r0
 1804e00:	91 2b 00 00 	stw     r9,0(r11)
 1804e04:	3c 00 01 82 	lis     r0,386
 1804e08:	7c 09 03 78 	mr      r9,r0
 1804e0c:	80 09 c7 fc 	lwz     r0,-14340(r9)
 1804e10:	31 20 00 03 	addic   r9,r0,3
 1804e14:	3c 00 01 82 	lis     r0,386
 1804e18:	7c 0b 03 78 	mr      r11,r0
 1804e1c:	91 2b c7 fc 	stw     r9,-14340(r11)
 1804e20:	3c 00 01 82 	lis     r0,386
 1804e24:	7c 09 03 78 	mr      r9,r0
 1804e28:	80 09 c7 f8 	lwz     r0,-14344(r9)
 1804e2c:	2f 80 00 04 	cmpwi   cr7,r0,4
 1804e30:	40 9d 01 8c 	ble-    cr7,1804fbc <main+0x4d9c>
 1804e34:	3c 00 01 82 	lis     r0,386
 1804e38:	7c 0b 03 78 	mr      r11,r0
 1804e3c:	80 0b c7 fc 	lwz     r0,-14340(r11)
 1804e40:	30 00 00 03 	addic   r0,r0,3
 1804e44:	2f 80 00 06 	cmpwi   cr7,r0,6
 1804e48:	41 9d 01 74 	bgt-    cr7,1804fbc <main+0x4d9c>
 1804e4c:	3c 00 01 82 	lis     r0,386
 1804e50:	30 00 c8 44 	addic   r0,r0,-14268
 1804e54:	7c 0b 03 78 	mr      r11,r0
 1804e58:	81 2b 00 00 	lwz     r9,0(r11)
 1804e5c:	3c 00 01 82 	lis     r0,386
 1804e60:	30 00 c8 44 	addic   r0,r0,-14268
 1804e64:	7c 0b 03 78 	mr      r11,r0
 1804e68:	80 0b 00 10 	lwz     r0,16(r11)
 1804e6c:	7f 89 00 00 	cmpw    cr7,r9,r0
 1804e70:	40 9e 01 4c 	bne-    cr7,1804fbc <main+0x4d9c>
 1804e74:	3c 00 01 82 	lis     r0,386
 1804e78:	30 00 c8 44 	addic   r0,r0,-14268
 1804e7c:	7c 0b 03 78 	mr      r11,r0
 1804e80:	81 2b 00 00 	lwz     r9,0(r11)
 1804e84:	3c 00 01 82 	lis     r0,386
 1804e88:	30 00 c8 44 	addic   r0,r0,-14268
 1804e8c:	7c 0b 03 78 	mr      r11,r0
 1804e90:	80 0b 00 08 	lwz     r0,8(r11)
 1804e94:	7f 89 00 00 	cmpw    cr7,r9,r0
 1804e98:	40 9e 01 24 	bne-    cr7,1804fbc <main+0x4d9c>
 1804e9c:	3c 00 01 82 	lis     r0,386
 1804ea0:	30 00 c8 44 	addic   r0,r0,-14268
 1804ea4:	7c 09 03 78 	mr      r9,r0
 1804ea8:	80 09 00 04 	lwz     r0,4(r9)
 1804eac:	90 1f 03 94 	stw     r0,916(r31)
 1804eb0:	3c 00 01 82 	lis     r0,386
 1804eb4:	30 00 c8 44 	addic   r0,r0,-14268
 1804eb8:	7c 0b 03 78 	mr      r11,r0
 1804ebc:	80 0b 00 00 	lwz     r0,0(r11)
 1804ec0:	90 1f 03 90 	stw     r0,912(r31)
 1804ec4:	81 3f 03 90 	lwz     r9,912(r31)
 1804ec8:	80 1f 03 94 	lwz     r0,916(r31)
 1804ecc:	7f 89 00 00 	cmpw    cr7,r9,r0
 1804ed0:	40 9d 00 ec 	ble-    cr7,1804fbc <main+0x4d9c>
 1804ed4:	3c 00 01 82 	lis     r0,386
 1804ed8:	30 00 c8 44 	addic   r0,r0,-14268
 1804edc:	7c 0b 03 78 	mr      r11,r0
 1804ee0:	81 2b 00 0c 	lwz     r9,12(r11)
 1804ee4:	3c 00 01 82 	lis     r0,386
 1804ee8:	30 00 c8 44 	addic   r0,r0,-14268
 1804eec:	7c 0b 03 78 	mr      r11,r0
 1804ef0:	91 2b 00 00 	stw     r9,0(r11)
 1804ef4:	3c 00 01 82 	lis     r0,386
 1804ef8:	7c 09 03 78 	mr      r9,r0
 1804efc:	80 09 c7 f8 	lwz     r0,-14344(r9)
 1804f00:	31 20 ff fc 	addic   r9,r0,-4
 1804f04:	3c 00 01 82 	lis     r0,386
 1804f08:	7c 0b 03 78 	mr      r11,r0
 1804f0c:	91 2b c7 f8 	stw     r9,-14344(r11)
 1804f10:	81 3f 03 94 	lwz     r9,916(r31)
 1804f14:	80 1f 03 90 	lwz     r0,912(r31)
 1804f18:	7c 09 02 14 	add     r0,r9,r0
 1804f1c:	90 1f 03 8c 	stw     r0,908(r31)
 1804f20:	3c 00 01 82 	lis     r0,386
 1804f24:	7c 09 03 78 	mr      r9,r0
 1804f28:	80 09 c7 fc 	lwz     r0,-14340(r9)
 1804f2c:	3d 20 01 82 	lis     r9,386
 1804f30:	39 29 c8 20 	addi    r9,r9,-14304
 1804f34:	54 00 10 3a 	rlwinm  r0,r0,2,0,29
 1804f38:	7c 09 02 14 	add     r0,r9,r0
 1804f3c:	81 3f 03 94 	lwz     r9,916(r31)
 1804f40:	7c 0b 03 78 	mr      r11,r0
 1804f44:	91 2b 00 00 	stw     r9,0(r11)
 1804f48:	3c 00 01 82 	lis     r0,386
 1804f4c:	7c 09 03 78 	mr      r9,r0
 1804f50:	80 09 c7 fc 	lwz     r0,-14340(r9)
 1804f54:	30 00 00 01 	addic   r0,r0,1
 1804f58:	3d 20 01 82 	lis     r9,386
 1804f5c:	39 29 c8 20 	addi    r9,r9,-14304
 1804f60:	54 00 10 3a 	rlwinm  r0,r0,2,0,29
 1804f64:	7c 09 02 14 	add     r0,r9,r0
 1804f68:	81 3f 03 90 	lwz     r9,912(r31)
 1804f6c:	7c 0b 03 78 	mr      r11,r0
 1804f70:	91 2b 00 00 	stw     r9,0(r11)
 1804f74:	3c 00 01 82 	lis     r0,386
 1804f78:	7c 09 03 78 	mr      r9,r0
 1804f7c:	80 09 c7 fc 	lwz     r0,-14340(r9)
 1804f80:	30 00 00 02 	addic   r0,r0,2
 1804f84:	3d 20 01 82 	lis     r9,386
 1804f88:	39 29 c8 20 	addi    r9,r9,-14304
 1804f8c:	54 00 10 3a 	rlwinm  r0,r0,2,0,29
 1804f90:	7c 09 02 14 	add     r0,r9,r0
 1804f94:	81 3f 03 8c 	lwz     r9,908(r31)
 1804f98:	7c 0b 03 78 	mr      r11,r0
 1804f9c:	91 2b 00 00 	stw     r9,0(r11)
 1804fa0:	3c 00 01 82 	lis     r0,386
 1804fa4:	7c 09 03 78 	mr      r9,r0
 1804fa8:	80 09 c7 fc 	lwz     r0,-14340(r9)
 1804fac:	31 20 00 03 	addic   r9,r0,3
 1804fb0:	3c 00 01 82 	lis     r0,386
 1804fb4:	7c 0b 03 78 	mr      r11,r0
 1804fb8:	91 2b c7 fc 	stw     r9,-14340(r11)
 1804fbc:	3c 00 01 82 	lis     r0,386
 1804fc0:	7c 09 03 78 	mr      r9,r0
 1804fc4:	80 09 c7 f8 	lwz     r0,-14344(r9)
 1804fc8:	2f 80 00 04 	cmpwi   cr7,r0,4
 1804fcc:	40 9d 01 8c 	ble-    cr7,1805158 <main+0x4f38>
 1804fd0:	3c 00 01 82 	lis     r0,386
 1804fd4:	7c 0b 03 78 	mr      r11,r0
 1804fd8:	80 0b c7 fc 	lwz     r0,-14340(r11)
 1804fdc:	30 00 00 03 	addic   r0,r0,3
 1804fe0:	2f 80 00 06 	cmpwi   cr7,r0,6
 1804fe4:	41 9d 01 74 	bgt-    cr7,1805158 <main+0x4f38>
 1804fe8:	3c 00 01 82 	lis     r0,386
 1804fec:	30 00 c8 44 	addic   r0,r0,-14268
 1804ff0:	7c 0b 03 78 	mr      r11,r0
 1804ff4:	81 2b 00 00 	lwz     r9,0(r11)
 1804ff8:	3c 00 01 82 	lis     r0,386
 1804ffc:	30 00 c8 44 	addic   r0,r0,-14268
 1805000:	7c 0b 03 78 	mr      r11,r0
 1805004:	80 0b 00 10 	lwz     r0,16(r11)
 1805008:	7f 89 00 00 	cmpw    cr7,r9,r0
 180500c:	40 9e 01 4c 	bne-    cr7,1805158 <main+0x4f38>
 1805010:	3c 00 01 82 	lis     r0,386
 1805014:	30 00 c8 44 	addic   r0,r0,-14268
 1805018:	7c 0b 03 78 	mr      r11,r0
 180501c:	81 2b 00 00 	lwz     r9,0(r11)
 1805020:	3c 00 01 82 	lis     r0,386
 1805024:	30 00 c8 44 	addic   r0,r0,-14268
 1805028:	7c 0b 03 78 	mr      r11,r0
 180502c:	80 0b 00 0c 	lwz     r0,12(r11)
 1805030:	7f 89 00 00 	cmpw    cr7,r9,r0
 1805034:	40 9e 01 24 	bne-    cr7,1805158 <main+0x4f38>
 1805038:	3c 00 01 82 	lis     r0,386
 180503c:	30 00 c8 44 	addic   r0,r0,-14268
 1805040:	7c 09 03 78 	mr      r9,r0
 1805044:	80 09 00 04 	lwz     r0,4(r9)
 1805048:	90 1f 03 88 	stw     r0,904(r31)
 180504c:	3c 00 01 82 	lis     r0,386
 1805050:	30 00 c8 44 	addic   r0,r0,-14268
 1805054:	7c 0b 03 78 	mr      r11,r0
 1805058:	80 0b 00 00 	lwz     r0,0(r11)
 180505c:	90 1f 03 84 	stw     r0,900(r31)
 1805060:	81 3f 03 84 	lwz     r9,900(r31)
 1805064:	80 1f 03 88 	lwz     r0,904(r31)
 1805068:	7f 89 00 00 	cmpw    cr7,r9,r0
 180506c:	40 9d 00 ec 	ble-    cr7,1805158 <main+0x4f38>
 1805070:	3c 00 01 82 	lis     r0,386
 1805074:	30 00 c8 44 	addic   r0,r0,-14268
 1805078:	7c 0b 03 78 	mr      r11,r0
 180507c:	81 2b 00 08 	lwz     r9,8(r11)
 1805080:	3c 00 01 82 	lis     r0,386
 1805084:	30 00 c8 44 	addic   r0,r0,-14268
 1805088:	7c 0b 03 78 	mr      r11,r0
 180508c:	91 2b 00 00 	stw     r9,0(r11)
 1805090:	3c 00 01 82 	lis     r0,386
 1805094:	7c 09 03 78 	mr      r9,r0
 1805098:	80 09 c7 f8 	lwz     r0,-14344(r9)
 180509c:	31 20 ff fc 	addic   r9,r0,-4
 18050a0:	3c 00 01 82 	lis     r0,386
 18050a4:	7c 0b 03 78 	mr      r11,r0
 18050a8:	91 2b c7 f8 	stw     r9,-14344(r11)
 18050ac:	81 3f 03 88 	lwz     r9,904(r31)
 18050b0:	80 1f 03 84 	lwz     r0,900(r31)
 18050b4:	7c 09 02 14 	add     r0,r9,r0
 18050b8:	90 1f 03 80 	stw     r0,896(r31)
 18050bc:	3c 00 01 82 	lis     r0,386
 18050c0:	7c 09 03 78 	mr      r9,r0
 18050c4:	80 09 c7 fc 	lwz     r0,-14340(r9)
 18050c8:	3d 20 01 82 	lis     r9,386
 18050cc:	39 29 c8 20 	addi    r9,r9,-14304
 18050d0:	54 00 10 3a 	rlwinm  r0,r0,2,0,29
 18050d4:	7c 09 02 14 	add     r0,r9,r0
 18050d8:	81 3f 03 88 	lwz     r9,904(r31)
 18050dc:	7c 0b 03 78 	mr      r11,r0
 18050e0:	91 2b 00 00 	stw     r9,0(r11)
 18050e4:	3c 00 01 82 	lis     r0,386
 18050e8:	7c 09 03 78 	mr      r9,r0
 18050ec:	80 09 c7 fc 	lwz     r0,-14340(r9)
 18050f0:	30 00 00 01 	addic   r0,r0,1
 18050f4:	3d 20 01 82 	lis     r9,386
 18050f8:	39 29 c8 20 	addi    r9,r9,-14304
 18050fc:	54 00 10 3a 	rlwinm  r0,r0,2,0,29
 1805100:	7c 09 02 14 	add     r0,r9,r0
 1805104:	81 3f 03 84 	lwz     r9,900(r31)
 1805108:	7c 0b 03 78 	mr      r11,r0
 180510c:	91 2b 00 00 	stw     r9,0(r11)
 1805110:	3c 00 01 82 	lis     r0,386
 1805114:	7c 09 03 78 	mr      r9,r0
 1805118:	80 09 c7 fc 	lwz     r0,-14340(r9)
 180511c:	30 00 00 02 	addic   r0,r0,2
 1805120:	3d 20 01 82 	lis     r9,386
 1805124:	39 29 c8 20 	addi    r9,r9,-14304
 1805128:	54 00 10 3a 	rlwinm  r0,r0,2,0,29
 180512c:	7c 09 02 14 	add     r0,r9,r0
 1805130:	81 3f 03 80 	lwz     r9,896(r31)
 1805134:	7c 0b 03 78 	mr      r11,r0
 1805138:	91 2b 00 00 	stw     r9,0(r11)
 180513c:	3c 00 01 82 	lis     r0,386
 1805140:	7c 09 03 78 	mr      r9,r0
 1805144:	80 09 c7 fc 	lwz     r0,-14340(r9)
 1805148:	31 20 00 03 	addic   r9,r0,3
 180514c:	3c 00 01 82 	lis     r0,386
 1805150:	7c 0b 03 78 	mr      r11,r0
 1805154:	91 2b c7 fc 	stw     r9,-14340(r11)
 1805158:	3c 00 01 82 	lis     r0,386
 180515c:	7c 09 03 78 	mr      r9,r0
 1805160:	80 09 c7 f8 	lwz     r0,-14344(r9)
 1805164:	2f 80 00 04 	cmpwi   cr7,r0,4
 1805168:	40 9d 01 8c 	ble-    cr7,18052f4 <main+0x50d4>
 180516c:	3c 00 01 82 	lis     r0,386
 1805170:	7c 0b 03 78 	mr      r11,r0
 1805174:	80 0b c7 fc 	lwz     r0,-14340(r11)
 1805178:	30 00 00 03 	addic   r0,r0,3
 180517c:	2f 80 00 06 	cmpwi   cr7,r0,6
 1805180:	41 9d 01 74 	bgt-    cr7,18052f4 <main+0x50d4>
 1805184:	3c 00 01 82 	lis     r0,386
 1805188:	30 00 c8 44 	addic   r0,r0,-14268
 180518c:	7c 0b 03 78 	mr      r11,r0
 1805190:	81 2b 00 08 	lwz     r9,8(r11)
 1805194:	3c 00 01 82 	lis     r0,386
 1805198:	30 00 c8 44 	addic   r0,r0,-14268
 180519c:	7c 0b 03 78 	mr      r11,r0
 18051a0:	80 0b 00 00 	lwz     r0,0(r11)
 18051a4:	7f 89 00 00 	cmpw    cr7,r9,r0
 18051a8:	40 9e 01 4c 	bne-    cr7,18052f4 <main+0x50d4>
 18051ac:	3c 00 01 82 	lis     r0,386
 18051b0:	30 00 c8 44 	addic   r0,r0,-14268
 18051b4:	7c 0b 03 78 	mr      r11,r0
 18051b8:	81 2b 00 08 	lwz     r9,8(r11)
 18051bc:	3c 00 01 82 	lis     r0,386
 18051c0:	30 00 c8 44 	addic   r0,r0,-14268
 18051c4:	7c 0b 03 78 	mr      r11,r0
 18051c8:	80 0b 00 10 	lwz     r0,16(r11)
 18051cc:	7f 89 00 00 	cmpw    cr7,r9,r0
 18051d0:	40 9e 01 24 	bne-    cr7,18052f4 <main+0x50d4>
 18051d4:	3c 00 01 82 	lis     r0,386
 18051d8:	30 00 c8 44 	addic   r0,r0,-14268
 18051dc:	7c 09 03 78 	mr      r9,r0
 18051e0:	80 09 00 04 	lwz     r0,4(r9)
 18051e4:	90 1f 03 7c 	stw     r0,892(r31)
 18051e8:	3c 00 01 82 	lis     r0,386
 18051ec:	30 00 c8 44 	addic   r0,r0,-14268
 18051f0:	7c 0b 03 78 	mr      r11,r0
 18051f4:	80 0b 00 08 	lwz     r0,8(r11)
 18051f8:	90 1f 03 78 	stw     r0,888(r31)
 18051fc:	81 3f 03 78 	lwz     r9,888(r31)
 1805200:	80 1f 03 7c 	lwz     r0,892(r31)
 1805204:	7f 89 00 00 	cmpw    cr7,r9,r0
 1805208:	40 9d 00 ec 	ble-    cr7,18052f4 <main+0x50d4>
 180520c:	3c 00 01 82 	lis     r0,386
 1805210:	30 00 c8 44 	addic   r0,r0,-14268
 1805214:	7c 0b 03 78 	mr      r11,r0
 1805218:	81 2b 00 0c 	lwz     r9,12(r11)
 180521c:	3c 00 01 82 	lis     r0,386
 1805220:	30 00 c8 44 	addic   r0,r0,-14268
 1805224:	7c 0b 03 78 	mr      r11,r0
 1805228:	91 2b 00 00 	stw     r9,0(r11)
 180522c:	3c 00 01 82 	lis     r0,386
 1805230:	7c 09 03 78 	mr      r9,r0
 1805234:	80 09 c7 f8 	lwz     r0,-14344(r9)
 1805238:	31 20 ff fc 	addic   r9,r0,-4
 180523c:	3c 00 01 82 	lis     r0,386
 1805240:	7c 0b 03 78 	mr      r11,r0
 1805244:	91 2b c7 f8 	stw     r9,-14344(r11)
 1805248:	81 3f 03 7c 	lwz     r9,892(r31)
 180524c:	80 1f 03 78 	lwz     r0,888(r31)
 1805250:	7c 09 02 14 	add     r0,r9,r0
 1805254:	90 1f 03 74 	stw     r0,884(r31)
 1805258:	3c 00 01 82 	lis     r0,386
 180525c:	7c 09 03 78 	mr      r9,r0
 1805260:	80 09 c7 fc 	lwz     r0,-14340(r9)
 1805264:	3d 20 01 82 	lis     r9,386
 1805268:	39 29 c8 20 	addi    r9,r9,-14304
 180526c:	54 00 10 3a 	rlwinm  r0,r0,2,0,29
 1805270:	7c 09 02 14 	add     r0,r9,r0
 1805274:	81 3f 03 7c 	lwz     r9,892(r31)
 1805278:	7c 0b 03 78 	mr      r11,r0
 180527c:	91 2b 00 00 	stw     r9,0(r11)
 1805280:	3c 00 01 82 	lis     r0,386
 1805284:	7c 09 03 78 	mr      r9,r0
 1805288:	80 09 c7 fc 	lwz     r0,-14340(r9)
 180528c:	30 00 00 01 	addic   r0,r0,1
 1805290:	3d 20 01 82 	lis     r9,386
 1805294:	39 29 c8 20 	addi    r9,r9,-14304
 1805298:	54 00 10 3a 	rlwinm  r0,r0,2,0,29
 180529c:	7c 09 02 14 	add     r0,r9,r0
 18052a0:	81 3f 03 78 	lwz     r9,888(r31)
 18052a4:	7c 0b 03 78 	mr      r11,r0
 18052a8:	91 2b 00 00 	stw     r9,0(r11)
 18052ac:	3c 00 01 82 	lis     r0,386
 18052b0:	7c 09 03 78 	mr      r9,r0
 18052b4:	80 09 c7 fc 	lwz     r0,-14340(r9)
 18052b8:	30 00 00 02 	addic   r0,r0,2
 18052bc:	3d 20 01 82 	lis     r9,386
 18052c0:	39 29 c8 20 	addi    r9,r9,-14304
 18052c4:	54 00 10 3a 	rlwinm  r0,r0,2,0,29
 18052c8:	7c 09 02 14 	add     r0,r9,r0
 18052cc:	81 3f 03 74 	lwz     r9,884(r31)
 18052d0:	7c 0b 03 78 	mr      r11,r0
 18052d4:	91 2b 00 00 	stw     r9,0(r11)
 18052d8:	3c 00 01 82 	lis     r0,386
 18052dc:	7c 09 03 78 	mr      r9,r0
 18052e0:	80 09 c7 fc 	lwz     r0,-14340(r9)
 18052e4:	31 20 00 03 	addic   r9,r0,3
 18052e8:	3c 00 01 82 	lis     r0,386
 18052ec:	7c 0b 03 78 	mr      r11,r0
 18052f0:	91 2b c7 fc 	stw     r9,-14340(r11)
 18052f4:	3c 00 01 82 	lis     r0,386
 18052f8:	7c 09 03 78 	mr      r9,r0
 18052fc:	80 09 c7 f8 	lwz     r0,-14344(r9)
 1805300:	2f 80 00 04 	cmpwi   cr7,r0,4
 1805304:	40 9d 01 6c 	ble-    cr7,1805470 <main+0x5250>
 1805308:	3c 00 01 82 	lis     r0,386
 180530c:	7c 0b 03 78 	mr      r11,r0
 1805310:	80 0b c7 fc 	lwz     r0,-14340(r11)
 1805314:	30 00 00 03 	addic   r0,r0,3
 1805318:	2f 80 00 06 	cmpwi   cr7,r0,6
 180531c:	41 9d 01 54 	bgt-    cr7,1805470 <main+0x5250>
 1805320:	3c 00 01 82 	lis     r0,386
 1805324:	30 00 c8 44 	addic   r0,r0,-14268
 1805328:	7c 0b 03 78 	mr      r11,r0
 180532c:	81 2b 00 08 	lwz     r9,8(r11)
 1805330:	3c 00 01 82 	lis     r0,386
 1805334:	30 00 c8 44 	addic   r0,r0,-14268
 1805338:	7c 0b 03 78 	mr      r11,r0
 180533c:	80 0b 00 0c 	lwz     r0,12(r11)
 1805340:	7f 89 00 00 	cmpw    cr7,r9,r0
 1805344:	40 9e 01 2c 	bne-    cr7,1805470 <main+0x5250>
 1805348:	3c 00 01 82 	lis     r0,386
 180534c:	30 00 c8 44 	addic   r0,r0,-14268
 1805350:	7c 0b 03 78 	mr      r11,r0
 1805354:	81 2b 00 08 	lwz     r9,8(r11)
 1805358:	3c 00 01 82 	lis     r0,386
 180535c:	30 00 c8 44 	addic   r0,r0,-14268
 1805360:	7c 0b 03 78 	mr      r11,r0
 1805364:	80 0b 00 10 	lwz     r0,16(r11)
 1805368:	7f 89 00 00 	cmpw    cr7,r9,r0
 180536c:	40 9e 01 04 	bne-    cr7,1805470 <main+0x5250>
 1805370:	3c 00 01 82 	lis     r0,386
 1805374:	30 00 c8 44 	addic   r0,r0,-14268
 1805378:	7c 09 03 78 	mr      r9,r0
 180537c:	80 09 00 04 	lwz     r0,4(r9)
 1805380:	90 1f 03 70 	stw     r0,880(r31)
 1805384:	3c 00 01 82 	lis     r0,386
 1805388:	30 00 c8 44 	addic   r0,r0,-14268
 180538c:	7c 0b 03 78 	mr      r11,r0
 1805390:	80 0b 00 08 	lwz     r0,8(r11)
 1805394:	90 1f 03 6c 	stw     r0,876(r31)
 1805398:	81 3f 03 6c 	lwz     r9,876(r31)
 180539c:	80 1f 03 70 	lwz     r0,880(r31)
 18053a0:	7f 89 00 00 	cmpw    cr7,r9,r0
 18053a4:	40 9d 00 cc 	ble-    cr7,1805470 <main+0x5250>
 18053a8:	3c 00 01 82 	lis     r0,386
 18053ac:	7c 09 03 78 	mr      r9,r0
 18053b0:	80 09 c7 f8 	lwz     r0,-14344(r9)
 18053b4:	31 20 ff fc 	addic   r9,r0,-4
 18053b8:	3c 00 01 82 	lis     r0,386
 18053bc:	7c 0b 03 78 	mr      r11,r0
 18053c0:	91 2b c7 f8 	stw     r9,-14344(r11)
 18053c4:	81 3f 03 70 	lwz     r9,880(r31)
 18053c8:	80 1f 03 6c 	lwz     r0,876(r31)
 18053cc:	7c 09 02 14 	add     r0,r9,r0
 18053d0:	90 1f 03 68 	stw     r0,872(r31)
 18053d4:	3c 00 01 82 	lis     r0,386
 18053d8:	7c 09 03 78 	mr      r9,r0
 18053dc:	80 09 c7 fc 	lwz     r0,-14340(r9)
 18053e0:	3d 20 01 82 	lis     r9,386
 18053e4:	39 29 c8 20 	addi    r9,r9,-14304
 18053e8:	54 00 10 3a 	rlwinm  r0,r0,2,0,29
 18053ec:	7c 09 02 14 	add     r0,r9,r0
 18053f0:	81 3f 03 70 	lwz     r9,880(r31)
 18053f4:	7c 0b 03 78 	mr      r11,r0
 18053f8:	91 2b 00 00 	stw     r9,0(r11)
 18053fc:	3c 00 01 82 	lis     r0,386
 1805400:	7c 09 03 78 	mr      r9,r0
 1805404:	80 09 c7 fc 	lwz     r0,-14340(r9)
 1805408:	30 00 00 01 	addic   r0,r0,1
 180540c:	3d 20 01 82 	lis     r9,386
 1805410:	39 29 c8 20 	addi    r9,r9,-14304
 1805414:	54 00 10 3a 	rlwinm  r0,r0,2,0,29
 1805418:	7c 09 02 14 	add     r0,r9,r0
 180541c:	81 3f 03 6c 	lwz     r9,876(r31)
 1805420:	7c 0b 03 78 	mr      r11,r0
 1805424:	91 2b 00 00 	stw     r9,0(r11)
 1805428:	3c 00 01 82 	lis     r0,386
 180542c:	7c 09 03 78 	mr      r9,r0
 1805430:	80 09 c7 fc 	lwz     r0,-14340(r9)
 1805434:	30 00 00 02 	addic   r0,r0,2
 1805438:	3d 20 01 82 	lis     r9,386
 180543c:	39 29 c8 20 	addi    r9,r9,-14304
 1805440:	54 00 10 3a 	rlwinm  r0,r0,2,0,29
 1805444:	7c 09 02 14 	add     r0,r9,r0
 1805448:	81 3f 03 68 	lwz     r9,872(r31)
 180544c:	7c 0b 03 78 	mr      r11,r0
 1805450:	91 2b 00 00 	stw     r9,0(r11)
 1805454:	3c 00 01 82 	lis     r0,386
 1805458:	7c 09 03 78 	mr      r9,r0
 180545c:	80 09 c7 fc 	lwz     r0,-14340(r9)
 1805460:	31 20 00 03 	addic   r9,r0,3
 1805464:	3c 00 01 82 	lis     r0,386
 1805468:	7c 0b 03 78 	mr      r11,r0
 180546c:	91 2b c7 fc 	stw     r9,-14340(r11)
 1805470:	3c 00 01 82 	lis     r0,386
 1805474:	7c 09 03 78 	mr      r9,r0
 1805478:	80 09 c7 f8 	lwz     r0,-14344(r9)
 180547c:	2f 80 00 04 	cmpwi   cr7,r0,4
 1805480:	40 9d 01 8c 	ble-    cr7,180560c <main+0x53ec>
 1805484:	3c 00 01 82 	lis     r0,386
 1805488:	7c 0b 03 78 	mr      r11,r0
 180548c:	80 0b c7 fc 	lwz     r0,-14340(r11)
 1805490:	30 00 00 03 	addic   r0,r0,3
 1805494:	2f 80 00 06 	cmpwi   cr7,r0,6
 1805498:	41 9d 01 74 	bgt-    cr7,180560c <main+0x53ec>
 180549c:	3c 00 01 82 	lis     r0,386
 18054a0:	30 00 c8 44 	addic   r0,r0,-14268
 18054a4:	7c 0b 03 78 	mr      r11,r0
 18054a8:	81 2b 00 08 	lwz     r9,8(r11)
 18054ac:	3c 00 01 82 	lis     r0,386
 18054b0:	30 00 c8 44 	addic   r0,r0,-14268
 18054b4:	7c 0b 03 78 	mr      r11,r0
 18054b8:	80 0b 00 10 	lwz     r0,16(r11)
 18054bc:	7f 89 00 00 	cmpw    cr7,r9,r0
 18054c0:	40 9e 01 4c 	bne-    cr7,180560c <main+0x53ec>
 18054c4:	3c 00 01 82 	lis     r0,386
 18054c8:	30 00 c8 44 	addic   r0,r0,-14268
 18054cc:	7c 0b 03 78 	mr      r11,r0
 18054d0:	81 2b 00 08 	lwz     r9,8(r11)
 18054d4:	3c 00 01 82 	lis     r0,386
 18054d8:	30 00 c8 44 	addic   r0,r0,-14268
 18054dc:	7c 0b 03 78 	mr      r11,r0
 18054e0:	80 0b 00 00 	lwz     r0,0(r11)
 18054e4:	7f 89 00 00 	cmpw    cr7,r9,r0
 18054e8:	40 9e 01 24 	bne-    cr7,180560c <main+0x53ec>
 18054ec:	3c 00 01 82 	lis     r0,386
 18054f0:	30 00 c8 44 	addic   r0,r0,-14268
 18054f4:	7c 09 03 78 	mr      r9,r0
 18054f8:	80 09 00 04 	lwz     r0,4(r9)
 18054fc:	90 1f 03 64 	stw     r0,868(r31)
 1805500:	3c 00 01 82 	lis     r0,386
 1805504:	30 00 c8 44 	addic   r0,r0,-14268
 1805508:	7c 0b 03 78 	mr      r11,r0
 180550c:	80 0b 00 08 	lwz     r0,8(r11)
 1805510:	90 1f 03 60 	stw     r0,864(r31)
 1805514:	81 3f 03 60 	lwz     r9,864(r31)
 1805518:	80 1f 03 64 	lwz     r0,868(r31)
 180551c:	7f 89 00 00 	cmpw    cr7,r9,r0
 1805520:	40 9d 00 ec 	ble-    cr7,180560c <main+0x53ec>
 1805524:	3c 00 01 82 	lis     r0,386
 1805528:	30 00 c8 44 	addic   r0,r0,-14268
 180552c:	7c 0b 03 78 	mr      r11,r0
 1805530:	81 2b 00 0c 	lwz     r9,12(r11)
 1805534:	3c 00 01 82 	lis     r0,386
 1805538:	30 00 c8 44 	addic   r0,r0,-14268
 180553c:	7c 0b 03 78 	mr      r11,r0
 1805540:	91 2b 00 00 	stw     r9,0(r11)
 1805544:	3c 00 01 82 	lis     r0,386
 1805548:	7c 09 03 78 	mr      r9,r0
 180554c:	80 09 c7 f8 	lwz     r0,-14344(r9)
 1805550:	31 20 ff fc 	addic   r9,r0,-4
 1805554:	3c 00 01 82 	lis     r0,386
 1805558:	7c 0b 03 78 	mr      r11,r0
 180555c:	91 2b c7 f8 	stw     r9,-14344(r11)
 1805560:	81 3f 03 64 	lwz     r9,868(r31)
 1805564:	80 1f 03 60 	lwz     r0,864(r31)
 1805568:	7c 09 02 14 	add     r0,r9,r0
 180556c:	90 1f 03 5c 	stw     r0,860(r31)
 1805570:	3c 00 01 82 	lis     r0,386
 1805574:	7c 09 03 78 	mr      r9,r0
 1805578:	80 09 c7 fc 	lwz     r0,-14340(r9)
 180557c:	3d 20 01 82 	lis     r9,386
 1805580:	39 29 c8 20 	addi    r9,r9,-14304
 1805584:	54 00 10 3a 	rlwinm  r0,r0,2,0,29
 1805588:	7c 09 02 14 	add     r0,r9,r0
 180558c:	81 3f 03 64 	lwz     r9,868(r31)
 1805590:	7c 0b 03 78 	mr      r11,r0
 1805594:	91 2b 00 00 	stw     r9,0(r11)
 1805598:	3c 00 01 82 	lis     r0,386
 180559c:	7c 09 03 78 	mr      r9,r0
 18055a0:	80 09 c7 fc 	lwz     r0,-14340(r9)
 18055a4:	30 00 00 01 	addic   r0,r0,1
 18055a8:	3d 20 01 82 	lis     r9,386
 18055ac:	39 29 c8 20 	addi    r9,r9,-14304
 18055b0:	54 00 10 3a 	rlwinm  r0,r0,2,0,29
 18055b4:	7c 09 02 14 	add     r0,r9,r0
 18055b8:	81 3f 03 60 	lwz     r9,864(r31)
 18055bc:	7c 0b 03 78 	mr      r11,r0
 18055c0:	91 2b 00 00 	stw     r9,0(r11)
 18055c4:	3c 00 01 82 	lis     r0,386
 18055c8:	7c 09 03 78 	mr      r9,r0
 18055cc:	80 09 c7 fc 	lwz     r0,-14340(r9)
 18055d0:	30 00 00 02 	addic   r0,r0,2
 18055d4:	3d 20 01 82 	lis     r9,386
 18055d8:	39 29 c8 20 	addi    r9,r9,-14304
 18055dc:	54 00 10 3a 	rlwinm  r0,r0,2,0,29
 18055e0:	7c 09 02 14 	add     r0,r9,r0
 18055e4:	81 3f 03 5c 	lwz     r9,860(r31)
 18055e8:	7c 0b 03 78 	mr      r11,r0
 18055ec:	91 2b 00 00 	stw     r9,0(r11)
 18055f0:	3c 00 01 82 	lis     r0,386
 18055f4:	7c 09 03 78 	mr      r9,r0
 18055f8:	80 09 c7 fc 	lwz     r0,-14340(r9)
 18055fc:	31 20 00 03 	addic   r9,r0,3
 1805600:	3c 00 01 82 	lis     r0,386
 1805604:	7c 0b 03 78 	mr      r11,r0
 1805608:	91 2b c7 fc 	stw     r9,-14340(r11)
 180560c:	3c 00 01 82 	lis     r0,386
 1805610:	7c 09 03 78 	mr      r9,r0
 1805614:	80 09 c7 f8 	lwz     r0,-14344(r9)
 1805618:	2f 80 00 04 	cmpwi   cr7,r0,4
 180561c:	40 9d 01 6c 	ble-    cr7,1805788 <main+0x5568>
 1805620:	3c 00 01 82 	lis     r0,386
 1805624:	7c 0b 03 78 	mr      r11,r0
 1805628:	80 0b c7 fc 	lwz     r0,-14340(r11)
 180562c:	30 00 00 03 	addic   r0,r0,3
 1805630:	2f 80 00 06 	cmpwi   cr7,r0,6
 1805634:	41 9d 01 54 	bgt-    cr7,1805788 <main+0x5568>
 1805638:	3c 00 01 82 	lis     r0,386
 180563c:	30 00 c8 44 	addic   r0,r0,-14268
 1805640:	7c 0b 03 78 	mr      r11,r0
 1805644:	81 2b 00 08 	lwz     r9,8(r11)
 1805648:	3c 00 01 82 	lis     r0,386
 180564c:	30 00 c8 44 	addic   r0,r0,-14268
 1805650:	7c 0b 03 78 	mr      r11,r0
 1805654:	80 0b 00 10 	lwz     r0,16(r11)
 1805658:	7f 89 00 00 	cmpw    cr7,r9,r0
 180565c:	40 9e 01 2c 	bne-    cr7,1805788 <main+0x5568>
 1805660:	3c 00 01 82 	lis     r0,386
 1805664:	30 00 c8 44 	addic   r0,r0,-14268
 1805668:	7c 0b 03 78 	mr      r11,r0
 180566c:	81 2b 00 08 	lwz     r9,8(r11)
 1805670:	3c 00 01 82 	lis     r0,386
 1805674:	30 00 c8 44 	addic   r0,r0,-14268
 1805678:	7c 0b 03 78 	mr      r11,r0
 180567c:	80 0b 00 0c 	lwz     r0,12(r11)
 1805680:	7f 89 00 00 	cmpw    cr7,r9,r0
 1805684:	40 9e 01 04 	bne-    cr7,1805788 <main+0x5568>
 1805688:	3c 00 01 82 	lis     r0,386
 180568c:	30 00 c8 44 	addic   r0,r0,-14268
 1805690:	7c 09 03 78 	mr      r9,r0
 1805694:	80 09 00 04 	lwz     r0,4(r9)
 1805698:	90 1f 03 58 	stw     r0,856(r31)
 180569c:	3c 00 01 82 	lis     r0,386
 18056a0:	30 00 c8 44 	addic   r0,r0,-14268
 18056a4:	7c 0b 03 78 	mr      r11,r0
 18056a8:	80 0b 00 08 	lwz     r0,8(r11)
 18056ac:	90 1f 03 54 	stw     r0,852(r31)
 18056b0:	81 3f 03 54 	lwz     r9,852(r31)
 18056b4:	80 1f 03 58 	lwz     r0,856(r31)
 18056b8:	7f 89 00 00 	cmpw    cr7,r9,r0
 18056bc:	40 9d 00 cc 	ble-    cr7,1805788 <main+0x5568>
 18056c0:	3c 00 01 82 	lis     r0,386
 18056c4:	7c 09 03 78 	mr      r9,r0
 18056c8:	80 09 c7 f8 	lwz     r0,-14344(r9)
 18056cc:	31 20 ff fc 	addic   r9,r0,-4
 18056d0:	3c 00 01 82 	lis     r0,386
 18056d4:	7c 0b 03 78 	mr      r11,r0
 18056d8:	91 2b c7 f8 	stw     r9,-14344(r11)
 18056dc:	81 3f 03 58 	lwz     r9,856(r31)
 18056e0:	80 1f 03 54 	lwz     r0,852(r31)
 18056e4:	7c 09 02 14 	add     r0,r9,r0
 18056e8:	90 1f 03 50 	stw     r0,848(r31)
 18056ec:	3c 00 01 82 	lis     r0,386
 18056f0:	7c 09 03 78 	mr      r9,r0
 18056f4:	80 09 c7 fc 	lwz     r0,-14340(r9)
 18056f8:	3d 20 01 82 	lis     r9,386
 18056fc:	39 29 c8 20 	addi    r9,r9,-14304
 1805700:	54 00 10 3a 	rlwinm  r0,r0,2,0,29
 1805704:	7c 09 02 14 	add     r0,r9,r0
 1805708:	81 3f 03 58 	lwz     r9,856(r31)
 180570c:	7c 0b 03 78 	mr      r11,r0
 1805710:	91 2b 00 00 	stw     r9,0(r11)
 1805714:	3c 00 01 82 	lis     r0,386
 1805718:	7c 09 03 78 	mr      r9,r0
 180571c:	80 09 c7 fc 	lwz     r0,-14340(r9)
 1805720:	30 00 00 01 	addic   r0,r0,1
 1805724:	3d 20 01 82 	lis     r9,386
 1805728:	39 29 c8 20 	addi    r9,r9,-14304
 180572c:	54 00 10 3a 	rlwinm  r0,r0,2,0,29
 1805730:	7c 09 02 14 	add     r0,r9,r0
 1805734:	81 3f 03 54 	lwz     r9,852(r31)
 1805738:	7c 0b 03 78 	mr      r11,r0
 180573c:	91 2b 00 00 	stw     r9,0(r11)
 1805740:	3c 00 01 82 	lis     r0,386
 1805744:	7c 09 03 78 	mr      r9,r0
 1805748:	80 09 c7 fc 	lwz     r0,-14340(r9)
 180574c:	30 00 00 02 	addic   r0,r0,2
 1805750:	3d 20 01 82 	lis     r9,386
 1805754:	39 29 c8 20 	addi    r9,r9,-14304
 1805758:	54 00 10 3a 	rlwinm  r0,r0,2,0,29
 180575c:	7c 09 02 14 	add     r0,r9,r0
 1805760:	81 3f 03 50 	lwz     r9,848(r31)
 1805764:	7c 0b 03 78 	mr      r11,r0
 1805768:	91 2b 00 00 	stw     r9,0(r11)
 180576c:	3c 00 01 82 	lis     r0,386
 1805770:	7c 09 03 78 	mr      r9,r0
 1805774:	80 09 c7 fc 	lwz     r0,-14340(r9)
 1805778:	31 20 00 03 	addic   r9,r0,3
 180577c:	3c 00 01 82 	lis     r0,386
 1805780:	7c 0b 03 78 	mr      r11,r0
 1805784:	91 2b c7 fc 	stw     r9,-14340(r11)
 1805788:	3c 00 01 82 	lis     r0,386
 180578c:	7c 09 03 78 	mr      r9,r0
 1805790:	80 09 c7 f8 	lwz     r0,-14344(r9)
 1805794:	2f 80 00 04 	cmpwi   cr7,r0,4
 1805798:	40 9d 01 8c 	ble-    cr7,1805924 <main+0x5704>
 180579c:	3c 00 01 82 	lis     r0,386
 18057a0:	7c 0b 03 78 	mr      r11,r0
 18057a4:	80 0b c7 fc 	lwz     r0,-14340(r11)
 18057a8:	30 00 00 03 	addic   r0,r0,3
 18057ac:	2f 80 00 06 	cmpwi   cr7,r0,6
 18057b0:	41 9d 01 74 	bgt-    cr7,1805924 <main+0x5704>
 18057b4:	3c 00 01 82 	lis     r0,386
 18057b8:	30 00 c8 44 	addic   r0,r0,-14268
 18057bc:	7c 0b 03 78 	mr      r11,r0
 18057c0:	81 2b 00 0c 	lwz     r9,12(r11)
 18057c4:	3c 00 01 82 	lis     r0,386
 18057c8:	30 00 c8 44 	addic   r0,r0,-14268
 18057cc:	7c 0b 03 78 	mr      r11,r0
 18057d0:	80 0b 00 00 	lwz     r0,0(r11)
 18057d4:	7f 89 00 00 	cmpw    cr7,r9,r0
 18057d8:	40 9e 01 4c 	bne-    cr7,1805924 <main+0x5704>
 18057dc:	3c 00 01 82 	lis     r0,386
 18057e0:	30 00 c8 44 	addic   r0,r0,-14268
 18057e4:	7c 0b 03 78 	mr      r11,r0
 18057e8:	81 2b 00 0c 	lwz     r9,12(r11)
 18057ec:	3c 00 01 82 	lis     r0,386
 18057f0:	30 00 c8 44 	addic   r0,r0,-14268
 18057f4:	7c 0b 03 78 	mr      r11,r0
 18057f8:	80 0b 00 10 	lwz     r0,16(r11)
 18057fc:	7f 89 00 00 	cmpw    cr7,r9,r0
 1805800:	40 9e 01 24 	bne-    cr7,1805924 <main+0x5704>
 1805804:	3c 00 01 82 	lis     r0,386
 1805808:	30 00 c8 44 	addic   r0,r0,-14268
 180580c:	7c 09 03 78 	mr      r9,r0
 1805810:	80 09 00 04 	lwz     r0,4(r9)
 1805814:	90 1f 03 4c 	stw     r0,844(r31)
 1805818:	3c 00 01 82 	lis     r0,386
 180581c:	30 00 c8 44 	addic   r0,r0,-14268
 1805820:	7c 0b 03 78 	mr      r11,r0
 1805824:	80 0b 00 0c 	lwz     r0,12(r11)
 1805828:	90 1f 03 48 	stw     r0,840(r31)
 180582c:	81 3f 03 48 	lwz     r9,840(r31)
 1805830:	80 1f 03 4c 	lwz     r0,844(r31)
 1805834:	7f 89 00 00 	cmpw    cr7,r9,r0
 1805838:	40 9d 00 ec 	ble-    cr7,1805924 <main+0x5704>
 180583c:	3c 00 01 82 	lis     r0,386
 1805840:	30 00 c8 44 	addic   r0,r0,-14268
 1805844:	7c 0b 03 78 	mr      r11,r0
 1805848:	81 2b 00 08 	lwz     r9,8(r11)
 180584c:	3c 00 01 82 	lis     r0,386
 1805850:	30 00 c8 44 	addic   r0,r0,-14268
 1805854:	7c 0b 03 78 	mr      r11,r0
 1805858:	91 2b 00 00 	stw     r9,0(r11)
 180585c:	3c 00 01 82 	lis     r0,386
 1805860:	7c 09 03 78 	mr      r9,r0
 1805864:	80 09 c7 f8 	lwz     r0,-14344(r9)
 1805868:	31 20 ff fc 	addic   r9,r0,-4
 180586c:	3c 00 01 82 	lis     r0,386
 1805870:	7c 0b 03 78 	mr      r11,r0
 1805874:	91 2b c7 f8 	stw     r9,-14344(r11)
 1805878:	81 3f 03 4c 	lwz     r9,844(r31)
 180587c:	80 1f 03 48 	lwz     r0,840(r31)
 1805880:	7c 09 02 14 	add     r0,r9,r0
 1805884:	90 1f 03 44 	stw     r0,836(r31)
 1805888:	3c 00 01 82 	lis     r0,386
 180588c:	7c 09 03 78 	mr      r9,r0
 1805890:	80 09 c7 fc 	lwz     r0,-14340(r9)
 1805894:	3d 20 01 82 	lis     r9,386
 1805898:	39 29 c8 20 	addi    r9,r9,-14304
 180589c:	54 00 10 3a 	rlwinm  r0,r0,2,0,29
 18058a0:	7c 09 02 14 	add     r0,r9,r0
 18058a4:	81 3f 03 4c 	lwz     r9,844(r31)
 18058a8:	7c 0b 03 78 	mr      r11,r0
 18058ac:	91 2b 00 00 	stw     r9,0(r11)
 18058b0:	3c 00 01 82 	lis     r0,386
 18058b4:	7c 09 03 78 	mr      r9,r0
 18058b8:	80 09 c7 fc 	lwz     r0,-14340(r9)
 18058bc:	30 00 00 01 	addic   r0,r0,1
 18058c0:	3d 20 01 82 	lis     r9,386
 18058c4:	39 29 c8 20 	addi    r9,r9,-14304
 18058c8:	54 00 10 3a 	rlwinm  r0,r0,2,0,29
 18058cc:	7c 09 02 14 	add     r0,r9,r0
 18058d0:	81 3f 03 48 	lwz     r9,840(r31)
 18058d4:	7c 0b 03 78 	mr      r11,r0
 18058d8:	91 2b 00 00 	stw     r9,0(r11)
 18058dc:	3c 00 01 82 	lis     r0,386
 18058e0:	7c 09 03 78 	mr      r9,r0
 18058e4:	80 09 c7 fc 	lwz     r0,-14340(r9)
 18058e8:	30 00 00 02 	addic   r0,r0,2
 18058ec:	3d 20 01 82 	lis     r9,386
 18058f0:	39 29 c8 20 	addi    r9,r9,-14304
 18058f4:	54 00 10 3a 	rlwinm  r0,r0,2,0,29
 18058f8:	7c 09 02 14 	add     r0,r9,r0
 18058fc:	81 3f 03 44 	lwz     r9,836(r31)
 1805900:	7c 0b 03 78 	mr      r11,r0
 1805904:	91 2b 00 00 	stw     r9,0(r11)
 1805908:	3c 00 01 82 	lis     r0,386
 180590c:	7c 09 03 78 	mr      r9,r0
 1805910:	80 09 c7 fc 	lwz     r0,-14340(r9)
 1805914:	31 20 00 03 	addic   r9,r0,3
 1805918:	3c 00 01 82 	lis     r0,386
 180591c:	7c 0b 03 78 	mr      r11,r0
 1805920:	91 2b c7 fc 	stw     r9,-14340(r11)
 1805924:	3c 00 01 82 	lis     r0,386
 1805928:	7c 09 03 78 	mr      r9,r0
 180592c:	80 09 c7 f8 	lwz     r0,-14344(r9)
 1805930:	2f 80 00 04 	cmpwi   cr7,r0,4
 1805934:	40 9d 01 6c 	ble-    cr7,1805aa0 <main+0x5880>
 1805938:	3c 00 01 82 	lis     r0,386
 180593c:	7c 0b 03 78 	mr      r11,r0
 1805940:	80 0b c7 fc 	lwz     r0,-14340(r11)
 1805944:	30 00 00 03 	addic   r0,r0,3
 1805948:	2f 80 00 06 	cmpwi   cr7,r0,6
 180594c:	41 9d 01 54 	bgt-    cr7,1805aa0 <main+0x5880>
 1805950:	3c 00 01 82 	lis     r0,386
 1805954:	30 00 c8 44 	addic   r0,r0,-14268
 1805958:	7c 0b 03 78 	mr      r11,r0
 180595c:	81 2b 00 0c 	lwz     r9,12(r11)
 1805960:	3c 00 01 82 	lis     r0,386
 1805964:	30 00 c8 44 	addic   r0,r0,-14268
 1805968:	7c 0b 03 78 	mr      r11,r0
 180596c:	80 0b 00 08 	lwz     r0,8(r11)
 1805970:	7f 89 00 00 	cmpw    cr7,r9,r0
 1805974:	40 9e 01 2c 	bne-    cr7,1805aa0 <main+0x5880>
 1805978:	3c 00 01 82 	lis     r0,386
 180597c:	30 00 c8 44 	addic   r0,r0,-14268
 1805980:	7c 0b 03 78 	mr      r11,r0
 1805984:	81 2b 00 0c 	lwz     r9,12(r11)
 1805988:	3c 00 01 82 	lis     r0,386
 180598c:	30 00 c8 44 	addic   r0,r0,-14268
 1805990:	7c 0b 03 78 	mr      r11,r0
 1805994:	80 0b 00 10 	lwz     r0,16(r11)
 1805998:	7f 89 00 00 	cmpw    cr7,r9,r0
 180599c:	40 9e 01 04 	bne-    cr7,1805aa0 <main+0x5880>
 18059a0:	3c 00 01 82 	lis     r0,386
 18059a4:	30 00 c8 44 	addic   r0,r0,-14268
 18059a8:	7c 09 03 78 	mr      r9,r0
 18059ac:	80 09 00 04 	lwz     r0,4(r9)
 18059b0:	90 1f 03 40 	stw     r0,832(r31)
 18059b4:	3c 00 01 82 	lis     r0,386
 18059b8:	30 00 c8 44 	addic   r0,r0,-14268
 18059bc:	7c 0b 03 78 	mr      r11,r0
 18059c0:	80 0b 00 0c 	lwz     r0,12(r11)
 18059c4:	90 1f 03 3c 	stw     r0,828(r31)
 18059c8:	81 3f 03 3c 	lwz     r9,828(r31)
 18059cc:	80 1f 03 40 	lwz     r0,832(r31)
 18059d0:	7f 89 00 00 	cmpw    cr7,r9,r0
 18059d4:	40 9d 00 cc 	ble-    cr7,1805aa0 <main+0x5880>
 18059d8:	3c 00 01 82 	lis     r0,386
 18059dc:	7c 09 03 78 	mr      r9,r0
 18059e0:	80 09 c7 f8 	lwz     r0,-14344(r9)
 18059e4:	31 20 ff fc 	addic   r9,r0,-4
 18059e8:	3c 00 01 82 	lis     r0,386
 18059ec:	7c 0b 03 78 	mr      r11,r0
 18059f0:	91 2b c7 f8 	stw     r9,-14344(r11)
 18059f4:	81 3f 03 40 	lwz     r9,832(r31)
 18059f8:	80 1f 03 3c 	lwz     r0,828(r31)
 18059fc:	7c 09 02 14 	add     r0,r9,r0
 1805a00:	90 1f 03 38 	stw     r0,824(r31)
 1805a04:	3c 00 01 82 	lis     r0,386
 1805a08:	7c 09 03 78 	mr      r9,r0
 1805a0c:	80 09 c7 fc 	lwz     r0,-14340(r9)
 1805a10:	3d 20 01 82 	lis     r9,386
 1805a14:	39 29 c8 20 	addi    r9,r9,-14304
 1805a18:	54 00 10 3a 	rlwinm  r0,r0,2,0,29
 1805a1c:	7c 09 02 14 	add     r0,r9,r0
 1805a20:	81 3f 03 40 	lwz     r9,832(r31)
 1805a24:	7c 0b 03 78 	mr      r11,r0
 1805a28:	91 2b 00 00 	stw     r9,0(r11)
 1805a2c:	3c 00 01 82 	lis     r0,386
 1805a30:	7c 09 03 78 	mr      r9,r0
 1805a34:	80 09 c7 fc 	lwz     r0,-14340(r9)
 1805a38:	30 00 00 01 	addic   r0,r0,1
 1805a3c:	3d 20 01 82 	lis     r9,386
 1805a40:	39 29 c8 20 	addi    r9,r9,-14304
 1805a44:	54 00 10 3a 	rlwinm  r0,r0,2,0,29
 1805a48:	7c 09 02 14 	add     r0,r9,r0
 1805a4c:	81 3f 03 3c 	lwz     r9,828(r31)
 1805a50:	7c 0b 03 78 	mr      r11,r0
 1805a54:	91 2b 00 00 	stw     r9,0(r11)
 1805a58:	3c 00 01 82 	lis     r0,386
 1805a5c:	7c 09 03 78 	mr      r9,r0
 1805a60:	80 09 c7 fc 	lwz     r0,-14340(r9)
 1805a64:	30 00 00 02 	addic   r0,r0,2
 1805a68:	3d 20 01 82 	lis     r9,386
 1805a6c:	39 29 c8 20 	addi    r9,r9,-14304
 1805a70:	54 00 10 3a 	rlwinm  r0,r0,2,0,29
 1805a74:	7c 09 02 14 	add     r0,r9,r0
 1805a78:	81 3f 03 38 	lwz     r9,824(r31)
 1805a7c:	7c 0b 03 78 	mr      r11,r0
 1805a80:	91 2b 00 00 	stw     r9,0(r11)
 1805a84:	3c 00 01 82 	lis     r0,386
 1805a88:	7c 09 03 78 	mr      r9,r0
 1805a8c:	80 09 c7 fc 	lwz     r0,-14340(r9)
 1805a90:	31 20 00 03 	addic   r9,r0,3
 1805a94:	3c 00 01 82 	lis     r0,386
 1805a98:	7c 0b 03 78 	mr      r11,r0
 1805a9c:	91 2b c7 fc 	stw     r9,-14340(r11)
 1805aa0:	3c 00 01 82 	lis     r0,386
 1805aa4:	7c 09 03 78 	mr      r9,r0
 1805aa8:	80 09 c7 f8 	lwz     r0,-14344(r9)
 1805aac:	2f 80 00 04 	cmpwi   cr7,r0,4
 1805ab0:	40 9d 01 8c 	ble-    cr7,1805c3c <main+0x5a1c>
 1805ab4:	3c 00 01 82 	lis     r0,386
 1805ab8:	7c 0b 03 78 	mr      r11,r0
 1805abc:	80 0b c7 fc 	lwz     r0,-14340(r11)
 1805ac0:	30 00 00 03 	addic   r0,r0,3
 1805ac4:	2f 80 00 06 	cmpwi   cr7,r0,6
 1805ac8:	41 9d 01 74 	bgt-    cr7,1805c3c <main+0x5a1c>
 1805acc:	3c 00 01 82 	lis     r0,386
 1805ad0:	30 00 c8 44 	addic   r0,r0,-14268
 1805ad4:	7c 0b 03 78 	mr      r11,r0
 1805ad8:	81 2b 00 0c 	lwz     r9,12(r11)
 1805adc:	3c 00 01 82 	lis     r0,386
 1805ae0:	30 00 c8 44 	addic   r0,r0,-14268
 1805ae4:	7c 0b 03 78 	mr      r11,r0
 1805ae8:	80 0b 00 10 	lwz     r0,16(r11)
 1805aec:	7f 89 00 00 	cmpw    cr7,r9,r0
 1805af0:	40 9e 01 4c 	bne-    cr7,1805c3c <main+0x5a1c>
 1805af4:	3c 00 01 82 	lis     r0,386
 1805af8:	30 00 c8 44 	addic   r0,r0,-14268
 1805afc:	7c 0b 03 78 	mr      r11,r0
 1805b00:	81 2b 00 0c 	lwz     r9,12(r11)
 1805b04:	3c 00 01 82 	lis     r0,386
 1805b08:	30 00 c8 44 	addic   r0,r0,-14268
 1805b0c:	7c 0b 03 78 	mr      r11,r0
 1805b10:	80 0b 00 00 	lwz     r0,0(r11)
 1805b14:	7f 89 00 00 	cmpw    cr7,r9,r0
 1805b18:	40 9e 01 24 	bne-    cr7,1805c3c <main+0x5a1c>
 1805b1c:	3c 00 01 82 	lis     r0,386
 1805b20:	30 00 c8 44 	addic   r0,r0,-14268
 1805b24:	7c 09 03 78 	mr      r9,r0
 1805b28:	80 09 00 04 	lwz     r0,4(r9)
 1805b2c:	90 1f 03 34 	stw     r0,820(r31)
 1805b30:	3c 00 01 82 	lis     r0,386
 1805b34:	30 00 c8 44 	addic   r0,r0,-14268
 1805b38:	7c 0b 03 78 	mr      r11,r0
 1805b3c:	80 0b 00 0c 	lwz     r0,12(r11)
 1805b40:	90 1f 03 30 	stw     r0,816(r31)
 1805b44:	81 3f 03 30 	lwz     r9,816(r31)
 1805b48:	80 1f 03 34 	lwz     r0,820(r31)
 1805b4c:	7f 89 00 00 	cmpw    cr7,r9,r0
 1805b50:	40 9d 00 ec 	ble-    cr7,1805c3c <main+0x5a1c>
 1805b54:	3c 00 01 82 	lis     r0,386
 1805b58:	30 00 c8 44 	addic   r0,r0,-14268
 1805b5c:	7c 0b 03 78 	mr      r11,r0
 1805b60:	81 2b 00 08 	lwz     r9,8(r11)
 1805b64:	3c 00 01 82 	lis     r0,386
 1805b68:	30 00 c8 44 	addic   r0,r0,-14268
 1805b6c:	7c 0b 03 78 	mr      r11,r0
 1805b70:	91 2b 00 00 	stw     r9,0(r11)
 1805b74:	3c 00 01 82 	lis     r0,386
 1805b78:	7c 09 03 78 	mr      r9,r0
 1805b7c:	80 09 c7 f8 	lwz     r0,-14344(r9)
 1805b80:	31 20 ff fc 	addic   r9,r0,-4
 1805b84:	3c 00 01 82 	lis     r0,386
 1805b88:	7c 0b 03 78 	mr      r11,r0
 1805b8c:	91 2b c7 f8 	stw     r9,-14344(r11)
 1805b90:	81 3f 03 34 	lwz     r9,820(r31)
 1805b94:	80 1f 03 30 	lwz     r0,816(r31)
 1805b98:	7c 09 02 14 	add     r0,r9,r0
 1805b9c:	90 1f 03 2c 	stw     r0,812(r31)
 1805ba0:	3c 00 01 82 	lis     r0,386
 1805ba4:	7c 09 03 78 	mr      r9,r0
 1805ba8:	80 09 c7 fc 	lwz     r0,-14340(r9)
 1805bac:	3d 20 01 82 	lis     r9,386
 1805bb0:	39 29 c8 20 	addi    r9,r9,-14304
 1805bb4:	54 00 10 3a 	rlwinm  r0,r0,2,0,29
 1805bb8:	7c 09 02 14 	add     r0,r9,r0
 1805bbc:	81 3f 03 34 	lwz     r9,820(r31)
 1805bc0:	7c 0b 03 78 	mr      r11,r0
 1805bc4:	91 2b 00 00 	stw     r9,0(r11)
 1805bc8:	3c 00 01 82 	lis     r0,386
 1805bcc:	7c 09 03 78 	mr      r9,r0
 1805bd0:	80 09 c7 fc 	lwz     r0,-14340(r9)
 1805bd4:	30 00 00 01 	addic   r0,r0,1
 1805bd8:	3d 20 01 82 	lis     r9,386
 1805bdc:	39 29 c8 20 	addi    r9,r9,-14304
 1805be0:	54 00 10 3a 	rlwinm  r0,r0,2,0,29
 1805be4:	7c 09 02 14 	add     r0,r9,r0
 1805be8:	81 3f 03 30 	lwz     r9,816(r31)
 1805bec:	7c 0b 03 78 	mr      r11,r0
 1805bf0:	91 2b 00 00 	stw     r9,0(r11)
 1805bf4:	3c 00 01 82 	lis     r0,386
 1805bf8:	7c 09 03 78 	mr      r9,r0
 1805bfc:	80 09 c7 fc 	lwz     r0,-14340(r9)
 1805c00:	30 00 00 02 	addic   r0,r0,2
 1805c04:	3d 20 01 82 	lis     r9,386
 1805c08:	39 29 c8 20 	addi    r9,r9,-14304
 1805c0c:	54 00 10 3a 	rlwinm  r0,r0,2,0,29
 1805c10:	7c 09 02 14 	add     r0,r9,r0
 1805c14:	81 3f 03 2c 	lwz     r9,812(r31)
 1805c18:	7c 0b 03 78 	mr      r11,r0
 1805c1c:	91 2b 00 00 	stw     r9,0(r11)
 1805c20:	3c 00 01 82 	lis     r0,386
 1805c24:	7c 09 03 78 	mr      r9,r0
 1805c28:	80 09 c7 fc 	lwz     r0,-14340(r9)
 1805c2c:	31 20 00 03 	addic   r9,r0,3
 1805c30:	3c 00 01 82 	lis     r0,386
 1805c34:	7c 0b 03 78 	mr      r11,r0
 1805c38:	91 2b c7 fc 	stw     r9,-14340(r11)
 1805c3c:	3c 00 01 82 	lis     r0,386
 1805c40:	7c 09 03 78 	mr      r9,r0
 1805c44:	80 09 c7 f8 	lwz     r0,-14344(r9)
 1805c48:	2f 80 00 04 	cmpwi   cr7,r0,4
 1805c4c:	40 9d 01 6c 	ble-    cr7,1805db8 <main+0x5b98>
 1805c50:	3c 00 01 82 	lis     r0,386
 1805c54:	7c 0b 03 78 	mr      r11,r0
 1805c58:	80 0b c7 fc 	lwz     r0,-14340(r11)
 1805c5c:	30 00 00 03 	addic   r0,r0,3
 1805c60:	2f 80 00 06 	cmpwi   cr7,r0,6
 1805c64:	41 9d 01 54 	bgt-    cr7,1805db8 <main+0x5b98>
 1805c68:	3c 00 01 82 	lis     r0,386
 1805c6c:	30 00 c8 44 	addic   r0,r0,-14268
 1805c70:	7c 0b 03 78 	mr      r11,r0
 1805c74:	81 2b 00 0c 	lwz     r9,12(r11)
 1805c78:	3c 00 01 82 	lis     r0,386
 1805c7c:	30 00 c8 44 	addic   r0,r0,-14268
 1805c80:	7c 0b 03 78 	mr      r11,r0
 1805c84:	80 0b 00 10 	lwz     r0,16(r11)
 1805c88:	7f 89 00 00 	cmpw    cr7,r9,r0
 1805c8c:	40 9e 01 2c 	bne-    cr7,1805db8 <main+0x5b98>
 1805c90:	3c 00 01 82 	lis     r0,386
 1805c94:	30 00 c8 44 	addic   r0,r0,-14268
 1805c98:	7c 0b 03 78 	mr      r11,r0
 1805c9c:	81 2b 00 0c 	lwz     r9,12(r11)
 1805ca0:	3c 00 01 82 	lis     r0,386
 1805ca4:	30 00 c8 44 	addic   r0,r0,-14268
 1805ca8:	7c 0b 03 78 	mr      r11,r0
 1805cac:	80 0b 00 08 	lwz     r0,8(r11)
 1805cb0:	7f 89 00 00 	cmpw    cr7,r9,r0
 1805cb4:	40 9e 01 04 	bne-    cr7,1805db8 <main+0x5b98>
 1805cb8:	3c 00 01 82 	lis     r0,386
 1805cbc:	30 00 c8 44 	addic   r0,r0,-14268
 1805cc0:	7c 09 03 78 	mr      r9,r0
 1805cc4:	80 09 00 04 	lwz     r0,4(r9)
 1805cc8:	90 1f 03 28 	stw     r0,808(r31)
 1805ccc:	3c 00 01 82 	lis     r0,386
 1805cd0:	30 00 c8 44 	addic   r0,r0,-14268
 1805cd4:	7c 0b 03 78 	mr      r11,r0
 1805cd8:	80 0b 00 0c 	lwz     r0,12(r11)
 1805cdc:	90 1f 03 24 	stw     r0,804(r31)
 1805ce0:	81 3f 03 24 	lwz     r9,804(r31)
 1805ce4:	80 1f 03 28 	lwz     r0,808(r31)
 1805ce8:	7f 89 00 00 	cmpw    cr7,r9,r0
 1805cec:	40 9d 00 cc 	ble-    cr7,1805db8 <main+0x5b98>
 1805cf0:	3c 00 01 82 	lis     r0,386
 1805cf4:	7c 09 03 78 	mr      r9,r0
 1805cf8:	80 09 c7 f8 	lwz     r0,-14344(r9)
 1805cfc:	31 20 ff fc 	addic   r9,r0,-4
 1805d00:	3c 00 01 82 	lis     r0,386
 1805d04:	7c 0b 03 78 	mr      r11,r0
 1805d08:	91 2b c7 f8 	stw     r9,-14344(r11)
 1805d0c:	81 3f 03 28 	lwz     r9,808(r31)
 1805d10:	80 1f 03 24 	lwz     r0,804(r31)
 1805d14:	7c 09 02 14 	add     r0,r9,r0
 1805d18:	90 1f 03 20 	stw     r0,800(r31)
 1805d1c:	3c 00 01 82 	lis     r0,386
 1805d20:	7c 09 03 78 	mr      r9,r0
 1805d24:	80 09 c7 fc 	lwz     r0,-14340(r9)
 1805d28:	3d 20 01 82 	lis     r9,386
 1805d2c:	39 29 c8 20 	addi    r9,r9,-14304
 1805d30:	54 00 10 3a 	rlwinm  r0,r0,2,0,29
 1805d34:	7c 09 02 14 	add     r0,r9,r0
 1805d38:	81 3f 03 28 	lwz     r9,808(r31)
 1805d3c:	7c 0b 03 78 	mr      r11,r0
 1805d40:	91 2b 00 00 	stw     r9,0(r11)
 1805d44:	3c 00 01 82 	lis     r0,386
 1805d48:	7c 09 03 78 	mr      r9,r0
 1805d4c:	80 09 c7 fc 	lwz     r0,-14340(r9)
 1805d50:	30 00 00 01 	addic   r0,r0,1
 1805d54:	3d 20 01 82 	lis     r9,386
 1805d58:	39 29 c8 20 	addi    r9,r9,-14304
 1805d5c:	54 00 10 3a 	rlwinm  r0,r0,2,0,29
 1805d60:	7c 09 02 14 	add     r0,r9,r0
 1805d64:	81 3f 03 24 	lwz     r9,804(r31)
 1805d68:	7c 0b 03 78 	mr      r11,r0
 1805d6c:	91 2b 00 00 	stw     r9,0(r11)
 1805d70:	3c 00 01 82 	lis     r0,386
 1805d74:	7c 09 03 78 	mr      r9,r0
 1805d78:	80 09 c7 fc 	lwz     r0,-14340(r9)
 1805d7c:	30 00 00 02 	addic   r0,r0,2
 1805d80:	3d 20 01 82 	lis     r9,386
 1805d84:	39 29 c8 20 	addi    r9,r9,-14304
 1805d88:	54 00 10 3a 	rlwinm  r0,r0,2,0,29
 1805d8c:	7c 09 02 14 	add     r0,r9,r0
 1805d90:	81 3f 03 20 	lwz     r9,800(r31)
 1805d94:	7c 0b 03 78 	mr      r11,r0
 1805d98:	91 2b 00 00 	stw     r9,0(r11)
 1805d9c:	3c 00 01 82 	lis     r0,386
 1805da0:	7c 09 03 78 	mr      r9,r0
 1805da4:	80 09 c7 fc 	lwz     r0,-14340(r9)
 1805da8:	31 20 00 03 	addic   r9,r0,3
 1805dac:	3c 00 01 82 	lis     r0,386
 1805db0:	7c 0b 03 78 	mr      r11,r0
 1805db4:	91 2b c7 fc 	stw     r9,-14340(r11)
 1805db8:	3c 00 01 82 	lis     r0,386
 1805dbc:	7c 09 03 78 	mr      r9,r0
 1805dc0:	80 09 c7 f8 	lwz     r0,-14344(r9)
 1805dc4:	2f 80 00 04 	cmpwi   cr7,r0,4
 1805dc8:	40 9d 01 8c 	ble-    cr7,1805f54 <main+0x5d34>
 1805dcc:	3c 00 01 82 	lis     r0,386
 1805dd0:	7c 0b 03 78 	mr      r11,r0
 1805dd4:	80 0b c7 fc 	lwz     r0,-14340(r11)
 1805dd8:	30 00 00 03 	addic   r0,r0,3
 1805ddc:	2f 80 00 06 	cmpwi   cr7,r0,6
 1805de0:	41 9d 01 74 	bgt-    cr7,1805f54 <main+0x5d34>
 1805de4:	3c 00 01 82 	lis     r0,386
 1805de8:	30 00 c8 44 	addic   r0,r0,-14268
 1805dec:	7c 0b 03 78 	mr      r11,r0
 1805df0:	81 2b 00 10 	lwz     r9,16(r11)
 1805df4:	3c 00 01 82 	lis     r0,386
 1805df8:	30 00 c8 44 	addic   r0,r0,-14268
 1805dfc:	7c 0b 03 78 	mr      r11,r0
 1805e00:	80 0b 00 00 	lwz     r0,0(r11)
 1805e04:	7f 89 00 00 	cmpw    cr7,r9,r0
 1805e08:	40 9e 01 4c 	bne-    cr7,1805f54 <main+0x5d34>
 1805e0c:	3c 00 01 82 	lis     r0,386
 1805e10:	30 00 c8 44 	addic   r0,r0,-14268
 1805e14:	7c 0b 03 78 	mr      r11,r0
 1805e18:	81 2b 00 10 	lwz     r9,16(r11)
 1805e1c:	3c 00 01 82 	lis     r0,386
 1805e20:	30 00 c8 44 	addic   r0,r0,-14268
 1805e24:	7c 0b 03 78 	mr      r11,r0
 1805e28:	80 0b 00 08 	lwz     r0,8(r11)
 1805e2c:	7f 89 00 00 	cmpw    cr7,r9,r0
 1805e30:	40 9e 01 24 	bne-    cr7,1805f54 <main+0x5d34>
 1805e34:	3c 00 01 82 	lis     r0,386
 1805e38:	30 00 c8 44 	addic   r0,r0,-14268
 1805e3c:	7c 09 03 78 	mr      r9,r0
 1805e40:	80 09 00 04 	lwz     r0,4(r9)
 1805e44:	90 1f 03 1c 	stw     r0,796(r31)
 1805e48:	3c 00 01 82 	lis     r0,386
 1805e4c:	30 00 c8 44 	addic   r0,r0,-14268
 1805e50:	7c 0b 03 78 	mr      r11,r0
 1805e54:	80 0b 00 10 	lwz     r0,16(r11)
 1805e58:	90 1f 03 18 	stw     r0,792(r31)
 1805e5c:	81 3f 03 18 	lwz     r9,792(r31)
 1805e60:	80 1f 03 1c 	lwz     r0,796(r31)
 1805e64:	7f 89 00 00 	cmpw    cr7,r9,r0
 1805e68:	40 9d 00 ec 	ble-    cr7,1805f54 <main+0x5d34>
 1805e6c:	3c 00 01 82 	lis     r0,386
 1805e70:	30 00 c8 44 	addic   r0,r0,-14268
 1805e74:	7c 0b 03 78 	mr      r11,r0
 1805e78:	81 2b 00 0c 	lwz     r9,12(r11)
 1805e7c:	3c 00 01 82 	lis     r0,386
 1805e80:	30 00 c8 44 	addic   r0,r0,-14268
 1805e84:	7c 0b 03 78 	mr      r11,r0
 1805e88:	91 2b 00 00 	stw     r9,0(r11)
 1805e8c:	3c 00 01 82 	lis     r0,386
 1805e90:	7c 09 03 78 	mr      r9,r0
 1805e94:	80 09 c7 f8 	lwz     r0,-14344(r9)
 1805e98:	31 20 ff fc 	addic   r9,r0,-4
 1805e9c:	3c 00 01 82 	lis     r0,386
 1805ea0:	7c 0b 03 78 	mr      r11,r0
 1805ea4:	91 2b c7 f8 	stw     r9,-14344(r11)
 1805ea8:	81 3f 03 1c 	lwz     r9,796(r31)
 1805eac:	80 1f 03 18 	lwz     r0,792(r31)
 1805eb0:	7c 09 02 14 	add     r0,r9,r0
 1805eb4:	90 1f 03 14 	stw     r0,788(r31)
 1805eb8:	3c 00 01 82 	lis     r0,386
 1805ebc:	7c 09 03 78 	mr      r9,r0
 1805ec0:	80 09 c7 fc 	lwz     r0,-14340(r9)
 1805ec4:	3d 20 01 82 	lis     r9,386
 1805ec8:	39 29 c8 20 	addi    r9,r9,-14304
 1805ecc:	54 00 10 3a 	rlwinm  r0,r0,2,0,29
 1805ed0:	7c 09 02 14 	add     r0,r9,r0
 1805ed4:	81 3f 03 1c 	lwz     r9,796(r31)
 1805ed8:	7c 0b 03 78 	mr      r11,r0
 1805edc:	91 2b 00 00 	stw     r9,0(r11)
 1805ee0:	3c 00 01 82 	lis     r0,386
 1805ee4:	7c 09 03 78 	mr      r9,r0
 1805ee8:	80 09 c7 fc 	lwz     r0,-14340(r9)
 1805eec:	30 00 00 01 	addic   r0,r0,1
 1805ef0:	3d 20 01 82 	lis     r9,386
 1805ef4:	39 29 c8 20 	addi    r9,r9,-14304
 1805ef8:	54 00 10 3a 	rlwinm  r0,r0,2,0,29
 1805efc:	7c 09 02 14 	add     r0,r9,r0
 1805f00:	81 3f 03 18 	lwz     r9,792(r31)
 1805f04:	7c 0b 03 78 	mr      r11,r0
 1805f08:	91 2b 00 00 	stw     r9,0(r11)
 1805f0c:	3c 00 01 82 	lis     r0,386
 1805f10:	7c 09 03 78 	mr      r9,r0
 1805f14:	80 09 c7 fc 	lwz     r0,-14340(r9)
 1805f18:	30 00 00 02 	addic   r0,r0,2
 1805f1c:	3d 20 01 82 	lis     r9,386
 1805f20:	39 29 c8 20 	addi    r9,r9,-14304
 1805f24:	54 00 10 3a 	rlwinm  r0,r0,2,0,29
 1805f28:	7c 09 02 14 	add     r0,r9,r0
 1805f2c:	81 3f 03 14 	lwz     r9,788(r31)
 1805f30:	7c 0b 03 78 	mr      r11,r0
 1805f34:	91 2b 00 00 	stw     r9,0(r11)
 1805f38:	3c 00 01 82 	lis     r0,386
 1805f3c:	7c 09 03 78 	mr      r9,r0
 1805f40:	80 09 c7 fc 	lwz     r0,-14340(r9)
 1805f44:	31 20 00 03 	addic   r9,r0,3
 1805f48:	3c 00 01 82 	lis     r0,386
 1805f4c:	7c 0b 03 78 	mr      r11,r0
 1805f50:	91 2b c7 fc 	stw     r9,-14340(r11)
 1805f54:	3c 00 01 82 	lis     r0,386
 1805f58:	7c 09 03 78 	mr      r9,r0
 1805f5c:	80 09 c7 f8 	lwz     r0,-14344(r9)
 1805f60:	2f 80 00 04 	cmpwi   cr7,r0,4
 1805f64:	40 9d 01 8c 	ble-    cr7,18060f0 <main+0x5ed0>
 1805f68:	3c 00 01 82 	lis     r0,386
 1805f6c:	7c 0b 03 78 	mr      r11,r0
 1805f70:	80 0b c7 fc 	lwz     r0,-14340(r11)
 1805f74:	30 00 00 03 	addic   r0,r0,3
 1805f78:	2f 80 00 06 	cmpwi   cr7,r0,6
 1805f7c:	41 9d 01 74 	bgt-    cr7,18060f0 <main+0x5ed0>
 1805f80:	3c 00 01 82 	lis     r0,386
 1805f84:	30 00 c8 44 	addic   r0,r0,-14268
 1805f88:	7c 0b 03 78 	mr      r11,r0
 1805f8c:	81 2b 00 10 	lwz     r9,16(r11)
 1805f90:	3c 00 01 82 	lis     r0,386
 1805f94:	30 00 c8 44 	addic   r0,r0,-14268
 1805f98:	7c 0b 03 78 	mr      r11,r0
 1805f9c:	80 0b 00 00 	lwz     r0,0(r11)
 1805fa0:	7f 89 00 00 	cmpw    cr7,r9,r0
 1805fa4:	40 9e 01 4c 	bne-    cr7,18060f0 <main+0x5ed0>
 1805fa8:	3c 00 01 82 	lis     r0,386
 1805fac:	30 00 c8 44 	addic   r0,r0,-14268
 1805fb0:	7c 0b 03 78 	mr      r11,r0
 1805fb4:	81 2b 00 10 	lwz     r9,16(r11)
 1805fb8:	3c 00 01 82 	lis     r0,386
 1805fbc:	30 00 c8 44 	addic   r0,r0,-14268
 1805fc0:	7c 0b 03 78 	mr      r11,r0
 1805fc4:	80 0b 00 0c 	lwz     r0,12(r11)
 1805fc8:	7f 89 00 00 	cmpw    cr7,r9,r0
 1805fcc:	40 9e 01 24 	bne-    cr7,18060f0 <main+0x5ed0>
 1805fd0:	3c 00 01 82 	lis     r0,386
 1805fd4:	30 00 c8 44 	addic   r0,r0,-14268
 1805fd8:	7c 09 03 78 	mr      r9,r0
 1805fdc:	80 09 00 04 	lwz     r0,4(r9)
 1805fe0:	90 1f 03 10 	stw     r0,784(r31)
 1805fe4:	3c 00 01 82 	lis     r0,386
 1805fe8:	30 00 c8 44 	addic   r0,r0,-14268
 1805fec:	7c 0b 03 78 	mr      r11,r0
 1805ff0:	80 0b 00 10 	lwz     r0,16(r11)
 1805ff4:	90 1f 03 0c 	stw     r0,780(r31)
 1805ff8:	81 3f 03 0c 	lwz     r9,780(r31)
 1805ffc:	80 1f 03 10 	lwz     r0,784(r31)
 1806000:	7f 89 00 00 	cmpw    cr7,r9,r0
 1806004:	40 9d 00 ec 	ble-    cr7,18060f0 <main+0x5ed0>
 1806008:	3c 00 01 82 	lis     r0,386
 180600c:	30 00 c8 44 	addic   r0,r0,-14268
 1806010:	7c 0b 03 78 	mr      r11,r0
 1806014:	81 2b 00 08 	lwz     r9,8(r11)
 1806018:	3c 00 01 82 	lis     r0,386
 180601c:	30 00 c8 44 	addic   r0,r0,-14268
 1806020:	7c 0b 03 78 	mr      r11,r0
 1806024:	91 2b 00 00 	stw     r9,0(r11)
 1806028:	3c 00 01 82 	lis     r0,386
 180602c:	7c 09 03 78 	mr      r9,r0
 1806030:	80 09 c7 f8 	lwz     r0,-14344(r9)
 1806034:	31 20 ff fc 	addic   r9,r0,-4
 1806038:	3c 00 01 82 	lis     r0,386
 180603c:	7c 0b 03 78 	mr      r11,r0
 1806040:	91 2b c7 f8 	stw     r9,-14344(r11)
 1806044:	81 3f 03 10 	lwz     r9,784(r31)
 1806048:	80 1f 03 0c 	lwz     r0,780(r31)
 180604c:	7c 09 02 14 	add     r0,r9,r0
 1806050:	90 1f 03 08 	stw     r0,776(r31)
 1806054:	3c 00 01 82 	lis     r0,386
 1806058:	7c 09 03 78 	mr      r9,r0
 180605c:	80 09 c7 fc 	lwz     r0,-14340(r9)
 1806060:	3d 20 01 82 	lis     r9,386
 1806064:	39 29 c8 20 	addi    r9,r9,-14304
 1806068:	54 00 10 3a 	rlwinm  r0,r0,2,0,29
 180606c:	7c 09 02 14 	add     r0,r9,r0
 1806070:	81 3f 03 10 	lwz     r9,784(r31)
 1806074:	7c 0b 03 78 	mr      r11,r0
 1806078:	91 2b 00 00 	stw     r9,0(r11)
 180607c:	3c 00 01 82 	lis     r0,386
 1806080:	7c 09 03 78 	mr      r9,r0
 1806084:	80 09 c7 fc 	lwz     r0,-14340(r9)
 1806088:	30 00 00 01 	addic   r0,r0,1
 180608c:	3d 20 01 82 	lis     r9,386
 1806090:	39 29 c8 20 	addi    r9,r9,-14304
 1806094:	54 00 10 3a 	rlwinm  r0,r0,2,0,29
 1806098:	7c 09 02 14 	add     r0,r9,r0
 180609c:	81 3f 03 0c 	lwz     r9,780(r31)
 18060a0:	7c 0b 03 78 	mr      r11,r0
 18060a4:	91 2b 00 00 	stw     r9,0(r11)
 18060a8:	3c 00 01 82 	lis     r0,386
 18060ac:	7c 09 03 78 	mr      r9,r0
 18060b0:	80 09 c7 fc 	lwz     r0,-14340(r9)
 18060b4:	30 00 00 02 	addic   r0,r0,2
 18060b8:	3d 20 01 82 	lis     r9,386
 18060bc:	39 29 c8 20 	addi    r9,r9,-14304
 18060c0:	54 00 10 3a 	rlwinm  r0,r0,2,0,29
 18060c4:	7c 09 02 14 	add     r0,r9,r0
 18060c8:	81 3f 03 08 	lwz     r9,776(r31)
 18060cc:	7c 0b 03 78 	mr      r11,r0
 18060d0:	91 2b 00 00 	stw     r9,0(r11)
 18060d4:	3c 00 01 82 	lis     r0,386
 18060d8:	7c 09 03 78 	mr      r9,r0
 18060dc:	80 09 c7 fc 	lwz     r0,-14340(r9)
 18060e0:	31 20 00 03 	addic   r9,r0,3
 18060e4:	3c 00 01 82 	lis     r0,386
 18060e8:	7c 0b 03 78 	mr      r11,r0
 18060ec:	91 2b c7 fc 	stw     r9,-14340(r11)
 18060f0:	3c 00 01 82 	lis     r0,386
 18060f4:	7c 09 03 78 	mr      r9,r0
 18060f8:	80 09 c7 f8 	lwz     r0,-14344(r9)
 18060fc:	2f 80 00 04 	cmpwi   cr7,r0,4
 1806100:	40 9d 01 8c 	ble-    cr7,180628c <main+0x606c>
 1806104:	3c 00 01 82 	lis     r0,386
 1806108:	7c 0b 03 78 	mr      r11,r0
 180610c:	80 0b c7 fc 	lwz     r0,-14340(r11)
 1806110:	30 00 00 03 	addic   r0,r0,3
 1806114:	2f 80 00 06 	cmpwi   cr7,r0,6
 1806118:	41 9d 01 74 	bgt-    cr7,180628c <main+0x606c>
 180611c:	3c 00 01 82 	lis     r0,386
 1806120:	30 00 c8 44 	addic   r0,r0,-14268
 1806124:	7c 0b 03 78 	mr      r11,r0
 1806128:	81 2b 00 10 	lwz     r9,16(r11)
 180612c:	3c 00 01 82 	lis     r0,386
 1806130:	30 00 c8 44 	addic   r0,r0,-14268
 1806134:	7c 0b 03 78 	mr      r11,r0
 1806138:	80 0b 00 08 	lwz     r0,8(r11)
 180613c:	7f 89 00 00 	cmpw    cr7,r9,r0
 1806140:	40 9e 01 4c 	bne-    cr7,180628c <main+0x606c>
 1806144:	3c 00 01 82 	lis     r0,386
 1806148:	30 00 c8 44 	addic   r0,r0,-14268
 180614c:	7c 0b 03 78 	mr      r11,r0
 1806150:	81 2b 00 10 	lwz     r9,16(r11)
 1806154:	3c 00 01 82 	lis     r0,386
 1806158:	30 00 c8 44 	addic   r0,r0,-14268
 180615c:	7c 0b 03 78 	mr      r11,r0
 1806160:	80 0b 00 00 	lwz     r0,0(r11)
 1806164:	7f 89 00 00 	cmpw    cr7,r9,r0
 1806168:	40 9e 01 24 	bne-    cr7,180628c <main+0x606c>
 180616c:	3c 00 01 82 	lis     r0,386
 1806170:	30 00 c8 44 	addic   r0,r0,-14268
 1806174:	7c 09 03 78 	mr      r9,r0
 1806178:	80 09 00 04 	lwz     r0,4(r9)
 180617c:	90 1f 03 04 	stw     r0,772(r31)
 1806180:	3c 00 01 82 	lis     r0,386
 1806184:	30 00 c8 44 	addic   r0,r0,-14268
 1806188:	7c 0b 03 78 	mr      r11,r0
 180618c:	80 0b 00 10 	lwz     r0,16(r11)
 1806190:	90 1f 03 00 	stw     r0,768(r31)
 1806194:	81 3f 03 00 	lwz     r9,768(r31)
 1806198:	80 1f 03 04 	lwz     r0,772(r31)
 180619c:	7f 89 00 00 	cmpw    cr7,r9,r0
 18061a0:	40 9d 00 ec 	ble-    cr7,180628c <main+0x606c>
 18061a4:	3c 00 01 82 	lis     r0,386
 18061a8:	30 00 c8 44 	addic   r0,r0,-14268
 18061ac:	7c 0b 03 78 	mr      r11,r0
 18061b0:	81 2b 00 0c 	lwz     r9,12(r11)
 18061b4:	3c 00 01 82 	lis     r0,386
 18061b8:	30 00 c8 44 	addic   r0,r0,-14268
 18061bc:	7c 0b 03 78 	mr      r11,r0
 18061c0:	91 2b 00 00 	stw     r9,0(r11)
 18061c4:	3c 00 01 82 	lis     r0,386
 18061c8:	7c 09 03 78 	mr      r9,r0
 18061cc:	80 09 c7 f8 	lwz     r0,-14344(r9)
 18061d0:	31 20 ff fc 	addic   r9,r0,-4
 18061d4:	3c 00 01 82 	lis     r0,386
 18061d8:	7c 0b 03 78 	mr      r11,r0
 18061dc:	91 2b c7 f8 	stw     r9,-14344(r11)
 18061e0:	81 3f 03 04 	lwz     r9,772(r31)
 18061e4:	80 1f 03 00 	lwz     r0,768(r31)
 18061e8:	7c 09 02 14 	add     r0,r9,r0
 18061ec:	90 1f 02 fc 	stw     r0,764(r31)
 18061f0:	3c 00 01 82 	lis     r0,386
 18061f4:	7c 09 03 78 	mr      r9,r0
 18061f8:	80 09 c7 fc 	lwz     r0,-14340(r9)
 18061fc:	3d 20 01 82 	lis     r9,386
 1806200:	39 29 c8 20 	addi    r9,r9,-14304
 1806204:	54 00 10 3a 	rlwinm  r0,r0,2,0,29
 1806208:	7c 09 02 14 	add     r0,r9,r0
 180620c:	81 3f 03 04 	lwz     r9,772(r31)
 1806210:	7c 0b 03 78 	mr      r11,r0
 1806214:	91 2b 00 00 	stw     r9,0(r11)
 1806218:	3c 00 01 82 	lis     r0,386
 180621c:	7c 09 03 78 	mr      r9,r0
 1806220:	80 09 c7 fc 	lwz     r0,-14340(r9)
 1806224:	30 00 00 01 	addic   r0,r0,1
 1806228:	3d 20 01 82 	lis     r9,386
 180622c:	39 29 c8 20 	addi    r9,r9,-14304
 1806230:	54 00 10 3a 	rlwinm  r0,r0,2,0,29
 1806234:	7c 09 02 14 	add     r0,r9,r0
 1806238:	81 3f 03 00 	lwz     r9,768(r31)
 180623c:	7c 0b 03 78 	mr      r11,r0
 1806240:	91 2b 00 00 	stw     r9,0(r11)
 1806244:	3c 00 01 82 	lis     r0,386
 1806248:	7c 09 03 78 	mr      r9,r0
 180624c:	80 09 c7 fc 	lwz     r0,-14340(r9)
 1806250:	30 00 00 02 	addic   r0,r0,2
 1806254:	3d 20 01 82 	lis     r9,386
 1806258:	39 29 c8 20 	addi    r9,r9,-14304
 180625c:	54 00 10 3a 	rlwinm  r0,r0,2,0,29
 1806260:	7c 09 02 14 	add     r0,r9,r0
 1806264:	81 3f 02 fc 	lwz     r9,764(r31)
 1806268:	7c 0b 03 78 	mr      r11,r0
 180626c:	91 2b 00 00 	stw     r9,0(r11)
 1806270:	3c 00 01 82 	lis     r0,386
 1806274:	7c 09 03 78 	mr      r9,r0
 1806278:	80 09 c7 fc 	lwz     r0,-14340(r9)
 180627c:	31 20 00 03 	addic   r9,r0,3
 1806280:	3c 00 01 82 	lis     r0,386
 1806284:	7c 0b 03 78 	mr      r11,r0
 1806288:	91 2b c7 fc 	stw     r9,-14340(r11)
 180628c:	3c 00 01 82 	lis     r0,386
 1806290:	7c 09 03 78 	mr      r9,r0
 1806294:	80 09 c7 f8 	lwz     r0,-14344(r9)
 1806298:	2f 80 00 04 	cmpwi   cr7,r0,4
 180629c:	40 9d 01 6c 	ble-    cr7,1806408 <main+0x61e8>
 18062a0:	3c 00 01 82 	lis     r0,386
 18062a4:	7c 0b 03 78 	mr      r11,r0
 18062a8:	80 0b c7 fc 	lwz     r0,-14340(r11)
 18062ac:	30 00 00 03 	addic   r0,r0,3
 18062b0:	2f 80 00 06 	cmpwi   cr7,r0,6
 18062b4:	41 9d 01 54 	bgt-    cr7,1806408 <main+0x61e8>
 18062b8:	3c 00 01 82 	lis     r0,386
 18062bc:	30 00 c8 44 	addic   r0,r0,-14268
 18062c0:	7c 0b 03 78 	mr      r11,r0
 18062c4:	81 2b 00 10 	lwz     r9,16(r11)
 18062c8:	3c 00 01 82 	lis     r0,386
 18062cc:	30 00 c8 44 	addic   r0,r0,-14268
 18062d0:	7c 0b 03 78 	mr      r11,r0
 18062d4:	80 0b 00 08 	lwz     r0,8(r11)
 18062d8:	7f 89 00 00 	cmpw    cr7,r9,r0
 18062dc:	40 9e 01 2c 	bne-    cr7,1806408 <main+0x61e8>
 18062e0:	3c 00 01 82 	lis     r0,386
 18062e4:	30 00 c8 44 	addic   r0,r0,-14268
 18062e8:	7c 0b 03 78 	mr      r11,r0
 18062ec:	81 2b 00 10 	lwz     r9,16(r11)
 18062f0:	3c 00 01 82 	lis     r0,386
 18062f4:	30 00 c8 44 	addic   r0,r0,-14268
 18062f8:	7c 0b 03 78 	mr      r11,r0
 18062fc:	80 0b 00 0c 	lwz     r0,12(r11)
 1806300:	7f 89 00 00 	cmpw    cr7,r9,r0
 1806304:	40 9e 01 04 	bne-    cr7,1806408 <main+0x61e8>
 1806308:	3c 00 01 82 	lis     r0,386
 180630c:	30 00 c8 44 	addic   r0,r0,-14268
 1806310:	7c 09 03 78 	mr      r9,r0
 1806314:	80 09 00 04 	lwz     r0,4(r9)
 1806318:	90 1f 02 f8 	stw     r0,760(r31)
 180631c:	3c 00 01 82 	lis     r0,386
 1806320:	30 00 c8 44 	addic   r0,r0,-14268
 1806324:	7c 0b 03 78 	mr      r11,r0
 1806328:	80 0b 00 10 	lwz     r0,16(r11)
 180632c:	90 1f 02 f4 	stw     r0,756(r31)
 1806330:	81 3f 02 f4 	lwz     r9,756(r31)
 1806334:	80 1f 02 f8 	lwz     r0,760(r31)
 1806338:	7f 89 00 00 	cmpw    cr7,r9,r0
 180633c:	40 9d 00 cc 	ble-    cr7,1806408 <main+0x61e8>
 1806340:	3c 00 01 82 	lis     r0,386
 1806344:	7c 09 03 78 	mr      r9,r0
 1806348:	80 09 c7 f8 	lwz     r0,-14344(r9)
 180634c:	31 20 ff fc 	addic   r9,r0,-4
 1806350:	3c 00 01 82 	lis     r0,386
 1806354:	7c 0b 03 78 	mr      r11,r0
 1806358:	91 2b c7 f8 	stw     r9,-14344(r11)
 180635c:	81 3f 02 f8 	lwz     r9,760(r31)
 1806360:	80 1f 02 f4 	lwz     r0,756(r31)
 1806364:	7c 09 02 14 	add     r0,r9,r0
 1806368:	90 1f 02 f0 	stw     r0,752(r31)
 180636c:	3c 00 01 82 	lis     r0,386
 1806370:	7c 09 03 78 	mr      r9,r0
 1806374:	80 09 c7 fc 	lwz     r0,-14340(r9)
 1806378:	3d 20 01 82 	lis     r9,386
 180637c:	39 29 c8 20 	addi    r9,r9,-14304
 1806380:	54 00 10 3a 	rlwinm  r0,r0,2,0,29
 1806384:	7c 09 02 14 	add     r0,r9,r0
 1806388:	81 3f 02 f8 	lwz     r9,760(r31)
 180638c:	7c 0b 03 78 	mr      r11,r0
 1806390:	91 2b 00 00 	stw     r9,0(r11)
 1806394:	3c 00 01 82 	lis     r0,386
 1806398:	7c 09 03 78 	mr      r9,r0
 180639c:	80 09 c7 fc 	lwz     r0,-14340(r9)
 18063a0:	30 00 00 01 	addic   r0,r0,1
 18063a4:	3d 20 01 82 	lis     r9,386
 18063a8:	39 29 c8 20 	addi    r9,r9,-14304
 18063ac:	54 00 10 3a 	rlwinm  r0,r0,2,0,29
 18063b0:	7c 09 02 14 	add     r0,r9,r0
 18063b4:	81 3f 02 f4 	lwz     r9,756(r31)
 18063b8:	7c 0b 03 78 	mr      r11,r0
 18063bc:	91 2b 00 00 	stw     r9,0(r11)
 18063c0:	3c 00 01 82 	lis     r0,386
 18063c4:	7c 09 03 78 	mr      r9,r0
 18063c8:	80 09 c7 fc 	lwz     r0,-14340(r9)
 18063cc:	30 00 00 02 	addic   r0,r0,2
 18063d0:	3d 20 01 82 	lis     r9,386
 18063d4:	39 29 c8 20 	addi    r9,r9,-14304
 18063d8:	54 00 10 3a 	rlwinm  r0,r0,2,0,29
 18063dc:	7c 09 02 14 	add     r0,r9,r0
 18063e0:	81 3f 02 f0 	lwz     r9,752(r31)
 18063e4:	7c 0b 03 78 	mr      r11,r0
 18063e8:	91 2b 00 00 	stw     r9,0(r11)
 18063ec:	3c 00 01 82 	lis     r0,386
 18063f0:	7c 09 03 78 	mr      r9,r0
 18063f4:	80 09 c7 fc 	lwz     r0,-14340(r9)
 18063f8:	31 20 00 03 	addic   r9,r0,3
 18063fc:	3c 00 01 82 	lis     r0,386
 1806400:	7c 0b 03 78 	mr      r11,r0
 1806404:	91 2b c7 fc 	stw     r9,-14340(r11)
 1806408:	3c 00 01 82 	lis     r0,386
 180640c:	7c 09 03 78 	mr      r9,r0
 1806410:	80 09 c7 f8 	lwz     r0,-14344(r9)
 1806414:	2f 80 00 04 	cmpwi   cr7,r0,4
 1806418:	40 9d 01 8c 	ble-    cr7,18065a4 <main+0x6384>
 180641c:	3c 00 01 82 	lis     r0,386
 1806420:	7c 0b 03 78 	mr      r11,r0
 1806424:	80 0b c7 fc 	lwz     r0,-14340(r11)
 1806428:	30 00 00 03 	addic   r0,r0,3
 180642c:	2f 80 00 06 	cmpwi   cr7,r0,6
 1806430:	41 9d 01 74 	bgt-    cr7,18065a4 <main+0x6384>
 1806434:	3c 00 01 82 	lis     r0,386
 1806438:	30 00 c8 44 	addic   r0,r0,-14268
 180643c:	7c 0b 03 78 	mr      r11,r0
 1806440:	81 2b 00 10 	lwz     r9,16(r11)
 1806444:	3c 00 01 82 	lis     r0,386
 1806448:	30 00 c8 44 	addic   r0,r0,-14268
 180644c:	7c 0b 03 78 	mr      r11,r0
 1806450:	80 0b 00 0c 	lwz     r0,12(r11)
 1806454:	7f 89 00 00 	cmpw    cr7,r9,r0
 1806458:	40 9e 01 4c 	bne-    cr7,18065a4 <main+0x6384>
 180645c:	3c 00 01 82 	lis     r0,386
 1806460:	30 00 c8 44 	addic   r0,r0,-14268
 1806464:	7c 0b 03 78 	mr      r11,r0
 1806468:	81 2b 00 10 	lwz     r9,16(r11)
 180646c:	3c 00 01 82 	lis     r0,386
 1806470:	30 00 c8 44 	addic   r0,r0,-14268
 1806474:	7c 0b 03 78 	mr      r11,r0
 1806478:	80 0b 00 00 	lwz     r0,0(r11)
 180647c:	7f 89 00 00 	cmpw    cr7,r9,r0
 1806480:	40 9e 01 24 	bne-    cr7,18065a4 <main+0x6384>
 1806484:	3c 00 01 82 	lis     r0,386
 1806488:	30 00 c8 44 	addic   r0,r0,-14268
 180648c:	7c 09 03 78 	mr      r9,r0
 1806490:	80 09 00 04 	lwz     r0,4(r9)
 1806494:	90 1f 02 ec 	stw     r0,748(r31)
 1806498:	3c 00 01 82 	lis     r0,386
 180649c:	30 00 c8 44 	addic   r0,r0,-14268
 18064a0:	7c 0b 03 78 	mr      r11,r0
 18064a4:	80 0b 00 10 	lwz     r0,16(r11)
 18064a8:	90 1f 02 e8 	stw     r0,744(r31)
 18064ac:	81 3f 02 e8 	lwz     r9,744(r31)
 18064b0:	80 1f 02 ec 	lwz     r0,748(r31)
 18064b4:	7f 89 00 00 	cmpw    cr7,r9,r0
 18064b8:	40 9d 00 ec 	ble-    cr7,18065a4 <main+0x6384>
 18064bc:	3c 00 01 82 	lis     r0,386
 18064c0:	30 00 c8 44 	addic   r0,r0,-14268
 18064c4:	7c 0b 03 78 	mr      r11,r0
 18064c8:	81 2b 00 08 	lwz     r9,8(r11)
 18064cc:	3c 00 01 82 	lis     r0,386
 18064d0:	30 00 c8 44 	addic   r0,r0,-14268
 18064d4:	7c 0b 03 78 	mr      r11,r0
 18064d8:	91 2b 00 00 	stw     r9,0(r11)
 18064dc:	3c 00 01 82 	lis     r0,386
 18064e0:	7c 09 03 78 	mr      r9,r0
 18064e4:	80 09 c7 f8 	lwz     r0,-14344(r9)
 18064e8:	31 20 ff fc 	addic   r9,r0,-4
 18064ec:	3c 00 01 82 	lis     r0,386
 18064f0:	7c 0b 03 78 	mr      r11,r0
 18064f4:	91 2b c7 f8 	stw     r9,-14344(r11)
 18064f8:	81 3f 02 ec 	lwz     r9,748(r31)
 18064fc:	80 1f 02 e8 	lwz     r0,744(r31)
 1806500:	7c 09 02 14 	add     r0,r9,r0
 1806504:	90 1f 02 e4 	stw     r0,740(r31)
 1806508:	3c 00 01 82 	lis     r0,386
 180650c:	7c 09 03 78 	mr      r9,r0
 1806510:	80 09 c7 fc 	lwz     r0,-14340(r9)
 1806514:	3d 20 01 82 	lis     r9,386
 1806518:	39 29 c8 20 	addi    r9,r9,-14304
 180651c:	54 00 10 3a 	rlwinm  r0,r0,2,0,29
 1806520:	7c 09 02 14 	add     r0,r9,r0
 1806524:	81 3f 02 ec 	lwz     r9,748(r31)
 1806528:	7c 0b 03 78 	mr      r11,r0
 180652c:	91 2b 00 00 	stw     r9,0(r11)
 1806530:	3c 00 01 82 	lis     r0,386
 1806534:	7c 09 03 78 	mr      r9,r0
 1806538:	80 09 c7 fc 	lwz     r0,-14340(r9)
 180653c:	30 00 00 01 	addic   r0,r0,1
 1806540:	3d 20 01 82 	lis     r9,386
 1806544:	39 29 c8 20 	addi    r9,r9,-14304
 1806548:	54 00 10 3a 	rlwinm  r0,r0,2,0,29
 180654c:	7c 09 02 14 	add     r0,r9,r0
 1806550:	81 3f 02 e8 	lwz     r9,744(r31)
 1806554:	7c 0b 03 78 	mr      r11,r0
 1806558:	91 2b 00 00 	stw     r9,0(r11)
 180655c:	3c 00 01 82 	lis     r0,386
 1806560:	7c 09 03 78 	mr      r9,r0
 1806564:	80 09 c7 fc 	lwz     r0,-14340(r9)
 1806568:	30 00 00 02 	addic   r0,r0,2
 180656c:	3d 20 01 82 	lis     r9,386
 1806570:	39 29 c8 20 	addi    r9,r9,-14304
 1806574:	54 00 10 3a 	rlwinm  r0,r0,2,0,29
 1806578:	7c 09 02 14 	add     r0,r9,r0
 180657c:	81 3f 02 e4 	lwz     r9,740(r31)
 1806580:	7c 0b 03 78 	mr      r11,r0
 1806584:	91 2b 00 00 	stw     r9,0(r11)
 1806588:	3c 00 01 82 	lis     r0,386
 180658c:	7c 09 03 78 	mr      r9,r0
 1806590:	80 09 c7 fc 	lwz     r0,-14340(r9)
 1806594:	31 20 00 03 	addic   r9,r0,3
 1806598:	3c 00 01 82 	lis     r0,386
 180659c:	7c 0b 03 78 	mr      r11,r0
 18065a0:	91 2b c7 fc 	stw     r9,-14340(r11)
 18065a4:	3c 00 01 82 	lis     r0,386
 18065a8:	7c 09 03 78 	mr      r9,r0
 18065ac:	80 09 c7 f8 	lwz     r0,-14344(r9)
 18065b0:	2f 80 00 04 	cmpwi   cr7,r0,4
 18065b4:	40 9d 01 6c 	ble-    cr7,1806720 <main+0x6500>
 18065b8:	3c 00 01 82 	lis     r0,386
 18065bc:	7c 0b 03 78 	mr      r11,r0
 18065c0:	80 0b c7 fc 	lwz     r0,-14340(r11)
 18065c4:	30 00 00 03 	addic   r0,r0,3
 18065c8:	2f 80 00 06 	cmpwi   cr7,r0,6
 18065cc:	41 9d 01 54 	bgt-    cr7,1806720 <main+0x6500>
 18065d0:	3c 00 01 82 	lis     r0,386
 18065d4:	30 00 c8 44 	addic   r0,r0,-14268
 18065d8:	7c 0b 03 78 	mr      r11,r0
 18065dc:	81 2b 00 10 	lwz     r9,16(r11)
 18065e0:	3c 00 01 82 	lis     r0,386
 18065e4:	30 00 c8 44 	addic   r0,r0,-14268
 18065e8:	7c 0b 03 78 	mr      r11,r0
 18065ec:	80 0b 00 0c 	lwz     r0,12(r11)
 18065f0:	7f 89 00 00 	cmpw    cr7,r9,r0
 18065f4:	40 9e 01 2c 	bne-    cr7,1806720 <main+0x6500>
 18065f8:	3c 00 01 82 	lis     r0,386
 18065fc:	30 00 c8 44 	addic   r0,r0,-14268
 1806600:	7c 0b 03 78 	mr      r11,r0
 1806604:	81 2b 00 10 	lwz     r9,16(r11)
 1806608:	3c 00 01 82 	lis     r0,386
 180660c:	30 00 c8 44 	addic   r0,r0,-14268
 1806610:	7c 0b 03 78 	mr      r11,r0
 1806614:	80 0b 00 08 	lwz     r0,8(r11)
 1806618:	7f 89 00 00 	cmpw    cr7,r9,r0
 180661c:	40 9e 01 04 	bne-    cr7,1806720 <main+0x6500>
 1806620:	3c 00 01 82 	lis     r0,386
 1806624:	30 00 c8 44 	addic   r0,r0,-14268
 1806628:	7c 09 03 78 	mr      r9,r0
 180662c:	80 09 00 04 	lwz     r0,4(r9)
 1806630:	90 1f 02 e0 	stw     r0,736(r31)
 1806634:	3c 00 01 82 	lis     r0,386
 1806638:	30 00 c8 44 	addic   r0,r0,-14268
 180663c:	7c 0b 03 78 	mr      r11,r0
 1806640:	80 0b 00 10 	lwz     r0,16(r11)
 1806644:	90 1f 02 dc 	stw     r0,732(r31)
 1806648:	81 3f 02 dc 	lwz     r9,732(r31)
 180664c:	80 1f 02 e0 	lwz     r0,736(r31)
 1806650:	7f 89 00 00 	cmpw    cr7,r9,r0
 1806654:	40 9d 00 cc 	ble-    cr7,1806720 <main+0x6500>
 1806658:	3c 00 01 82 	lis     r0,386
 180665c:	7c 09 03 78 	mr      r9,r0
 1806660:	80 09 c7 f8 	lwz     r0,-14344(r9)
 1806664:	31 20 ff fc 	addic   r9,r0,-4
 1806668:	3c 00 01 82 	lis     r0,386
 180666c:	7c 0b 03 78 	mr      r11,r0
 1806670:	91 2b c7 f8 	stw     r9,-14344(r11)
 1806674:	81 3f 02 e0 	lwz     r9,736(r31)
 1806678:	80 1f 02 dc 	lwz     r0,732(r31)
 180667c:	7c 09 02 14 	add     r0,r9,r0
 1806680:	90 1f 02 d8 	stw     r0,728(r31)
 1806684:	3c 00 01 82 	lis     r0,386
 1806688:	7c 09 03 78 	mr      r9,r0
 180668c:	80 09 c7 fc 	lwz     r0,-14340(r9)
 1806690:	3d 20 01 82 	lis     r9,386
 1806694:	39 29 c8 20 	addi    r9,r9,-14304
 1806698:	54 00 10 3a 	rlwinm  r0,r0,2,0,29
 180669c:	7c 09 02 14 	add     r0,r9,r0
 18066a0:	81 3f 02 e0 	lwz     r9,736(r31)
 18066a4:	7c 0b 03 78 	mr      r11,r0
 18066a8:	91 2b 00 00 	stw     r9,0(r11)
 18066ac:	3c 00 01 82 	lis     r0,386
 18066b0:	7c 09 03 78 	mr      r9,r0
 18066b4:	80 09 c7 fc 	lwz     r0,-14340(r9)
 18066b8:	30 00 00 01 	addic   r0,r0,1
 18066bc:	3d 20 01 82 	lis     r9,386
 18066c0:	39 29 c8 20 	addi    r9,r9,-14304
 18066c4:	54 00 10 3a 	rlwinm  r0,r0,2,0,29
 18066c8:	7c 09 02 14 	add     r0,r9,r0
 18066cc:	81 3f 02 dc 	lwz     r9,732(r31)
 18066d0:	7c 0b 03 78 	mr      r11,r0
 18066d4:	91 2b 00 00 	stw     r9,0(r11)
 18066d8:	3c 00 01 82 	lis     r0,386
 18066dc:	7c 09 03 78 	mr      r9,r0
 18066e0:	80 09 c7 fc 	lwz     r0,-14340(r9)
 18066e4:	30 00 00 02 	addic   r0,r0,2
 18066e8:	3d 20 01 82 	lis     r9,386
 18066ec:	39 29 c8 20 	addi    r9,r9,-14304
 18066f0:	54 00 10 3a 	rlwinm  r0,r0,2,0,29
 18066f4:	7c 09 02 14 	add     r0,r9,r0
 18066f8:	81 3f 02 d8 	lwz     r9,728(r31)
 18066fc:	7c 0b 03 78 	mr      r11,r0
 1806700:	91 2b 00 00 	stw     r9,0(r11)
 1806704:	3c 00 01 82 	lis     r0,386
 1806708:	7c 09 03 78 	mr      r9,r0
 180670c:	80 09 c7 fc 	lwz     r0,-14340(r9)
 1806710:	31 20 00 03 	addic   r9,r0,3
 1806714:	3c 00 01 82 	lis     r0,386
 1806718:	7c 0b 03 78 	mr      r11,r0
 180671c:	91 2b c7 fc 	stw     r9,-14340(r11)
 1806720:	3c 00 01 82 	lis     r0,386
 1806724:	7c 09 03 78 	mr      r9,r0
 1806728:	80 09 c7 f8 	lwz     r0,-14344(r9)
 180672c:	2f 80 00 04 	cmpwi   cr7,r0,4
 1806730:	40 9d 01 8c 	ble-    cr7,18068bc <main+0x669c>
 1806734:	3c 00 01 82 	lis     r0,386
 1806738:	7c 0b 03 78 	mr      r11,r0
 180673c:	80 0b c7 fc 	lwz     r0,-14340(r11)
 1806740:	30 00 00 03 	addic   r0,r0,3
 1806744:	2f 80 00 06 	cmpwi   cr7,r0,6
 1806748:	41 9d 01 74 	bgt-    cr7,18068bc <main+0x669c>
 180674c:	3c 00 01 82 	lis     r0,386
 1806750:	30 00 c8 44 	addic   r0,r0,-14268
 1806754:	7c 0b 03 78 	mr      r11,r0
 1806758:	81 2b 00 00 	lwz     r9,0(r11)
 180675c:	3c 00 01 82 	lis     r0,386
 1806760:	30 00 c8 44 	addic   r0,r0,-14268
 1806764:	7c 0b 03 78 	mr      r11,r0
 1806768:	80 0b 00 04 	lwz     r0,4(r11)
 180676c:	7f 89 00 00 	cmpw    cr7,r9,r0
 1806770:	40 9e 01 4c 	bne-    cr7,18068bc <main+0x669c>
 1806774:	3c 00 01 82 	lis     r0,386
 1806778:	30 00 c8 44 	addic   r0,r0,-14268
 180677c:	7c 0b 03 78 	mr      r11,r0
 1806780:	81 2b 00 00 	lwz     r9,0(r11)
 1806784:	3c 00 01 82 	lis     r0,386
 1806788:	30 00 c8 44 	addic   r0,r0,-14268
 180678c:	7c 0b 03 78 	mr      r11,r0
 1806790:	80 0b 00 10 	lwz     r0,16(r11)
 1806794:	7f 89 00 00 	cmpw    cr7,r9,r0
 1806798:	40 9e 01 24 	bne-    cr7,18068bc <main+0x669c>
 180679c:	3c 00 01 82 	lis     r0,386
 18067a0:	30 00 c8 44 	addic   r0,r0,-14268
 18067a4:	7c 09 03 78 	mr      r9,r0
 18067a8:	80 09 00 08 	lwz     r0,8(r9)
 18067ac:	90 1f 02 d4 	stw     r0,724(r31)
 18067b0:	3c 00 01 82 	lis     r0,386
 18067b4:	30 00 c8 44 	addic   r0,r0,-14268
 18067b8:	7c 0b 03 78 	mr      r11,r0
 18067bc:	80 0b 00 00 	lwz     r0,0(r11)
 18067c0:	90 1f 02 d0 	stw     r0,720(r31)
 18067c4:	81 3f 02 d0 	lwz     r9,720(r31)
 18067c8:	80 1f 02 d4 	lwz     r0,724(r31)
 18067cc:	7f 89 00 00 	cmpw    cr7,r9,r0
 18067d0:	40 9d 00 ec 	ble-    cr7,18068bc <main+0x669c>
 18067d4:	3c 00 01 82 	lis     r0,386
 18067d8:	30 00 c8 44 	addic   r0,r0,-14268
 18067dc:	7c 0b 03 78 	mr      r11,r0
 18067e0:	81 2b 00 0c 	lwz     r9,12(r11)
 18067e4:	3c 00 01 82 	lis     r0,386
 18067e8:	30 00 c8 44 	addic   r0,r0,-14268
 18067ec:	7c 0b 03 78 	mr      r11,r0
 18067f0:	91 2b 00 00 	stw     r9,0(r11)
 18067f4:	3c 00 01 82 	lis     r0,386
 18067f8:	7c 09 03 78 	mr      r9,r0
 18067fc:	80 09 c7 f8 	lwz     r0,-14344(r9)
 1806800:	31 20 ff fc 	addic   r9,r0,-4
 1806804:	3c 00 01 82 	lis     r0,386
 1806808:	7c 0b 03 78 	mr      r11,r0
 180680c:	91 2b c7 f8 	stw     r9,-14344(r11)
 1806810:	81 3f 02 d4 	lwz     r9,724(r31)
 1806814:	80 1f 02 d0 	lwz     r0,720(r31)
 1806818:	7c 09 02 14 	add     r0,r9,r0
 180681c:	90 1f 02 cc 	stw     r0,716(r31)
 1806820:	3c 00 01 82 	lis     r0,386
 1806824:	7c 09 03 78 	mr      r9,r0
 1806828:	80 09 c7 fc 	lwz     r0,-14340(r9)
 180682c:	3d 20 01 82 	lis     r9,386
 1806830:	39 29 c8 20 	addi    r9,r9,-14304
 1806834:	54 00 10 3a 	rlwinm  r0,r0,2,0,29
 1806838:	7c 09 02 14 	add     r0,r9,r0
 180683c:	81 3f 02 d4 	lwz     r9,724(r31)
 1806840:	7c 0b 03 78 	mr      r11,r0
 1806844:	91 2b 00 00 	stw     r9,0(r11)
 1806848:	3c 00 01 82 	lis     r0,386
 180684c:	7c 09 03 78 	mr      r9,r0
 1806850:	80 09 c7 fc 	lwz     r0,-14340(r9)
 1806854:	30 00 00 01 	addic   r0,r0,1
 1806858:	3d 20 01 82 	lis     r9,386
 180685c:	39 29 c8 20 	addi    r9,r9,-14304
 1806860:	54 00 10 3a 	rlwinm  r0,r0,2,0,29
 1806864:	7c 09 02 14 	add     r0,r9,r0
 1806868:	81 3f 02 d0 	lwz     r9,720(r31)
 180686c:	7c 0b 03 78 	mr      r11,r0
 1806870:	91 2b 00 00 	stw     r9,0(r11)
 1806874:	3c 00 01 82 	lis     r0,386
 1806878:	7c 09 03 78 	mr      r9,r0
 180687c:	80 09 c7 fc 	lwz     r0,-14340(r9)
 1806880:	30 00 00 02 	addic   r0,r0,2
 1806884:	3d 20 01 82 	lis     r9,386
 1806888:	39 29 c8 20 	addi    r9,r9,-14304
 180688c:	54 00 10 3a 	rlwinm  r0,r0,2,0,29
 1806890:	7c 09 02 14 	add     r0,r9,r0
 1806894:	81 3f 02 cc 	lwz     r9,716(r31)
 1806898:	7c 0b 03 78 	mr      r11,r0
 180689c:	91 2b 00 00 	stw     r9,0(r11)
 18068a0:	3c 00 01 82 	lis     r0,386
 18068a4:	7c 09 03 78 	mr      r9,r0
 18068a8:	80 09 c7 fc 	lwz     r0,-14340(r9)
 18068ac:	31 20 00 03 	addic   r9,r0,3
 18068b0:	3c 00 01 82 	lis     r0,386
 18068b4:	7c 0b 03 78 	mr      r11,r0
 18068b8:	91 2b c7 fc 	stw     r9,-14340(r11)
 18068bc:	3c 00 01 82 	lis     r0,386
 18068c0:	7c 09 03 78 	mr      r9,r0
 18068c4:	80 09 c7 f8 	lwz     r0,-14344(r9)
 18068c8:	2f 80 00 04 	cmpwi   cr7,r0,4
 18068cc:	40 9d 01 8c 	ble-    cr7,1806a58 <main+0x6838>
 18068d0:	3c 00 01 82 	lis     r0,386
 18068d4:	7c 0b 03 78 	mr      r11,r0
 18068d8:	80 0b c7 fc 	lwz     r0,-14340(r11)
 18068dc:	30 00 00 03 	addic   r0,r0,3
 18068e0:	2f 80 00 06 	cmpwi   cr7,r0,6
 18068e4:	41 9d 01 74 	bgt-    cr7,1806a58 <main+0x6838>
 18068e8:	3c 00 01 82 	lis     r0,386
 18068ec:	30 00 c8 44 	addic   r0,r0,-14268
 18068f0:	7c 0b 03 78 	mr      r11,r0
 18068f4:	81 2b 00 00 	lwz     r9,0(r11)
 18068f8:	3c 00 01 82 	lis     r0,386
 18068fc:	30 00 c8 44 	addic   r0,r0,-14268
 1806900:	7c 0b 03 78 	mr      r11,r0
 1806904:	80 0b 00 0c 	lwz     r0,12(r11)
 1806908:	7f 89 00 00 	cmpw    cr7,r9,r0
 180690c:	40 9e 01 4c 	bne-    cr7,1806a58 <main+0x6838>
 1806910:	3c 00 01 82 	lis     r0,386
 1806914:	30 00 c8 44 	addic   r0,r0,-14268
 1806918:	7c 0b 03 78 	mr      r11,r0
 180691c:	81 2b 00 00 	lwz     r9,0(r11)
 1806920:	3c 00 01 82 	lis     r0,386
 1806924:	30 00 c8 44 	addic   r0,r0,-14268
 1806928:	7c 0b 03 78 	mr      r11,r0
 180692c:	80 0b 00 10 	lwz     r0,16(r11)
 1806930:	7f 89 00 00 	cmpw    cr7,r9,r0
 1806934:	40 9e 01 24 	bne-    cr7,1806a58 <main+0x6838>
 1806938:	3c 00 01 82 	lis     r0,386
 180693c:	30 00 c8 44 	addic   r0,r0,-14268
 1806940:	7c 09 03 78 	mr      r9,r0
 1806944:	80 09 00 08 	lwz     r0,8(r9)
 1806948:	90 1f 02 c8 	stw     r0,712(r31)
 180694c:	3c 00 01 82 	lis     r0,386
 1806950:	30 00 c8 44 	addic   r0,r0,-14268
 1806954:	7c 0b 03 78 	mr      r11,r0
 1806958:	80 0b 00 00 	lwz     r0,0(r11)
 180695c:	90 1f 02 c4 	stw     r0,708(r31)
 1806960:	81 3f 02 c4 	lwz     r9,708(r31)
 1806964:	80 1f 02 c8 	lwz     r0,712(r31)
 1806968:	7f 89 00 00 	cmpw    cr7,r9,r0
 180696c:	40 9d 00 ec 	ble-    cr7,1806a58 <main+0x6838>
 1806970:	3c 00 01 82 	lis     r0,386
 1806974:	30 00 c8 44 	addic   r0,r0,-14268
 1806978:	7c 0b 03 78 	mr      r11,r0
 180697c:	81 2b 00 04 	lwz     r9,4(r11)
 1806980:	3c 00 01 82 	lis     r0,386
 1806984:	30 00 c8 44 	addic   r0,r0,-14268
 1806988:	7c 0b 03 78 	mr      r11,r0
 180698c:	91 2b 00 00 	stw     r9,0(r11)
 1806990:	3c 00 01 82 	lis     r0,386
 1806994:	7c 09 03 78 	mr      r9,r0
 1806998:	80 09 c7 f8 	lwz     r0,-14344(r9)
 180699c:	31 20 ff fc 	addic   r9,r0,-4
 18069a0:	3c 00 01 82 	lis     r0,386
 18069a4:	7c 0b 03 78 	mr      r11,r0
 18069a8:	91 2b c7 f8 	stw     r9,-14344(r11)
 18069ac:	81 3f 02 c8 	lwz     r9,712(r31)
 18069b0:	80 1f 02 c4 	lwz     r0,708(r31)
 18069b4:	7c 09 02 14 	add     r0,r9,r0
 18069b8:	90 1f 02 c0 	stw     r0,704(r31)
 18069bc:	3c 00 01 82 	lis     r0,386
 18069c0:	7c 09 03 78 	mr      r9,r0
 18069c4:	80 09 c7 fc 	lwz     r0,-14340(r9)
 18069c8:	3d 20 01 82 	lis     r9,386
 18069cc:	39 29 c8 20 	addi    r9,r9,-14304
 18069d0:	54 00 10 3a 	rlwinm  r0,r0,2,0,29
 18069d4:	7c 09 02 14 	add     r0,r9,r0
 18069d8:	81 3f 02 c8 	lwz     r9,712(r31)
 18069dc:	7c 0b 03 78 	mr      r11,r0
 18069e0:	91 2b 00 00 	stw     r9,0(r11)
 18069e4:	3c 00 01 82 	lis     r0,386
 18069e8:	7c 09 03 78 	mr      r9,r0
 18069ec:	80 09 c7 fc 	lwz     r0,-14340(r9)
 18069f0:	30 00 00 01 	addic   r0,r0,1
 18069f4:	3d 20 01 82 	lis     r9,386
 18069f8:	39 29 c8 20 	addi    r9,r9,-14304
 18069fc:	54 00 10 3a 	rlwinm  r0,r0,2,0,29
 1806a00:	7c 09 02 14 	add     r0,r9,r0
 1806a04:	81 3f 02 c4 	lwz     r9,708(r31)
 1806a08:	7c 0b 03 78 	mr      r11,r0
 1806a0c:	91 2b 00 00 	stw     r9,0(r11)
 1806a10:	3c 00 01 82 	lis     r0,386
 1806a14:	7c 09 03 78 	mr      r9,r0
 1806a18:	80 09 c7 fc 	lwz     r0,-14340(r9)
 1806a1c:	30 00 00 02 	addic   r0,r0,2
 1806a20:	3d 20 01 82 	lis     r9,386
 1806a24:	39 29 c8 20 	addi    r9,r9,-14304
 1806a28:	54 00 10 3a 	rlwinm  r0,r0,2,0,29
 1806a2c:	7c 09 02 14 	add     r0,r9,r0
 1806a30:	81 3f 02 c0 	lwz     r9,704(r31)
 1806a34:	7c 0b 03 78 	mr      r11,r0
 1806a38:	91 2b 00 00 	stw     r9,0(r11)
 1806a3c:	3c 00 01 82 	lis     r0,386
 1806a40:	7c 09 03 78 	mr      r9,r0
 1806a44:	80 09 c7 fc 	lwz     r0,-14340(r9)
 1806a48:	31 20 00 03 	addic   r9,r0,3
 1806a4c:	3c 00 01 82 	lis     r0,386
 1806a50:	7c 0b 03 78 	mr      r11,r0
 1806a54:	91 2b c7 fc 	stw     r9,-14340(r11)
 1806a58:	3c 00 01 82 	lis     r0,386
 1806a5c:	7c 09 03 78 	mr      r9,r0
 1806a60:	80 09 c7 f8 	lwz     r0,-14344(r9)
 1806a64:	2f 80 00 04 	cmpwi   cr7,r0,4
 1806a68:	40 9d 01 8c 	ble-    cr7,1806bf4 <main+0x69d4>
 1806a6c:	3c 00 01 82 	lis     r0,386
 1806a70:	7c 0b 03 78 	mr      r11,r0
 1806a74:	80 0b c7 fc 	lwz     r0,-14340(r11)
 1806a78:	30 00 00 03 	addic   r0,r0,3
 1806a7c:	2f 80 00 06 	cmpwi   cr7,r0,6
 1806a80:	41 9d 01 74 	bgt-    cr7,1806bf4 <main+0x69d4>
 1806a84:	3c 00 01 82 	lis     r0,386
 1806a88:	30 00 c8 44 	addic   r0,r0,-14268
 1806a8c:	7c 0b 03 78 	mr      r11,r0
 1806a90:	81 2b 00 00 	lwz     r9,0(r11)
 1806a94:	3c 00 01 82 	lis     r0,386
 1806a98:	30 00 c8 44 	addic   r0,r0,-14268
 1806a9c:	7c 0b 03 78 	mr      r11,r0
 1806aa0:	80 0b 00 10 	lwz     r0,16(r11)
 1806aa4:	7f 89 00 00 	cmpw    cr7,r9,r0
 1806aa8:	40 9e 01 4c 	bne-    cr7,1806bf4 <main+0x69d4>
 1806aac:	3c 00 01 82 	lis     r0,386
 1806ab0:	30 00 c8 44 	addic   r0,r0,-14268
 1806ab4:	7c 0b 03 78 	mr      r11,r0
 1806ab8:	81 2b 00 00 	lwz     r9,0(r11)
 1806abc:	3c 00 01 82 	lis     r0,386
 1806ac0:	30 00 c8 44 	addic   r0,r0,-14268
 1806ac4:	7c 0b 03 78 	mr      r11,r0
 1806ac8:	80 0b 00 04 	lwz     r0,4(r11)
 1806acc:	7f 89 00 00 	cmpw    cr7,r9,r0
 1806ad0:	40 9e 01 24 	bne-    cr7,1806bf4 <main+0x69d4>
 1806ad4:	3c 00 01 82 	lis     r0,386
 1806ad8:	30 00 c8 44 	addic   r0,r0,-14268
 1806adc:	7c 09 03 78 	mr      r9,r0
 1806ae0:	80 09 00 08 	lwz     r0,8(r9)
 1806ae4:	90 1f 02 bc 	stw     r0,700(r31)
 1806ae8:	3c 00 01 82 	lis     r0,386
 1806aec:	30 00 c8 44 	addic   r0,r0,-14268
 1806af0:	7c 0b 03 78 	mr      r11,r0
 1806af4:	80 0b 00 00 	lwz     r0,0(r11)
 1806af8:	90 1f 02 b8 	stw     r0,696(r31)
 1806afc:	81 3f 02 b8 	lwz     r9,696(r31)
 1806b00:	80 1f 02 bc 	lwz     r0,700(r31)
 1806b04:	7f 89 00 00 	cmpw    cr7,r9,r0
 1806b08:	40 9d 00 ec 	ble-    cr7,1806bf4 <main+0x69d4>
 1806b0c:	3c 00 01 82 	lis     r0,386
 1806b10:	30 00 c8 44 	addic   r0,r0,-14268
 1806b14:	7c 0b 03 78 	mr      r11,r0
 1806b18:	81 2b 00 0c 	lwz     r9,12(r11)
 1806b1c:	3c 00 01 82 	lis     r0,386
 1806b20:	30 00 c8 44 	addic   r0,r0,-14268
 1806b24:	7c 0b 03 78 	mr      r11,r0
 1806b28:	91 2b 00 00 	stw     r9,0(r11)
 1806b2c:	3c 00 01 82 	lis     r0,386
 1806b30:	7c 09 03 78 	mr      r9,r0
 1806b34:	80 09 c7 f8 	lwz     r0,-14344(r9)
 1806b38:	31 20 ff fc 	addic   r9,r0,-4
 1806b3c:	3c 00 01 82 	lis     r0,386
 1806b40:	7c 0b 03 78 	mr      r11,r0
 1806b44:	91 2b c7 f8 	stw     r9,-14344(r11)
 1806b48:	81 3f 02 bc 	lwz     r9,700(r31)
 1806b4c:	80 1f 02 b8 	lwz     r0,696(r31)
 1806b50:	7c 09 02 14 	add     r0,r9,r0
 1806b54:	90 1f 02 b4 	stw     r0,692(r31)
 1806b58:	3c 00 01 82 	lis     r0,386
 1806b5c:	7c 09 03 78 	mr      r9,r0
 1806b60:	80 09 c7 fc 	lwz     r0,-14340(r9)
 1806b64:	3d 20 01 82 	lis     r9,386
 1806b68:	39 29 c8 20 	addi    r9,r9,-14304
 1806b6c:	54 00 10 3a 	rlwinm  r0,r0,2,0,29
 1806b70:	7c 09 02 14 	add     r0,r9,r0
 1806b74:	81 3f 02 bc 	lwz     r9,700(r31)
 1806b78:	7c 0b 03 78 	mr      r11,r0
 1806b7c:	91 2b 00 00 	stw     r9,0(r11)
 1806b80:	3c 00 01 82 	lis     r0,386
 1806b84:	7c 09 03 78 	mr      r9,r0
 1806b88:	80 09 c7 fc 	lwz     r0,-14340(r9)
 1806b8c:	30 00 00 01 	addic   r0,r0,1
 1806b90:	3d 20 01 82 	lis     r9,386
 1806b94:	39 29 c8 20 	addi    r9,r9,-14304
 1806b98:	54 00 10 3a 	rlwinm  r0,r0,2,0,29
 1806b9c:	7c 09 02 14 	add     r0,r9,r0
 1806ba0:	81 3f 02 b8 	lwz     r9,696(r31)
 1806ba4:	7c 0b 03 78 	mr      r11,r0
 1806ba8:	91 2b 00 00 	stw     r9,0(r11)
 1806bac:	3c 00 01 82 	lis     r0,386
 1806bb0:	7c 09 03 78 	mr      r9,r0
 1806bb4:	80 09 c7 fc 	lwz     r0,-14340(r9)
 1806bb8:	30 00 00 02 	addic   r0,r0,2
 1806bbc:	3d 20 01 82 	lis     r9,386
 1806bc0:	39 29 c8 20 	addi    r9,r9,-14304
 1806bc4:	54 00 10 3a 	rlwinm  r0,r0,2,0,29
 1806bc8:	7c 09 02 14 	add     r0,r9,r0
 1806bcc:	81 3f 02 b4 	lwz     r9,692(r31)
 1806bd0:	7c 0b 03 78 	mr      r11,r0
 1806bd4:	91 2b 00 00 	stw     r9,0(r11)
 1806bd8:	3c 00 01 82 	lis     r0,386
 1806bdc:	7c 09 03 78 	mr      r9,r0
 1806be0:	80 09 c7 fc 	lwz     r0,-14340(r9)
 1806be4:	31 20 00 03 	addic   r9,r0,3
 1806be8:	3c 00 01 82 	lis     r0,386
 1806bec:	7c 0b 03 78 	mr      r11,r0
 1806bf0:	91 2b c7 fc 	stw     r9,-14340(r11)
 1806bf4:	3c 00 01 82 	lis     r0,386
 1806bf8:	7c 09 03 78 	mr      r9,r0
 1806bfc:	80 09 c7 f8 	lwz     r0,-14344(r9)
 1806c00:	2f 80 00 04 	cmpwi   cr7,r0,4
 1806c04:	40 9d 01 8c 	ble-    cr7,1806d90 <main+0x6b70>
 1806c08:	3c 00 01 82 	lis     r0,386
 1806c0c:	7c 0b 03 78 	mr      r11,r0
 1806c10:	80 0b c7 fc 	lwz     r0,-14340(r11)
 1806c14:	30 00 00 03 	addic   r0,r0,3
 1806c18:	2f 80 00 06 	cmpwi   cr7,r0,6
 1806c1c:	41 9d 01 74 	bgt-    cr7,1806d90 <main+0x6b70>
 1806c20:	3c 00 01 82 	lis     r0,386
 1806c24:	30 00 c8 44 	addic   r0,r0,-14268
 1806c28:	7c 0b 03 78 	mr      r11,r0
 1806c2c:	81 2b 00 00 	lwz     r9,0(r11)
 1806c30:	3c 00 01 82 	lis     r0,386
 1806c34:	30 00 c8 44 	addic   r0,r0,-14268
 1806c38:	7c 0b 03 78 	mr      r11,r0
 1806c3c:	80 0b 00 10 	lwz     r0,16(r11)
 1806c40:	7f 89 00 00 	cmpw    cr7,r9,r0
 1806c44:	40 9e 01 4c 	bne-    cr7,1806d90 <main+0x6b70>
 1806c48:	3c 00 01 82 	lis     r0,386
 1806c4c:	30 00 c8 44 	addic   r0,r0,-14268
 1806c50:	7c 0b 03 78 	mr      r11,r0
 1806c54:	81 2b 00 00 	lwz     r9,0(r11)
 1806c58:	3c 00 01 82 	lis     r0,386
 1806c5c:	30 00 c8 44 	addic   r0,r0,-14268
 1806c60:	7c 0b 03 78 	mr      r11,r0
 1806c64:	80 0b 00 0c 	lwz     r0,12(r11)
 1806c68:	7f 89 00 00 	cmpw    cr7,r9,r0
 1806c6c:	40 9e 01 24 	bne-    cr7,1806d90 <main+0x6b70>
 1806c70:	3c 00 01 82 	lis     r0,386
 1806c74:	30 00 c8 44 	addic   r0,r0,-14268
 1806c78:	7c 09 03 78 	mr      r9,r0
 1806c7c:	80 09 00 08 	lwz     r0,8(r9)
 1806c80:	90 1f 02 b0 	stw     r0,688(r31)
 1806c84:	3c 00 01 82 	lis     r0,386
 1806c88:	30 00 c8 44 	addic   r0,r0,-14268
 1806c8c:	7c 0b 03 78 	mr      r11,r0
 1806c90:	80 0b 00 00 	lwz     r0,0(r11)
 1806c94:	90 1f 02 ac 	stw     r0,684(r31)
 1806c98:	81 3f 02 ac 	lwz     r9,684(r31)
 1806c9c:	80 1f 02 b0 	lwz     r0,688(r31)
 1806ca0:	7f 89 00 00 	cmpw    cr7,r9,r0
 1806ca4:	40 9d 00 ec 	ble-    cr7,1806d90 <main+0x6b70>
 1806ca8:	3c 00 01 82 	lis     r0,386
 1806cac:	30 00 c8 44 	addic   r0,r0,-14268
 1806cb0:	7c 0b 03 78 	mr      r11,r0
 1806cb4:	81 2b 00 04 	lwz     r9,4(r11)
 1806cb8:	3c 00 01 82 	lis     r0,386
 1806cbc:	30 00 c8 44 	addic   r0,r0,-14268
 1806cc0:	7c 0b 03 78 	mr      r11,r0
 1806cc4:	91 2b 00 00 	stw     r9,0(r11)
 1806cc8:	3c 00 01 82 	lis     r0,386
 1806ccc:	7c 09 03 78 	mr      r9,r0
 1806cd0:	80 09 c7 f8 	lwz     r0,-14344(r9)
 1806cd4:	31 20 ff fc 	addic   r9,r0,-4
 1806cd8:	3c 00 01 82 	lis     r0,386
 1806cdc:	7c 0b 03 78 	mr      r11,r0
 1806ce0:	91 2b c7 f8 	stw     r9,-14344(r11)
 1806ce4:	81 3f 02 b0 	lwz     r9,688(r31)
 1806ce8:	80 1f 02 ac 	lwz     r0,684(r31)
 1806cec:	7c 09 02 14 	add     r0,r9,r0
 1806cf0:	90 1f 02 a8 	stw     r0,680(r31)
 1806cf4:	3c 00 01 82 	lis     r0,386
 1806cf8:	7c 09 03 78 	mr      r9,r0
 1806cfc:	80 09 c7 fc 	lwz     r0,-14340(r9)
 1806d00:	3d 20 01 82 	lis     r9,386
 1806d04:	39 29 c8 20 	addi    r9,r9,-14304
 1806d08:	54 00 10 3a 	rlwinm  r0,r0,2,0,29
 1806d0c:	7c 09 02 14 	add     r0,r9,r0
 1806d10:	81 3f 02 b0 	lwz     r9,688(r31)
 1806d14:	7c 0b 03 78 	mr      r11,r0
 1806d18:	91 2b 00 00 	stw     r9,0(r11)
 1806d1c:	3c 00 01 82 	lis     r0,386
 1806d20:	7c 09 03 78 	mr      r9,r0
 1806d24:	80 09 c7 fc 	lwz     r0,-14340(r9)
 1806d28:	30 00 00 01 	addic   r0,r0,1
 1806d2c:	3d 20 01 82 	lis     r9,386
 1806d30:	39 29 c8 20 	addi    r9,r9,-14304
 1806d34:	54 00 10 3a 	rlwinm  r0,r0,2,0,29
 1806d38:	7c 09 02 14 	add     r0,r9,r0
 1806d3c:	81 3f 02 ac 	lwz     r9,684(r31)
 1806d40:	7c 0b 03 78 	mr      r11,r0
 1806d44:	91 2b 00 00 	stw     r9,0(r11)
 1806d48:	3c 00 01 82 	lis     r0,386
 1806d4c:	7c 09 03 78 	mr      r9,r0
 1806d50:	80 09 c7 fc 	lwz     r0,-14340(r9)
 1806d54:	30 00 00 02 	addic   r0,r0,2
 1806d58:	3d 20 01 82 	lis     r9,386
 1806d5c:	39 29 c8 20 	addi    r9,r9,-14304
 1806d60:	54 00 10 3a 	rlwinm  r0,r0,2,0,29
 1806d64:	7c 09 02 14 	add     r0,r9,r0
 1806d68:	81 3f 02 a8 	lwz     r9,680(r31)
 1806d6c:	7c 0b 03 78 	mr      r11,r0
 1806d70:	91 2b 00 00 	stw     r9,0(r11)
 1806d74:	3c 00 01 82 	lis     r0,386
 1806d78:	7c 09 03 78 	mr      r9,r0
 1806d7c:	80 09 c7 fc 	lwz     r0,-14340(r9)
 1806d80:	31 20 00 03 	addic   r9,r0,3
 1806d84:	3c 00 01 82 	lis     r0,386
 1806d88:	7c 0b 03 78 	mr      r11,r0
 1806d8c:	91 2b c7 fc 	stw     r9,-14340(r11)
 1806d90:	3c 00 01 82 	lis     r0,386
 1806d94:	7c 09 03 78 	mr      r9,r0
 1806d98:	80 09 c7 f8 	lwz     r0,-14344(r9)
 1806d9c:	2f 80 00 04 	cmpwi   cr7,r0,4
 1806da0:	40 9d 01 8c 	ble-    cr7,1806f2c <main+0x6d0c>
 1806da4:	3c 00 01 82 	lis     r0,386
 1806da8:	7c 0b 03 78 	mr      r11,r0
 1806dac:	80 0b c7 fc 	lwz     r0,-14340(r11)
 1806db0:	30 00 00 03 	addic   r0,r0,3
 1806db4:	2f 80 00 06 	cmpwi   cr7,r0,6
 1806db8:	41 9d 01 74 	bgt-    cr7,1806f2c <main+0x6d0c>
 1806dbc:	3c 00 01 82 	lis     r0,386
 1806dc0:	30 00 c8 44 	addic   r0,r0,-14268
 1806dc4:	7c 0b 03 78 	mr      r11,r0
 1806dc8:	81 2b 00 04 	lwz     r9,4(r11)
 1806dcc:	3c 00 01 82 	lis     r0,386
 1806dd0:	30 00 c8 44 	addic   r0,r0,-14268
 1806dd4:	7c 0b 03 78 	mr      r11,r0
 1806dd8:	80 0b 00 00 	lwz     r0,0(r11)
 1806ddc:	7f 89 00 00 	cmpw    cr7,r9,r0
 1806de0:	40 9e 01 4c 	bne-    cr7,1806f2c <main+0x6d0c>
 1806de4:	3c 00 01 82 	lis     r0,386
 1806de8:	30 00 c8 44 	addic   r0,r0,-14268
 1806dec:	7c 0b 03 78 	mr      r11,r0
 1806df0:	81 2b 00 04 	lwz     r9,4(r11)
 1806df4:	3c 00 01 82 	lis     r0,386
 1806df8:	30 00 c8 44 	addic   r0,r0,-14268
 1806dfc:	7c 0b 03 78 	mr      r11,r0
 1806e00:	80 0b 00 10 	lwz     r0,16(r11)
 1806e04:	7f 89 00 00 	cmpw    cr7,r9,r0
 1806e08:	40 9e 01 24 	bne-    cr7,1806f2c <main+0x6d0c>
 1806e0c:	3c 00 01 82 	lis     r0,386
 1806e10:	30 00 c8 44 	addic   r0,r0,-14268
 1806e14:	7c 09 03 78 	mr      r9,r0
 1806e18:	80 09 00 08 	lwz     r0,8(r9)
 1806e1c:	90 1f 02 a4 	stw     r0,676(r31)
 1806e20:	3c 00 01 82 	lis     r0,386
 1806e24:	30 00 c8 44 	addic   r0,r0,-14268
 1806e28:	7c 0b 03 78 	mr      r11,r0
 1806e2c:	80 0b 00 04 	lwz     r0,4(r11)
 1806e30:	90 1f 02 a0 	stw     r0,672(r31)
 1806e34:	81 3f 02 a0 	lwz     r9,672(r31)
 1806e38:	80 1f 02 a4 	lwz     r0,676(r31)
 1806e3c:	7f 89 00 00 	cmpw    cr7,r9,r0
 1806e40:	40 9d 00 ec 	ble-    cr7,1806f2c <main+0x6d0c>
 1806e44:	3c 00 01 82 	lis     r0,386
 1806e48:	30 00 c8 44 	addic   r0,r0,-14268
 1806e4c:	7c 0b 03 78 	mr      r11,r0
 1806e50:	81 2b 00 0c 	lwz     r9,12(r11)
 1806e54:	3c 00 01 82 	lis     r0,386
 1806e58:	30 00 c8 44 	addic   r0,r0,-14268
 1806e5c:	7c 0b 03 78 	mr      r11,r0
 1806e60:	91 2b 00 00 	stw     r9,0(r11)
 1806e64:	3c 00 01 82 	lis     r0,386
 1806e68:	7c 09 03 78 	mr      r9,r0
 1806e6c:	80 09 c7 f8 	lwz     r0,-14344(r9)
 1806e70:	31 20 ff fc 	addic   r9,r0,-4
 1806e74:	3c 00 01 82 	lis     r0,386
 1806e78:	7c 0b 03 78 	mr      r11,r0
 1806e7c:	91 2b c7 f8 	stw     r9,-14344(r11)
 1806e80:	81 3f 02 a4 	lwz     r9,676(r31)
 1806e84:	80 1f 02 a0 	lwz     r0,672(r31)
 1806e88:	7c 09 02 14 	add     r0,r9,r0
 1806e8c:	90 1f 02 9c 	stw     r0,668(r31)
 1806e90:	3c 00 01 82 	lis     r0,386
 1806e94:	7c 09 03 78 	mr      r9,r0
 1806e98:	80 09 c7 fc 	lwz     r0,-14340(r9)
 1806e9c:	3d 20 01 82 	lis     r9,386
 1806ea0:	39 29 c8 20 	addi    r9,r9,-14304
 1806ea4:	54 00 10 3a 	rlwinm  r0,r0,2,0,29
 1806ea8:	7c 09 02 14 	add     r0,r9,r0
 1806eac:	81 3f 02 a4 	lwz     r9,676(r31)
 1806eb0:	7c 0b 03 78 	mr      r11,r0
 1806eb4:	91 2b 00 00 	stw     r9,0(r11)
 1806eb8:	3c 00 01 82 	lis     r0,386
 1806ebc:	7c 09 03 78 	mr      r9,r0
 1806ec0:	80 09 c7 fc 	lwz     r0,-14340(r9)
 1806ec4:	30 00 00 01 	addic   r0,r0,1
 1806ec8:	3d 20 01 82 	lis     r9,386
 1806ecc:	39 29 c8 20 	addi    r9,r9,-14304
 1806ed0:	54 00 10 3a 	rlwinm  r0,r0,2,0,29
 1806ed4:	7c 09 02 14 	add     r0,r9,r0
 1806ed8:	81 3f 02 a0 	lwz     r9,672(r31)
 1806edc:	7c 0b 03 78 	mr      r11,r0
 1806ee0:	91 2b 00 00 	stw     r9,0(r11)
 1806ee4:	3c 00 01 82 	lis     r0,386
 1806ee8:	7c 09 03 78 	mr      r9,r0
 1806eec:	80 09 c7 fc 	lwz     r0,-14340(r9)
 1806ef0:	30 00 00 02 	addic   r0,r0,2
 1806ef4:	3d 20 01 82 	lis     r9,386
 1806ef8:	39 29 c8 20 	addi    r9,r9,-14304
 1806efc:	54 00 10 3a 	rlwinm  r0,r0,2,0,29
 1806f00:	7c 09 02 14 	add     r0,r9,r0
 1806f04:	81 3f 02 9c 	lwz     r9,668(r31)
 1806f08:	7c 0b 03 78 	mr      r11,r0
 1806f0c:	91 2b 00 00 	stw     r9,0(r11)
 1806f10:	3c 00 01 82 	lis     r0,386
 1806f14:	7c 09 03 78 	mr      r9,r0
 1806f18:	80 09 c7 fc 	lwz     r0,-14340(r9)
 1806f1c:	31 20 00 03 	addic   r9,r0,3
 1806f20:	3c 00 01 82 	lis     r0,386
 1806f24:	7c 0b 03 78 	mr      r11,r0
 1806f28:	91 2b c7 fc 	stw     r9,-14340(r11)
 1806f2c:	3c 00 01 82 	lis     r0,386
 1806f30:	7c 09 03 78 	mr      r9,r0
 1806f34:	80 09 c7 f8 	lwz     r0,-14344(r9)
 1806f38:	2f 80 00 04 	cmpwi   cr7,r0,4
 1806f3c:	40 9d 01 6c 	ble-    cr7,18070a8 <main+0x6e88>
 1806f40:	3c 00 01 82 	lis     r0,386
 1806f44:	7c 0b 03 78 	mr      r11,r0
 1806f48:	80 0b c7 fc 	lwz     r0,-14340(r11)
 1806f4c:	30 00 00 03 	addic   r0,r0,3
 1806f50:	2f 80 00 06 	cmpwi   cr7,r0,6
 1806f54:	41 9d 01 54 	bgt-    cr7,18070a8 <main+0x6e88>
 1806f58:	3c 00 01 82 	lis     r0,386
 1806f5c:	30 00 c8 44 	addic   r0,r0,-14268
 1806f60:	7c 0b 03 78 	mr      r11,r0
 1806f64:	81 2b 00 04 	lwz     r9,4(r11)
 1806f68:	3c 00 01 82 	lis     r0,386
 1806f6c:	30 00 c8 44 	addic   r0,r0,-14268
 1806f70:	7c 0b 03 78 	mr      r11,r0
 1806f74:	80 0b 00 0c 	lwz     r0,12(r11)
 1806f78:	7f 89 00 00 	cmpw    cr7,r9,r0
 1806f7c:	40 9e 01 2c 	bne-    cr7,18070a8 <main+0x6e88>
 1806f80:	3c 00 01 82 	lis     r0,386
 1806f84:	30 00 c8 44 	addic   r0,r0,-14268
 1806f88:	7c 0b 03 78 	mr      r11,r0
 1806f8c:	81 2b 00 04 	lwz     r9,4(r11)
 1806f90:	3c 00 01 82 	lis     r0,386
 1806f94:	30 00 c8 44 	addic   r0,r0,-14268
 1806f98:	7c 0b 03 78 	mr      r11,r0
 1806f9c:	80 0b 00 10 	lwz     r0,16(r11)
 1806fa0:	7f 89 00 00 	cmpw    cr7,r9,r0
 1806fa4:	40 9e 01 04 	bne-    cr7,18070a8 <main+0x6e88>
 1806fa8:	3c 00 01 82 	lis     r0,386
 1806fac:	30 00 c8 44 	addic   r0,r0,-14268
 1806fb0:	7c 09 03 78 	mr      r9,r0
 1806fb4:	80 09 00 08 	lwz     r0,8(r9)
 1806fb8:	90 1f 02 98 	stw     r0,664(r31)
 1806fbc:	3c 00 01 82 	lis     r0,386
 1806fc0:	30 00 c8 44 	addic   r0,r0,-14268
 1806fc4:	7c 0b 03 78 	mr      r11,r0
 1806fc8:	80 0b 00 04 	lwz     r0,4(r11)
 1806fcc:	90 1f 02 94 	stw     r0,660(r31)
 1806fd0:	81 3f 02 94 	lwz     r9,660(r31)
 1806fd4:	80 1f 02 98 	lwz     r0,664(r31)
 1806fd8:	7f 89 00 00 	cmpw    cr7,r9,r0
 1806fdc:	40 9d 00 cc 	ble-    cr7,18070a8 <main+0x6e88>
 1806fe0:	3c 00 01 82 	lis     r0,386
 1806fe4:	7c 09 03 78 	mr      r9,r0
 1806fe8:	80 09 c7 f8 	lwz     r0,-14344(r9)
 1806fec:	31 20 ff fc 	addic   r9,r0,-4
 1806ff0:	3c 00 01 82 	lis     r0,386
 1806ff4:	7c 0b 03 78 	mr      r11,r0
 1806ff8:	91 2b c7 f8 	stw     r9,-14344(r11)
 1806ffc:	81 3f 02 98 	lwz     r9,664(r31)
 1807000:	80 1f 02 94 	lwz     r0,660(r31)
 1807004:	7c 09 02 14 	add     r0,r9,r0
 1807008:	90 1f 02 90 	stw     r0,656(r31)
 180700c:	3c 00 01 82 	lis     r0,386
 1807010:	7c 09 03 78 	mr      r9,r0
 1807014:	80 09 c7 fc 	lwz     r0,-14340(r9)
 1807018:	3d 20 01 82 	lis     r9,386
 180701c:	39 29 c8 20 	addi    r9,r9,-14304
 1807020:	54 00 10 3a 	rlwinm  r0,r0,2,0,29
 1807024:	7c 09 02 14 	add     r0,r9,r0
 1807028:	81 3f 02 98 	lwz     r9,664(r31)
 180702c:	7c 0b 03 78 	mr      r11,r0
 1807030:	91 2b 00 00 	stw     r9,0(r11)
 1807034:	3c 00 01 82 	lis     r0,386
 1807038:	7c 09 03 78 	mr      r9,r0
 180703c:	80 09 c7 fc 	lwz     r0,-14340(r9)
 1807040:	30 00 00 01 	addic   r0,r0,1
 1807044:	3d 20 01 82 	lis     r9,386
 1807048:	39 29 c8 20 	addi    r9,r9,-14304
 180704c:	54 00 10 3a 	rlwinm  r0,r0,2,0,29
 1807050:	7c 09 02 14 	add     r0,r9,r0
 1807054:	81 3f 02 94 	lwz     r9,660(r31)
 1807058:	7c 0b 03 78 	mr      r11,r0
 180705c:	91 2b 00 00 	stw     r9,0(r11)
 1807060:	3c 00 01 82 	lis     r0,386
 1807064:	7c 09 03 78 	mr      r9,r0
 1807068:	80 09 c7 fc 	lwz     r0,-14340(r9)
 180706c:	30 00 00 02 	addic   r0,r0,2
 1807070:	3d 20 01 82 	lis     r9,386
 1807074:	39 29 c8 20 	addi    r9,r9,-14304
 1807078:	54 00 10 3a 	rlwinm  r0,r0,2,0,29
 180707c:	7c 09 02 14 	add     r0,r9,r0
 1807080:	81 3f 02 90 	lwz     r9,656(r31)
 1807084:	7c 0b 03 78 	mr      r11,r0
 1807088:	91 2b 00 00 	stw     r9,0(r11)
 180708c:	3c 00 01 82 	lis     r0,386
 1807090:	7c 09 03 78 	mr      r9,r0
 1807094:	80 09 c7 fc 	lwz     r0,-14340(r9)
 1807098:	31 20 00 03 	addic   r9,r0,3
 180709c:	3c 00 01 82 	lis     r0,386
 18070a0:	7c 0b 03 78 	mr      r11,r0
 18070a4:	91 2b c7 fc 	stw     r9,-14340(r11)
 18070a8:	3c 00 01 82 	lis     r0,386
 18070ac:	7c 09 03 78 	mr      r9,r0
 18070b0:	80 09 c7 f8 	lwz     r0,-14344(r9)
 18070b4:	2f 80 00 04 	cmpwi   cr7,r0,4
 18070b8:	40 9d 01 8c 	ble-    cr7,1807244 <main+0x7024>
 18070bc:	3c 00 01 82 	lis     r0,386
 18070c0:	7c 0b 03 78 	mr      r11,r0
 18070c4:	80 0b c7 fc 	lwz     r0,-14340(r11)
 18070c8:	30 00 00 03 	addic   r0,r0,3
 18070cc:	2f 80 00 06 	cmpwi   cr7,r0,6
 18070d0:	41 9d 01 74 	bgt-    cr7,1807244 <main+0x7024>
 18070d4:	3c 00 01 82 	lis     r0,386
 18070d8:	30 00 c8 44 	addic   r0,r0,-14268
 18070dc:	7c 0b 03 78 	mr      r11,r0
 18070e0:	81 2b 00 04 	lwz     r9,4(r11)
 18070e4:	3c 00 01 82 	lis     r0,386
 18070e8:	30 00 c8 44 	addic   r0,r0,-14268
 18070ec:	7c 0b 03 78 	mr      r11,r0
 18070f0:	80 0b 00 10 	lwz     r0,16(r11)
 18070f4:	7f 89 00 00 	cmpw    cr7,r9,r0
 18070f8:	40 9e 01 4c 	bne-    cr7,1807244 <main+0x7024>
 18070fc:	3c 00 01 82 	lis     r0,386
 1807100:	30 00 c8 44 	addic   r0,r0,-14268
 1807104:	7c 0b 03 78 	mr      r11,r0
 1807108:	81 2b 00 04 	lwz     r9,4(r11)
 180710c:	3c 00 01 82 	lis     r0,386
 1807110:	30 00 c8 44 	addic   r0,r0,-14268
 1807114:	7c 0b 03 78 	mr      r11,r0
 1807118:	80 0b 00 00 	lwz     r0,0(r11)
 180711c:	7f 89 00 00 	cmpw    cr7,r9,r0
 1807120:	40 9e 01 24 	bne-    cr7,1807244 <main+0x7024>
 1807124:	3c 00 01 82 	lis     r0,386
 1807128:	30 00 c8 44 	addic   r0,r0,-14268
 180712c:	7c 09 03 78 	mr      r9,r0
 1807130:	80 09 00 08 	lwz     r0,8(r9)
 1807134:	90 1f 02 8c 	stw     r0,652(r31)
 1807138:	3c 00 01 82 	lis     r0,386
 180713c:	30 00 c8 44 	addic   r0,r0,-14268
 1807140:	7c 0b 03 78 	mr      r11,r0
 1807144:	80 0b 00 04 	lwz     r0,4(r11)
 1807148:	90 1f 02 88 	stw     r0,648(r31)
 180714c:	81 3f 02 88 	lwz     r9,648(r31)
 1807150:	80 1f 02 8c 	lwz     r0,652(r31)
 1807154:	7f 89 00 00 	cmpw    cr7,r9,r0
 1807158:	40 9d 00 ec 	ble-    cr7,1807244 <main+0x7024>
 180715c:	3c 00 01 82 	lis     r0,386
 1807160:	30 00 c8 44 	addic   r0,r0,-14268
 1807164:	7c 0b 03 78 	mr      r11,r0
 1807168:	81 2b 00 0c 	lwz     r9,12(r11)
 180716c:	3c 00 01 82 	lis     r0,386
 1807170:	30 00 c8 44 	addic   r0,r0,-14268
 1807174:	7c 0b 03 78 	mr      r11,r0
 1807178:	91 2b 00 00 	stw     r9,0(r11)
 180717c:	3c 00 01 82 	lis     r0,386
 1807180:	7c 09 03 78 	mr      r9,r0
 1807184:	80 09 c7 f8 	lwz     r0,-14344(r9)
 1807188:	31 20 ff fc 	addic   r9,r0,-4
 180718c:	3c 00 01 82 	lis     r0,386
 1807190:	7c 0b 03 78 	mr      r11,r0
 1807194:	91 2b c7 f8 	stw     r9,-14344(r11)
 1807198:	81 3f 02 8c 	lwz     r9,652(r31)
 180719c:	80 1f 02 88 	lwz     r0,648(r31)
 18071a0:	7c 09 02 14 	add     r0,r9,r0
 18071a4:	90 1f 02 84 	stw     r0,644(r31)
 18071a8:	3c 00 01 82 	lis     r0,386
 18071ac:	7c 09 03 78 	mr      r9,r0
 18071b0:	80 09 c7 fc 	lwz     r0,-14340(r9)
 18071b4:	3d 20 01 82 	lis     r9,386
 18071b8:	39 29 c8 20 	addi    r9,r9,-14304
 18071bc:	54 00 10 3a 	rlwinm  r0,r0,2,0,29
 18071c0:	7c 09 02 14 	add     r0,r9,r0
 18071c4:	81 3f 02 8c 	lwz     r9,652(r31)
 18071c8:	7c 0b 03 78 	mr      r11,r0
 18071cc:	91 2b 00 00 	stw     r9,0(r11)
 18071d0:	3c 00 01 82 	lis     r0,386
 18071d4:	7c 09 03 78 	mr      r9,r0
 18071d8:	80 09 c7 fc 	lwz     r0,-14340(r9)
 18071dc:	30 00 00 01 	addic   r0,r0,1
 18071e0:	3d 20 01 82 	lis     r9,386
 18071e4:	39 29 c8 20 	addi    r9,r9,-14304
 18071e8:	54 00 10 3a 	rlwinm  r0,r0,2,0,29
 18071ec:	7c 09 02 14 	add     r0,r9,r0
 18071f0:	81 3f 02 88 	lwz     r9,648(r31)
 18071f4:	7c 0b 03 78 	mr      r11,r0
 18071f8:	91 2b 00 00 	stw     r9,0(r11)
 18071fc:	3c 00 01 82 	lis     r0,386
 1807200:	7c 09 03 78 	mr      r9,r0
 1807204:	80 09 c7 fc 	lwz     r0,-14340(r9)
 1807208:	30 00 00 02 	addic   r0,r0,2
 180720c:	3d 20 01 82 	lis     r9,386
 1807210:	39 29 c8 20 	addi    r9,r9,-14304
 1807214:	54 00 10 3a 	rlwinm  r0,r0,2,0,29
 1807218:	7c 09 02 14 	add     r0,r9,r0
 180721c:	81 3f 02 84 	lwz     r9,644(r31)
 1807220:	7c 0b 03 78 	mr      r11,r0
 1807224:	91 2b 00 00 	stw     r9,0(r11)
 1807228:	3c 00 01 82 	lis     r0,386
 180722c:	7c 09 03 78 	mr      r9,r0
 1807230:	80 09 c7 fc 	lwz     r0,-14340(r9)
 1807234:	31 20 00 03 	addic   r9,r0,3
 1807238:	3c 00 01 82 	lis     r0,386
 180723c:	7c 0b 03 78 	mr      r11,r0
 1807240:	91 2b c7 fc 	stw     r9,-14340(r11)
 1807244:	3c 00 01 82 	lis     r0,386
 1807248:	7c 09 03 78 	mr      r9,r0
 180724c:	80 09 c7 f8 	lwz     r0,-14344(r9)
 1807250:	2f 80 00 04 	cmpwi   cr7,r0,4
 1807254:	40 9d 01 6c 	ble-    cr7,18073c0 <main+0x71a0>
 1807258:	3c 00 01 82 	lis     r0,386
 180725c:	7c 0b 03 78 	mr      r11,r0
 1807260:	80 0b c7 fc 	lwz     r0,-14340(r11)
 1807264:	30 00 00 03 	addic   r0,r0,3
 1807268:	2f 80 00 06 	cmpwi   cr7,r0,6
 180726c:	41 9d 01 54 	bgt-    cr7,18073c0 <main+0x71a0>
 1807270:	3c 00 01 82 	lis     r0,386
 1807274:	30 00 c8 44 	addic   r0,r0,-14268
 1807278:	7c 0b 03 78 	mr      r11,r0
 180727c:	81 2b 00 04 	lwz     r9,4(r11)
 1807280:	3c 00 01 82 	lis     r0,386
 1807284:	30 00 c8 44 	addic   r0,r0,-14268
 1807288:	7c 0b 03 78 	mr      r11,r0
 180728c:	80 0b 00 10 	lwz     r0,16(r11)
 1807290:	7f 89 00 00 	cmpw    cr7,r9,r0
 1807294:	40 9e 01 2c 	bne-    cr7,18073c0 <main+0x71a0>
 1807298:	3c 00 01 82 	lis     r0,386
 180729c:	30 00 c8 44 	addic   r0,r0,-14268
 18072a0:	7c 0b 03 78 	mr      r11,r0
 18072a4:	81 2b 00 04 	lwz     r9,4(r11)
 18072a8:	3c 00 01 82 	lis     r0,386
 18072ac:	30 00 c8 44 	addic   r0,r0,-14268
 18072b0:	7c 0b 03 78 	mr      r11,r0
 18072b4:	80 0b 00 0c 	lwz     r0,12(r11)
 18072b8:	7f 89 00 00 	cmpw    cr7,r9,r0
 18072bc:	40 9e 01 04 	bne-    cr7,18073c0 <main+0x71a0>
 18072c0:	3c 00 01 82 	lis     r0,386
 18072c4:	30 00 c8 44 	addic   r0,r0,-14268
 18072c8:	7c 09 03 78 	mr      r9,r0
 18072cc:	80 09 00 08 	lwz     r0,8(r9)
 18072d0:	90 1f 02 80 	stw     r0,640(r31)
 18072d4:	3c 00 01 82 	lis     r0,386
 18072d8:	30 00 c8 44 	addic   r0,r0,-14268
 18072dc:	7c 0b 03 78 	mr      r11,r0
 18072e0:	80 0b 00 04 	lwz     r0,4(r11)
 18072e4:	90 1f 02 7c 	stw     r0,636(r31)
 18072e8:	81 3f 02 7c 	lwz     r9,636(r31)
 18072ec:	80 1f 02 80 	lwz     r0,640(r31)
 18072f0:	7f 89 00 00 	cmpw    cr7,r9,r0
 18072f4:	40 9d 00 cc 	ble-    cr7,18073c0 <main+0x71a0>
 18072f8:	3c 00 01 82 	lis     r0,386
 18072fc:	7c 09 03 78 	mr      r9,r0
 1807300:	80 09 c7 f8 	lwz     r0,-14344(r9)
 1807304:	31 20 ff fc 	addic   r9,r0,-4
 1807308:	3c 00 01 82 	lis     r0,386
 180730c:	7c 0b 03 78 	mr      r11,r0
 1807310:	91 2b c7 f8 	stw     r9,-14344(r11)
 1807314:	81 3f 02 80 	lwz     r9,640(r31)
 1807318:	80 1f 02 7c 	lwz     r0,636(r31)
 180731c:	7c 09 02 14 	add     r0,r9,r0
 1807320:	90 1f 02 78 	stw     r0,632(r31)
 1807324:	3c 00 01 82 	lis     r0,386
 1807328:	7c 09 03 78 	mr      r9,r0
 180732c:	80 09 c7 fc 	lwz     r0,-14340(r9)
 1807330:	3d 20 01 82 	lis     r9,386
 1807334:	39 29 c8 20 	addi    r9,r9,-14304
 1807338:	54 00 10 3a 	rlwinm  r0,r0,2,0,29
 180733c:	7c 09 02 14 	add     r0,r9,r0
 1807340:	81 3f 02 80 	lwz     r9,640(r31)
 1807344:	7c 0b 03 78 	mr      r11,r0
 1807348:	91 2b 00 00 	stw     r9,0(r11)
 180734c:	3c 00 01 82 	lis     r0,386
 1807350:	7c 09 03 78 	mr      r9,r0
 1807354:	80 09 c7 fc 	lwz     r0,-14340(r9)
 1807358:	30 00 00 01 	addic   r0,r0,1
 180735c:	3d 20 01 82 	lis     r9,386
 1807360:	39 29 c8 20 	addi    r9,r9,-14304
 1807364:	54 00 10 3a 	rlwinm  r0,r0,2,0,29
 1807368:	7c 09 02 14 	add     r0,r9,r0
 180736c:	81 3f 02 7c 	lwz     r9,636(r31)
 1807370:	7c 0b 03 78 	mr      r11,r0
 1807374:	91 2b 00 00 	stw     r9,0(r11)
 1807378:	3c 00 01 82 	lis     r0,386
 180737c:	7c 09 03 78 	mr      r9,r0
 1807380:	80 09 c7 fc 	lwz     r0,-14340(r9)
 1807384:	30 00 00 02 	addic   r0,r0,2
 1807388:	3d 20 01 82 	lis     r9,386
 180738c:	39 29 c8 20 	addi    r9,r9,-14304
 1807390:	54 00 10 3a 	rlwinm  r0,r0,2,0,29
 1807394:	7c 09 02 14 	add     r0,r9,r0
 1807398:	81 3f 02 78 	lwz     r9,632(r31)
 180739c:	7c 0b 03 78 	mr      r11,r0
 18073a0:	91 2b 00 00 	stw     r9,0(r11)
 18073a4:	3c 00 01 82 	lis     r0,386
 18073a8:	7c 09 03 78 	mr      r9,r0
 18073ac:	80 09 c7 fc 	lwz     r0,-14340(r9)
 18073b0:	31 20 00 03 	addic   r9,r0,3
 18073b4:	3c 00 01 82 	lis     r0,386
 18073b8:	7c 0b 03 78 	mr      r11,r0
 18073bc:	91 2b c7 fc 	stw     r9,-14340(r11)
 18073c0:	3c 00 01 82 	lis     r0,386
 18073c4:	7c 09 03 78 	mr      r9,r0
 18073c8:	80 09 c7 f8 	lwz     r0,-14344(r9)
 18073cc:	2f 80 00 04 	cmpwi   cr7,r0,4
 18073d0:	40 9d 01 8c 	ble-    cr7,180755c <main+0x733c>
 18073d4:	3c 00 01 82 	lis     r0,386
 18073d8:	7c 0b 03 78 	mr      r11,r0
 18073dc:	80 0b c7 fc 	lwz     r0,-14340(r11)
 18073e0:	30 00 00 03 	addic   r0,r0,3
 18073e4:	2f 80 00 06 	cmpwi   cr7,r0,6
 18073e8:	41 9d 01 74 	bgt-    cr7,180755c <main+0x733c>
 18073ec:	3c 00 01 82 	lis     r0,386
 18073f0:	30 00 c8 44 	addic   r0,r0,-14268
 18073f4:	7c 0b 03 78 	mr      r11,r0
 18073f8:	81 2b 00 0c 	lwz     r9,12(r11)
 18073fc:	3c 00 01 82 	lis     r0,386
 1807400:	30 00 c8 44 	addic   r0,r0,-14268
 1807404:	7c 0b 03 78 	mr      r11,r0
 1807408:	80 0b 00 00 	lwz     r0,0(r11)
 180740c:	7f 89 00 00 	cmpw    cr7,r9,r0
 1807410:	40 9e 01 4c 	bne-    cr7,180755c <main+0x733c>
 1807414:	3c 00 01 82 	lis     r0,386
 1807418:	30 00 c8 44 	addic   r0,r0,-14268
 180741c:	7c 0b 03 78 	mr      r11,r0
 1807420:	81 2b 00 0c 	lwz     r9,12(r11)
 1807424:	3c 00 01 82 	lis     r0,386
 1807428:	30 00 c8 44 	addic   r0,r0,-14268
 180742c:	7c 0b 03 78 	mr      r11,r0
 1807430:	80 0b 00 10 	lwz     r0,16(r11)
 1807434:	7f 89 00 00 	cmpw    cr7,r9,r0
 1807438:	40 9e 01 24 	bne-    cr7,180755c <main+0x733c>
 180743c:	3c 00 01 82 	lis     r0,386
 1807440:	30 00 c8 44 	addic   r0,r0,-14268
 1807444:	7c 09 03 78 	mr      r9,r0
 1807448:	80 09 00 08 	lwz     r0,8(r9)
 180744c:	90 1f 02 74 	stw     r0,628(r31)
 1807450:	3c 00 01 82 	lis     r0,386
 1807454:	30 00 c8 44 	addic   r0,r0,-14268
 1807458:	7c 0b 03 78 	mr      r11,r0
 180745c:	80 0b 00 0c 	lwz     r0,12(r11)
 1807460:	90 1f 02 70 	stw     r0,624(r31)
 1807464:	81 3f 02 70 	lwz     r9,624(r31)
 1807468:	80 1f 02 74 	lwz     r0,628(r31)
 180746c:	7f 89 00 00 	cmpw    cr7,r9,r0
 1807470:	40 9d 00 ec 	ble-    cr7,180755c <main+0x733c>
 1807474:	3c 00 01 82 	lis     r0,386
 1807478:	30 00 c8 44 	addic   r0,r0,-14268
 180747c:	7c 0b 03 78 	mr      r11,r0
 1807480:	81 2b 00 04 	lwz     r9,4(r11)
 1807484:	3c 00 01 82 	lis     r0,386
 1807488:	30 00 c8 44 	addic   r0,r0,-14268
 180748c:	7c 0b 03 78 	mr      r11,r0
 1807490:	91 2b 00 00 	stw     r9,0(r11)
 1807494:	3c 00 01 82 	lis     r0,386
 1807498:	7c 09 03 78 	mr      r9,r0
 180749c:	80 09 c7 f8 	lwz     r0,-14344(r9)
 18074a0:	31 20 ff fc 	addic   r9,r0,-4
 18074a4:	3c 00 01 82 	lis     r0,386
 18074a8:	7c 0b 03 78 	mr      r11,r0
 18074ac:	91 2b c7 f8 	stw     r9,-14344(r11)
 18074b0:	81 3f 02 74 	lwz     r9,628(r31)
 18074b4:	80 1f 02 70 	lwz     r0,624(r31)
 18074b8:	7c 09 02 14 	add     r0,r9,r0
 18074bc:	90 1f 02 6c 	stw     r0,620(r31)
 18074c0:	3c 00 01 82 	lis     r0,386
 18074c4:	7c 09 03 78 	mr      r9,r0
 18074c8:	80 09 c7 fc 	lwz     r0,-14340(r9)
 18074cc:	3d 20 01 82 	lis     r9,386
 18074d0:	39 29 c8 20 	addi    r9,r9,-14304
 18074d4:	54 00 10 3a 	rlwinm  r0,r0,2,0,29
 18074d8:	7c 09 02 14 	add     r0,r9,r0
 18074dc:	81 3f 02 74 	lwz     r9,628(r31)
 18074e0:	7c 0b 03 78 	mr      r11,r0
 18074e4:	91 2b 00 00 	stw     r9,0(r11)
 18074e8:	3c 00 01 82 	lis     r0,386
 18074ec:	7c 09 03 78 	mr      r9,r0
 18074f0:	80 09 c7 fc 	lwz     r0,-14340(r9)
 18074f4:	30 00 00 01 	addic   r0,r0,1
 18074f8:	3d 20 01 82 	lis     r9,386
 18074fc:	39 29 c8 20 	addi    r9,r9,-14304
 1807500:	54 00 10 3a 	rlwinm  r0,r0,2,0,29
 1807504:	7c 09 02 14 	add     r0,r9,r0
 1807508:	81 3f 02 70 	lwz     r9,624(r31)
 180750c:	7c 0b 03 78 	mr      r11,r0
 1807510:	91 2b 00 00 	stw     r9,0(r11)
 1807514:	3c 00 01 82 	lis     r0,386
 1807518:	7c 09 03 78 	mr      r9,r0
 180751c:	80 09 c7 fc 	lwz     r0,-14340(r9)
 1807520:	30 00 00 02 	addic   r0,r0,2
 1807524:	3d 20 01 82 	lis     r9,386
 1807528:	39 29 c8 20 	addi    r9,r9,-14304
 180752c:	54 00 10 3a 	rlwinm  r0,r0,2,0,29
 1807530:	7c 09 02 14 	add     r0,r9,r0
 1807534:	81 3f 02 6c 	lwz     r9,620(r31)
 1807538:	7c 0b 03 78 	mr      r11,r0
 180753c:	91 2b 00 00 	stw     r9,0(r11)
 1807540:	3c 00 01 82 	lis     r0,386
 1807544:	7c 09 03 78 	mr      r9,r0
 1807548:	80 09 c7 fc 	lwz     r0,-14340(r9)
 180754c:	31 20 00 03 	addic   r9,r0,3
 1807550:	3c 00 01 82 	lis     r0,386
 1807554:	7c 0b 03 78 	mr      r11,r0
 1807558:	91 2b c7 fc 	stw     r9,-14340(r11)
 180755c:	3c 00 01 82 	lis     r0,386
 1807560:	7c 09 03 78 	mr      r9,r0
 1807564:	80 09 c7 f8 	lwz     r0,-14344(r9)
 1807568:	2f 80 00 04 	cmpwi   cr7,r0,4
 180756c:	40 9d 01 6c 	ble-    cr7,18076d8 <main+0x74b8>
 1807570:	3c 00 01 82 	lis     r0,386
 1807574:	7c 0b 03 78 	mr      r11,r0
 1807578:	80 0b c7 fc 	lwz     r0,-14340(r11)
 180757c:	30 00 00 03 	addic   r0,r0,3
 1807580:	2f 80 00 06 	cmpwi   cr7,r0,6
 1807584:	41 9d 01 54 	bgt-    cr7,18076d8 <main+0x74b8>
 1807588:	3c 00 01 82 	lis     r0,386
 180758c:	30 00 c8 44 	addic   r0,r0,-14268
 1807590:	7c 0b 03 78 	mr      r11,r0
 1807594:	81 2b 00 0c 	lwz     r9,12(r11)
 1807598:	3c 00 01 82 	lis     r0,386
 180759c:	30 00 c8 44 	addic   r0,r0,-14268
 18075a0:	7c 0b 03 78 	mr      r11,r0
 18075a4:	80 0b 00 04 	lwz     r0,4(r11)
 18075a8:	7f 89 00 00 	cmpw    cr7,r9,r0
 18075ac:	40 9e 01 2c 	bne-    cr7,18076d8 <main+0x74b8>
 18075b0:	3c 00 01 82 	lis     r0,386
 18075b4:	30 00 c8 44 	addic   r0,r0,-14268
 18075b8:	7c 0b 03 78 	mr      r11,r0
 18075bc:	81 2b 00 0c 	lwz     r9,12(r11)
 18075c0:	3c 00 01 82 	lis     r0,386
 18075c4:	30 00 c8 44 	addic   r0,r0,-14268
 18075c8:	7c 0b 03 78 	mr      r11,r0
 18075cc:	80 0b 00 10 	lwz     r0,16(r11)
 18075d0:	7f 89 00 00 	cmpw    cr7,r9,r0
 18075d4:	40 9e 01 04 	bne-    cr7,18076d8 <main+0x74b8>
 18075d8:	3c 00 01 82 	lis     r0,386
 18075dc:	30 00 c8 44 	addic   r0,r0,-14268
 18075e0:	7c 09 03 78 	mr      r9,r0
 18075e4:	80 09 00 08 	lwz     r0,8(r9)
 18075e8:	90 1f 02 68 	stw     r0,616(r31)
 18075ec:	3c 00 01 82 	lis     r0,386
 18075f0:	30 00 c8 44 	addic   r0,r0,-14268
 18075f4:	7c 0b 03 78 	mr      r11,r0
 18075f8:	80 0b 00 0c 	lwz     r0,12(r11)
 18075fc:	90 1f 02 64 	stw     r0,612(r31)
 1807600:	81 3f 02 64 	lwz     r9,612(r31)
 1807604:	80 1f 02 68 	lwz     r0,616(r31)
 1807608:	7f 89 00 00 	cmpw    cr7,r9,r0
 180760c:	40 9d 00 cc 	ble-    cr7,18076d8 <main+0x74b8>
 1807610:	3c 00 01 82 	lis     r0,386
 1807614:	7c 09 03 78 	mr      r9,r0
 1807618:	80 09 c7 f8 	lwz     r0,-14344(r9)
 180761c:	31 20 ff fc 	addic   r9,r0,-4
 1807620:	3c 00 01 82 	lis     r0,386
 1807624:	7c 0b 03 78 	mr      r11,r0
 1807628:	91 2b c7 f8 	stw     r9,-14344(r11)
 180762c:	81 3f 02 68 	lwz     r9,616(r31)
 1807630:	80 1f 02 64 	lwz     r0,612(r31)
 1807634:	7c 09 02 14 	add     r0,r9,r0
 1807638:	90 1f 02 60 	stw     r0,608(r31)
 180763c:	3c 00 01 82 	lis     r0,386
 1807640:	7c 09 03 78 	mr      r9,r0
 1807644:	80 09 c7 fc 	lwz     r0,-14340(r9)
 1807648:	3d 20 01 82 	lis     r9,386
 180764c:	39 29 c8 20 	addi    r9,r9,-14304
 1807650:	54 00 10 3a 	rlwinm  r0,r0,2,0,29
 1807654:	7c 09 02 14 	add     r0,r9,r0
 1807658:	81 3f 02 68 	lwz     r9,616(r31)
 180765c:	7c 0b 03 78 	mr      r11,r0
 1807660:	91 2b 00 00 	stw     r9,0(r11)
 1807664:	3c 00 01 82 	lis     r0,386
 1807668:	7c 09 03 78 	mr      r9,r0
 180766c:	80 09 c7 fc 	lwz     r0,-14340(r9)
 1807670:	30 00 00 01 	addic   r0,r0,1
 1807674:	3d 20 01 82 	lis     r9,386
 1807678:	39 29 c8 20 	addi    r9,r9,-14304
 180767c:	54 00 10 3a 	rlwinm  r0,r0,2,0,29
 1807680:	7c 09 02 14 	add     r0,r9,r0
 1807684:	81 3f 02 64 	lwz     r9,612(r31)
 1807688:	7c 0b 03 78 	mr      r11,r0
 180768c:	91 2b 00 00 	stw     r9,0(r11)
 1807690:	3c 00 01 82 	lis     r0,386
 1807694:	7c 09 03 78 	mr      r9,r0
 1807698:	80 09 c7 fc 	lwz     r0,-14340(r9)
 180769c:	30 00 00 02 	addic   r0,r0,2
 18076a0:	3d 20 01 82 	lis     r9,386
 18076a4:	39 29 c8 20 	addi    r9,r9,-14304
 18076a8:	54 00 10 3a 	rlwinm  r0,r0,2,0,29
 18076ac:	7c 09 02 14 	add     r0,r9,r0
 18076b0:	81 3f 02 60 	lwz     r9,608(r31)
 18076b4:	7c 0b 03 78 	mr      r11,r0
 18076b8:	91 2b 00 00 	stw     r9,0(r11)
 18076bc:	3c 00 01 82 	lis     r0,386
 18076c0:	7c 09 03 78 	mr      r9,r0
 18076c4:	80 09 c7 fc 	lwz     r0,-14340(r9)
 18076c8:	31 20 00 03 	addic   r9,r0,3
 18076cc:	3c 00 01 82 	lis     r0,386
 18076d0:	7c 0b 03 78 	mr      r11,r0
 18076d4:	91 2b c7 fc 	stw     r9,-14340(r11)
 18076d8:	3c 00 01 82 	lis     r0,386
 18076dc:	7c 09 03 78 	mr      r9,r0
 18076e0:	80 09 c7 f8 	lwz     r0,-14344(r9)
 18076e4:	2f 80 00 04 	cmpwi   cr7,r0,4
 18076e8:	40 9d 01 8c 	ble-    cr7,1807874 <main+0x7654>
 18076ec:	3c 00 01 82 	lis     r0,386
 18076f0:	7c 0b 03 78 	mr      r11,r0
 18076f4:	80 0b c7 fc 	lwz     r0,-14340(r11)
 18076f8:	30 00 00 03 	addic   r0,r0,3
 18076fc:	2f 80 00 06 	cmpwi   cr7,r0,6
 1807700:	41 9d 01 74 	bgt-    cr7,1807874 <main+0x7654>
 1807704:	3c 00 01 82 	lis     r0,386
 1807708:	30 00 c8 44 	addic   r0,r0,-14268
 180770c:	7c 0b 03 78 	mr      r11,r0
 1807710:	81 2b 00 0c 	lwz     r9,12(r11)
 1807714:	3c 00 01 82 	lis     r0,386
 1807718:	30 00 c8 44 	addic   r0,r0,-14268
 180771c:	7c 0b 03 78 	mr      r11,r0
 1807720:	80 0b 00 10 	lwz     r0,16(r11)
 1807724:	7f 89 00 00 	cmpw    cr7,r9,r0
 1807728:	40 9e 01 4c 	bne-    cr7,1807874 <main+0x7654>
 180772c:	3c 00 01 82 	lis     r0,386
 1807730:	30 00 c8 44 	addic   r0,r0,-14268
 1807734:	7c 0b 03 78 	mr      r11,r0
 1807738:	81 2b 00 0c 	lwz     r9,12(r11)
 180773c:	3c 00 01 82 	lis     r0,386
 1807740:	30 00 c8 44 	addic   r0,r0,-14268
 1807744:	7c 0b 03 78 	mr      r11,r0
 1807748:	80 0b 00 00 	lwz     r0,0(r11)
 180774c:	7f 89 00 00 	cmpw    cr7,r9,r0
 1807750:	40 9e 01 24 	bne-    cr7,1807874 <main+0x7654>
 1807754:	3c 00 01 82 	lis     r0,386
 1807758:	30 00 c8 44 	addic   r0,r0,-14268
 180775c:	7c 09 03 78 	mr      r9,r0
 1807760:	80 09 00 08 	lwz     r0,8(r9)
 1807764:	90 1f 02 5c 	stw     r0,604(r31)
 1807768:	3c 00 01 82 	lis     r0,386
 180776c:	30 00 c8 44 	addic   r0,r0,-14268
 1807770:	7c 0b 03 78 	mr      r11,r0
 1807774:	80 0b 00 0c 	lwz     r0,12(r11)
 1807778:	90 1f 02 58 	stw     r0,600(r31)
 180777c:	81 3f 02 58 	lwz     r9,600(r31)
 1807780:	80 1f 02 5c 	lwz     r0,604(r31)
 1807784:	7f 89 00 00 	cmpw    cr7,r9,r0
 1807788:	40 9d 00 ec 	ble-    cr7,1807874 <main+0x7654>
 180778c:	3c 00 01 82 	lis     r0,386
 1807790:	30 00 c8 44 	addic   r0,r0,-14268
 1807794:	7c 0b 03 78 	mr      r11,r0
 1807798:	81 2b 00 04 	lwz     r9,4(r11)
 180779c:	3c 00 01 82 	lis     r0,386
 18077a0:	30 00 c8 44 	addic   r0,r0,-14268
 18077a4:	7c 0b 03 78 	mr      r11,r0
 18077a8:	91 2b 00 00 	stw     r9,0(r11)
 18077ac:	3c 00 01 82 	lis     r0,386
 18077b0:	7c 09 03 78 	mr      r9,r0
 18077b4:	80 09 c7 f8 	lwz     r0,-14344(r9)
 18077b8:	31 20 ff fc 	addic   r9,r0,-4
 18077bc:	3c 00 01 82 	lis     r0,386
 18077c0:	7c 0b 03 78 	mr      r11,r0
 18077c4:	91 2b c7 f8 	stw     r9,-14344(r11)
 18077c8:	81 3f 02 5c 	lwz     r9,604(r31)
 18077cc:	80 1f 02 58 	lwz     r0,600(r31)
 18077d0:	7c 09 02 14 	add     r0,r9,r0
 18077d4:	90 1f 02 54 	stw     r0,596(r31)
 18077d8:	3c 00 01 82 	lis     r0,386
 18077dc:	7c 09 03 78 	mr      r9,r0
 18077e0:	80 09 c7 fc 	lwz     r0,-14340(r9)
 18077e4:	3d 20 01 82 	lis     r9,386
 18077e8:	39 29 c8 20 	addi    r9,r9,-14304
 18077ec:	54 00 10 3a 	rlwinm  r0,r0,2,0,29
 18077f0:	7c 09 02 14 	add     r0,r9,r0
 18077f4:	81 3f 02 5c 	lwz     r9,604(r31)
 18077f8:	7c 0b 03 78 	mr      r11,r0
 18077fc:	91 2b 00 00 	stw     r9,0(r11)
 1807800:	3c 00 01 82 	lis     r0,386
 1807804:	7c 09 03 78 	mr      r9,r0
 1807808:	80 09 c7 fc 	lwz     r0,-14340(r9)
 180780c:	30 00 00 01 	addic   r0,r0,1
 1807810:	3d 20 01 82 	lis     r9,386
 1807814:	39 29 c8 20 	addi    r9,r9,-14304
 1807818:	54 00 10 3a 	rlwinm  r0,r0,2,0,29
 180781c:	7c 09 02 14 	add     r0,r9,r0
 1807820:	81 3f 02 58 	lwz     r9,600(r31)
 1807824:	7c 0b 03 78 	mr      r11,r0
 1807828:	91 2b 00 00 	stw     r9,0(r11)
 180782c:	3c 00 01 82 	lis     r0,386
 1807830:	7c 09 03 78 	mr      r9,r0
 1807834:	80 09 c7 fc 	lwz     r0,-14340(r9)
 1807838:	30 00 00 02 	addic   r0,r0,2
 180783c:	3d 20 01 82 	lis     r9,386
 1807840:	39 29 c8 20 	addi    r9,r9,-14304
 1807844:	54 00 10 3a 	rlwinm  r0,r0,2,0,29
 1807848:	7c 09 02 14 	add     r0,r9,r0
 180784c:	81 3f 02 54 	lwz     r9,596(r31)
 1807850:	7c 0b 03 78 	mr      r11,r0
 1807854:	91 2b 00 00 	stw     r9,0(r11)
 1807858:	3c 00 01 82 	lis     r0,386
 180785c:	7c 09 03 78 	mr      r9,r0
 1807860:	80 09 c7 fc 	lwz     r0,-14340(r9)
 1807864:	31 20 00 03 	addic   r9,r0,3
 1807868:	3c 00 01 82 	lis     r0,386
 180786c:	7c 0b 03 78 	mr      r11,r0
 1807870:	91 2b c7 fc 	stw     r9,-14340(r11)
 1807874:	3c 00 01 82 	lis     r0,386
 1807878:	7c 09 03 78 	mr      r9,r0
 180787c:	80 09 c7 f8 	lwz     r0,-14344(r9)
 1807880:	2f 80 00 04 	cmpwi   cr7,r0,4
 1807884:	40 9d 01 6c 	ble-    cr7,18079f0 <main+0x77d0>
 1807888:	3c 00 01 82 	lis     r0,386
 180788c:	7c 0b 03 78 	mr      r11,r0
 1807890:	80 0b c7 fc 	lwz     r0,-14340(r11)
 1807894:	30 00 00 03 	addic   r0,r0,3
 1807898:	2f 80 00 06 	cmpwi   cr7,r0,6
 180789c:	41 9d 01 54 	bgt-    cr7,18079f0 <main+0x77d0>
 18078a0:	3c 00 01 82 	lis     r0,386
 18078a4:	30 00 c8 44 	addic   r0,r0,-14268
 18078a8:	7c 0b 03 78 	mr      r11,r0
 18078ac:	81 2b 00 0c 	lwz     r9,12(r11)
 18078b0:	3c 00 01 82 	lis     r0,386
 18078b4:	30 00 c8 44 	addic   r0,r0,-14268
 18078b8:	7c 0b 03 78 	mr      r11,r0
 18078bc:	80 0b 00 10 	lwz     r0,16(r11)
 18078c0:	7f 89 00 00 	cmpw    cr7,r9,r0
 18078c4:	40 9e 01 2c 	bne-    cr7,18079f0 <main+0x77d0>
 18078c8:	3c 00 01 82 	lis     r0,386
 18078cc:	30 00 c8 44 	addic   r0,r0,-14268
 18078d0:	7c 0b 03 78 	mr      r11,r0
 18078d4:	81 2b 00 0c 	lwz     r9,12(r11)
 18078d8:	3c 00 01 82 	lis     r0,386
 18078dc:	30 00 c8 44 	addic   r0,r0,-14268
 18078e0:	7c 0b 03 78 	mr      r11,r0
 18078e4:	80 0b 00 04 	lwz     r0,4(r11)
 18078e8:	7f 89 00 00 	cmpw    cr7,r9,r0
 18078ec:	40 9e 01 04 	bne-    cr7,18079f0 <main+0x77d0>
 18078f0:	3c 00 01 82 	lis     r0,386
 18078f4:	30 00 c8 44 	addic   r0,r0,-14268
 18078f8:	7c 09 03 78 	mr      r9,r0
 18078fc:	80 09 00 08 	lwz     r0,8(r9)
 1807900:	90 1f 02 50 	stw     r0,592(r31)
 1807904:	3c 00 01 82 	lis     r0,386
 1807908:	30 00 c8 44 	addic   r0,r0,-14268
 180790c:	7c 0b 03 78 	mr      r11,r0
 1807910:	80 0b 00 0c 	lwz     r0,12(r11)
 1807914:	90 1f 02 4c 	stw     r0,588(r31)
 1807918:	81 3f 02 4c 	lwz     r9,588(r31)
 180791c:	80 1f 02 50 	lwz     r0,592(r31)
 1807920:	7f 89 00 00 	cmpw    cr7,r9,r0
 1807924:	40 9d 00 cc 	ble-    cr7,18079f0 <main+0x77d0>
 1807928:	3c 00 01 82 	lis     r0,386
 180792c:	7c 09 03 78 	mr      r9,r0
 1807930:	80 09 c7 f8 	lwz     r0,-14344(r9)
 1807934:	31 20 ff fc 	addic   r9,r0,-4
 1807938:	3c 00 01 82 	lis     r0,386
 180793c:	7c 0b 03 78 	mr      r11,r0
 1807940:	91 2b c7 f8 	stw     r9,-14344(r11)
 1807944:	81 3f 02 50 	lwz     r9,592(r31)
 1807948:	80 1f 02 4c 	lwz     r0,588(r31)
 180794c:	7c 09 02 14 	add     r0,r9,r0
 1807950:	90 1f 02 48 	stw     r0,584(r31)
 1807954:	3c 00 01 82 	lis     r0,386
 1807958:	7c 09 03 78 	mr      r9,r0
 180795c:	80 09 c7 fc 	lwz     r0,-14340(r9)
 1807960:	3d 20 01 82 	lis     r9,386
 1807964:	39 29 c8 20 	addi    r9,r9,-14304
 1807968:	54 00 10 3a 	rlwinm  r0,r0,2,0,29
 180796c:	7c 09 02 14 	add     r0,r9,r0
 1807970:	81 3f 02 50 	lwz     r9,592(r31)
 1807974:	7c 0b 03 78 	mr      r11,r0
 1807978:	91 2b 00 00 	stw     r9,0(r11)
 180797c:	3c 00 01 82 	lis     r0,386
 1807980:	7c 09 03 78 	mr      r9,r0
 1807984:	80 09 c7 fc 	lwz     r0,-14340(r9)
 1807988:	30 00 00 01 	addic   r0,r0,1
 180798c:	3d 20 01 82 	lis     r9,386
 1807990:	39 29 c8 20 	addi    r9,r9,-14304
 1807994:	54 00 10 3a 	rlwinm  r0,r0,2,0,29
 1807998:	7c 09 02 14 	add     r0,r9,r0
 180799c:	81 3f 02 4c 	lwz     r9,588(r31)
 18079a0:	7c 0b 03 78 	mr      r11,r0
 18079a4:	91 2b 00 00 	stw     r9,0(r11)
 18079a8:	3c 00 01 82 	lis     r0,386
 18079ac:	7c 09 03 78 	mr      r9,r0
 18079b0:	80 09 c7 fc 	lwz     r0,-14340(r9)
 18079b4:	30 00 00 02 	addic   r0,r0,2
 18079b8:	3d 20 01 82 	lis     r9,386
 18079bc:	39 29 c8 20 	addi    r9,r9,-14304
 18079c0:	54 00 10 3a 	rlwinm  r0,r0,2,0,29
 18079c4:	7c 09 02 14 	add     r0,r9,r0
 18079c8:	81 3f 02 48 	lwz     r9,584(r31)
 18079cc:	7c 0b 03 78 	mr      r11,r0
 18079d0:	91 2b 00 00 	stw     r9,0(r11)
 18079d4:	3c 00 01 82 	lis     r0,386
 18079d8:	7c 09 03 78 	mr      r9,r0
 18079dc:	80 09 c7 fc 	lwz     r0,-14340(r9)
 18079e0:	31 20 00 03 	addic   r9,r0,3
 18079e4:	3c 00 01 82 	lis     r0,386
 18079e8:	7c 0b 03 78 	mr      r11,r0
 18079ec:	91 2b c7 fc 	stw     r9,-14340(r11)
 18079f0:	3c 00 01 82 	lis     r0,386
 18079f4:	7c 09 03 78 	mr      r9,r0
 18079f8:	80 09 c7 f8 	lwz     r0,-14344(r9)
 18079fc:	2f 80 00 04 	cmpwi   cr7,r0,4
 1807a00:	40 9d 01 8c 	ble-    cr7,1807b8c <main+0x796c>
 1807a04:	3c 00 01 82 	lis     r0,386
 1807a08:	7c 0b 03 78 	mr      r11,r0
 1807a0c:	80 0b c7 fc 	lwz     r0,-14340(r11)
 1807a10:	30 00 00 03 	addic   r0,r0,3
 1807a14:	2f 80 00 06 	cmpwi   cr7,r0,6
 1807a18:	41 9d 01 74 	bgt-    cr7,1807b8c <main+0x796c>
 1807a1c:	3c 00 01 82 	lis     r0,386
 1807a20:	30 00 c8 44 	addic   r0,r0,-14268
 1807a24:	7c 0b 03 78 	mr      r11,r0
 1807a28:	81 2b 00 10 	lwz     r9,16(r11)
 1807a2c:	3c 00 01 82 	lis     r0,386
 1807a30:	30 00 c8 44 	addic   r0,r0,-14268
 1807a34:	7c 0b 03 78 	mr      r11,r0
 1807a38:	80 0b 00 00 	lwz     r0,0(r11)
 1807a3c:	7f 89 00 00 	cmpw    cr7,r9,r0
 1807a40:	40 9e 01 4c 	bne-    cr7,1807b8c <main+0x796c>
 1807a44:	3c 00 01 82 	lis     r0,386
 1807a48:	30 00 c8 44 	addic   r0,r0,-14268
 1807a4c:	7c 0b 03 78 	mr      r11,r0
 1807a50:	81 2b 00 10 	lwz     r9,16(r11)
 1807a54:	3c 00 01 82 	lis     r0,386
 1807a58:	30 00 c8 44 	addic   r0,r0,-14268
 1807a5c:	7c 0b 03 78 	mr      r11,r0
 1807a60:	80 0b 00 04 	lwz     r0,4(r11)
 1807a64:	7f 89 00 00 	cmpw    cr7,r9,r0
 1807a68:	40 9e 01 24 	bne-    cr7,1807b8c <main+0x796c>
 1807a6c:	3c 00 01 82 	lis     r0,386
 1807a70:	30 00 c8 44 	addic   r0,r0,-14268
 1807a74:	7c 09 03 78 	mr      r9,r0
 1807a78:	80 09 00 08 	lwz     r0,8(r9)
 1807a7c:	90 1f 02 44 	stw     r0,580(r31)
 1807a80:	3c 00 01 82 	lis     r0,386
 1807a84:	30 00 c8 44 	addic   r0,r0,-14268
 1807a88:	7c 0b 03 78 	mr      r11,r0
 1807a8c:	80 0b 00 10 	lwz     r0,16(r11)
 1807a90:	90 1f 02 40 	stw     r0,576(r31)
 1807a94:	81 3f 02 40 	lwz     r9,576(r31)
 1807a98:	80 1f 02 44 	lwz     r0,580(r31)
 1807a9c:	7f 89 00 00 	cmpw    cr7,r9,r0
 1807aa0:	40 9d 00 ec 	ble-    cr7,1807b8c <main+0x796c>
 1807aa4:	3c 00 01 82 	lis     r0,386
 1807aa8:	30 00 c8 44 	addic   r0,r0,-14268
 1807aac:	7c 0b 03 78 	mr      r11,r0
 1807ab0:	81 2b 00 0c 	lwz     r9,12(r11)
 1807ab4:	3c 00 01 82 	lis     r0,386
 1807ab8:	30 00 c8 44 	addic   r0,r0,-14268
 1807abc:	7c 0b 03 78 	mr      r11,r0
 1807ac0:	91 2b 00 00 	stw     r9,0(r11)
 1807ac4:	3c 00 01 82 	lis     r0,386
 1807ac8:	7c 09 03 78 	mr      r9,r0
 1807acc:	80 09 c7 f8 	lwz     r0,-14344(r9)
 1807ad0:	31 20 ff fc 	addic   r9,r0,-4
 1807ad4:	3c 00 01 82 	lis     r0,386
 1807ad8:	7c 0b 03 78 	mr      r11,r0
 1807adc:	91 2b c7 f8 	stw     r9,-14344(r11)
 1807ae0:	81 3f 02 44 	lwz     r9,580(r31)
 1807ae4:	80 1f 02 40 	lwz     r0,576(r31)
 1807ae8:	7c 09 02 14 	add     r0,r9,r0
 1807aec:	90 1f 02 3c 	stw     r0,572(r31)
 1807af0:	3c 00 01 82 	lis     r0,386
 1807af4:	7c 09 03 78 	mr      r9,r0
 1807af8:	80 09 c7 fc 	lwz     r0,-14340(r9)
 1807afc:	3d 20 01 82 	lis     r9,386
 1807b00:	39 29 c8 20 	addi    r9,r9,-14304
 1807b04:	54 00 10 3a 	rlwinm  r0,r0,2,0,29
 1807b08:	7c 09 02 14 	add     r0,r9,r0
 1807b0c:	81 3f 02 44 	lwz     r9,580(r31)
 1807b10:	7c 0b 03 78 	mr      r11,r0
 1807b14:	91 2b 00 00 	stw     r9,0(r11)
 1807b18:	3c 00 01 82 	lis     r0,386
 1807b1c:	7c 09 03 78 	mr      r9,r0
 1807b20:	80 09 c7 fc 	lwz     r0,-14340(r9)
 1807b24:	30 00 00 01 	addic   r0,r0,1
 1807b28:	3d 20 01 82 	lis     r9,386
 1807b2c:	39 29 c8 20 	addi    r9,r9,-14304
 1807b30:	54 00 10 3a 	rlwinm  r0,r0,2,0,29
 1807b34:	7c 09 02 14 	add     r0,r9,r0
 1807b38:	81 3f 02 40 	lwz     r9,576(r31)
 1807b3c:	7c 0b 03 78 	mr      r11,r0
 1807b40:	91 2b 00 00 	stw     r9,0(r11)
 1807b44:	3c 00 01 82 	lis     r0,386
 1807b48:	7c 09 03 78 	mr      r9,r0
 1807b4c:	80 09 c7 fc 	lwz     r0,-14340(r9)
 1807b50:	30 00 00 02 	addic   r0,r0,2
 1807b54:	3d 20 01 82 	lis     r9,386
 1807b58:	39 29 c8 20 	addi    r9,r9,-14304
 1807b5c:	54 00 10 3a 	rlwinm  r0,r0,2,0,29
 1807b60:	7c 09 02 14 	add     r0,r9,r0
 1807b64:	81 3f 02 3c 	lwz     r9,572(r31)
 1807b68:	7c 0b 03 78 	mr      r11,r0
 1807b6c:	91 2b 00 00 	stw     r9,0(r11)
 1807b70:	3c 00 01 82 	lis     r0,386
 1807b74:	7c 09 03 78 	mr      r9,r0
 1807b78:	80 09 c7 fc 	lwz     r0,-14340(r9)
 1807b7c:	31 20 00 03 	addic   r9,r0,3
 1807b80:	3c 00 01 82 	lis     r0,386
 1807b84:	7c 0b 03 78 	mr      r11,r0
 1807b88:	91 2b c7 fc 	stw     r9,-14340(r11)
 1807b8c:	3c 00 01 82 	lis     r0,386
 1807b90:	7c 09 03 78 	mr      r9,r0
 1807b94:	80 09 c7 f8 	lwz     r0,-14344(r9)
 1807b98:	2f 80 00 04 	cmpwi   cr7,r0,4
 1807b9c:	40 9d 01 8c 	ble-    cr7,1807d28 <main+0x7b08>
 1807ba0:	3c 00 01 82 	lis     r0,386
 1807ba4:	7c 0b 03 78 	mr      r11,r0
 1807ba8:	80 0b c7 fc 	lwz     r0,-14340(r11)
 1807bac:	30 00 00 03 	addic   r0,r0,3
 1807bb0:	2f 80 00 06 	cmpwi   cr7,r0,6
 1807bb4:	41 9d 01 74 	bgt-    cr7,1807d28 <main+0x7b08>
 1807bb8:	3c 00 01 82 	lis     r0,386
 1807bbc:	30 00 c8 44 	addic   r0,r0,-14268
 1807bc0:	7c 0b 03 78 	mr      r11,r0
 1807bc4:	81 2b 00 10 	lwz     r9,16(r11)
 1807bc8:	3c 00 01 82 	lis     r0,386
 1807bcc:	30 00 c8 44 	addic   r0,r0,-14268
 1807bd0:	7c 0b 03 78 	mr      r11,r0
 1807bd4:	80 0b 00 00 	lwz     r0,0(r11)
 1807bd8:	7f 89 00 00 	cmpw    cr7,r9,r0
 1807bdc:	40 9e 01 4c 	bne-    cr7,1807d28 <main+0x7b08>
 1807be0:	3c 00 01 82 	lis     r0,386
 1807be4:	30 00 c8 44 	addic   r0,r0,-14268
 1807be8:	7c 0b 03 78 	mr      r11,r0
 1807bec:	81 2b 00 10 	lwz     r9,16(r11)
 1807bf0:	3c 00 01 82 	lis     r0,386
 1807bf4:	30 00 c8 44 	addic   r0,r0,-14268
 1807bf8:	7c 0b 03 78 	mr      r11,r0
 1807bfc:	80 0b 00 0c 	lwz     r0,12(r11)
 1807c00:	7f 89 00 00 	cmpw    cr7,r9,r0
 1807c04:	40 9e 01 24 	bne-    cr7,1807d28 <main+0x7b08>
 1807c08:	3c 00 01 82 	lis     r0,386
 1807c0c:	30 00 c8 44 	addic   r0,r0,-14268
 1807c10:	7c 09 03 78 	mr      r9,r0
 1807c14:	80 09 00 08 	lwz     r0,8(r9)
 1807c18:	90 1f 02 38 	stw     r0,568(r31)
 1807c1c:	3c 00 01 82 	lis     r0,386
 1807c20:	30 00 c8 44 	addic   r0,r0,-14268
 1807c24:	7c 0b 03 78 	mr      r11,r0
 1807c28:	80 0b 00 10 	lwz     r0,16(r11)
 1807c2c:	90 1f 02 34 	stw     r0,564(r31)
 1807c30:	81 3f 02 34 	lwz     r9,564(r31)
 1807c34:	80 1f 02 38 	lwz     r0,568(r31)
 1807c38:	7f 89 00 00 	cmpw    cr7,r9,r0
 1807c3c:	40 9d 00 ec 	ble-    cr7,1807d28 <main+0x7b08>
 1807c40:	3c 00 01 82 	lis     r0,386
 1807c44:	30 00 c8 44 	addic   r0,r0,-14268
 1807c48:	7c 0b 03 78 	mr      r11,r0
 1807c4c:	81 2b 00 04 	lwz     r9,4(r11)
 1807c50:	3c 00 01 82 	lis     r0,386
 1807c54:	30 00 c8 44 	addic   r0,r0,-14268
 1807c58:	7c 0b 03 78 	mr      r11,r0
 1807c5c:	91 2b 00 00 	stw     r9,0(r11)
 1807c60:	3c 00 01 82 	lis     r0,386
 1807c64:	7c 09 03 78 	mr      r9,r0
 1807c68:	80 09 c7 f8 	lwz     r0,-14344(r9)
 1807c6c:	31 20 ff fc 	addic   r9,r0,-4
 1807c70:	3c 00 01 82 	lis     r0,386
 1807c74:	7c 0b 03 78 	mr      r11,r0
 1807c78:	91 2b c7 f8 	stw     r9,-14344(r11)
 1807c7c:	81 3f 02 38 	lwz     r9,568(r31)
 1807c80:	80 1f 02 34 	lwz     r0,564(r31)
 1807c84:	7c 09 02 14 	add     r0,r9,r0
 1807c88:	90 1f 02 30 	stw     r0,560(r31)
 1807c8c:	3c 00 01 82 	lis     r0,386
 1807c90:	7c 09 03 78 	mr      r9,r0
 1807c94:	80 09 c7 fc 	lwz     r0,-14340(r9)
 1807c98:	3d 20 01 82 	lis     r9,386
 1807c9c:	39 29 c8 20 	addi    r9,r9,-14304
 1807ca0:	54 00 10 3a 	rlwinm  r0,r0,2,0,29
 1807ca4:	7c 09 02 14 	add     r0,r9,r0
 1807ca8:	81 3f 02 38 	lwz     r9,568(r31)
 1807cac:	7c 0b 03 78 	mr      r11,r0
 1807cb0:	91 2b 00 00 	stw     r9,0(r11)
 1807cb4:	3c 00 01 82 	lis     r0,386
 1807cb8:	7c 09 03 78 	mr      r9,r0
 1807cbc:	80 09 c7 fc 	lwz     r0,-14340(r9)
 1807cc0:	30 00 00 01 	addic   r0,r0,1
 1807cc4:	3d 20 01 82 	lis     r9,386
 1807cc8:	39 29 c8 20 	addi    r9,r9,-14304
 1807ccc:	54 00 10 3a 	rlwinm  r0,r0,2,0,29
 1807cd0:	7c 09 02 14 	add     r0,r9,r0
 1807cd4:	81 3f 02 34 	lwz     r9,564(r31)
 1807cd8:	7c 0b 03 78 	mr      r11,r0
 1807cdc:	91 2b 00 00 	stw     r9,0(r11)
 1807ce0:	3c 00 01 82 	lis     r0,386
 1807ce4:	7c 09 03 78 	mr      r9,r0
 1807ce8:	80 09 c7 fc 	lwz     r0,-14340(r9)
 1807cec:	30 00 00 02 	addic   r0,r0,2
 1807cf0:	3d 20 01 82 	lis     r9,386
 1807cf4:	39 29 c8 20 	addi    r9,r9,-14304
 1807cf8:	54 00 10 3a 	rlwinm  r0,r0,2,0,29
 1807cfc:	7c 09 02 14 	add     r0,r9,r0
 1807d00:	81 3f 02 30 	lwz     r9,560(r31)
 1807d04:	7c 0b 03 78 	mr      r11,r0
 1807d08:	91 2b 00 00 	stw     r9,0(r11)
 1807d0c:	3c 00 01 82 	lis     r0,386
 1807d10:	7c 09 03 78 	mr      r9,r0
 1807d14:	80 09 c7 fc 	lwz     r0,-14340(r9)
 1807d18:	31 20 00 03 	addic   r9,r0,3
 1807d1c:	3c 00 01 82 	lis     r0,386
 1807d20:	7c 0b 03 78 	mr      r11,r0
 1807d24:	91 2b c7 fc 	stw     r9,-14340(r11)
 1807d28:	3c 00 01 82 	lis     r0,386
 1807d2c:	7c 09 03 78 	mr      r9,r0
 1807d30:	80 09 c7 f8 	lwz     r0,-14344(r9)
 1807d34:	2f 80 00 04 	cmpwi   cr7,r0,4
 1807d38:	40 9d 01 8c 	ble-    cr7,1807ec4 <main+0x7ca4>
 1807d3c:	3c 00 01 82 	lis     r0,386
 1807d40:	7c 0b 03 78 	mr      r11,r0
 1807d44:	80 0b c7 fc 	lwz     r0,-14340(r11)
 1807d48:	30 00 00 03 	addic   r0,r0,3
 1807d4c:	2f 80 00 06 	cmpwi   cr7,r0,6
 1807d50:	41 9d 01 74 	bgt-    cr7,1807ec4 <main+0x7ca4>
 1807d54:	3c 00 01 82 	lis     r0,386
 1807d58:	30 00 c8 44 	addic   r0,r0,-14268
 1807d5c:	7c 0b 03 78 	mr      r11,r0
 1807d60:	81 2b 00 10 	lwz     r9,16(r11)
 1807d64:	3c 00 01 82 	lis     r0,386
 1807d68:	30 00 c8 44 	addic   r0,r0,-14268
 1807d6c:	7c 0b 03 78 	mr      r11,r0
 1807d70:	80 0b 00 04 	lwz     r0,4(r11)
 1807d74:	7f 89 00 00 	cmpw    cr7,r9,r0
 1807d78:	40 9e 01 4c 	bne-    cr7,1807ec4 <main+0x7ca4>
 1807d7c:	3c 00 01 82 	lis     r0,386
 1807d80:	30 00 c8 44 	addic   r0,r0,-14268
 1807d84:	7c 0b 03 78 	mr      r11,r0
 1807d88:	81 2b 00 10 	lwz     r9,16(r11)
 1807d8c:	3c 00 01 82 	lis     r0,386
 1807d90:	30 00 c8 44 	addic   r0,r0,-14268
 1807d94:	7c 0b 03 78 	mr      r11,r0
 1807d98:	80 0b 00 00 	lwz     r0,0(r11)
 1807d9c:	7f 89 00 00 	cmpw    cr7,r9,r0
 1807da0:	40 9e 01 24 	bne-    cr7,1807ec4 <main+0x7ca4>
 1807da4:	3c 00 01 82 	lis     r0,386
 1807da8:	30 00 c8 44 	addic   r0,r0,-14268
 1807dac:	7c 09 03 78 	mr      r9,r0
 1807db0:	80 09 00 08 	lwz     r0,8(r9)
 1807db4:	90 1f 02 2c 	stw     r0,556(r31)
 1807db8:	3c 00 01 82 	lis     r0,386
 1807dbc:	30 00 c8 44 	addic   r0,r0,-14268
 1807dc0:	7c 0b 03 78 	mr      r11,r0
 1807dc4:	80 0b 00 10 	lwz     r0,16(r11)
 1807dc8:	90 1f 02 28 	stw     r0,552(r31)
 1807dcc:	81 3f 02 28 	lwz     r9,552(r31)
 1807dd0:	80 1f 02 2c 	lwz     r0,556(r31)
 1807dd4:	7f 89 00 00 	cmpw    cr7,r9,r0
 1807dd8:	40 9d 00 ec 	ble-    cr7,1807ec4 <main+0x7ca4>
 1807ddc:	3c 00 01 82 	lis     r0,386
 1807de0:	30 00 c8 44 	addic   r0,r0,-14268
 1807de4:	7c 0b 03 78 	mr      r11,r0
 1807de8:	81 2b 00 0c 	lwz     r9,12(r11)
 1807dec:	3c 00 01 82 	lis     r0,386
 1807df0:	30 00 c8 44 	addic   r0,r0,-14268
 1807df4:	7c 0b 03 78 	mr      r11,r0
 1807df8:	91 2b 00 00 	stw     r9,0(r11)
 1807dfc:	3c 00 01 82 	lis     r0,386
 1807e00:	7c 09 03 78 	mr      r9,r0
 1807e04:	80 09 c7 f8 	lwz     r0,-14344(r9)
 1807e08:	31 20 ff fc 	addic   r9,r0,-4
 1807e0c:	3c 00 01 82 	lis     r0,386
 1807e10:	7c 0b 03 78 	mr      r11,r0
 1807e14:	91 2b c7 f8 	stw     r9,-14344(r11)
 1807e18:	81 3f 02 2c 	lwz     r9,556(r31)
 1807e1c:	80 1f 02 28 	lwz     r0,552(r31)
 1807e20:	7c 09 02 14 	add     r0,r9,r0
 1807e24:	90 1f 02 24 	stw     r0,548(r31)
 1807e28:	3c 00 01 82 	lis     r0,386
 1807e2c:	7c 09 03 78 	mr      r9,r0
 1807e30:	80 09 c7 fc 	lwz     r0,-14340(r9)
 1807e34:	3d 20 01 82 	lis     r9,386
 1807e38:	39 29 c8 20 	addi    r9,r9,-14304
 1807e3c:	54 00 10 3a 	rlwinm  r0,r0,2,0,29
 1807e40:	7c 09 02 14 	add     r0,r9,r0
 1807e44:	81 3f 02 2c 	lwz     r9,556(r31)
 1807e48:	7c 0b 03 78 	mr      r11,r0
 1807e4c:	91 2b 00 00 	stw     r9,0(r11)
 1807e50:	3c 00 01 82 	lis     r0,386
 1807e54:	7c 09 03 78 	mr      r9,r0
 1807e58:	80 09 c7 fc 	lwz     r0,-14340(r9)
 1807e5c:	30 00 00 01 	addic   r0,r0,1
 1807e60:	3d 20 01 82 	lis     r9,386
 1807e64:	39 29 c8 20 	addi    r9,r9,-14304
 1807e68:	54 00 10 3a 	rlwinm  r0,r0,2,0,29
 1807e6c:	7c 09 02 14 	add     r0,r9,r0
 1807e70:	81 3f 02 28 	lwz     r9,552(r31)
 1807e74:	7c 0b 03 78 	mr      r11,r0
 1807e78:	91 2b 00 00 	stw     r9,0(r11)
 1807e7c:	3c 00 01 82 	lis     r0,386
 1807e80:	7c 09 03 78 	mr      r9,r0
 1807e84:	80 09 c7 fc 	lwz     r0,-14340(r9)
 1807e88:	30 00 00 02 	addic   r0,r0,2
 1807e8c:	3d 20 01 82 	lis     r9,386
 1807e90:	39 29 c8 20 	addi    r9,r9,-14304
 1807e94:	54 00 10 3a 	rlwinm  r0,r0,2,0,29
 1807e98:	7c 09 02 14 	add     r0,r9,r0
 1807e9c:	81 3f 02 24 	lwz     r9,548(r31)
 1807ea0:	7c 0b 03 78 	mr      r11,r0
 1807ea4:	91 2b 00 00 	stw     r9,0(r11)
 1807ea8:	3c 00 01 82 	lis     r0,386
 1807eac:	7c 09 03 78 	mr      r9,r0
 1807eb0:	80 09 c7 fc 	lwz     r0,-14340(r9)
 1807eb4:	31 20 00 03 	addic   r9,r0,3
 1807eb8:	3c 00 01 82 	lis     r0,386
 1807ebc:	7c 0b 03 78 	mr      r11,r0
 1807ec0:	91 2b c7 fc 	stw     r9,-14340(r11)
 1807ec4:	3c 00 01 82 	lis     r0,386
 1807ec8:	7c 09 03 78 	mr      r9,r0
 1807ecc:	80 09 c7 f8 	lwz     r0,-14344(r9)
 1807ed0:	2f 80 00 04 	cmpwi   cr7,r0,4
 1807ed4:	40 9d 01 6c 	ble-    cr7,1808040 <main+0x7e20>
 1807ed8:	3c 00 01 82 	lis     r0,386
 1807edc:	7c 0b 03 78 	mr      r11,r0
 1807ee0:	80 0b c7 fc 	lwz     r0,-14340(r11)
 1807ee4:	30 00 00 03 	addic   r0,r0,3
 1807ee8:	2f 80 00 06 	cmpwi   cr7,r0,6
 1807eec:	41 9d 01 54 	bgt-    cr7,1808040 <main+0x7e20>
 1807ef0:	3c 00 01 82 	lis     r0,386
 1807ef4:	30 00 c8 44 	addic   r0,r0,-14268
 1807ef8:	7c 0b 03 78 	mr      r11,r0
 1807efc:	81 2b 00 10 	lwz     r9,16(r11)
 1807f00:	3c 00 01 82 	lis     r0,386
 1807f04:	30 00 c8 44 	addic   r0,r0,-14268
 1807f08:	7c 0b 03 78 	mr      r11,r0
 1807f0c:	80 0b 00 04 	lwz     r0,4(r11)
 1807f10:	7f 89 00 00 	cmpw    cr7,r9,r0
 1807f14:	40 9e 01 2c 	bne-    cr7,1808040 <main+0x7e20>
 1807f18:	3c 00 01 82 	lis     r0,386
 1807f1c:	30 00 c8 44 	addic   r0,r0,-14268
 1807f20:	7c 0b 03 78 	mr      r11,r0
 1807f24:	81 2b 00 10 	lwz     r9,16(r11)
 1807f28:	3c 00 01 82 	lis     r0,386
 1807f2c:	30 00 c8 44 	addic   r0,r0,-14268
 1807f30:	7c 0b 03 78 	mr      r11,r0
 1807f34:	80 0b 00 0c 	lwz     r0,12(r11)
 1807f38:	7f 89 00 00 	cmpw    cr7,r9,r0
 1807f3c:	40 9e 01 04 	bne-    cr7,1808040 <main+0x7e20>
 1807f40:	3c 00 01 82 	lis     r0,386
 1807f44:	30 00 c8 44 	addic   r0,r0,-14268
 1807f48:	7c 09 03 78 	mr      r9,r0
 1807f4c:	80 09 00 08 	lwz     r0,8(r9)
 1807f50:	90 1f 02 20 	stw     r0,544(r31)
 1807f54:	3c 00 01 82 	lis     r0,386
 1807f58:	30 00 c8 44 	addic   r0,r0,-14268
 1807f5c:	7c 0b 03 78 	mr      r11,r0
 1807f60:	80 0b 00 10 	lwz     r0,16(r11)
 1807f64:	90 1f 02 1c 	stw     r0,540(r31)
 1807f68:	81 3f 02 1c 	lwz     r9,540(r31)
 1807f6c:	80 1f 02 20 	lwz     r0,544(r31)
 1807f70:	7f 89 00 00 	cmpw    cr7,r9,r0
 1807f74:	40 9d 00 cc 	ble-    cr7,1808040 <main+0x7e20>
 1807f78:	3c 00 01 82 	lis     r0,386
 1807f7c:	7c 09 03 78 	mr      r9,r0
 1807f80:	80 09 c7 f8 	lwz     r0,-14344(r9)
 1807f84:	31 20 ff fc 	addic   r9,r0,-4
 1807f88:	3c 00 01 82 	lis     r0,386
 1807f8c:	7c 0b 03 78 	mr      r11,r0
 1807f90:	91 2b c7 f8 	stw     r9,-14344(r11)
 1807f94:	81 3f 02 20 	lwz     r9,544(r31)
 1807f98:	80 1f 02 1c 	lwz     r0,540(r31)
 1807f9c:	7c 09 02 14 	add     r0,r9,r0
 1807fa0:	90 1f 02 18 	stw     r0,536(r31)
 1807fa4:	3c 00 01 82 	lis     r0,386
 1807fa8:	7c 09 03 78 	mr      r9,r0
 1807fac:	80 09 c7 fc 	lwz     r0,-14340(r9)
 1807fb0:	3d 20 01 82 	lis     r9,386
 1807fb4:	39 29 c8 20 	addi    r9,r9,-14304
 1807fb8:	54 00 10 3a 	rlwinm  r0,r0,2,0,29
 1807fbc:	7c 09 02 14 	add     r0,r9,r0
 1807fc0:	81 3f 02 20 	lwz     r9,544(r31)
 1807fc4:	7c 0b 03 78 	mr      r11,r0
 1807fc8:	91 2b 00 00 	stw     r9,0(r11)
 1807fcc:	3c 00 01 82 	lis     r0,386
 1807fd0:	7c 09 03 78 	mr      r9,r0
 1807fd4:	80 09 c7 fc 	lwz     r0,-14340(r9)
 1807fd8:	30 00 00 01 	addic   r0,r0,1
 1807fdc:	3d 20 01 82 	lis     r9,386
 1807fe0:	39 29 c8 20 	addi    r9,r9,-14304
 1807fe4:	54 00 10 3a 	rlwinm  r0,r0,2,0,29
 1807fe8:	7c 09 02 14 	add     r0,r9,r0
 1807fec:	81 3f 02 1c 	lwz     r9,540(r31)
 1807ff0:	7c 0b 03 78 	mr      r11,r0
 1807ff4:	91 2b 00 00 	stw     r9,0(r11)
 1807ff8:	3c 00 01 82 	lis     r0,386
 1807ffc:	7c 09 03 78 	mr      r9,r0
 1808000:	80 09 c7 fc 	lwz     r0,-14340(r9)
 1808004:	30 00 00 02 	addic   r0,r0,2
 1808008:	3d 20 01 82 	lis     r9,386
 180800c:	39 29 c8 20 	addi    r9,r9,-14304
 1808010:	54 00 10 3a 	rlwinm  r0,r0,2,0,29
 1808014:	7c 09 02 14 	add     r0,r9,r0
 1808018:	81 3f 02 18 	lwz     r9,536(r31)
 180801c:	7c 0b 03 78 	mr      r11,r0
 1808020:	91 2b 00 00 	stw     r9,0(r11)
 1808024:	3c 00 01 82 	lis     r0,386
 1808028:	7c 09 03 78 	mr      r9,r0
 180802c:	80 09 c7 fc 	lwz     r0,-14340(r9)
 1808030:	31 20 00 03 	addic   r9,r0,3
 1808034:	3c 00 01 82 	lis     r0,386
 1808038:	7c 0b 03 78 	mr      r11,r0
 180803c:	91 2b c7 fc 	stw     r9,-14340(r11)
 1808040:	3c 00 01 82 	lis     r0,386
 1808044:	7c 09 03 78 	mr      r9,r0
 1808048:	80 09 c7 f8 	lwz     r0,-14344(r9)
 180804c:	2f 80 00 04 	cmpwi   cr7,r0,4
 1808050:	40 9d 01 8c 	ble-    cr7,18081dc <main+0x7fbc>
 1808054:	3c 00 01 82 	lis     r0,386
 1808058:	7c 0b 03 78 	mr      r11,r0
 180805c:	80 0b c7 fc 	lwz     r0,-14340(r11)
 1808060:	30 00 00 03 	addic   r0,r0,3
 1808064:	2f 80 00 06 	cmpwi   cr7,r0,6
 1808068:	41 9d 01 74 	bgt-    cr7,18081dc <main+0x7fbc>
 180806c:	3c 00 01 82 	lis     r0,386
 1808070:	30 00 c8 44 	addic   r0,r0,-14268
 1808074:	7c 0b 03 78 	mr      r11,r0
 1808078:	81 2b 00 10 	lwz     r9,16(r11)
 180807c:	3c 00 01 82 	lis     r0,386
 1808080:	30 00 c8 44 	addic   r0,r0,-14268
 1808084:	7c 0b 03 78 	mr      r11,r0
 1808088:	80 0b 00 0c 	lwz     r0,12(r11)
 180808c:	7f 89 00 00 	cmpw    cr7,r9,r0
 1808090:	40 9e 01 4c 	bne-    cr7,18081dc <main+0x7fbc>
 1808094:	3c 00 01 82 	lis     r0,386
 1808098:	30 00 c8 44 	addic   r0,r0,-14268
 180809c:	7c 0b 03 78 	mr      r11,r0
 18080a0:	81 2b 00 10 	lwz     r9,16(r11)
 18080a4:	3c 00 01 82 	lis     r0,386
 18080a8:	30 00 c8 44 	addic   r0,r0,-14268
 18080ac:	7c 0b 03 78 	mr      r11,r0
 18080b0:	80 0b 00 00 	lwz     r0,0(r11)
 18080b4:	7f 89 00 00 	cmpw    cr7,r9,r0
 18080b8:	40 9e 01 24 	bne-    cr7,18081dc <main+0x7fbc>
 18080bc:	3c 00 01 82 	lis     r0,386
 18080c0:	30 00 c8 44 	addic   r0,r0,-14268
 18080c4:	7c 09 03 78 	mr      r9,r0
 18080c8:	80 09 00 08 	lwz     r0,8(r9)
 18080cc:	90 1f 02 14 	stw     r0,532(r31)
 18080d0:	3c 00 01 82 	lis     r0,386
 18080d4:	30 00 c8 44 	addic   r0,r0,-14268
 18080d8:	7c 0b 03 78 	mr      r11,r0
 18080dc:	80 0b 00 10 	lwz     r0,16(r11)
 18080e0:	90 1f 02 10 	stw     r0,528(r31)
 18080e4:	81 3f 02 10 	lwz     r9,528(r31)
 18080e8:	80 1f 02 14 	lwz     r0,532(r31)
 18080ec:	7f 89 00 00 	cmpw    cr7,r9,r0
 18080f0:	40 9d 00 ec 	ble-    cr7,18081dc <main+0x7fbc>
 18080f4:	3c 00 01 82 	lis     r0,386
 18080f8:	30 00 c8 44 	addic   r0,r0,-14268
 18080fc:	7c 0b 03 78 	mr      r11,r0
 1808100:	81 2b 00 04 	lwz     r9,4(r11)
 1808104:	3c 00 01 82 	lis     r0,386
 1808108:	30 00 c8 44 	addic   r0,r0,-14268
 180810c:	7c 0b 03 78 	mr      r11,r0
 1808110:	91 2b 00 00 	stw     r9,0(r11)
 1808114:	3c 00 01 82 	lis     r0,386
 1808118:	7c 09 03 78 	mr      r9,r0
 180811c:	80 09 c7 f8 	lwz     r0,-14344(r9)
 1808120:	31 20 ff fc 	addic   r9,r0,-4
 1808124:	3c 00 01 82 	lis     r0,386
 1808128:	7c 0b 03 78 	mr      r11,r0
 180812c:	91 2b c7 f8 	stw     r9,-14344(r11)
 1808130:	81 3f 02 14 	lwz     r9,532(r31)
 1808134:	80 1f 02 10 	lwz     r0,528(r31)
 1808138:	7c 09 02 14 	add     r0,r9,r0
 180813c:	90 1f 02 0c 	stw     r0,524(r31)
 1808140:	3c 00 01 82 	lis     r0,386
 1808144:	7c 09 03 78 	mr      r9,r0
 1808148:	80 09 c7 fc 	lwz     r0,-14340(r9)
 180814c:	3d 20 01 82 	lis     r9,386
 1808150:	39 29 c8 20 	addi    r9,r9,-14304
 1808154:	54 00 10 3a 	rlwinm  r0,r0,2,0,29
 1808158:	7c 09 02 14 	add     r0,r9,r0
 180815c:	81 3f 02 14 	lwz     r9,532(r31)
 1808160:	7c 0b 03 78 	mr      r11,r0
 1808164:	91 2b 00 00 	stw     r9,0(r11)
 1808168:	3c 00 01 82 	lis     r0,386
 180816c:	7c 09 03 78 	mr      r9,r0
 1808170:	80 09 c7 fc 	lwz     r0,-14340(r9)
 1808174:	30 00 00 01 	addic   r0,r0,1
 1808178:	3d 20 01 82 	lis     r9,386
 180817c:	39 29 c8 20 	addi    r9,r9,-14304
 1808180:	54 00 10 3a 	rlwinm  r0,r0,2,0,29
 1808184:	7c 09 02 14 	add     r0,r9,r0
 1808188:	81 3f 02 10 	lwz     r9,528(r31)
 180818c:	7c 0b 03 78 	mr      r11,r0
 1808190:	91 2b 00 00 	stw     r9,0(r11)
 1808194:	3c 00 01 82 	lis     r0,386
 1808198:	7c 09 03 78 	mr      r9,r0
 180819c:	80 09 c7 fc 	lwz     r0,-14340(r9)
 18081a0:	30 00 00 02 	addic   r0,r0,2
 18081a4:	3d 20 01 82 	lis     r9,386
 18081a8:	39 29 c8 20 	addi    r9,r9,-14304
 18081ac:	54 00 10 3a 	rlwinm  r0,r0,2,0,29
 18081b0:	7c 09 02 14 	add     r0,r9,r0
 18081b4:	81 3f 02 0c 	lwz     r9,524(r31)
 18081b8:	7c 0b 03 78 	mr      r11,r0
 18081bc:	91 2b 00 00 	stw     r9,0(r11)
 18081c0:	3c 00 01 82 	lis     r0,386
 18081c4:	7c 09 03 78 	mr      r9,r0
 18081c8:	80 09 c7 fc 	lwz     r0,-14340(r9)
 18081cc:	31 20 00 03 	addic   r9,r0,3
 18081d0:	3c 00 01 82 	lis     r0,386
 18081d4:	7c 0b 03 78 	mr      r11,r0
 18081d8:	91 2b c7 fc 	stw     r9,-14340(r11)
 18081dc:	3c 00 01 82 	lis     r0,386
 18081e0:	7c 09 03 78 	mr      r9,r0
 18081e4:	80 09 c7 f8 	lwz     r0,-14344(r9)
 18081e8:	2f 80 00 04 	cmpwi   cr7,r0,4
 18081ec:	40 9d 01 6c 	ble-    cr7,1808358 <main+0x8138>
 18081f0:	3c 00 01 82 	lis     r0,386
 18081f4:	7c 0b 03 78 	mr      r11,r0
 18081f8:	80 0b c7 fc 	lwz     r0,-14340(r11)
 18081fc:	30 00 00 03 	addic   r0,r0,3
 1808200:	2f 80 00 06 	cmpwi   cr7,r0,6
 1808204:	41 9d 01 54 	bgt-    cr7,1808358 <main+0x8138>
 1808208:	3c 00 01 82 	lis     r0,386
 180820c:	30 00 c8 44 	addic   r0,r0,-14268
 1808210:	7c 0b 03 78 	mr      r11,r0
 1808214:	81 2b 00 10 	lwz     r9,16(r11)
 1808218:	3c 00 01 82 	lis     r0,386
 180821c:	30 00 c8 44 	addic   r0,r0,-14268
 1808220:	7c 0b 03 78 	mr      r11,r0
 1808224:	80 0b 00 0c 	lwz     r0,12(r11)
 1808228:	7f 89 00 00 	cmpw    cr7,r9,r0
 180822c:	40 9e 01 2c 	bne-    cr7,1808358 <main+0x8138>
 1808230:	3c 00 01 82 	lis     r0,386
 1808234:	30 00 c8 44 	addic   r0,r0,-14268
 1808238:	7c 0b 03 78 	mr      r11,r0
 180823c:	81 2b 00 10 	lwz     r9,16(r11)
 1808240:	3c 00 01 82 	lis     r0,386
 1808244:	30 00 c8 44 	addic   r0,r0,-14268
 1808248:	7c 0b 03 78 	mr      r11,r0
 180824c:	80 0b 00 04 	lwz     r0,4(r11)
 1808250:	7f 89 00 00 	cmpw    cr7,r9,r0
 1808254:	40 9e 01 04 	bne-    cr7,1808358 <main+0x8138>
 1808258:	3c 00 01 82 	lis     r0,386
 180825c:	30 00 c8 44 	addic   r0,r0,-14268
 1808260:	7c 09 03 78 	mr      r9,r0
 1808264:	80 09 00 08 	lwz     r0,8(r9)
 1808268:	90 1f 02 08 	stw     r0,520(r31)
 180826c:	3c 00 01 82 	lis     r0,386
 1808270:	30 00 c8 44 	addic   r0,r0,-14268
 1808274:	7c 0b 03 78 	mr      r11,r0
 1808278:	80 0b 00 10 	lwz     r0,16(r11)
 180827c:	90 1f 02 04 	stw     r0,516(r31)
 1808280:	81 3f 02 04 	lwz     r9,516(r31)
 1808284:	80 1f 02 08 	lwz     r0,520(r31)
 1808288:	7f 89 00 00 	cmpw    cr7,r9,r0
 180828c:	40 9d 00 cc 	ble-    cr7,1808358 <main+0x8138>
 1808290:	3c 00 01 82 	lis     r0,386
 1808294:	7c 09 03 78 	mr      r9,r0
 1808298:	80 09 c7 f8 	lwz     r0,-14344(r9)
 180829c:	31 20 ff fc 	addic   r9,r0,-4
 18082a0:	3c 00 01 82 	lis     r0,386
 18082a4:	7c 0b 03 78 	mr      r11,r0
 18082a8:	91 2b c7 f8 	stw     r9,-14344(r11)
 18082ac:	81 3f 02 08 	lwz     r9,520(r31)
 18082b0:	80 1f 02 04 	lwz     r0,516(r31)
 18082b4:	7c 09 02 14 	add     r0,r9,r0
 18082b8:	90 1f 02 00 	stw     r0,512(r31)
 18082bc:	3c 00 01 82 	lis     r0,386
 18082c0:	7c 09 03 78 	mr      r9,r0
 18082c4:	80 09 c7 fc 	lwz     r0,-14340(r9)
 18082c8:	3d 20 01 82 	lis     r9,386
 18082cc:	39 29 c8 20 	addi    r9,r9,-14304
 18082d0:	54 00 10 3a 	rlwinm  r0,r0,2,0,29
 18082d4:	7c 09 02 14 	add     r0,r9,r0
 18082d8:	81 3f 02 08 	lwz     r9,520(r31)
 18082dc:	7c 0b 03 78 	mr      r11,r0
 18082e0:	91 2b 00 00 	stw     r9,0(r11)
 18082e4:	3c 00 01 82 	lis     r0,386
 18082e8:	7c 09 03 78 	mr      r9,r0
 18082ec:	80 09 c7 fc 	lwz     r0,-14340(r9)
 18082f0:	30 00 00 01 	addic   r0,r0,1
 18082f4:	3d 20 01 82 	lis     r9,386
 18082f8:	39 29 c8 20 	addi    r9,r9,-14304
 18082fc:	54 00 10 3a 	rlwinm  r0,r0,2,0,29
 1808300:	7c 09 02 14 	add     r0,r9,r0
 1808304:	81 3f 02 04 	lwz     r9,516(r31)
 1808308:	7c 0b 03 78 	mr      r11,r0
 180830c:	91 2b 00 00 	stw     r9,0(r11)
 1808310:	3c 00 01 82 	lis     r0,386
 1808314:	7c 09 03 78 	mr      r9,r0
 1808318:	80 09 c7 fc 	lwz     r0,-14340(r9)
 180831c:	30 00 00 02 	addic   r0,r0,2
 1808320:	3d 20 01 82 	lis     r9,386
 1808324:	39 29 c8 20 	addi    r9,r9,-14304
 1808328:	54 00 10 3a 	rlwinm  r0,r0,2,0,29
 180832c:	7c 09 02 14 	add     r0,r9,r0
 1808330:	81 3f 02 00 	lwz     r9,512(r31)
 1808334:	7c 0b 03 78 	mr      r11,r0
 1808338:	91 2b 00 00 	stw     r9,0(r11)
 180833c:	3c 00 01 82 	lis     r0,386
 1808340:	7c 09 03 78 	mr      r9,r0
 1808344:	80 09 c7 fc 	lwz     r0,-14340(r9)
 1808348:	31 20 00 03 	addic   r9,r0,3
 180834c:	3c 00 01 82 	lis     r0,386
 1808350:	7c 0b 03 78 	mr      r11,r0
 1808354:	91 2b c7 fc 	stw     r9,-14340(r11)
 1808358:	3c 00 01 82 	lis     r0,386
 180835c:	7c 09 03 78 	mr      r9,r0
 1808360:	80 09 c7 f8 	lwz     r0,-14344(r9)
 1808364:	2f 80 00 04 	cmpwi   cr7,r0,4
 1808368:	40 9d 01 8c 	ble-    cr7,18084f4 <main+0x82d4>
 180836c:	3c 00 01 82 	lis     r0,386
 1808370:	7c 0b 03 78 	mr      r11,r0
 1808374:	80 0b c7 fc 	lwz     r0,-14340(r11)
 1808378:	30 00 00 03 	addic   r0,r0,3
 180837c:	2f 80 00 06 	cmpwi   cr7,r0,6
 1808380:	41 9d 01 74 	bgt-    cr7,18084f4 <main+0x82d4>
 1808384:	3c 00 01 82 	lis     r0,386
 1808388:	30 00 c8 44 	addic   r0,r0,-14268
 180838c:	7c 0b 03 78 	mr      r11,r0
 1808390:	81 2b 00 00 	lwz     r9,0(r11)
 1808394:	3c 00 01 82 	lis     r0,386
 1808398:	30 00 c8 44 	addic   r0,r0,-14268
 180839c:	7c 0b 03 78 	mr      r11,r0
 18083a0:	80 0b 00 04 	lwz     r0,4(r11)
 18083a4:	7f 89 00 00 	cmpw    cr7,r9,r0
 18083a8:	40 9e 01 4c 	bne-    cr7,18084f4 <main+0x82d4>
 18083ac:	3c 00 01 82 	lis     r0,386
 18083b0:	30 00 c8 44 	addic   r0,r0,-14268
 18083b4:	7c 0b 03 78 	mr      r11,r0
 18083b8:	81 2b 00 00 	lwz     r9,0(r11)
 18083bc:	3c 00 01 82 	lis     r0,386
 18083c0:	30 00 c8 44 	addic   r0,r0,-14268
 18083c4:	7c 0b 03 78 	mr      r11,r0
 18083c8:	80 0b 00 10 	lwz     r0,16(r11)
 18083cc:	7f 89 00 00 	cmpw    cr7,r9,r0
 18083d0:	40 9e 01 24 	bne-    cr7,18084f4 <main+0x82d4>
 18083d4:	3c 00 01 82 	lis     r0,386
 18083d8:	30 00 c8 44 	addic   r0,r0,-14268
 18083dc:	7c 09 03 78 	mr      r9,r0
 18083e0:	80 09 00 0c 	lwz     r0,12(r9)
 18083e4:	90 1f 01 fc 	stw     r0,508(r31)
 18083e8:	3c 00 01 82 	lis     r0,386
 18083ec:	30 00 c8 44 	addic   r0,r0,-14268
 18083f0:	7c 0b 03 78 	mr      r11,r0
 18083f4:	80 0b 00 00 	lwz     r0,0(r11)
 18083f8:	90 1f 01 f8 	stw     r0,504(r31)
 18083fc:	81 3f 01 f8 	lwz     r9,504(r31)
 1808400:	80 1f 01 fc 	lwz     r0,508(r31)
 1808404:	7f 89 00 00 	cmpw    cr7,r9,r0
 1808408:	40 9d 00 ec 	ble-    cr7,18084f4 <main+0x82d4>
 180840c:	3c 00 01 82 	lis     r0,386
 1808410:	30 00 c8 44 	addic   r0,r0,-14268
 1808414:	7c 0b 03 78 	mr      r11,r0
 1808418:	81 2b 00 08 	lwz     r9,8(r11)
 180841c:	3c 00 01 82 	lis     r0,386
 1808420:	30 00 c8 44 	addic   r0,r0,-14268
 1808424:	7c 0b 03 78 	mr      r11,r0
 1808428:	91 2b 00 00 	stw     r9,0(r11)
 180842c:	3c 00 01 82 	lis     r0,386
 1808430:	7c 09 03 78 	mr      r9,r0
 1808434:	80 09 c7 f8 	lwz     r0,-14344(r9)
 1808438:	31 20 ff fc 	addic   r9,r0,-4
 180843c:	3c 00 01 82 	lis     r0,386
 1808440:	7c 0b 03 78 	mr      r11,r0
 1808444:	91 2b c7 f8 	stw     r9,-14344(r11)
 1808448:	81 3f 01 fc 	lwz     r9,508(r31)
 180844c:	80 1f 01 f8 	lwz     r0,504(r31)
 1808450:	7c 09 02 14 	add     r0,r9,r0
 1808454:	90 1f 01 f4 	stw     r0,500(r31)
 1808458:	3c 00 01 82 	lis     r0,386
 180845c:	7c 09 03 78 	mr      r9,r0
 1808460:	80 09 c7 fc 	lwz     r0,-14340(r9)
 1808464:	3d 20 01 82 	lis     r9,386
 1808468:	39 29 c8 20 	addi    r9,r9,-14304
 180846c:	54 00 10 3a 	rlwinm  r0,r0,2,0,29
 1808470:	7c 09 02 14 	add     r0,r9,r0
 1808474:	81 3f 01 fc 	lwz     r9,508(r31)
 1808478:	7c 0b 03 78 	mr      r11,r0
 180847c:	91 2b 00 00 	stw     r9,0(r11)
 1808480:	3c 00 01 82 	lis     r0,386
 1808484:	7c 09 03 78 	mr      r9,r0
 1808488:	80 09 c7 fc 	lwz     r0,-14340(r9)
 180848c:	30 00 00 01 	addic   r0,r0,1
 1808490:	3d 20 01 82 	lis     r9,386
 1808494:	39 29 c8 20 	addi    r9,r9,-14304
 1808498:	54 00 10 3a 	rlwinm  r0,r0,2,0,29
 180849c:	7c 09 02 14 	add     r0,r9,r0
 18084a0:	81 3f 01 f8 	lwz     r9,504(r31)
 18084a4:	7c 0b 03 78 	mr      r11,r0
 18084a8:	91 2b 00 00 	stw     r9,0(r11)
 18084ac:	3c 00 01 82 	lis     r0,386
 18084b0:	7c 09 03 78 	mr      r9,r0
 18084b4:	80 09 c7 fc 	lwz     r0,-14340(r9)
 18084b8:	30 00 00 02 	addic   r0,r0,2
 18084bc:	3d 20 01 82 	lis     r9,386
 18084c0:	39 29 c8 20 	addi    r9,r9,-14304
 18084c4:	54 00 10 3a 	rlwinm  r0,r0,2,0,29
 18084c8:	7c 09 02 14 	add     r0,r9,r0
 18084cc:	81 3f 01 f4 	lwz     r9,500(r31)
 18084d0:	7c 0b 03 78 	mr      r11,r0
 18084d4:	91 2b 00 00 	stw     r9,0(r11)
 18084d8:	3c 00 01 82 	lis     r0,386
 18084dc:	7c 09 03 78 	mr      r9,r0
 18084e0:	80 09 c7 fc 	lwz     r0,-14340(r9)
 18084e4:	31 20 00 03 	addic   r9,r0,3
 18084e8:	3c 00 01 82 	lis     r0,386
 18084ec:	7c 0b 03 78 	mr      r11,r0
 18084f0:	91 2b c7 fc 	stw     r9,-14340(r11)
 18084f4:	3c 00 01 82 	lis     r0,386
 18084f8:	7c 09 03 78 	mr      r9,r0
 18084fc:	80 09 c7 f8 	lwz     r0,-14344(r9)
 1808500:	2f 80 00 04 	cmpwi   cr7,r0,4
 1808504:	40 9d 01 8c 	ble-    cr7,1808690 <main+0x8470>
 1808508:	3c 00 01 82 	lis     r0,386
 180850c:	7c 0b 03 78 	mr      r11,r0
 1808510:	80 0b c7 fc 	lwz     r0,-14340(r11)
 1808514:	30 00 00 03 	addic   r0,r0,3
 1808518:	2f 80 00 06 	cmpwi   cr7,r0,6
 180851c:	41 9d 01 74 	bgt-    cr7,1808690 <main+0x8470>
 1808520:	3c 00 01 82 	lis     r0,386
 1808524:	30 00 c8 44 	addic   r0,r0,-14268
 1808528:	7c 0b 03 78 	mr      r11,r0
 180852c:	81 2b 00 00 	lwz     r9,0(r11)
 1808530:	3c 00 01 82 	lis     r0,386
 1808534:	30 00 c8 44 	addic   r0,r0,-14268
 1808538:	7c 0b 03 78 	mr      r11,r0
 180853c:	80 0b 00 08 	lwz     r0,8(r11)
 1808540:	7f 89 00 00 	cmpw    cr7,r9,r0
 1808544:	40 9e 01 4c 	bne-    cr7,1808690 <main+0x8470>
 1808548:	3c 00 01 82 	lis     r0,386
 180854c:	30 00 c8 44 	addic   r0,r0,-14268
 1808550:	7c 0b 03 78 	mr      r11,r0
 1808554:	81 2b 00 00 	lwz     r9,0(r11)
 1808558:	3c 00 01 82 	lis     r0,386
 180855c:	30 00 c8 44 	addic   r0,r0,-14268
 1808560:	7c 0b 03 78 	mr      r11,r0
 1808564:	80 0b 00 10 	lwz     r0,16(r11)
 1808568:	7f 89 00 00 	cmpw    cr7,r9,r0
 180856c:	40 9e 01 24 	bne-    cr7,1808690 <main+0x8470>
 1808570:	3c 00 01 82 	lis     r0,386
 1808574:	30 00 c8 44 	addic   r0,r0,-14268
 1808578:	7c 09 03 78 	mr      r9,r0
 180857c:	80 09 00 0c 	lwz     r0,12(r9)
 1808580:	90 1f 01 f0 	stw     r0,496(r31)
 1808584:	3c 00 01 82 	lis     r0,386
 1808588:	30 00 c8 44 	addic   r0,r0,-14268
 180858c:	7c 0b 03 78 	mr      r11,r0
 1808590:	80 0b 00 00 	lwz     r0,0(r11)
 1808594:	90 1f 01 ec 	stw     r0,492(r31)
 1808598:	81 3f 01 ec 	lwz     r9,492(r31)
 180859c:	80 1f 01 f0 	lwz     r0,496(r31)
 18085a0:	7f 89 00 00 	cmpw    cr7,r9,r0
 18085a4:	40 9d 00 ec 	ble-    cr7,1808690 <main+0x8470>
 18085a8:	3c 00 01 82 	lis     r0,386
 18085ac:	30 00 c8 44 	addic   r0,r0,-14268
 18085b0:	7c 0b 03 78 	mr      r11,r0
 18085b4:	81 2b 00 04 	lwz     r9,4(r11)
 18085b8:	3c 00 01 82 	lis     r0,386
 18085bc:	30 00 c8 44 	addic   r0,r0,-14268
 18085c0:	7c 0b 03 78 	mr      r11,r0
 18085c4:	91 2b 00 00 	stw     r9,0(r11)
 18085c8:	3c 00 01 82 	lis     r0,386
 18085cc:	7c 09 03 78 	mr      r9,r0
 18085d0:	80 09 c7 f8 	lwz     r0,-14344(r9)
 18085d4:	31 20 ff fc 	addic   r9,r0,-4
 18085d8:	3c 00 01 82 	lis     r0,386
 18085dc:	7c 0b 03 78 	mr      r11,r0
 18085e0:	91 2b c7 f8 	stw     r9,-14344(r11)
 18085e4:	81 3f 01 f0 	lwz     r9,496(r31)
 18085e8:	80 1f 01 ec 	lwz     r0,492(r31)
 18085ec:	7c 09 02 14 	add     r0,r9,r0
 18085f0:	90 1f 01 e8 	stw     r0,488(r31)
 18085f4:	3c 00 01 82 	lis     r0,386
 18085f8:	7c 09 03 78 	mr      r9,r0
 18085fc:	80 09 c7 fc 	lwz     r0,-14340(r9)
 1808600:	3d 20 01 82 	lis     r9,386
 1808604:	39 29 c8 20 	addi    r9,r9,-14304
 1808608:	54 00 10 3a 	rlwinm  r0,r0,2,0,29
 180860c:	7c 09 02 14 	add     r0,r9,r0
 1808610:	81 3f 01 f0 	lwz     r9,496(r31)
 1808614:	7c 0b 03 78 	mr      r11,r0
 1808618:	91 2b 00 00 	stw     r9,0(r11)
 180861c:	3c 00 01 82 	lis     r0,386
 1808620:	7c 09 03 78 	mr      r9,r0
 1808624:	80 09 c7 fc 	lwz     r0,-14340(r9)
 1808628:	30 00 00 01 	addic   r0,r0,1
 180862c:	3d 20 01 82 	lis     r9,386
 1808630:	39 29 c8 20 	addi    r9,r9,-14304
 1808634:	54 00 10 3a 	rlwinm  r0,r0,2,0,29
 1808638:	7c 09 02 14 	add     r0,r9,r0
 180863c:	81 3f 01 ec 	lwz     r9,492(r31)
 1808640:	7c 0b 03 78 	mr      r11,r0
 1808644:	91 2b 00 00 	stw     r9,0(r11)
 1808648:	3c 00 01 82 	lis     r0,386
 180864c:	7c 09 03 78 	mr      r9,r0
 1808650:	80 09 c7 fc 	lwz     r0,-14340(r9)
 1808654:	30 00 00 02 	addic   r0,r0,2
 1808658:	3d 20 01 82 	lis     r9,386
 180865c:	39 29 c8 20 	addi    r9,r9,-14304
 1808660:	54 00 10 3a 	rlwinm  r0,r0,2,0,29
 1808664:	7c 09 02 14 	add     r0,r9,r0
 1808668:	81 3f 01 e8 	lwz     r9,488(r31)
 180866c:	7c 0b 03 78 	mr      r11,r0
 1808670:	91 2b 00 00 	stw     r9,0(r11)
 1808674:	3c 00 01 82 	lis     r0,386
 1808678:	7c 09 03 78 	mr      r9,r0
 180867c:	80 09 c7 fc 	lwz     r0,-14340(r9)
 1808680:	31 20 00 03 	addic   r9,r0,3
 1808684:	3c 00 01 82 	lis     r0,386
 1808688:	7c 0b 03 78 	mr      r11,r0
 180868c:	91 2b c7 fc 	stw     r9,-14340(r11)
 1808690:	3c 00 01 82 	lis     r0,386
 1808694:	7c 09 03 78 	mr      r9,r0
 1808698:	80 09 c7 f8 	lwz     r0,-14344(r9)
 180869c:	2f 80 00 04 	cmpwi   cr7,r0,4
 18086a0:	40 9d 01 8c 	ble-    cr7,180882c <main+0x860c>
 18086a4:	3c 00 01 82 	lis     r0,386
 18086a8:	7c 0b 03 78 	mr      r11,r0
 18086ac:	80 0b c7 fc 	lwz     r0,-14340(r11)
 18086b0:	30 00 00 03 	addic   r0,r0,3
 18086b4:	2f 80 00 06 	cmpwi   cr7,r0,6
 18086b8:	41 9d 01 74 	bgt-    cr7,180882c <main+0x860c>
 18086bc:	3c 00 01 82 	lis     r0,386
 18086c0:	30 00 c8 44 	addic   r0,r0,-14268
 18086c4:	7c 0b 03 78 	mr      r11,r0
 18086c8:	81 2b 00 00 	lwz     r9,0(r11)
 18086cc:	3c 00 01 82 	lis     r0,386
 18086d0:	30 00 c8 44 	addic   r0,r0,-14268
 18086d4:	7c 0b 03 78 	mr      r11,r0
 18086d8:	80 0b 00 10 	lwz     r0,16(r11)
 18086dc:	7f 89 00 00 	cmpw    cr7,r9,r0
 18086e0:	40 9e 01 4c 	bne-    cr7,180882c <main+0x860c>
 18086e4:	3c 00 01 82 	lis     r0,386
 18086e8:	30 00 c8 44 	addic   r0,r0,-14268
 18086ec:	7c 0b 03 78 	mr      r11,r0
 18086f0:	81 2b 00 00 	lwz     r9,0(r11)
 18086f4:	3c 00 01 82 	lis     r0,386
 18086f8:	30 00 c8 44 	addic   r0,r0,-14268
 18086fc:	7c 0b 03 78 	mr      r11,r0
 1808700:	80 0b 00 04 	lwz     r0,4(r11)
 1808704:	7f 89 00 00 	cmpw    cr7,r9,r0
 1808708:	40 9e 01 24 	bne-    cr7,180882c <main+0x860c>
 180870c:	3c 00 01 82 	lis     r0,386
 1808710:	30 00 c8 44 	addic   r0,r0,-14268
 1808714:	7c 09 03 78 	mr      r9,r0
 1808718:	80 09 00 0c 	lwz     r0,12(r9)
 180871c:	90 1f 01 e4 	stw     r0,484(r31)
 1808720:	3c 00 01 82 	lis     r0,386
 1808724:	30 00 c8 44 	addic   r0,r0,-14268
 1808728:	7c 0b 03 78 	mr      r11,r0
 180872c:	80 0b 00 00 	lwz     r0,0(r11)
 1808730:	90 1f 01 e0 	stw     r0,480(r31)
 1808734:	81 3f 01 e0 	lwz     r9,480(r31)
 1808738:	80 1f 01 e4 	lwz     r0,484(r31)
 180873c:	7f 89 00 00 	cmpw    cr7,r9,r0
 1808740:	40 9d 00 ec 	ble-    cr7,180882c <main+0x860c>
 1808744:	3c 00 01 82 	lis     r0,386
 1808748:	30 00 c8 44 	addic   r0,r0,-14268
 180874c:	7c 0b 03 78 	mr      r11,r0
 1808750:	81 2b 00 08 	lwz     r9,8(r11)
 1808754:	3c 00 01 82 	lis     r0,386
 1808758:	30 00 c8 44 	addic   r0,r0,-14268
 180875c:	7c 0b 03 78 	mr      r11,r0
 1808760:	91 2b 00 00 	stw     r9,0(r11)
 1808764:	3c 00 01 82 	lis     r0,386
 1808768:	7c 09 03 78 	mr      r9,r0
 180876c:	80 09 c7 f8 	lwz     r0,-14344(r9)
 1808770:	31 20 ff fc 	addic   r9,r0,-4
 1808774:	3c 00 01 82 	lis     r0,386
 1808778:	7c 0b 03 78 	mr      r11,r0
 180877c:	91 2b c7 f8 	stw     r9,-14344(r11)
 1808780:	81 3f 01 e4 	lwz     r9,484(r31)
 1808784:	80 1f 01 e0 	lwz     r0,480(r31)
 1808788:	7c 09 02 14 	add     r0,r9,r0
 180878c:	90 1f 01 dc 	stw     r0,476(r31)
 1808790:	3c 00 01 82 	lis     r0,386
 1808794:	7c 09 03 78 	mr      r9,r0
 1808798:	80 09 c7 fc 	lwz     r0,-14340(r9)
 180879c:	3d 20 01 82 	lis     r9,386
 18087a0:	39 29 c8 20 	addi    r9,r9,-14304
 18087a4:	54 00 10 3a 	rlwinm  r0,r0,2,0,29
 18087a8:	7c 09 02 14 	add     r0,r9,r0
 18087ac:	81 3f 01 e4 	lwz     r9,484(r31)
 18087b0:	7c 0b 03 78 	mr      r11,r0
 18087b4:	91 2b 00 00 	stw     r9,0(r11)
 18087b8:	3c 00 01 82 	lis     r0,386
 18087bc:	7c 09 03 78 	mr      r9,r0
 18087c0:	80 09 c7 fc 	lwz     r0,-14340(r9)
 18087c4:	30 00 00 01 	addic   r0,r0,1
 18087c8:	3d 20 01 82 	lis     r9,386
 18087cc:	39 29 c8 20 	addi    r9,r9,-14304
 18087d0:	54 00 10 3a 	rlwinm  r0,r0,2,0,29
 18087d4:	7c 09 02 14 	add     r0,r9,r0
 18087d8:	81 3f 01 e0 	lwz     r9,480(r31)
 18087dc:	7c 0b 03 78 	mr      r11,r0
 18087e0:	91 2b 00 00 	stw     r9,0(r11)
 18087e4:	3c 00 01 82 	lis     r0,386
 18087e8:	7c 09 03 78 	mr      r9,r0
 18087ec:	80 09 c7 fc 	lwz     r0,-14340(r9)
 18087f0:	30 00 00 02 	addic   r0,r0,2
 18087f4:	3d 20 01 82 	lis     r9,386
 18087f8:	39 29 c8 20 	addi    r9,r9,-14304
 18087fc:	54 00 10 3a 	rlwinm  r0,r0,2,0,29
 1808800:	7c 09 02 14 	add     r0,r9,r0
 1808804:	81 3f 01 dc 	lwz     r9,476(r31)
 1808808:	7c 0b 03 78 	mr      r11,r0
 180880c:	91 2b 00 00 	stw     r9,0(r11)
 1808810:	3c 00 01 82 	lis     r0,386
 1808814:	7c 09 03 78 	mr      r9,r0
 1808818:	80 09 c7 fc 	lwz     r0,-14340(r9)
 180881c:	31 20 00 03 	addic   r9,r0,3
 1808820:	3c 00 01 82 	lis     r0,386
 1808824:	7c 0b 03 78 	mr      r11,r0
 1808828:	91 2b c7 fc 	stw     r9,-14340(r11)
 180882c:	3c 00 01 82 	lis     r0,386
 1808830:	7c 09 03 78 	mr      r9,r0
 1808834:	80 09 c7 f8 	lwz     r0,-14344(r9)
 1808838:	2f 80 00 04 	cmpwi   cr7,r0,4
 180883c:	40 9d 01 8c 	ble-    cr7,18089c8 <main+0x87a8>
 1808840:	3c 00 01 82 	lis     r0,386
 1808844:	7c 0b 03 78 	mr      r11,r0
 1808848:	80 0b c7 fc 	lwz     r0,-14340(r11)
 180884c:	30 00 00 03 	addic   r0,r0,3
 1808850:	2f 80 00 06 	cmpwi   cr7,r0,6
 1808854:	41 9d 01 74 	bgt-    cr7,18089c8 <main+0x87a8>
 1808858:	3c 00 01 82 	lis     r0,386
 180885c:	30 00 c8 44 	addic   r0,r0,-14268
 1808860:	7c 0b 03 78 	mr      r11,r0
 1808864:	81 2b 00 00 	lwz     r9,0(r11)
 1808868:	3c 00 01 82 	lis     r0,386
 180886c:	30 00 c8 44 	addic   r0,r0,-14268
 1808870:	7c 0b 03 78 	mr      r11,r0
 1808874:	80 0b 00 10 	lwz     r0,16(r11)
 1808878:	7f 89 00 00 	cmpw    cr7,r9,r0
 180887c:	40 9e 01 4c 	bne-    cr7,18089c8 <main+0x87a8>
 1808880:	3c 00 01 82 	lis     r0,386
 1808884:	30 00 c8 44 	addic   r0,r0,-14268
 1808888:	7c 0b 03 78 	mr      r11,r0
 180888c:	81 2b 00 00 	lwz     r9,0(r11)
 1808890:	3c 00 01 82 	lis     r0,386
 1808894:	30 00 c8 44 	addic   r0,r0,-14268
 1808898:	7c 0b 03 78 	mr      r11,r0
 180889c:	80 0b 00 08 	lwz     r0,8(r11)
 18088a0:	7f 89 00 00 	cmpw    cr7,r9,r0
 18088a4:	40 9e 01 24 	bne-    cr7,18089c8 <main+0x87a8>
 18088a8:	3c 00 01 82 	lis     r0,386
 18088ac:	30 00 c8 44 	addic   r0,r0,-14268
 18088b0:	7c 09 03 78 	mr      r9,r0
 18088b4:	80 09 00 0c 	lwz     r0,12(r9)
 18088b8:	90 1f 01 d8 	stw     r0,472(r31)
 18088bc:	3c 00 01 82 	lis     r0,386
 18088c0:	30 00 c8 44 	addic   r0,r0,-14268
 18088c4:	7c 0b 03 78 	mr      r11,r0
 18088c8:	80 0b 00 00 	lwz     r0,0(r11)
 18088cc:	90 1f 01 d4 	stw     r0,468(r31)
 18088d0:	81 3f 01 d4 	lwz     r9,468(r31)
 18088d4:	80 1f 01 d8 	lwz     r0,472(r31)
 18088d8:	7f 89 00 00 	cmpw    cr7,r9,r0
 18088dc:	40 9d 00 ec 	ble-    cr7,18089c8 <main+0x87a8>
 18088e0:	3c 00 01 82 	lis     r0,386
 18088e4:	30 00 c8 44 	addic   r0,r0,-14268
 18088e8:	7c 0b 03 78 	mr      r11,r0
 18088ec:	81 2b 00 04 	lwz     r9,4(r11)
 18088f0:	3c 00 01 82 	lis     r0,386
 18088f4:	30 00 c8 44 	addic   r0,r0,-14268
 18088f8:	7c 0b 03 78 	mr      r11,r0
 18088fc:	91 2b 00 00 	stw     r9,0(r11)
 1808900:	3c 00 01 82 	lis     r0,386
 1808904:	7c 09 03 78 	mr      r9,r0
 1808908:	80 09 c7 f8 	lwz     r0,-14344(r9)
 180890c:	31 20 ff fc 	addic   r9,r0,-4
 1808910:	3c 00 01 82 	lis     r0,386
 1808914:	7c 0b 03 78 	mr      r11,r0
 1808918:	91 2b c7 f8 	stw     r9,-14344(r11)
 180891c:	81 3f 01 d8 	lwz     r9,472(r31)
 1808920:	80 1f 01 d4 	lwz     r0,468(r31)
 1808924:	7c 09 02 14 	add     r0,r9,r0
 1808928:	90 1f 01 d0 	stw     r0,464(r31)
 180892c:	3c 00 01 82 	lis     r0,386
 1808930:	7c 09 03 78 	mr      r9,r0
 1808934:	80 09 c7 fc 	lwz     r0,-14340(r9)
 1808938:	3d 20 01 82 	lis     r9,386
 180893c:	39 29 c8 20 	addi    r9,r9,-14304
 1808940:	54 00 10 3a 	rlwinm  r0,r0,2,0,29
 1808944:	7c 09 02 14 	add     r0,r9,r0
 1808948:	81 3f 01 d8 	lwz     r9,472(r31)
 180894c:	7c 0b 03 78 	mr      r11,r0
 1808950:	91 2b 00 00 	stw     r9,0(r11)
 1808954:	3c 00 01 82 	lis     r0,386
 1808958:	7c 09 03 78 	mr      r9,r0
 180895c:	80 09 c7 fc 	lwz     r0,-14340(r9)
 1808960:	30 00 00 01 	addic   r0,r0,1
 1808964:	3d 20 01 82 	lis     r9,386
 1808968:	39 29 c8 20 	addi    r9,r9,-14304
 180896c:	54 00 10 3a 	rlwinm  r0,r0,2,0,29
 1808970:	7c 09 02 14 	add     r0,r9,r0
 1808974:	81 3f 01 d4 	lwz     r9,468(r31)
 1808978:	7c 0b 03 78 	mr      r11,r0
 180897c:	91 2b 00 00 	stw     r9,0(r11)
 1808980:	3c 00 01 82 	lis     r0,386
 1808984:	7c 09 03 78 	mr      r9,r0
 1808988:	80 09 c7 fc 	lwz     r0,-14340(r9)
 180898c:	30 00 00 02 	addic   r0,r0,2
 1808990:	3d 20 01 82 	lis     r9,386
 1808994:	39 29 c8 20 	addi    r9,r9,-14304
 1808998:	54 00 10 3a 	rlwinm  r0,r0,2,0,29
 180899c:	7c 09 02 14 	add     r0,r9,r0
 18089a0:	81 3f 01 d0 	lwz     r9,464(r31)
 18089a4:	7c 0b 03 78 	mr      r11,r0
 18089a8:	91 2b 00 00 	stw     r9,0(r11)
 18089ac:	3c 00 01 82 	lis     r0,386
 18089b0:	7c 09 03 78 	mr      r9,r0
 18089b4:	80 09 c7 fc 	lwz     r0,-14340(r9)
 18089b8:	31 20 00 03 	addic   r9,r0,3
 18089bc:	3c 00 01 82 	lis     r0,386
 18089c0:	7c 0b 03 78 	mr      r11,r0
 18089c4:	91 2b c7 fc 	stw     r9,-14340(r11)
 18089c8:	3c 00 01 82 	lis     r0,386
 18089cc:	7c 09 03 78 	mr      r9,r0
 18089d0:	80 09 c7 f8 	lwz     r0,-14344(r9)
 18089d4:	2f 80 00 04 	cmpwi   cr7,r0,4
 18089d8:	40 9d 01 8c 	ble-    cr7,1808b64 <main+0x8944>
 18089dc:	3c 00 01 82 	lis     r0,386
 18089e0:	7c 0b 03 78 	mr      r11,r0
 18089e4:	80 0b c7 fc 	lwz     r0,-14340(r11)
 18089e8:	30 00 00 03 	addic   r0,r0,3
 18089ec:	2f 80 00 06 	cmpwi   cr7,r0,6
 18089f0:	41 9d 01 74 	bgt-    cr7,1808b64 <main+0x8944>
 18089f4:	3c 00 01 82 	lis     r0,386
 18089f8:	30 00 c8 44 	addic   r0,r0,-14268
 18089fc:	7c 0b 03 78 	mr      r11,r0
 1808a00:	81 2b 00 04 	lwz     r9,4(r11)
 1808a04:	3c 00 01 82 	lis     r0,386
 1808a08:	30 00 c8 44 	addic   r0,r0,-14268
 1808a0c:	7c 0b 03 78 	mr      r11,r0
 1808a10:	80 0b 00 00 	lwz     r0,0(r11)
 1808a14:	7f 89 00 00 	cmpw    cr7,r9,r0
 1808a18:	40 9e 01 4c 	bne-    cr7,1808b64 <main+0x8944>
 1808a1c:	3c 00 01 82 	lis     r0,386
 1808a20:	30 00 c8 44 	addic   r0,r0,-14268
 1808a24:	7c 0b 03 78 	mr      r11,r0
 1808a28:	81 2b 00 04 	lwz     r9,4(r11)
 1808a2c:	3c 00 01 82 	lis     r0,386
 1808a30:	30 00 c8 44 	addic   r0,r0,-14268
 1808a34:	7c 0b 03 78 	mr      r11,r0
 1808a38:	80 0b 00 10 	lwz     r0,16(r11)
 1808a3c:	7f 89 00 00 	cmpw    cr7,r9,r0
 1808a40:	40 9e 01 24 	bne-    cr7,1808b64 <main+0x8944>
 1808a44:	3c 00 01 82 	lis     r0,386
 1808a48:	30 00 c8 44 	addic   r0,r0,-14268
 1808a4c:	7c 09 03 78 	mr      r9,r0
 1808a50:	80 09 00 0c 	lwz     r0,12(r9)
 1808a54:	90 1f 01 cc 	stw     r0,460(r31)
 1808a58:	3c 00 01 82 	lis     r0,386
 1808a5c:	30 00 c8 44 	addic   r0,r0,-14268
 1808a60:	7c 0b 03 78 	mr      r11,r0
 1808a64:	80 0b 00 04 	lwz     r0,4(r11)
 1808a68:	90 1f 01 c8 	stw     r0,456(r31)
 1808a6c:	81 3f 01 c8 	lwz     r9,456(r31)
 1808a70:	80 1f 01 cc 	lwz     r0,460(r31)
 1808a74:	7f 89 00 00 	cmpw    cr7,r9,r0
 1808a78:	40 9d 00 ec 	ble-    cr7,1808b64 <main+0x8944>
 1808a7c:	3c 00 01 82 	lis     r0,386
 1808a80:	30 00 c8 44 	addic   r0,r0,-14268
 1808a84:	7c 0b 03 78 	mr      r11,r0
 1808a88:	81 2b 00 08 	lwz     r9,8(r11)
 1808a8c:	3c 00 01 82 	lis     r0,386
 1808a90:	30 00 c8 44 	addic   r0,r0,-14268
 1808a94:	7c 0b 03 78 	mr      r11,r0
 1808a98:	91 2b 00 00 	stw     r9,0(r11)
 1808a9c:	3c 00 01 82 	lis     r0,386
 1808aa0:	7c 09 03 78 	mr      r9,r0
 1808aa4:	80 09 c7 f8 	lwz     r0,-14344(r9)
 1808aa8:	31 20 ff fc 	addic   r9,r0,-4
 1808aac:	3c 00 01 82 	lis     r0,386
 1808ab0:	7c 0b 03 78 	mr      r11,r0
 1808ab4:	91 2b c7 f8 	stw     r9,-14344(r11)
 1808ab8:	81 3f 01 cc 	lwz     r9,460(r31)
 1808abc:	80 1f 01 c8 	lwz     r0,456(r31)
 1808ac0:	7c 09 02 14 	add     r0,r9,r0
 1808ac4:	90 1f 01 c4 	stw     r0,452(r31)
 1808ac8:	3c 00 01 82 	lis     r0,386
 1808acc:	7c 09 03 78 	mr      r9,r0
 1808ad0:	80 09 c7 fc 	lwz     r0,-14340(r9)
 1808ad4:	3d 20 01 82 	lis     r9,386
 1808ad8:	39 29 c8 20 	addi    r9,r9,-14304
 1808adc:	54 00 10 3a 	rlwinm  r0,r0,2,0,29
 1808ae0:	7c 09 02 14 	add     r0,r9,r0
 1808ae4:	81 3f 01 cc 	lwz     r9,460(r31)
 1808ae8:	7c 0b 03 78 	mr      r11,r0
 1808aec:	91 2b 00 00 	stw     r9,0(r11)
 1808af0:	3c 00 01 82 	lis     r0,386
 1808af4:	7c 09 03 78 	mr      r9,r0
 1808af8:	80 09 c7 fc 	lwz     r0,-14340(r9)
 1808afc:	30 00 00 01 	addic   r0,r0,1
 1808b00:	3d 20 01 82 	lis     r9,386
 1808b04:	39 29 c8 20 	addi    r9,r9,-14304
 1808b08:	54 00 10 3a 	rlwinm  r0,r0,2,0,29
 1808b0c:	7c 09 02 14 	add     r0,r9,r0
 1808b10:	81 3f 01 c8 	lwz     r9,456(r31)
 1808b14:	7c 0b 03 78 	mr      r11,r0
 1808b18:	91 2b 00 00 	stw     r9,0(r11)
 1808b1c:	3c 00 01 82 	lis     r0,386
 1808b20:	7c 09 03 78 	mr      r9,r0
 1808b24:	80 09 c7 fc 	lwz     r0,-14340(r9)
 1808b28:	30 00 00 02 	addic   r0,r0,2
 1808b2c:	3d 20 01 82 	lis     r9,386
 1808b30:	39 29 c8 20 	addi    r9,r9,-14304
 1808b34:	54 00 10 3a 	rlwinm  r0,r0,2,0,29
 1808b38:	7c 09 02 14 	add     r0,r9,r0
 1808b3c:	81 3f 01 c4 	lwz     r9,452(r31)
 1808b40:	7c 0b 03 78 	mr      r11,r0
 1808b44:	91 2b 00 00 	stw     r9,0(r11)
 1808b48:	3c 00 01 82 	lis     r0,386
 1808b4c:	7c 09 03 78 	mr      r9,r0
 1808b50:	80 09 c7 fc 	lwz     r0,-14340(r9)
 1808b54:	31 20 00 03 	addic   r9,r0,3
 1808b58:	3c 00 01 82 	lis     r0,386
 1808b5c:	7c 0b 03 78 	mr      r11,r0
 1808b60:	91 2b c7 fc 	stw     r9,-14340(r11)
 1808b64:	3c 00 01 82 	lis     r0,386
 1808b68:	7c 09 03 78 	mr      r9,r0
 1808b6c:	80 09 c7 f8 	lwz     r0,-14344(r9)
 1808b70:	2f 80 00 04 	cmpwi   cr7,r0,4
 1808b74:	40 9d 01 6c 	ble-    cr7,1808ce0 <main+0x8ac0>
 1808b78:	3c 00 01 82 	lis     r0,386
 1808b7c:	7c 0b 03 78 	mr      r11,r0
 1808b80:	80 0b c7 fc 	lwz     r0,-14340(r11)
 1808b84:	30 00 00 03 	addic   r0,r0,3
 1808b88:	2f 80 00 06 	cmpwi   cr7,r0,6
 1808b8c:	41 9d 01 54 	bgt-    cr7,1808ce0 <main+0x8ac0>
 1808b90:	3c 00 01 82 	lis     r0,386
 1808b94:	30 00 c8 44 	addic   r0,r0,-14268
 1808b98:	7c 0b 03 78 	mr      r11,r0
 1808b9c:	81 2b 00 04 	lwz     r9,4(r11)
 1808ba0:	3c 00 01 82 	lis     r0,386
 1808ba4:	30 00 c8 44 	addic   r0,r0,-14268
 1808ba8:	7c 0b 03 78 	mr      r11,r0
 1808bac:	80 0b 00 08 	lwz     r0,8(r11)
 1808bb0:	7f 89 00 00 	cmpw    cr7,r9,r0
 1808bb4:	40 9e 01 2c 	bne-    cr7,1808ce0 <main+0x8ac0>
 1808bb8:	3c 00 01 82 	lis     r0,386
 1808bbc:	30 00 c8 44 	addic   r0,r0,-14268
 1808bc0:	7c 0b 03 78 	mr      r11,r0
 1808bc4:	81 2b 00 04 	lwz     r9,4(r11)
 1808bc8:	3c 00 01 82 	lis     r0,386
 1808bcc:	30 00 c8 44 	addic   r0,r0,-14268
 1808bd0:	7c 0b 03 78 	mr      r11,r0
 1808bd4:	80 0b 00 10 	lwz     r0,16(r11)
 1808bd8:	7f 89 00 00 	cmpw    cr7,r9,r0
 1808bdc:	40 9e 01 04 	bne-    cr7,1808ce0 <main+0x8ac0>
 1808be0:	3c 00 01 82 	lis     r0,386
 1808be4:	30 00 c8 44 	addic   r0,r0,-14268
 1808be8:	7c 09 03 78 	mr      r9,r0
 1808bec:	80 09 00 0c 	lwz     r0,12(r9)
 1808bf0:	90 1f 01 c0 	stw     r0,448(r31)
 1808bf4:	3c 00 01 82 	lis     r0,386
 1808bf8:	30 00 c8 44 	addic   r0,r0,-14268
 1808bfc:	7c 0b 03 78 	mr      r11,r0
 1808c00:	80 0b 00 04 	lwz     r0,4(r11)
 1808c04:	90 1f 01 bc 	stw     r0,444(r31)
 1808c08:	81 3f 01 bc 	lwz     r9,444(r31)
 1808c0c:	80 1f 01 c0 	lwz     r0,448(r31)
 1808c10:	7f 89 00 00 	cmpw    cr7,r9,r0
 1808c14:	40 9d 00 cc 	ble-    cr7,1808ce0 <main+0x8ac0>
 1808c18:	3c 00 01 82 	lis     r0,386
 1808c1c:	7c 09 03 78 	mr      r9,r0
 1808c20:	80 09 c7 f8 	lwz     r0,-14344(r9)
 1808c24:	31 20 ff fc 	addic   r9,r0,-4
 1808c28:	3c 00 01 82 	lis     r0,386
 1808c2c:	7c 0b 03 78 	mr      r11,r0
 1808c30:	91 2b c7 f8 	stw     r9,-14344(r11)
 1808c34:	81 3f 01 c0 	lwz     r9,448(r31)
 1808c38:	80 1f 01 bc 	lwz     r0,444(r31)
 1808c3c:	7c 09 02 14 	add     r0,r9,r0
 1808c40:	90 1f 01 b8 	stw     r0,440(r31)
 1808c44:	3c 00 01 82 	lis     r0,386
 1808c48:	7c 09 03 78 	mr      r9,r0
 1808c4c:	80 09 c7 fc 	lwz     r0,-14340(r9)
 1808c50:	3d 20 01 82 	lis     r9,386
 1808c54:	39 29 c8 20 	addi    r9,r9,-14304
 1808c58:	54 00 10 3a 	rlwinm  r0,r0,2,0,29
 1808c5c:	7c 09 02 14 	add     r0,r9,r0
 1808c60:	81 3f 01 c0 	lwz     r9,448(r31)
 1808c64:	7c 0b 03 78 	mr      r11,r0
 1808c68:	91 2b 00 00 	stw     r9,0(r11)
 1808c6c:	3c 00 01 82 	lis     r0,386
 1808c70:	7c 09 03 78 	mr      r9,r0
 1808c74:	80 09 c7 fc 	lwz     r0,-14340(r9)
 1808c78:	30 00 00 01 	addic   r0,r0,1
 1808c7c:	3d 20 01 82 	lis     r9,386
 1808c80:	39 29 c8 20 	addi    r9,r9,-14304
 1808c84:	54 00 10 3a 	rlwinm  r0,r0,2,0,29
 1808c88:	7c 09 02 14 	add     r0,r9,r0
 1808c8c:	81 3f 01 bc 	lwz     r9,444(r31)
 1808c90:	7c 0b 03 78 	mr      r11,r0
 1808c94:	91 2b 00 00 	stw     r9,0(r11)
 1808c98:	3c 00 01 82 	lis     r0,386
 1808c9c:	7c 09 03 78 	mr      r9,r0
 1808ca0:	80 09 c7 fc 	lwz     r0,-14340(r9)
 1808ca4:	30 00 00 02 	addic   r0,r0,2
 1808ca8:	3d 20 01 82 	lis     r9,386
 1808cac:	39 29 c8 20 	addi    r9,r9,-14304
 1808cb0:	54 00 10 3a 	rlwinm  r0,r0,2,0,29
 1808cb4:	7c 09 02 14 	add     r0,r9,r0
 1808cb8:	81 3f 01 b8 	lwz     r9,440(r31)
 1808cbc:	7c 0b 03 78 	mr      r11,r0
 1808cc0:	91 2b 00 00 	stw     r9,0(r11)
 1808cc4:	3c 00 01 82 	lis     r0,386
 1808cc8:	7c 09 03 78 	mr      r9,r0
 1808ccc:	80 09 c7 fc 	lwz     r0,-14340(r9)
 1808cd0:	31 20 00 03 	addic   r9,r0,3
 1808cd4:	3c 00 01 82 	lis     r0,386
 1808cd8:	7c 0b 03 78 	mr      r11,r0
 1808cdc:	91 2b c7 fc 	stw     r9,-14340(r11)
 1808ce0:	3c 00 01 82 	lis     r0,386
 1808ce4:	7c 09 03 78 	mr      r9,r0
 1808ce8:	80 09 c7 f8 	lwz     r0,-14344(r9)
 1808cec:	2f 80 00 04 	cmpwi   cr7,r0,4
 1808cf0:	40 9d 01 8c 	ble-    cr7,1808e7c <main+0x8c5c>
 1808cf4:	3c 00 01 82 	lis     r0,386
 1808cf8:	7c 0b 03 78 	mr      r11,r0
 1808cfc:	80 0b c7 fc 	lwz     r0,-14340(r11)
 1808d00:	30 00 00 03 	addic   r0,r0,3
 1808d04:	2f 80 00 06 	cmpwi   cr7,r0,6
 1808d08:	41 9d 01 74 	bgt-    cr7,1808e7c <main+0x8c5c>
 1808d0c:	3c 00 01 82 	lis     r0,386
 1808d10:	30 00 c8 44 	addic   r0,r0,-14268
 1808d14:	7c 0b 03 78 	mr      r11,r0
 1808d18:	81 2b 00 04 	lwz     r9,4(r11)
 1808d1c:	3c 00 01 82 	lis     r0,386
 1808d20:	30 00 c8 44 	addic   r0,r0,-14268
 1808d24:	7c 0b 03 78 	mr      r11,r0
 1808d28:	80 0b 00 10 	lwz     r0,16(r11)
 1808d2c:	7f 89 00 00 	cmpw    cr7,r9,r0
 1808d30:	40 9e 01 4c 	bne-    cr7,1808e7c <main+0x8c5c>
 1808d34:	3c 00 01 82 	lis     r0,386
 1808d38:	30 00 c8 44 	addic   r0,r0,-14268
 1808d3c:	7c 0b 03 78 	mr      r11,r0
 1808d40:	81 2b 00 04 	lwz     r9,4(r11)
 1808d44:	3c 00 01 82 	lis     r0,386
 1808d48:	30 00 c8 44 	addic   r0,r0,-14268
 1808d4c:	7c 0b 03 78 	mr      r11,r0
 1808d50:	80 0b 00 00 	lwz     r0,0(r11)
 1808d54:	7f 89 00 00 	cmpw    cr7,r9,r0
 1808d58:	40 9e 01 24 	bne-    cr7,1808e7c <main+0x8c5c>
 1808d5c:	3c 00 01 82 	lis     r0,386
 1808d60:	30 00 c8 44 	addic   r0,r0,-14268
 1808d64:	7c 09 03 78 	mr      r9,r0
 1808d68:	80 09 00 0c 	lwz     r0,12(r9)
 1808d6c:	90 1f 01 b4 	stw     r0,436(r31)
 1808d70:	3c 00 01 82 	lis     r0,386
 1808d74:	30 00 c8 44 	addic   r0,r0,-14268
 1808d78:	7c 0b 03 78 	mr      r11,r0
 1808d7c:	80 0b 00 04 	lwz     r0,4(r11)
 1808d80:	90 1f 01 b0 	stw     r0,432(r31)
 1808d84:	81 3f 01 b0 	lwz     r9,432(r31)
 1808d88:	80 1f 01 b4 	lwz     r0,436(r31)
 1808d8c:	7f 89 00 00 	cmpw    cr7,r9,r0
 1808d90:	40 9d 00 ec 	ble-    cr7,1808e7c <main+0x8c5c>
 1808d94:	3c 00 01 82 	lis     r0,386
 1808d98:	30 00 c8 44 	addic   r0,r0,-14268
 1808d9c:	7c 0b 03 78 	mr      r11,r0
 1808da0:	81 2b 00 08 	lwz     r9,8(r11)
 1808da4:	3c 00 01 82 	lis     r0,386
 1808da8:	30 00 c8 44 	addic   r0,r0,-14268
 1808dac:	7c 0b 03 78 	mr      r11,r0
 1808db0:	91 2b 00 00 	stw     r9,0(r11)
 1808db4:	3c 00 01 82 	lis     r0,386
 1808db8:	7c 09 03 78 	mr      r9,r0
 1808dbc:	80 09 c7 f8 	lwz     r0,-14344(r9)
 1808dc0:	31 20 ff fc 	addic   r9,r0,-4
 1808dc4:	3c 00 01 82 	lis     r0,386
 1808dc8:	7c 0b 03 78 	mr      r11,r0
 1808dcc:	91 2b c7 f8 	stw     r9,-14344(r11)
 1808dd0:	81 3f 01 b4 	lwz     r9,436(r31)
 1808dd4:	80 1f 01 b0 	lwz     r0,432(r31)
 1808dd8:	7c 09 02 14 	add     r0,r9,r0
 1808ddc:	90 1f 01 ac 	stw     r0,428(r31)
 1808de0:	3c 00 01 82 	lis     r0,386
 1808de4:	7c 09 03 78 	mr      r9,r0
 1808de8:	80 09 c7 fc 	lwz     r0,-14340(r9)
 1808dec:	3d 20 01 82 	lis     r9,386
 1808df0:	39 29 c8 20 	addi    r9,r9,-14304
 1808df4:	54 00 10 3a 	rlwinm  r0,r0,2,0,29
 1808df8:	7c 09 02 14 	add     r0,r9,r0
 1808dfc:	81 3f 01 b4 	lwz     r9,436(r31)
 1808e00:	7c 0b 03 78 	mr      r11,r0
 1808e04:	91 2b 00 00 	stw     r9,0(r11)
 1808e08:	3c 00 01 82 	lis     r0,386
 1808e0c:	7c 09 03 78 	mr      r9,r0
 1808e10:	80 09 c7 fc 	lwz     r0,-14340(r9)
 1808e14:	30 00 00 01 	addic   r0,r0,1
 1808e18:	3d 20 01 82 	lis     r9,386
 1808e1c:	39 29 c8 20 	addi    r9,r9,-14304
 1808e20:	54 00 10 3a 	rlwinm  r0,r0,2,0,29
 1808e24:	7c 09 02 14 	add     r0,r9,r0
 1808e28:	81 3f 01 b0 	lwz     r9,432(r31)
 1808e2c:	7c 0b 03 78 	mr      r11,r0
 1808e30:	91 2b 00 00 	stw     r9,0(r11)
 1808e34:	3c 00 01 82 	lis     r0,386
 1808e38:	7c 09 03 78 	mr      r9,r0
 1808e3c:	80 09 c7 fc 	lwz     r0,-14340(r9)
 1808e40:	30 00 00 02 	addic   r0,r0,2
 1808e44:	3d 20 01 82 	lis     r9,386
 1808e48:	39 29 c8 20 	addi    r9,r9,-14304
 1808e4c:	54 00 10 3a 	rlwinm  r0,r0,2,0,29
 1808e50:	7c 09 02 14 	add     r0,r9,r0
 1808e54:	81 3f 01 ac 	lwz     r9,428(r31)
 1808e58:	7c 0b 03 78 	mr      r11,r0
 1808e5c:	91 2b 00 00 	stw     r9,0(r11)
 1808e60:	3c 00 01 82 	lis     r0,386
 1808e64:	7c 09 03 78 	mr      r9,r0
 1808e68:	80 09 c7 fc 	lwz     r0,-14340(r9)
 1808e6c:	31 20 00 03 	addic   r9,r0,3
 1808e70:	3c 00 01 82 	lis     r0,386
 1808e74:	7c 0b 03 78 	mr      r11,r0
 1808e78:	91 2b c7 fc 	stw     r9,-14340(r11)
 1808e7c:	3c 00 01 82 	lis     r0,386
 1808e80:	7c 09 03 78 	mr      r9,r0
 1808e84:	80 09 c7 f8 	lwz     r0,-14344(r9)
 1808e88:	2f 80 00 04 	cmpwi   cr7,r0,4
 1808e8c:	40 9d 01 6c 	ble-    cr7,1808ff8 <main+0x8dd8>
 1808e90:	3c 00 01 82 	lis     r0,386
 1808e94:	7c 0b 03 78 	mr      r11,r0
 1808e98:	80 0b c7 fc 	lwz     r0,-14340(r11)
 1808e9c:	30 00 00 03 	addic   r0,r0,3
 1808ea0:	2f 80 00 06 	cmpwi   cr7,r0,6
 1808ea4:	41 9d 01 54 	bgt-    cr7,1808ff8 <main+0x8dd8>
 1808ea8:	3c 00 01 82 	lis     r0,386
 1808eac:	30 00 c8 44 	addic   r0,r0,-14268
 1808eb0:	7c 0b 03 78 	mr      r11,r0
 1808eb4:	81 2b 00 04 	lwz     r9,4(r11)
 1808eb8:	3c 00 01 82 	lis     r0,386
 1808ebc:	30 00 c8 44 	addic   r0,r0,-14268
 1808ec0:	7c 0b 03 78 	mr      r11,r0
 1808ec4:	80 0b 00 10 	lwz     r0,16(r11)
 1808ec8:	7f 89 00 00 	cmpw    cr7,r9,r0
 1808ecc:	40 9e 01 2c 	bne-    cr7,1808ff8 <main+0x8dd8>
 1808ed0:	3c 00 01 82 	lis     r0,386
 1808ed4:	30 00 c8 44 	addic   r0,r0,-14268
 1808ed8:	7c 0b 03 78 	mr      r11,r0
 1808edc:	81 2b 00 04 	lwz     r9,4(r11)
 1808ee0:	3c 00 01 82 	lis     r0,386
 1808ee4:	30 00 c8 44 	addic   r0,r0,-14268
 1808ee8:	7c 0b 03 78 	mr      r11,r0
 1808eec:	80 0b 00 08 	lwz     r0,8(r11)
 1808ef0:	7f 89 00 00 	cmpw    cr7,r9,r0
 1808ef4:	40 9e 01 04 	bne-    cr7,1808ff8 <main+0x8dd8>
 1808ef8:	3c 00 01 82 	lis     r0,386
 1808efc:	30 00 c8 44 	addic   r0,r0,-14268
 1808f00:	7c 09 03 78 	mr      r9,r0
 1808f04:	80 09 00 0c 	lwz     r0,12(r9)
 1808f08:	90 1f 01 a8 	stw     r0,424(r31)
 1808f0c:	3c 00 01 82 	lis     r0,386
 1808f10:	30 00 c8 44 	addic   r0,r0,-14268
 1808f14:	7c 0b 03 78 	mr      r11,r0
 1808f18:	80 0b 00 04 	lwz     r0,4(r11)
 1808f1c:	90 1f 01 a4 	stw     r0,420(r31)
 1808f20:	81 3f 01 a4 	lwz     r9,420(r31)
 1808f24:	80 1f 01 a8 	lwz     r0,424(r31)
 1808f28:	7f 89 00 00 	cmpw    cr7,r9,r0
 1808f2c:	40 9d 00 cc 	ble-    cr7,1808ff8 <main+0x8dd8>
 1808f30:	3c 00 01 82 	lis     r0,386
 1808f34:	7c 09 03 78 	mr      r9,r0
 1808f38:	80 09 c7 f8 	lwz     r0,-14344(r9)
 1808f3c:	31 20 ff fc 	addic   r9,r0,-4
 1808f40:	3c 00 01 82 	lis     r0,386
 1808f44:	7c 0b 03 78 	mr      r11,r0
 1808f48:	91 2b c7 f8 	stw     r9,-14344(r11)
 1808f4c:	81 3f 01 a8 	lwz     r9,424(r31)
 1808f50:	80 1f 01 a4 	lwz     r0,420(r31)
 1808f54:	7c 09 02 14 	add     r0,r9,r0
 1808f58:	90 1f 01 a0 	stw     r0,416(r31)
 1808f5c:	3c 00 01 82 	lis     r0,386
 1808f60:	7c 09 03 78 	mr      r9,r0
 1808f64:	80 09 c7 fc 	lwz     r0,-14340(r9)
 1808f68:	3d 20 01 82 	lis     r9,386
 1808f6c:	39 29 c8 20 	addi    r9,r9,-14304
 1808f70:	54 00 10 3a 	rlwinm  r0,r0,2,0,29
 1808f74:	7c 09 02 14 	add     r0,r9,r0
 1808f78:	81 3f 01 a8 	lwz     r9,424(r31)
 1808f7c:	7c 0b 03 78 	mr      r11,r0
 1808f80:	91 2b 00 00 	stw     r9,0(r11)
 1808f84:	3c 00 01 82 	lis     r0,386
 1808f88:	7c 09 03 78 	mr      r9,r0
 1808f8c:	80 09 c7 fc 	lwz     r0,-14340(r9)
 1808f90:	30 00 00 01 	addic   r0,r0,1
 1808f94:	3d 20 01 82 	lis     r9,386
 1808f98:	39 29 c8 20 	addi    r9,r9,-14304
 1808f9c:	54 00 10 3a 	rlwinm  r0,r0,2,0,29
 1808fa0:	7c 09 02 14 	add     r0,r9,r0
 1808fa4:	81 3f 01 a4 	lwz     r9,420(r31)
 1808fa8:	7c 0b 03 78 	mr      r11,r0
 1808fac:	91 2b 00 00 	stw     r9,0(r11)
 1808fb0:	3c 00 01 82 	lis     r0,386
 1808fb4:	7c 09 03 78 	mr      r9,r0
 1808fb8:	80 09 c7 fc 	lwz     r0,-14340(r9)
 1808fbc:	30 00 00 02 	addic   r0,r0,2
 1808fc0:	3d 20 01 82 	lis     r9,386
 1808fc4:	39 29 c8 20 	addi    r9,r9,-14304
 1808fc8:	54 00 10 3a 	rlwinm  r0,r0,2,0,29
 1808fcc:	7c 09 02 14 	add     r0,r9,r0
 1808fd0:	81 3f 01 a0 	lwz     r9,416(r31)
 1808fd4:	7c 0b 03 78 	mr      r11,r0
 1808fd8:	91 2b 00 00 	stw     r9,0(r11)
 1808fdc:	3c 00 01 82 	lis     r0,386
 1808fe0:	7c 09 03 78 	mr      r9,r0
 1808fe4:	80 09 c7 fc 	lwz     r0,-14340(r9)
 1808fe8:	31 20 00 03 	addic   r9,r0,3
 1808fec:	3c 00 01 82 	lis     r0,386
 1808ff0:	7c 0b 03 78 	mr      r11,r0
 1808ff4:	91 2b c7 fc 	stw     r9,-14340(r11)
 1808ff8:	3c 00 01 82 	lis     r0,386
 1808ffc:	7c 09 03 78 	mr      r9,r0
 1809000:	80 09 c7 f8 	lwz     r0,-14344(r9)
 1809004:	2f 80 00 04 	cmpwi   cr7,r0,4
 1809008:	40 9d 01 8c 	ble-    cr7,1809194 <main+0x8f74>
 180900c:	3c 00 01 82 	lis     r0,386
 1809010:	7c 0b 03 78 	mr      r11,r0
 1809014:	80 0b c7 fc 	lwz     r0,-14340(r11)
 1809018:	30 00 00 03 	addic   r0,r0,3
 180901c:	2f 80 00 06 	cmpwi   cr7,r0,6
 1809020:	41 9d 01 74 	bgt-    cr7,1809194 <main+0x8f74>
 1809024:	3c 00 01 82 	lis     r0,386
 1809028:	30 00 c8 44 	addic   r0,r0,-14268
 180902c:	7c 0b 03 78 	mr      r11,r0
 1809030:	81 2b 00 08 	lwz     r9,8(r11)
 1809034:	3c 00 01 82 	lis     r0,386
 1809038:	30 00 c8 44 	addic   r0,r0,-14268
 180903c:	7c 0b 03 78 	mr      r11,r0
 1809040:	80 0b 00 00 	lwz     r0,0(r11)
 1809044:	7f 89 00 00 	cmpw    cr7,r9,r0
 1809048:	40 9e 01 4c 	bne-    cr7,1809194 <main+0x8f74>
 180904c:	3c 00 01 82 	lis     r0,386
 1809050:	30 00 c8 44 	addic   r0,r0,-14268
 1809054:	7c 0b 03 78 	mr      r11,r0
 1809058:	81 2b 00 08 	lwz     r9,8(r11)
 180905c:	3c 00 01 82 	lis     r0,386
 1809060:	30 00 c8 44 	addic   r0,r0,-14268
 1809064:	7c 0b 03 78 	mr      r11,r0
 1809068:	80 0b 00 10 	lwz     r0,16(r11)
 180906c:	7f 89 00 00 	cmpw    cr7,r9,r0
 1809070:	40 9e 01 24 	bne-    cr7,1809194 <main+0x8f74>
 1809074:	3c 00 01 82 	lis     r0,386
 1809078:	30 00 c8 44 	addic   r0,r0,-14268
 180907c:	7c 09 03 78 	mr      r9,r0
 1809080:	80 09 00 0c 	lwz     r0,12(r9)
 1809084:	90 1f 01 9c 	stw     r0,412(r31)
 1809088:	3c 00 01 82 	lis     r0,386
 180908c:	30 00 c8 44 	addic   r0,r0,-14268
 1809090:	7c 0b 03 78 	mr      r11,r0
 1809094:	80 0b 00 08 	lwz     r0,8(r11)
 1809098:	90 1f 01 98 	stw     r0,408(r31)
 180909c:	81 3f 01 98 	lwz     r9,408(r31)
 18090a0:	80 1f 01 9c 	lwz     r0,412(r31)
 18090a4:	7f 89 00 00 	cmpw    cr7,r9,r0
 18090a8:	40 9d 00 ec 	ble-    cr7,1809194 <main+0x8f74>
 18090ac:	3c 00 01 82 	lis     r0,386
 18090b0:	30 00 c8 44 	addic   r0,r0,-14268
 18090b4:	7c 0b 03 78 	mr      r11,r0
 18090b8:	81 2b 00 04 	lwz     r9,4(r11)
 18090bc:	3c 00 01 82 	lis     r0,386
 18090c0:	30 00 c8 44 	addic   r0,r0,-14268
 18090c4:	7c 0b 03 78 	mr      r11,r0
 18090c8:	91 2b 00 00 	stw     r9,0(r11)
 18090cc:	3c 00 01 82 	lis     r0,386
 18090d0:	7c 09 03 78 	mr      r9,r0
 18090d4:	80 09 c7 f8 	lwz     r0,-14344(r9)
 18090d8:	31 20 ff fc 	addic   r9,r0,-4
 18090dc:	3c 00 01 82 	lis     r0,386
 18090e0:	7c 0b 03 78 	mr      r11,r0
 18090e4:	91 2b c7 f8 	stw     r9,-14344(r11)
 18090e8:	81 3f 01 9c 	lwz     r9,412(r31)
 18090ec:	80 1f 01 98 	lwz     r0,408(r31)
 18090f0:	7c 09 02 14 	add     r0,r9,r0
 18090f4:	90 1f 01 94 	stw     r0,404(r31)
 18090f8:	3c 00 01 82 	lis     r0,386
 18090fc:	7c 09 03 78 	mr      r9,r0
 1809100:	80 09 c7 fc 	lwz     r0,-14340(r9)
 1809104:	3d 20 01 82 	lis     r9,386
 1809108:	39 29 c8 20 	addi    r9,r9,-14304
 180910c:	54 00 10 3a 	rlwinm  r0,r0,2,0,29
 1809110:	7c 09 02 14 	add     r0,r9,r0
 1809114:	81 3f 01 9c 	lwz     r9,412(r31)
 1809118:	7c 0b 03 78 	mr      r11,r0
 180911c:	91 2b 00 00 	stw     r9,0(r11)
 1809120:	3c 00 01 82 	lis     r0,386
 1809124:	7c 09 03 78 	mr      r9,r0
 1809128:	80 09 c7 fc 	lwz     r0,-14340(r9)
 180912c:	30 00 00 01 	addic   r0,r0,1
 1809130:	3d 20 01 82 	lis     r9,386
 1809134:	39 29 c8 20 	addi    r9,r9,-14304
 1809138:	54 00 10 3a 	rlwinm  r0,r0,2,0,29
 180913c:	7c 09 02 14 	add     r0,r9,r0
 1809140:	81 3f 01 98 	lwz     r9,408(r31)
 1809144:	7c 0b 03 78 	mr      r11,r0
 1809148:	91 2b 00 00 	stw     r9,0(r11)
 180914c:	3c 00 01 82 	lis     r0,386
 1809150:	7c 09 03 78 	mr      r9,r0
 1809154:	80 09 c7 fc 	lwz     r0,-14340(r9)
 1809158:	30 00 00 02 	addic   r0,r0,2
 180915c:	3d 20 01 82 	lis     r9,386
 1809160:	39 29 c8 20 	addi    r9,r9,-14304
 1809164:	54 00 10 3a 	rlwinm  r0,r0,2,0,29
 1809168:	7c 09 02 14 	add     r0,r9,r0
 180916c:	81 3f 01 94 	lwz     r9,404(r31)
 1809170:	7c 0b 03 78 	mr      r11,r0
 1809174:	91 2b 00 00 	stw     r9,0(r11)
 1809178:	3c 00 01 82 	lis     r0,386
 180917c:	7c 09 03 78 	mr      r9,r0
 1809180:	80 09 c7 fc 	lwz     r0,-14340(r9)
 1809184:	31 20 00 03 	addic   r9,r0,3
 1809188:	3c 00 01 82 	lis     r0,386
 180918c:	7c 0b 03 78 	mr      r11,r0
 1809190:	91 2b c7 fc 	stw     r9,-14340(r11)
 1809194:	3c 00 01 82 	lis     r0,386
 1809198:	7c 09 03 78 	mr      r9,r0
 180919c:	80 09 c7 f8 	lwz     r0,-14344(r9)
 18091a0:	2f 80 00 04 	cmpwi   cr7,r0,4
 18091a4:	40 9d 01 6c 	ble-    cr7,1809310 <main+0x90f0>
 18091a8:	3c 00 01 82 	lis     r0,386
 18091ac:	7c 0b 03 78 	mr      r11,r0
 18091b0:	80 0b c7 fc 	lwz     r0,-14340(r11)
 18091b4:	30 00 00 03 	addic   r0,r0,3
 18091b8:	2f 80 00 06 	cmpwi   cr7,r0,6
 18091bc:	41 9d 01 54 	bgt-    cr7,1809310 <main+0x90f0>
 18091c0:	3c 00 01 82 	lis     r0,386
 18091c4:	30 00 c8 44 	addic   r0,r0,-14268
 18091c8:	7c 0b 03 78 	mr      r11,r0
 18091cc:	81 2b 00 08 	lwz     r9,8(r11)
 18091d0:	3c 00 01 82 	lis     r0,386
 18091d4:	30 00 c8 44 	addic   r0,r0,-14268
 18091d8:	7c 0b 03 78 	mr      r11,r0
 18091dc:	80 0b 00 04 	lwz     r0,4(r11)
 18091e0:	7f 89 00 00 	cmpw    cr7,r9,r0
 18091e4:	40 9e 01 2c 	bne-    cr7,1809310 <main+0x90f0>
 18091e8:	3c 00 01 82 	lis     r0,386
 18091ec:	30 00 c8 44 	addic   r0,r0,-14268
 18091f0:	7c 0b 03 78 	mr      r11,r0
 18091f4:	81 2b 00 08 	lwz     r9,8(r11)
 18091f8:	3c 00 01 82 	lis     r0,386
 18091fc:	30 00 c8 44 	addic   r0,r0,-14268
 1809200:	7c 0b 03 78 	mr      r11,r0
 1809204:	80 0b 00 10 	lwz     r0,16(r11)
 1809208:	7f 89 00 00 	cmpw    cr7,r9,r0
 180920c:	40 9e 01 04 	bne-    cr7,1809310 <main+0x90f0>
 1809210:	3c 00 01 82 	lis     r0,386
 1809214:	30 00 c8 44 	addic   r0,r0,-14268
 1809218:	7c 09 03 78 	mr      r9,r0
 180921c:	80 09 00 0c 	lwz     r0,12(r9)
 1809220:	90 1f 01 90 	stw     r0,400(r31)
 1809224:	3c 00 01 82 	lis     r0,386
 1809228:	30 00 c8 44 	addic   r0,r0,-14268
 180922c:	7c 0b 03 78 	mr      r11,r0
 1809230:	80 0b 00 08 	lwz     r0,8(r11)
 1809234:	90 1f 01 8c 	stw     r0,396(r31)
 1809238:	81 3f 01 8c 	lwz     r9,396(r31)
 180923c:	80 1f 01 90 	lwz     r0,400(r31)
 1809240:	7f 89 00 00 	cmpw    cr7,r9,r0
 1809244:	40 9d 00 cc 	ble-    cr7,1809310 <main+0x90f0>
 1809248:	3c 00 01 82 	lis     r0,386
 180924c:	7c 09 03 78 	mr      r9,r0
 1809250:	80 09 c7 f8 	lwz     r0,-14344(r9)
 1809254:	31 20 ff fc 	addic   r9,r0,-4
 1809258:	3c 00 01 82 	lis     r0,386
 180925c:	7c 0b 03 78 	mr      r11,r0
 1809260:	91 2b c7 f8 	stw     r9,-14344(r11)
 1809264:	81 3f 01 90 	lwz     r9,400(r31)
 1809268:	80 1f 01 8c 	lwz     r0,396(r31)
 180926c:	7c 09 02 14 	add     r0,r9,r0
 1809270:	90 1f 01 88 	stw     r0,392(r31)
 1809274:	3c 00 01 82 	lis     r0,386
 1809278:	7c 09 03 78 	mr      r9,r0
 180927c:	80 09 c7 fc 	lwz     r0,-14340(r9)
 1809280:	3d 20 01 82 	lis     r9,386
 1809284:	39 29 c8 20 	addi    r9,r9,-14304
 1809288:	54 00 10 3a 	rlwinm  r0,r0,2,0,29
 180928c:	7c 09 02 14 	add     r0,r9,r0
 1809290:	81 3f 01 90 	lwz     r9,400(r31)
 1809294:	7c 0b 03 78 	mr      r11,r0
 1809298:	91 2b 00 00 	stw     r9,0(r11)
 180929c:	3c 00 01 82 	lis     r0,386
 18092a0:	7c 09 03 78 	mr      r9,r0
 18092a4:	80 09 c7 fc 	lwz     r0,-14340(r9)
 18092a8:	30 00 00 01 	addic   r0,r0,1
 18092ac:	3d 20 01 82 	lis     r9,386
 18092b0:	39 29 c8 20 	addi    r9,r9,-14304
 18092b4:	54 00 10 3a 	rlwinm  r0,r0,2,0,29
 18092b8:	7c 09 02 14 	add     r0,r9,r0
 18092bc:	81 3f 01 8c 	lwz     r9,396(r31)
 18092c0:	7c 0b 03 78 	mr      r11,r0
 18092c4:	91 2b 00 00 	stw     r9,0(r11)
 18092c8:	3c 00 01 82 	lis     r0,386
 18092cc:	7c 09 03 78 	mr      r9,r0
 18092d0:	80 09 c7 fc 	lwz     r0,-14340(r9)
 18092d4:	30 00 00 02 	addic   r0,r0,2
 18092d8:	3d 20 01 82 	lis     r9,386
 18092dc:	39 29 c8 20 	addi    r9,r9,-14304
 18092e0:	54 00 10 3a 	rlwinm  r0,r0,2,0,29
 18092e4:	7c 09 02 14 	add     r0,r9,r0
 18092e8:	81 3f 01 88 	lwz     r9,392(r31)
 18092ec:	7c 0b 03 78 	mr      r11,r0
 18092f0:	91 2b 00 00 	stw     r9,0(r11)
 18092f4:	3c 00 01 82 	lis     r0,386
 18092f8:	7c 09 03 78 	mr      r9,r0
 18092fc:	80 09 c7 fc 	lwz     r0,-14340(r9)
 1809300:	31 20 00 03 	addic   r9,r0,3
 1809304:	3c 00 01 82 	lis     r0,386
 1809308:	7c 0b 03 78 	mr      r11,r0
 180930c:	91 2b c7 fc 	stw     r9,-14340(r11)
 1809310:	3c 00 01 82 	lis     r0,386
 1809314:	7c 09 03 78 	mr      r9,r0
 1809318:	80 09 c7 f8 	lwz     r0,-14344(r9)
 180931c:	2f 80 00 04 	cmpwi   cr7,r0,4
 1809320:	40 9d 01 8c 	ble-    cr7,18094ac <main+0x928c>
 1809324:	3c 00 01 82 	lis     r0,386
 1809328:	7c 0b 03 78 	mr      r11,r0
 180932c:	80 0b c7 fc 	lwz     r0,-14340(r11)
 1809330:	30 00 00 03 	addic   r0,r0,3
 1809334:	2f 80 00 06 	cmpwi   cr7,r0,6
 1809338:	41 9d 01 74 	bgt-    cr7,18094ac <main+0x928c>
 180933c:	3c 00 01 82 	lis     r0,386
 1809340:	30 00 c8 44 	addic   r0,r0,-14268
 1809344:	7c 0b 03 78 	mr      r11,r0
 1809348:	81 2b 00 08 	lwz     r9,8(r11)
 180934c:	3c 00 01 82 	lis     r0,386
 1809350:	30 00 c8 44 	addic   r0,r0,-14268
 1809354:	7c 0b 03 78 	mr      r11,r0
 1809358:	80 0b 00 10 	lwz     r0,16(r11)
 180935c:	7f 89 00 00 	cmpw    cr7,r9,r0
 1809360:	40 9e 01 4c 	bne-    cr7,18094ac <main+0x928c>
 1809364:	3c 00 01 82 	lis     r0,386
 1809368:	30 00 c8 44 	addic   r0,r0,-14268
 180936c:	7c 0b 03 78 	mr      r11,r0
 1809370:	81 2b 00 08 	lwz     r9,8(r11)
 1809374:	3c 00 01 82 	lis     r0,386
 1809378:	30 00 c8 44 	addic   r0,r0,-14268
 180937c:	7c 0b 03 78 	mr      r11,r0
 1809380:	80 0b 00 00 	lwz     r0,0(r11)
 1809384:	7f 89 00 00 	cmpw    cr7,r9,r0
 1809388:	40 9e 01 24 	bne-    cr7,18094ac <main+0x928c>
 180938c:	3c 00 01 82 	lis     r0,386
 1809390:	30 00 c8 44 	addic   r0,r0,-14268
 1809394:	7c 09 03 78 	mr      r9,r0
 1809398:	80 09 00 0c 	lwz     r0,12(r9)
 180939c:	90 1f 01 84 	stw     r0,388(r31)
 18093a0:	3c 00 01 82 	lis     r0,386
 18093a4:	30 00 c8 44 	addic   r0,r0,-14268
 18093a8:	7c 0b 03 78 	mr      r11,r0
 18093ac:	80 0b 00 08 	lwz     r0,8(r11)
 18093b0:	90 1f 01 80 	stw     r0,384(r31)
 18093b4:	81 3f 01 80 	lwz     r9,384(r31)
 18093b8:	80 1f 01 84 	lwz     r0,388(r31)
 18093bc:	7f 89 00 00 	cmpw    cr7,r9,r0
 18093c0:	40 9d 00 ec 	ble-    cr7,18094ac <main+0x928c>
 18093c4:	3c 00 01 82 	lis     r0,386
 18093c8:	30 00 c8 44 	addic   r0,r0,-14268
 18093cc:	7c 0b 03 78 	mr      r11,r0
 18093d0:	81 2b 00 04 	lwz     r9,4(r11)
 18093d4:	3c 00 01 82 	lis     r0,386
 18093d8:	30 00 c8 44 	addic   r0,r0,-14268
 18093dc:	7c 0b 03 78 	mr      r11,r0
 18093e0:	91 2b 00 00 	stw     r9,0(r11)
 18093e4:	3c 00 01 82 	lis     r0,386
 18093e8:	7c 09 03 78 	mr      r9,r0
 18093ec:	80 09 c7 f8 	lwz     r0,-14344(r9)
 18093f0:	31 20 ff fc 	addic   r9,r0,-4
 18093f4:	3c 00 01 82 	lis     r0,386
 18093f8:	7c 0b 03 78 	mr      r11,r0
 18093fc:	91 2b c7 f8 	stw     r9,-14344(r11)
 1809400:	81 3f 01 84 	lwz     r9,388(r31)
 1809404:	80 1f 01 80 	lwz     r0,384(r31)
 1809408:	7c 09 02 14 	add     r0,r9,r0
 180940c:	90 1f 01 7c 	stw     r0,380(r31)
 1809410:	3c 00 01 82 	lis     r0,386
 1809414:	7c 09 03 78 	mr      r9,r0
 1809418:	80 09 c7 fc 	lwz     r0,-14340(r9)
 180941c:	3d 20 01 82 	lis     r9,386
 1809420:	39 29 c8 20 	addi    r9,r9,-14304
 1809424:	54 00 10 3a 	rlwinm  r0,r0,2,0,29
 1809428:	7c 09 02 14 	add     r0,r9,r0
 180942c:	81 3f 01 84 	lwz     r9,388(r31)
 1809430:	7c 0b 03 78 	mr      r11,r0
 1809434:	91 2b 00 00 	stw     r9,0(r11)
 1809438:	3c 00 01 82 	lis     r0,386
 180943c:	7c 09 03 78 	mr      r9,r0
 1809440:	80 09 c7 fc 	lwz     r0,-14340(r9)
 1809444:	30 00 00 01 	addic   r0,r0,1
 1809448:	3d 20 01 82 	lis     r9,386
 180944c:	39 29 c8 20 	addi    r9,r9,-14304
 1809450:	54 00 10 3a 	rlwinm  r0,r0,2,0,29
 1809454:	7c 09 02 14 	add     r0,r9,r0
 1809458:	81 3f 01 80 	lwz     r9,384(r31)
 180945c:	7c 0b 03 78 	mr      r11,r0
 1809460:	91 2b 00 00 	stw     r9,0(r11)
 1809464:	3c 00 01 82 	lis     r0,386
 1809468:	7c 09 03 78 	mr      r9,r0
 180946c:	80 09 c7 fc 	lwz     r0,-14340(r9)
 1809470:	30 00 00 02 	addic   r0,r0,2
 1809474:	3d 20 01 82 	lis     r9,386
 1809478:	39 29 c8 20 	addi    r9,r9,-14304
 180947c:	54 00 10 3a 	rlwinm  r0,r0,2,0,29
 1809480:	7c 09 02 14 	add     r0,r9,r0
 1809484:	81 3f 01 7c 	lwz     r9,380(r31)
 1809488:	7c 0b 03 78 	mr      r11,r0
 180948c:	91 2b 00 00 	stw     r9,0(r11)
 1809490:	3c 00 01 82 	lis     r0,386
 1809494:	7c 09 03 78 	mr      r9,r0
 1809498:	80 09 c7 fc 	lwz     r0,-14340(r9)
 180949c:	31 20 00 03 	addic   r9,r0,3
 18094a0:	3c 00 01 82 	lis     r0,386
 18094a4:	7c 0b 03 78 	mr      r11,r0
 18094a8:	91 2b c7 fc 	stw     r9,-14340(r11)
 18094ac:	3c 00 01 82 	lis     r0,386
 18094b0:	7c 09 03 78 	mr      r9,r0
 18094b4:	80 09 c7 f8 	lwz     r0,-14344(r9)
 18094b8:	2f 80 00 04 	cmpwi   cr7,r0,4
 18094bc:	40 9d 01 6c 	ble-    cr7,1809628 <main+0x9408>
 18094c0:	3c 00 01 82 	lis     r0,386
 18094c4:	7c 0b 03 78 	mr      r11,r0
 18094c8:	80 0b c7 fc 	lwz     r0,-14340(r11)
 18094cc:	30 00 00 03 	addic   r0,r0,3
 18094d0:	2f 80 00 06 	cmpwi   cr7,r0,6
 18094d4:	41 9d 01 54 	bgt-    cr7,1809628 <main+0x9408>
 18094d8:	3c 00 01 82 	lis     r0,386
 18094dc:	30 00 c8 44 	addic   r0,r0,-14268
 18094e0:	7c 0b 03 78 	mr      r11,r0
 18094e4:	81 2b 00 08 	lwz     r9,8(r11)
 18094e8:	3c 00 01 82 	lis     r0,386
 18094ec:	30 00 c8 44 	addic   r0,r0,-14268
 18094f0:	7c 0b 03 78 	mr      r11,r0
 18094f4:	80 0b 00 10 	lwz     r0,16(r11)
 18094f8:	7f 89 00 00 	cmpw    cr7,r9,r0
 18094fc:	40 9e 01 2c 	bne-    cr7,1809628 <main+0x9408>
 1809500:	3c 00 01 82 	lis     r0,386
 1809504:	30 00 c8 44 	addic   r0,r0,-14268
 1809508:	7c 0b 03 78 	mr      r11,r0
 180950c:	81 2b 00 08 	lwz     r9,8(r11)
 1809510:	3c 00 01 82 	lis     r0,386
 1809514:	30 00 c8 44 	addic   r0,r0,-14268
 1809518:	7c 0b 03 78 	mr      r11,r0
 180951c:	80 0b 00 04 	lwz     r0,4(r11)
 1809520:	7f 89 00 00 	cmpw    cr7,r9,r0
 1809524:	40 9e 01 04 	bne-    cr7,1809628 <main+0x9408>
 1809528:	3c 00 01 82 	lis     r0,386
 180952c:	30 00 c8 44 	addic   r0,r0,-14268
 1809530:	7c 09 03 78 	mr      r9,r0
 1809534:	80 09 00 0c 	lwz     r0,12(r9)
 1809538:	90 1f 01 78 	stw     r0,376(r31)
 180953c:	3c 00 01 82 	lis     r0,386
 1809540:	30 00 c8 44 	addic   r0,r0,-14268
 1809544:	7c 0b 03 78 	mr      r11,r0
 1809548:	80 0b 00 08 	lwz     r0,8(r11)
 180954c:	90 1f 01 74 	stw     r0,372(r31)
 1809550:	81 3f 01 74 	lwz     r9,372(r31)
 1809554:	80 1f 01 78 	lwz     r0,376(r31)
 1809558:	7f 89 00 00 	cmpw    cr7,r9,r0
 180955c:	40 9d 00 cc 	ble-    cr7,1809628 <main+0x9408>
 1809560:	3c 00 01 82 	lis     r0,386
 1809564:	7c 09 03 78 	mr      r9,r0
 1809568:	80 09 c7 f8 	lwz     r0,-14344(r9)
 180956c:	31 20 ff fc 	addic   r9,r0,-4
 1809570:	3c 00 01 82 	lis     r0,386
 1809574:	7c 0b 03 78 	mr      r11,r0
 1809578:	91 2b c7 f8 	stw     r9,-14344(r11)
 180957c:	81 3f 01 78 	lwz     r9,376(r31)
 1809580:	80 1f 01 74 	lwz     r0,372(r31)
 1809584:	7c 09 02 14 	add     r0,r9,r0
 1809588:	90 1f 01 70 	stw     r0,368(r31)
 180958c:	3c 00 01 82 	lis     r0,386
 1809590:	7c 09 03 78 	mr      r9,r0
 1809594:	80 09 c7 fc 	lwz     r0,-14340(r9)
 1809598:	3d 20 01 82 	lis     r9,386
 180959c:	39 29 c8 20 	addi    r9,r9,-14304
 18095a0:	54 00 10 3a 	rlwinm  r0,r0,2,0,29
 18095a4:	7c 09 02 14 	add     r0,r9,r0
 18095a8:	81 3f 01 78 	lwz     r9,376(r31)
 18095ac:	7c 0b 03 78 	mr      r11,r0
 18095b0:	91 2b 00 00 	stw     r9,0(r11)
 18095b4:	3c 00 01 82 	lis     r0,386
 18095b8:	7c 09 03 78 	mr      r9,r0
 18095bc:	80 09 c7 fc 	lwz     r0,-14340(r9)
 18095c0:	30 00 00 01 	addic   r0,r0,1
 18095c4:	3d 20 01 82 	lis     r9,386
 18095c8:	39 29 c8 20 	addi    r9,r9,-14304
 18095cc:	54 00 10 3a 	rlwinm  r0,r0,2,0,29
 18095d0:	7c 09 02 14 	add     r0,r9,r0
 18095d4:	81 3f 01 74 	lwz     r9,372(r31)
 18095d8:	7c 0b 03 78 	mr      r11,r0
 18095dc:	91 2b 00 00 	stw     r9,0(r11)
 18095e0:	3c 00 01 82 	lis     r0,386
 18095e4:	7c 09 03 78 	mr      r9,r0
 18095e8:	80 09 c7 fc 	lwz     r0,-14340(r9)
 18095ec:	30 00 00 02 	addic   r0,r0,2
 18095f0:	3d 20 01 82 	lis     r9,386
 18095f4:	39 29 c8 20 	addi    r9,r9,-14304
 18095f8:	54 00 10 3a 	rlwinm  r0,r0,2,0,29
 18095fc:	7c 09 02 14 	add     r0,r9,r0
 1809600:	81 3f 01 70 	lwz     r9,368(r31)
 1809604:	7c 0b 03 78 	mr      r11,r0
 1809608:	91 2b 00 00 	stw     r9,0(r11)
 180960c:	3c 00 01 82 	lis     r0,386
 1809610:	7c 09 03 78 	mr      r9,r0
 1809614:	80 09 c7 fc 	lwz     r0,-14340(r9)
 1809618:	31 20 00 03 	addic   r9,r0,3
 180961c:	3c 00 01 82 	lis     r0,386
 1809620:	7c 0b 03 78 	mr      r11,r0
 1809624:	91 2b c7 fc 	stw     r9,-14340(r11)
 1809628:	3c 00 01 82 	lis     r0,386
 180962c:	7c 09 03 78 	mr      r9,r0
 1809630:	80 09 c7 f8 	lwz     r0,-14344(r9)
 1809634:	2f 80 00 04 	cmpwi   cr7,r0,4
 1809638:	40 9d 01 8c 	ble-    cr7,18097c4 <main+0x95a4>
 180963c:	3c 00 01 82 	lis     r0,386
 1809640:	7c 0b 03 78 	mr      r11,r0
 1809644:	80 0b c7 fc 	lwz     r0,-14340(r11)
 1809648:	30 00 00 03 	addic   r0,r0,3
 180964c:	2f 80 00 06 	cmpwi   cr7,r0,6
 1809650:	41 9d 01 74 	bgt-    cr7,18097c4 <main+0x95a4>
 1809654:	3c 00 01 82 	lis     r0,386
 1809658:	30 00 c8 44 	addic   r0,r0,-14268
 180965c:	7c 0b 03 78 	mr      r11,r0
 1809660:	81 2b 00 10 	lwz     r9,16(r11)
 1809664:	3c 00 01 82 	lis     r0,386
 1809668:	30 00 c8 44 	addic   r0,r0,-14268
 180966c:	7c 0b 03 78 	mr      r11,r0
 1809670:	80 0b 00 00 	lwz     r0,0(r11)
 1809674:	7f 89 00 00 	cmpw    cr7,r9,r0
 1809678:	40 9e 01 4c 	bne-    cr7,18097c4 <main+0x95a4>
 180967c:	3c 00 01 82 	lis     r0,386
 1809680:	30 00 c8 44 	addic   r0,r0,-14268
 1809684:	7c 0b 03 78 	mr      r11,r0
 1809688:	81 2b 00 10 	lwz     r9,16(r11)
 180968c:	3c 00 01 82 	lis     r0,386
 1809690:	30 00 c8 44 	addic   r0,r0,-14268
 1809694:	7c 0b 03 78 	mr      r11,r0
 1809698:	80 0b 00 04 	lwz     r0,4(r11)
 180969c:	7f 89 00 00 	cmpw    cr7,r9,r0
 18096a0:	40 9e 01 24 	bne-    cr7,18097c4 <main+0x95a4>
 18096a4:	3c 00 01 82 	lis     r0,386
 18096a8:	30 00 c8 44 	addic   r0,r0,-14268
 18096ac:	7c 09 03 78 	mr      r9,r0
 18096b0:	80 09 00 0c 	lwz     r0,12(r9)
 18096b4:	90 1f 01 6c 	stw     r0,364(r31)
 18096b8:	3c 00 01 82 	lis     r0,386
 18096bc:	30 00 c8 44 	addic   r0,r0,-14268
 18096c0:	7c 0b 03 78 	mr      r11,r0
 18096c4:	80 0b 00 10 	lwz     r0,16(r11)
 18096c8:	90 1f 01 68 	stw     r0,360(r31)
 18096cc:	81 3f 01 68 	lwz     r9,360(r31)
 18096d0:	80 1f 01 6c 	lwz     r0,364(r31)
 18096d4:	7f 89 00 00 	cmpw    cr7,r9,r0
 18096d8:	40 9d 00 ec 	ble-    cr7,18097c4 <main+0x95a4>
 18096dc:	3c 00 01 82 	lis     r0,386
 18096e0:	30 00 c8 44 	addic   r0,r0,-14268
 18096e4:	7c 0b 03 78 	mr      r11,r0
 18096e8:	81 2b 00 08 	lwz     r9,8(r11)
 18096ec:	3c 00 01 82 	lis     r0,386
 18096f0:	30 00 c8 44 	addic   r0,r0,-14268
 18096f4:	7c 0b 03 78 	mr      r11,r0
 18096f8:	91 2b 00 00 	stw     r9,0(r11)
 18096fc:	3c 00 01 82 	lis     r0,386
 1809700:	7c 09 03 78 	mr      r9,r0
 1809704:	80 09 c7 f8 	lwz     r0,-14344(r9)
 1809708:	31 20 ff fc 	addic   r9,r0,-4
 180970c:	3c 00 01 82 	lis     r0,386
 1809710:	7c 0b 03 78 	mr      r11,r0
 1809714:	91 2b c7 f8 	stw     r9,-14344(r11)
 1809718:	81 3f 01 6c 	lwz     r9,364(r31)
 180971c:	80 1f 01 68 	lwz     r0,360(r31)
 1809720:	7c 09 02 14 	add     r0,r9,r0
 1809724:	90 1f 01 64 	stw     r0,356(r31)
 1809728:	3c 00 01 82 	lis     r0,386
 180972c:	7c 09 03 78 	mr      r9,r0
 1809730:	80 09 c7 fc 	lwz     r0,-14340(r9)
 1809734:	3d 20 01 82 	lis     r9,386
 1809738:	39 29 c8 20 	addi    r9,r9,-14304
 180973c:	54 00 10 3a 	rlwinm  r0,r0,2,0,29
 1809740:	7c 09 02 14 	add     r0,r9,r0
 1809744:	81 3f 01 6c 	lwz     r9,364(r31)
 1809748:	7c 0b 03 78 	mr      r11,r0
 180974c:	91 2b 00 00 	stw     r9,0(r11)
 1809750:	3c 00 01 82 	lis     r0,386
 1809754:	7c 09 03 78 	mr      r9,r0
 1809758:	80 09 c7 fc 	lwz     r0,-14340(r9)
 180975c:	30 00 00 01 	addic   r0,r0,1
 1809760:	3d 20 01 82 	lis     r9,386
 1809764:	39 29 c8 20 	addi    r9,r9,-14304
 1809768:	54 00 10 3a 	rlwinm  r0,r0,2,0,29
 180976c:	7c 09 02 14 	add     r0,r9,r0
 1809770:	81 3f 01 68 	lwz     r9,360(r31)
 1809774:	7c 0b 03 78 	mr      r11,r0
 1809778:	91 2b 00 00 	stw     r9,0(r11)
 180977c:	3c 00 01 82 	lis     r0,386
 1809780:	7c 09 03 78 	mr      r9,r0
 1809784:	80 09 c7 fc 	lwz     r0,-14340(r9)
 1809788:	30 00 00 02 	addic   r0,r0,2
 180978c:	3d 20 01 82 	lis     r9,386
 1809790:	39 29 c8 20 	addi    r9,r9,-14304
 1809794:	54 00 10 3a 	rlwinm  r0,r0,2,0,29
 1809798:	7c 09 02 14 	add     r0,r9,r0
 180979c:	81 3f 01 64 	lwz     r9,356(r31)
 18097a0:	7c 0b 03 78 	mr      r11,r0
 18097a4:	91 2b 00 00 	stw     r9,0(r11)
 18097a8:	3c 00 01 82 	lis     r0,386
 18097ac:	7c 09 03 78 	mr      r9,r0
 18097b0:	80 09 c7 fc 	lwz     r0,-14340(r9)
 18097b4:	31 20 00 03 	addic   r9,r0,3
 18097b8:	3c 00 01 82 	lis     r0,386
 18097bc:	7c 0b 03 78 	mr      r11,r0
 18097c0:	91 2b c7 fc 	stw     r9,-14340(r11)
 18097c4:	3c 00 01 82 	lis     r0,386
 18097c8:	7c 09 03 78 	mr      r9,r0
 18097cc:	80 09 c7 f8 	lwz     r0,-14344(r9)
 18097d0:	2f 80 00 04 	cmpwi   cr7,r0,4
 18097d4:	40 9d 01 8c 	ble-    cr7,1809960 <main+0x9740>
 18097d8:	3c 00 01 82 	lis     r0,386
 18097dc:	7c 0b 03 78 	mr      r11,r0
 18097e0:	80 0b c7 fc 	lwz     r0,-14340(r11)
 18097e4:	30 00 00 03 	addic   r0,r0,3
 18097e8:	2f 80 00 06 	cmpwi   cr7,r0,6
 18097ec:	41 9d 01 74 	bgt-    cr7,1809960 <main+0x9740>
 18097f0:	3c 00 01 82 	lis     r0,386
 18097f4:	30 00 c8 44 	addic   r0,r0,-14268
 18097f8:	7c 0b 03 78 	mr      r11,r0
 18097fc:	81 2b 00 10 	lwz     r9,16(r11)
 1809800:	3c 00 01 82 	lis     r0,386
 1809804:	30 00 c8 44 	addic   r0,r0,-14268
 1809808:	7c 0b 03 78 	mr      r11,r0
 180980c:	80 0b 00 00 	lwz     r0,0(r11)
 1809810:	7f 89 00 00 	cmpw    cr7,r9,r0
 1809814:	40 9e 01 4c 	bne-    cr7,1809960 <main+0x9740>
 1809818:	3c 00 01 82 	lis     r0,386
 180981c:	30 00 c8 44 	addic   r0,r0,-14268
 1809820:	7c 0b 03 78 	mr      r11,r0
 1809824:	81 2b 00 10 	lwz     r9,16(r11)
 1809828:	3c 00 01 82 	lis     r0,386
 180982c:	30 00 c8 44 	addic   r0,r0,-14268
 1809830:	7c 0b 03 78 	mr      r11,r0
 1809834:	80 0b 00 08 	lwz     r0,8(r11)
 1809838:	7f 89 00 00 	cmpw    cr7,r9,r0
 180983c:	40 9e 01 24 	bne-    cr7,1809960 <main+0x9740>
 1809840:	3c 00 01 82 	lis     r0,386
 1809844:	30 00 c8 44 	addic   r0,r0,-14268
 1809848:	7c 09 03 78 	mr      r9,r0
 180984c:	80 09 00 0c 	lwz     r0,12(r9)
 1809850:	90 1f 01 60 	stw     r0,352(r31)
 1809854:	3c 00 01 82 	lis     r0,386
 1809858:	30 00 c8 44 	addic   r0,r0,-14268
 180985c:	7c 0b 03 78 	mr      r11,r0
 1809860:	80 0b 00 10 	lwz     r0,16(r11)
 1809864:	90 1f 01 5c 	stw     r0,348(r31)
 1809868:	81 3f 01 5c 	lwz     r9,348(r31)
 180986c:	80 1f 01 60 	lwz     r0,352(r31)
 1809870:	7f 89 00 00 	cmpw    cr7,r9,r0
 1809874:	40 9d 00 ec 	ble-    cr7,1809960 <main+0x9740>
 1809878:	3c 00 01 82 	lis     r0,386
 180987c:	30 00 c8 44 	addic   r0,r0,-14268
 1809880:	7c 0b 03 78 	mr      r11,r0
 1809884:	81 2b 00 04 	lwz     r9,4(r11)
 1809888:	3c 00 01 82 	lis     r0,386
 180988c:	30 00 c8 44 	addic   r0,r0,-14268
 1809890:	7c 0b 03 78 	mr      r11,r0
 1809894:	91 2b 00 00 	stw     r9,0(r11)
 1809898:	3c 00 01 82 	lis     r0,386
 180989c:	7c 09 03 78 	mr      r9,r0
 18098a0:	80 09 c7 f8 	lwz     r0,-14344(r9)
 18098a4:	31 20 ff fc 	addic   r9,r0,-4
 18098a8:	3c 00 01 82 	lis     r0,386
 18098ac:	7c 0b 03 78 	mr      r11,r0
 18098b0:	91 2b c7 f8 	stw     r9,-14344(r11)
 18098b4:	81 3f 01 60 	lwz     r9,352(r31)
 18098b8:	80 1f 01 5c 	lwz     r0,348(r31)
 18098bc:	7c 09 02 14 	add     r0,r9,r0
 18098c0:	90 1f 01 58 	stw     r0,344(r31)
 18098c4:	3c 00 01 82 	lis     r0,386
 18098c8:	7c 09 03 78 	mr      r9,r0
 18098cc:	80 09 c7 fc 	lwz     r0,-14340(r9)
 18098d0:	3d 20 01 82 	lis     r9,386
 18098d4:	39 29 c8 20 	addi    r9,r9,-14304
 18098d8:	54 00 10 3a 	rlwinm  r0,r0,2,0,29
 18098dc:	7c 09 02 14 	add     r0,r9,r0
 18098e0:	81 3f 01 60 	lwz     r9,352(r31)
 18098e4:	7c 0b 03 78 	mr      r11,r0
 18098e8:	91 2b 00 00 	stw     r9,0(r11)
 18098ec:	3c 00 01 82 	lis     r0,386
 18098f0:	7c 09 03 78 	mr      r9,r0
 18098f4:	80 09 c7 fc 	lwz     r0,-14340(r9)
 18098f8:	30 00 00 01 	addic   r0,r0,1
 18098fc:	3d 20 01 82 	lis     r9,386
 1809900:	39 29 c8 20 	addi    r9,r9,-14304
 1809904:	54 00 10 3a 	rlwinm  r0,r0,2,0,29
 1809908:	7c 09 02 14 	add     r0,r9,r0
 180990c:	81 3f 01 5c 	lwz     r9,348(r31)
 1809910:	7c 0b 03 78 	mr      r11,r0
 1809914:	91 2b 00 00 	stw     r9,0(r11)
 1809918:	3c 00 01 82 	lis     r0,386
 180991c:	7c 09 03 78 	mr      r9,r0
 1809920:	80 09 c7 fc 	lwz     r0,-14340(r9)
 1809924:	30 00 00 02 	addic   r0,r0,2
 1809928:	3d 20 01 82 	lis     r9,386
 180992c:	39 29 c8 20 	addi    r9,r9,-14304
 1809930:	54 00 10 3a 	rlwinm  r0,r0,2,0,29
 1809934:	7c 09 02 14 	add     r0,r9,r0
 1809938:	81 3f 01 58 	lwz     r9,344(r31)
 180993c:	7c 0b 03 78 	mr      r11,r0
 1809940:	91 2b 00 00 	stw     r9,0(r11)
 1809944:	3c 00 01 82 	lis     r0,386
 1809948:	7c 09 03 78 	mr      r9,r0
 180994c:	80 09 c7 fc 	lwz     r0,-14340(r9)
 1809950:	31 20 00 03 	addic   r9,r0,3
 1809954:	3c 00 01 82 	lis     r0,386
 1809958:	7c 0b 03 78 	mr      r11,r0
 180995c:	91 2b c7 fc 	stw     r9,-14340(r11)
 1809960:	3c 00 01 82 	lis     r0,386
 1809964:	7c 09 03 78 	mr      r9,r0
 1809968:	80 09 c7 f8 	lwz     r0,-14344(r9)
 180996c:	2f 80 00 04 	cmpwi   cr7,r0,4
 1809970:	40 9d 01 8c 	ble-    cr7,1809afc <main+0x98dc>
 1809974:	3c 00 01 82 	lis     r0,386
 1809978:	7c 0b 03 78 	mr      r11,r0
 180997c:	80 0b c7 fc 	lwz     r0,-14340(r11)
 1809980:	30 00 00 03 	addic   r0,r0,3
 1809984:	2f 80 00 06 	cmpwi   cr7,r0,6
 1809988:	41 9d 01 74 	bgt-    cr7,1809afc <main+0x98dc>
 180998c:	3c 00 01 82 	lis     r0,386
 1809990:	30 00 c8 44 	addic   r0,r0,-14268
 1809994:	7c 0b 03 78 	mr      r11,r0
 1809998:	81 2b 00 10 	lwz     r9,16(r11)
 180999c:	3c 00 01 82 	lis     r0,386
 18099a0:	30 00 c8 44 	addic   r0,r0,-14268
 18099a4:	7c 0b 03 78 	mr      r11,r0
 18099a8:	80 0b 00 04 	lwz     r0,4(r11)
 18099ac:	7f 89 00 00 	cmpw    cr7,r9,r0
 18099b0:	40 9e 01 4c 	bne-    cr7,1809afc <main+0x98dc>
 18099b4:	3c 00 01 82 	lis     r0,386
 18099b8:	30 00 c8 44 	addic   r0,r0,-14268
 18099bc:	7c 0b 03 78 	mr      r11,r0
 18099c0:	81 2b 00 10 	lwz     r9,16(r11)
 18099c4:	3c 00 01 82 	lis     r0,386
 18099c8:	30 00 c8 44 	addic   r0,r0,-14268
 18099cc:	7c 0b 03 78 	mr      r11,r0
 18099d0:	80 0b 00 00 	lwz     r0,0(r11)
 18099d4:	7f 89 00 00 	cmpw    cr7,r9,r0
 18099d8:	40 9e 01 24 	bne-    cr7,1809afc <main+0x98dc>
 18099dc:	3c 00 01 82 	lis     r0,386
 18099e0:	30 00 c8 44 	addic   r0,r0,-14268
 18099e4:	7c 09 03 78 	mr      r9,r0
 18099e8:	80 09 00 0c 	lwz     r0,12(r9)
 18099ec:	90 1f 01 54 	stw     r0,340(r31)
 18099f0:	3c 00 01 82 	lis     r0,386
 18099f4:	30 00 c8 44 	addic   r0,r0,-14268
 18099f8:	7c 0b 03 78 	mr      r11,r0
 18099fc:	80 0b 00 10 	lwz     r0,16(r11)
 1809a00:	90 1f 01 50 	stw     r0,336(r31)
 1809a04:	81 3f 01 50 	lwz     r9,336(r31)
 1809a08:	80 1f 01 54 	lwz     r0,340(r31)
 1809a0c:	7f 89 00 00 	cmpw    cr7,r9,r0
 1809a10:	40 9d 00 ec 	ble-    cr7,1809afc <main+0x98dc>
 1809a14:	3c 00 01 82 	lis     r0,386
 1809a18:	30 00 c8 44 	addic   r0,r0,-14268
 1809a1c:	7c 0b 03 78 	mr      r11,r0
 1809a20:	81 2b 00 08 	lwz     r9,8(r11)
 1809a24:	3c 00 01 82 	lis     r0,386
 1809a28:	30 00 c8 44 	addic   r0,r0,-14268
 1809a2c:	7c 0b 03 78 	mr      r11,r0
 1809a30:	91 2b 00 00 	stw     r9,0(r11)
 1809a34:	3c 00 01 82 	lis     r0,386
 1809a38:	7c 09 03 78 	mr      r9,r0
 1809a3c:	80 09 c7 f8 	lwz     r0,-14344(r9)
 1809a40:	31 20 ff fc 	addic   r9,r0,-4
 1809a44:	3c 00 01 82 	lis     r0,386
 1809a48:	7c 0b 03 78 	mr      r11,r0
 1809a4c:	91 2b c7 f8 	stw     r9,-14344(r11)
 1809a50:	81 3f 01 54 	lwz     r9,340(r31)
 1809a54:	80 1f 01 50 	lwz     r0,336(r31)
 1809a58:	7c 09 02 14 	add     r0,r9,r0
 1809a5c:	90 1f 01 4c 	stw     r0,332(r31)
 1809a60:	3c 00 01 82 	lis     r0,386
 1809a64:	7c 09 03 78 	mr      r9,r0
 1809a68:	80 09 c7 fc 	lwz     r0,-14340(r9)
 1809a6c:	3d 20 01 82 	lis     r9,386
 1809a70:	39 29 c8 20 	addi    r9,r9,-14304
 1809a74:	54 00 10 3a 	rlwinm  r0,r0,2,0,29
 1809a78:	7c 09 02 14 	add     r0,r9,r0
 1809a7c:	81 3f 01 54 	lwz     r9,340(r31)
 1809a80:	7c 0b 03 78 	mr      r11,r0
 1809a84:	91 2b 00 00 	stw     r9,0(r11)
 1809a88:	3c 00 01 82 	lis     r0,386
 1809a8c:	7c 09 03 78 	mr      r9,r0
 1809a90:	80 09 c7 fc 	lwz     r0,-14340(r9)
 1809a94:	30 00 00 01 	addic   r0,r0,1
 1809a98:	3d 20 01 82 	lis     r9,386
 1809a9c:	39 29 c8 20 	addi    r9,r9,-14304
 1809aa0:	54 00 10 3a 	rlwinm  r0,r0,2,0,29
 1809aa4:	7c 09 02 14 	add     r0,r9,r0
 1809aa8:	81 3f 01 50 	lwz     r9,336(r31)
 1809aac:	7c 0b 03 78 	mr      r11,r0
 1809ab0:	91 2b 00 00 	stw     r9,0(r11)
 1809ab4:	3c 00 01 82 	lis     r0,386
 1809ab8:	7c 09 03 78 	mr      r9,r0
 1809abc:	80 09 c7 fc 	lwz     r0,-14340(r9)
 1809ac0:	30 00 00 02 	addic   r0,r0,2
 1809ac4:	3d 20 01 82 	lis     r9,386
 1809ac8:	39 29 c8 20 	addi    r9,r9,-14304
 1809acc:	54 00 10 3a 	rlwinm  r0,r0,2,0,29
 1809ad0:	7c 09 02 14 	add     r0,r9,r0
 1809ad4:	81 3f 01 4c 	lwz     r9,332(r31)
 1809ad8:	7c 0b 03 78 	mr      r11,r0
 1809adc:	91 2b 00 00 	stw     r9,0(r11)
 1809ae0:	3c 00 01 82 	lis     r0,386
 1809ae4:	7c 09 03 78 	mr      r9,r0
 1809ae8:	80 09 c7 fc 	lwz     r0,-14340(r9)
 1809aec:	31 20 00 03 	addic   r9,r0,3
 1809af0:	3c 00 01 82 	lis     r0,386
 1809af4:	7c 0b 03 78 	mr      r11,r0
 1809af8:	91 2b c7 fc 	stw     r9,-14340(r11)
 1809afc:	3c 00 01 82 	lis     r0,386
 1809b00:	7c 09 03 78 	mr      r9,r0
 1809b04:	80 09 c7 f8 	lwz     r0,-14344(r9)
 1809b08:	2f 80 00 04 	cmpwi   cr7,r0,4
 1809b0c:	40 9d 01 6c 	ble-    cr7,1809c78 <main+0x9a58>
 1809b10:	3c 00 01 82 	lis     r0,386
 1809b14:	7c 0b 03 78 	mr      r11,r0
 1809b18:	80 0b c7 fc 	lwz     r0,-14340(r11)
 1809b1c:	30 00 00 03 	addic   r0,r0,3
 1809b20:	2f 80 00 06 	cmpwi   cr7,r0,6
 1809b24:	41 9d 01 54 	bgt-    cr7,1809c78 <main+0x9a58>
 1809b28:	3c 00 01 82 	lis     r0,386
 1809b2c:	30 00 c8 44 	addic   r0,r0,-14268
 1809b30:	7c 0b 03 78 	mr      r11,r0
 1809b34:	81 2b 00 10 	lwz     r9,16(r11)
 1809b38:	3c 00 01 82 	lis     r0,386
 1809b3c:	30 00 c8 44 	addic   r0,r0,-14268
 1809b40:	7c 0b 03 78 	mr      r11,r0
 1809b44:	80 0b 00 04 	lwz     r0,4(r11)
 1809b48:	7f 89 00 00 	cmpw    cr7,r9,r0
 1809b4c:	40 9e 01 2c 	bne-    cr7,1809c78 <main+0x9a58>
 1809b50:	3c 00 01 82 	lis     r0,386
 1809b54:	30 00 c8 44 	addic   r0,r0,-14268
 1809b58:	7c 0b 03 78 	mr      r11,r0
 1809b5c:	81 2b 00 10 	lwz     r9,16(r11)
 1809b60:	3c 00 01 82 	lis     r0,386
 1809b64:	30 00 c8 44 	addic   r0,r0,-14268
 1809b68:	7c 0b 03 78 	mr      r11,r0
 1809b6c:	80 0b 00 08 	lwz     r0,8(r11)
 1809b70:	7f 89 00 00 	cmpw    cr7,r9,r0
 1809b74:	40 9e 01 04 	bne-    cr7,1809c78 <main+0x9a58>
 1809b78:	3c 00 01 82 	lis     r0,386
 1809b7c:	30 00 c8 44 	addic   r0,r0,-14268
 1809b80:	7c 09 03 78 	mr      r9,r0
 1809b84:	80 09 00 0c 	lwz     r0,12(r9)
 1809b88:	90 1f 01 48 	stw     r0,328(r31)
 1809b8c:	3c 00 01 82 	lis     r0,386
 1809b90:	30 00 c8 44 	addic   r0,r0,-14268
 1809b94:	7c 0b 03 78 	mr      r11,r0
 1809b98:	80 0b 00 10 	lwz     r0,16(r11)
 1809b9c:	90 1f 01 44 	stw     r0,324(r31)
 1809ba0:	81 3f 01 44 	lwz     r9,324(r31)
 1809ba4:	80 1f 01 48 	lwz     r0,328(r31)
 1809ba8:	7f 89 00 00 	cmpw    cr7,r9,r0
 1809bac:	40 9d 00 cc 	ble-    cr7,1809c78 <main+0x9a58>
 1809bb0:	3c 00 01 82 	lis     r0,386
 1809bb4:	7c 09 03 78 	mr      r9,r0
 1809bb8:	80 09 c7 f8 	lwz     r0,-14344(r9)
 1809bbc:	31 20 ff fc 	addic   r9,r0,-4
 1809bc0:	3c 00 01 82 	lis     r0,386
 1809bc4:	7c 0b 03 78 	mr      r11,r0
 1809bc8:	91 2b c7 f8 	stw     r9,-14344(r11)
 1809bcc:	81 3f 01 48 	lwz     r9,328(r31)
 1809bd0:	80 1f 01 44 	lwz     r0,324(r31)
 1809bd4:	7c 09 02 14 	add     r0,r9,r0
 1809bd8:	90 1f 01 40 	stw     r0,320(r31)
 1809bdc:	3c 00 01 82 	lis     r0,386
 1809be0:	7c 09 03 78 	mr      r9,r0
 1809be4:	80 09 c7 fc 	lwz     r0,-14340(r9)
 1809be8:	3d 20 01 82 	lis     r9,386
 1809bec:	39 29 c8 20 	addi    r9,r9,-14304
 1809bf0:	54 00 10 3a 	rlwinm  r0,r0,2,0,29
 1809bf4:	7c 09 02 14 	add     r0,r9,r0
 1809bf8:	81 3f 01 48 	lwz     r9,328(r31)
 1809bfc:	7c 0b 03 78 	mr      r11,r0
 1809c00:	91 2b 00 00 	stw     r9,0(r11)
 1809c04:	3c 00 01 82 	lis     r0,386
 1809c08:	7c 09 03 78 	mr      r9,r0
 1809c0c:	80 09 c7 fc 	lwz     r0,-14340(r9)
 1809c10:	30 00 00 01 	addic   r0,r0,1
 1809c14:	3d 20 01 82 	lis     r9,386
 1809c18:	39 29 c8 20 	addi    r9,r9,-14304
 1809c1c:	54 00 10 3a 	rlwinm  r0,r0,2,0,29
 1809c20:	7c 09 02 14 	add     r0,r9,r0
 1809c24:	81 3f 01 44 	lwz     r9,324(r31)
 1809c28:	7c 0b 03 78 	mr      r11,r0
 1809c2c:	91 2b 00 00 	stw     r9,0(r11)
 1809c30:	3c 00 01 82 	lis     r0,386
 1809c34:	7c 09 03 78 	mr      r9,r0
 1809c38:	80 09 c7 fc 	lwz     r0,-14340(r9)
 1809c3c:	30 00 00 02 	addic   r0,r0,2
 1809c40:	3d 20 01 82 	lis     r9,386
 1809c44:	39 29 c8 20 	addi    r9,r9,-14304
 1809c48:	54 00 10 3a 	rlwinm  r0,r0,2,0,29
 1809c4c:	7c 09 02 14 	add     r0,r9,r0
 1809c50:	81 3f 01 40 	lwz     r9,320(r31)
 1809c54:	7c 0b 03 78 	mr      r11,r0
 1809c58:	91 2b 00 00 	stw     r9,0(r11)
 1809c5c:	3c 00 01 82 	lis     r0,386
 1809c60:	7c 09 03 78 	mr      r9,r0
 1809c64:	80 09 c7 fc 	lwz     r0,-14340(r9)
 1809c68:	31 20 00 03 	addic   r9,r0,3
 1809c6c:	3c 00 01 82 	lis     r0,386
 1809c70:	7c 0b 03 78 	mr      r11,r0
 1809c74:	91 2b c7 fc 	stw     r9,-14340(r11)
 1809c78:	3c 00 01 82 	lis     r0,386
 1809c7c:	7c 09 03 78 	mr      r9,r0
 1809c80:	80 09 c7 f8 	lwz     r0,-14344(r9)
 1809c84:	2f 80 00 04 	cmpwi   cr7,r0,4
 1809c88:	40 9d 01 8c 	ble-    cr7,1809e14 <main+0x9bf4>
 1809c8c:	3c 00 01 82 	lis     r0,386
 1809c90:	7c 0b 03 78 	mr      r11,r0
 1809c94:	80 0b c7 fc 	lwz     r0,-14340(r11)
 1809c98:	30 00 00 03 	addic   r0,r0,3
 1809c9c:	2f 80 00 06 	cmpwi   cr7,r0,6
 1809ca0:	41 9d 01 74 	bgt-    cr7,1809e14 <main+0x9bf4>
 1809ca4:	3c 00 01 82 	lis     r0,386
 1809ca8:	30 00 c8 44 	addic   r0,r0,-14268
 1809cac:	7c 0b 03 78 	mr      r11,r0
 1809cb0:	81 2b 00 10 	lwz     r9,16(r11)
 1809cb4:	3c 00 01 82 	lis     r0,386
 1809cb8:	30 00 c8 44 	addic   r0,r0,-14268
 1809cbc:	7c 0b 03 78 	mr      r11,r0
 1809cc0:	80 0b 00 08 	lwz     r0,8(r11)
 1809cc4:	7f 89 00 00 	cmpw    cr7,r9,r0
 1809cc8:	40 9e 01 4c 	bne-    cr7,1809e14 <main+0x9bf4>
 1809ccc:	3c 00 01 82 	lis     r0,386
 1809cd0:	30 00 c8 44 	addic   r0,r0,-14268
 1809cd4:	7c 0b 03 78 	mr      r11,r0
 1809cd8:	81 2b 00 10 	lwz     r9,16(r11)
 1809cdc:	3c 00 01 82 	lis     r0,386
 1809ce0:	30 00 c8 44 	addic   r0,r0,-14268
 1809ce4:	7c 0b 03 78 	mr      r11,r0
 1809ce8:	80 0b 00 00 	lwz     r0,0(r11)
 1809cec:	7f 89 00 00 	cmpw    cr7,r9,r0
 1809cf0:	40 9e 01 24 	bne-    cr7,1809e14 <main+0x9bf4>
 1809cf4:	3c 00 01 82 	lis     r0,386
 1809cf8:	30 00 c8 44 	addic   r0,r0,-14268
 1809cfc:	7c 09 03 78 	mr      r9,r0
 1809d00:	80 09 00 0c 	lwz     r0,12(r9)
 1809d04:	90 1f 01 3c 	stw     r0,316(r31)
 1809d08:	3c 00 01 82 	lis     r0,386
 1809d0c:	30 00 c8 44 	addic   r0,r0,-14268
 1809d10:	7c 0b 03 78 	mr      r11,r0
 1809d14:	80 0b 00 10 	lwz     r0,16(r11)
 1809d18:	90 1f 01 38 	stw     r0,312(r31)
 1809d1c:	81 3f 01 38 	lwz     r9,312(r31)
 1809d20:	80 1f 01 3c 	lwz     r0,316(r31)
 1809d24:	7f 89 00 00 	cmpw    cr7,r9,r0
 1809d28:	40 9d 00 ec 	ble-    cr7,1809e14 <main+0x9bf4>
 1809d2c:	3c 00 01 82 	lis     r0,386
 1809d30:	30 00 c8 44 	addic   r0,r0,-14268
 1809d34:	7c 0b 03 78 	mr      r11,r0
 1809d38:	81 2b 00 04 	lwz     r9,4(r11)
 1809d3c:	3c 00 01 82 	lis     r0,386
 1809d40:	30 00 c8 44 	addic   r0,r0,-14268
 1809d44:	7c 0b 03 78 	mr      r11,r0
 1809d48:	91 2b 00 00 	stw     r9,0(r11)
 1809d4c:	3c 00 01 82 	lis     r0,386
 1809d50:	7c 09 03 78 	mr      r9,r0
 1809d54:	80 09 c7 f8 	lwz     r0,-14344(r9)
 1809d58:	31 20 ff fc 	addic   r9,r0,-4
 1809d5c:	3c 00 01 82 	lis     r0,386
 1809d60:	7c 0b 03 78 	mr      r11,r0
 1809d64:	91 2b c7 f8 	stw     r9,-14344(r11)
 1809d68:	81 3f 01 3c 	lwz     r9,316(r31)
 1809d6c:	80 1f 01 38 	lwz     r0,312(r31)
 1809d70:	7c 09 02 14 	add     r0,r9,r0
 1809d74:	90 1f 01 34 	stw     r0,308(r31)
 1809d78:	3c 00 01 82 	lis     r0,386
 1809d7c:	7c 09 03 78 	mr      r9,r0
 1809d80:	80 09 c7 fc 	lwz     r0,-14340(r9)
 1809d84:	3d 20 01 82 	lis     r9,386
 1809d88:	39 29 c8 20 	addi    r9,r9,-14304
 1809d8c:	54 00 10 3a 	rlwinm  r0,r0,2,0,29
 1809d90:	7c 09 02 14 	add     r0,r9,r0
 1809d94:	81 3f 01 3c 	lwz     r9,316(r31)
 1809d98:	7c 0b 03 78 	mr      r11,r0
 1809d9c:	91 2b 00 00 	stw     r9,0(r11)
 1809da0:	3c 00 01 82 	lis     r0,386
 1809da4:	7c 09 03 78 	mr      r9,r0
 1809da8:	80 09 c7 fc 	lwz     r0,-14340(r9)
 1809dac:	30 00 00 01 	addic   r0,r0,1
 1809db0:	3d 20 01 82 	lis     r9,386
 1809db4:	39 29 c8 20 	addi    r9,r9,-14304
 1809db8:	54 00 10 3a 	rlwinm  r0,r0,2,0,29
 1809dbc:	7c 09 02 14 	add     r0,r9,r0
 1809dc0:	81 3f 01 38 	lwz     r9,312(r31)
 1809dc4:	7c 0b 03 78 	mr      r11,r0
 1809dc8:	91 2b 00 00 	stw     r9,0(r11)
 1809dcc:	3c 00 01 82 	lis     r0,386
 1809dd0:	7c 09 03 78 	mr      r9,r0
 1809dd4:	80 09 c7 fc 	lwz     r0,-14340(r9)
 1809dd8:	30 00 00 02 	addic   r0,r0,2
 1809ddc:	3d 20 01 82 	lis     r9,386
 1809de0:	39 29 c8 20 	addi    r9,r9,-14304
 1809de4:	54 00 10 3a 	rlwinm  r0,r0,2,0,29
 1809de8:	7c 09 02 14 	add     r0,r9,r0
 1809dec:	81 3f 01 34 	lwz     r9,308(r31)
 1809df0:	7c 0b 03 78 	mr      r11,r0
 1809df4:	91 2b 00 00 	stw     r9,0(r11)
 1809df8:	3c 00 01 82 	lis     r0,386
 1809dfc:	7c 09 03 78 	mr      r9,r0
 1809e00:	80 09 c7 fc 	lwz     r0,-14340(r9)
 1809e04:	31 20 00 03 	addic   r9,r0,3
 1809e08:	3c 00 01 82 	lis     r0,386
 1809e0c:	7c 0b 03 78 	mr      r11,r0
 1809e10:	91 2b c7 fc 	stw     r9,-14340(r11)
 1809e14:	3c 00 01 82 	lis     r0,386
 1809e18:	7c 09 03 78 	mr      r9,r0
 1809e1c:	80 09 c7 f8 	lwz     r0,-14344(r9)
 1809e20:	2f 80 00 04 	cmpwi   cr7,r0,4
 1809e24:	40 9d 01 6c 	ble-    cr7,1809f90 <main+0x9d70>
 1809e28:	3c 00 01 82 	lis     r0,386
 1809e2c:	7c 0b 03 78 	mr      r11,r0
 1809e30:	80 0b c7 fc 	lwz     r0,-14340(r11)
 1809e34:	30 00 00 03 	addic   r0,r0,3
 1809e38:	2f 80 00 06 	cmpwi   cr7,r0,6
 1809e3c:	41 9d 01 54 	bgt-    cr7,1809f90 <main+0x9d70>
 1809e40:	3c 00 01 82 	lis     r0,386
 1809e44:	30 00 c8 44 	addic   r0,r0,-14268
 1809e48:	7c 0b 03 78 	mr      r11,r0
 1809e4c:	81 2b 00 10 	lwz     r9,16(r11)
 1809e50:	3c 00 01 82 	lis     r0,386
 1809e54:	30 00 c8 44 	addic   r0,r0,-14268
 1809e58:	7c 0b 03 78 	mr      r11,r0
 1809e5c:	80 0b 00 08 	lwz     r0,8(r11)
 1809e60:	7f 89 00 00 	cmpw    cr7,r9,r0
 1809e64:	40 9e 01 2c 	bne-    cr7,1809f90 <main+0x9d70>
 1809e68:	3c 00 01 82 	lis     r0,386
 1809e6c:	30 00 c8 44 	addic   r0,r0,-14268
 1809e70:	7c 0b 03 78 	mr      r11,r0
 1809e74:	81 2b 00 10 	lwz     r9,16(r11)
 1809e78:	3c 00 01 82 	lis     r0,386
 1809e7c:	30 00 c8 44 	addic   r0,r0,-14268
 1809e80:	7c 0b 03 78 	mr      r11,r0
 1809e84:	80 0b 00 04 	lwz     r0,4(r11)
 1809e88:	7f 89 00 00 	cmpw    cr7,r9,r0
 1809e8c:	40 9e 01 04 	bne-    cr7,1809f90 <main+0x9d70>
 1809e90:	3c 00 01 82 	lis     r0,386
 1809e94:	30 00 c8 44 	addic   r0,r0,-14268
 1809e98:	7c 09 03 78 	mr      r9,r0
 1809e9c:	80 09 00 0c 	lwz     r0,12(r9)
 1809ea0:	90 1f 01 30 	stw     r0,304(r31)
 1809ea4:	3c 00 01 82 	lis     r0,386
 1809ea8:	30 00 c8 44 	addic   r0,r0,-14268
 1809eac:	7c 0b 03 78 	mr      r11,r0
 1809eb0:	80 0b 00 10 	lwz     r0,16(r11)
 1809eb4:	90 1f 01 2c 	stw     r0,300(r31)
 1809eb8:	81 3f 01 2c 	lwz     r9,300(r31)
 1809ebc:	80 1f 01 30 	lwz     r0,304(r31)
 1809ec0:	7f 89 00 00 	cmpw    cr7,r9,r0
 1809ec4:	40 9d 00 cc 	ble-    cr7,1809f90 <main+0x9d70>
 1809ec8:	3c 00 01 82 	lis     r0,386
 1809ecc:	7c 09 03 78 	mr      r9,r0
 1809ed0:	80 09 c7 f8 	lwz     r0,-14344(r9)
 1809ed4:	31 20 ff fc 	addic   r9,r0,-4
 1809ed8:	3c 00 01 82 	lis     r0,386
 1809edc:	7c 0b 03 78 	mr      r11,r0
 1809ee0:	91 2b c7 f8 	stw     r9,-14344(r11)
 1809ee4:	81 3f 01 30 	lwz     r9,304(r31)
 1809ee8:	80 1f 01 2c 	lwz     r0,300(r31)
 1809eec:	7c 09 02 14 	add     r0,r9,r0
 1809ef0:	90 1f 01 28 	stw     r0,296(r31)
 1809ef4:	3c 00 01 82 	lis     r0,386
 1809ef8:	7c 09 03 78 	mr      r9,r0
 1809efc:	80 09 c7 fc 	lwz     r0,-14340(r9)
 1809f00:	3d 20 01 82 	lis     r9,386
 1809f04:	39 29 c8 20 	addi    r9,r9,-14304
 1809f08:	54 00 10 3a 	rlwinm  r0,r0,2,0,29
 1809f0c:	7c 09 02 14 	add     r0,r9,r0
 1809f10:	81 3f 01 30 	lwz     r9,304(r31)
 1809f14:	7c 0b 03 78 	mr      r11,r0
 1809f18:	91 2b 00 00 	stw     r9,0(r11)
 1809f1c:	3c 00 01 82 	lis     r0,386
 1809f20:	7c 09 03 78 	mr      r9,r0
 1809f24:	80 09 c7 fc 	lwz     r0,-14340(r9)
 1809f28:	30 00 00 01 	addic   r0,r0,1
 1809f2c:	3d 20 01 82 	lis     r9,386
 1809f30:	39 29 c8 20 	addi    r9,r9,-14304
 1809f34:	54 00 10 3a 	rlwinm  r0,r0,2,0,29
 1809f38:	7c 09 02 14 	add     r0,r9,r0
 1809f3c:	81 3f 01 2c 	lwz     r9,300(r31)
 1809f40:	7c 0b 03 78 	mr      r11,r0
 1809f44:	91 2b 00 00 	stw     r9,0(r11)
 1809f48:	3c 00 01 82 	lis     r0,386
 1809f4c:	7c 09 03 78 	mr      r9,r0
 1809f50:	80 09 c7 fc 	lwz     r0,-14340(r9)
 1809f54:	30 00 00 02 	addic   r0,r0,2
 1809f58:	3d 20 01 82 	lis     r9,386
 1809f5c:	39 29 c8 20 	addi    r9,r9,-14304
 1809f60:	54 00 10 3a 	rlwinm  r0,r0,2,0,29
 1809f64:	7c 09 02 14 	add     r0,r9,r0
 1809f68:	81 3f 01 28 	lwz     r9,296(r31)
 1809f6c:	7c 0b 03 78 	mr      r11,r0
 1809f70:	91 2b 00 00 	stw     r9,0(r11)
 1809f74:	3c 00 01 82 	lis     r0,386
 1809f78:	7c 09 03 78 	mr      r9,r0
 1809f7c:	80 09 c7 fc 	lwz     r0,-14340(r9)
 1809f80:	31 20 00 03 	addic   r9,r0,3
 1809f84:	3c 00 01 82 	lis     r0,386
 1809f88:	7c 0b 03 78 	mr      r11,r0
 1809f8c:	91 2b c7 fc 	stw     r9,-14340(r11)
 1809f90:	3c 00 01 82 	lis     r0,386
 1809f94:	7c 09 03 78 	mr      r9,r0
 1809f98:	80 09 c7 f8 	lwz     r0,-14344(r9)
 1809f9c:	2f 80 00 04 	cmpwi   cr7,r0,4
 1809fa0:	40 9d 01 8c 	ble-    cr7,180a12c <main+0x9f0c>
 1809fa4:	3c 00 01 82 	lis     r0,386
 1809fa8:	7c 0b 03 78 	mr      r11,r0
 1809fac:	80 0b c7 fc 	lwz     r0,-14340(r11)
 1809fb0:	30 00 00 03 	addic   r0,r0,3
 1809fb4:	2f 80 00 06 	cmpwi   cr7,r0,6
 1809fb8:	41 9d 01 74 	bgt-    cr7,180a12c <main+0x9f0c>
 1809fbc:	3c 00 01 82 	lis     r0,386
 1809fc0:	30 00 c8 44 	addic   r0,r0,-14268
 1809fc4:	7c 0b 03 78 	mr      r11,r0
 1809fc8:	81 2b 00 00 	lwz     r9,0(r11)
 1809fcc:	3c 00 01 82 	lis     r0,386
 1809fd0:	30 00 c8 44 	addic   r0,r0,-14268
 1809fd4:	7c 0b 03 78 	mr      r11,r0
 1809fd8:	80 0b 00 04 	lwz     r0,4(r11)
 1809fdc:	7f 89 00 00 	cmpw    cr7,r9,r0
 1809fe0:	40 9e 01 4c 	bne-    cr7,180a12c <main+0x9f0c>
 1809fe4:	3c 00 01 82 	lis     r0,386
 1809fe8:	30 00 c8 44 	addic   r0,r0,-14268
 1809fec:	7c 0b 03 78 	mr      r11,r0
 1809ff0:	81 2b 00 00 	lwz     r9,0(r11)
 1809ff4:	3c 00 01 82 	lis     r0,386
 1809ff8:	30 00 c8 44 	addic   r0,r0,-14268
 1809ffc:	7c 0b 03 78 	mr      r11,r0
 180a000:	80 0b 00 08 	lwz     r0,8(r11)
 180a004:	7f 89 00 00 	cmpw    cr7,r9,r0
 180a008:	40 9e 01 24 	bne-    cr7,180a12c <main+0x9f0c>
 180a00c:	3c 00 01 82 	lis     r0,386
 180a010:	30 00 c8 44 	addic   r0,r0,-14268
 180a014:	7c 09 03 78 	mr      r9,r0
 180a018:	80 09 00 10 	lwz     r0,16(r9)
 180a01c:	90 1f 01 24 	stw     r0,292(r31)
 180a020:	3c 00 01 82 	lis     r0,386
 180a024:	30 00 c8 44 	addic   r0,r0,-14268
 180a028:	7c 0b 03 78 	mr      r11,r0
 180a02c:	80 0b 00 00 	lwz     r0,0(r11)
 180a030:	90 1f 01 20 	stw     r0,288(r31)
 180a034:	81 3f 01 20 	lwz     r9,288(r31)
 180a038:	80 1f 01 24 	lwz     r0,292(r31)
 180a03c:	7f 89 00 00 	cmpw    cr7,r9,r0
 180a040:	40 9d 00 ec 	ble-    cr7,180a12c <main+0x9f0c>
 180a044:	3c 00 01 82 	lis     r0,386
 180a048:	30 00 c8 44 	addic   r0,r0,-14268
 180a04c:	7c 0b 03 78 	mr      r11,r0
 180a050:	81 2b 00 0c 	lwz     r9,12(r11)
 180a054:	3c 00 01 82 	lis     r0,386
 180a058:	30 00 c8 44 	addic   r0,r0,-14268
 180a05c:	7c 0b 03 78 	mr      r11,r0
 180a060:	91 2b 00 00 	stw     r9,0(r11)
 180a064:	3c 00 01 82 	lis     r0,386
 180a068:	7c 09 03 78 	mr      r9,r0
 180a06c:	80 09 c7 f8 	lwz     r0,-14344(r9)
 180a070:	31 20 ff fc 	addic   r9,r0,-4
 180a074:	3c 00 01 82 	lis     r0,386
 180a078:	7c 0b 03 78 	mr      r11,r0
 180a07c:	91 2b c7 f8 	stw     r9,-14344(r11)
 180a080:	81 3f 01 24 	lwz     r9,292(r31)
 180a084:	80 1f 01 20 	lwz     r0,288(r31)
 180a088:	7c 09 02 14 	add     r0,r9,r0
 180a08c:	90 1f 01 1c 	stw     r0,284(r31)
 180a090:	3c 00 01 82 	lis     r0,386
 180a094:	7c 09 03 78 	mr      r9,r0
 180a098:	80 09 c7 fc 	lwz     r0,-14340(r9)
 180a09c:	3d 20 01 82 	lis     r9,386
 180a0a0:	39 29 c8 20 	addi    r9,r9,-14304
 180a0a4:	54 00 10 3a 	rlwinm  r0,r0,2,0,29
 180a0a8:	7c 09 02 14 	add     r0,r9,r0
 180a0ac:	81 3f 01 24 	lwz     r9,292(r31)
 180a0b0:	7c 0b 03 78 	mr      r11,r0
 180a0b4:	91 2b 00 00 	stw     r9,0(r11)
 180a0b8:	3c 00 01 82 	lis     r0,386
 180a0bc:	7c 09 03 78 	mr      r9,r0
 180a0c0:	80 09 c7 fc 	lwz     r0,-14340(r9)
 180a0c4:	30 00 00 01 	addic   r0,r0,1
 180a0c8:	3d 20 01 82 	lis     r9,386
 180a0cc:	39 29 c8 20 	addi    r9,r9,-14304
 180a0d0:	54 00 10 3a 	rlwinm  r0,r0,2,0,29
 180a0d4:	7c 09 02 14 	add     r0,r9,r0
 180a0d8:	81 3f 01 20 	lwz     r9,288(r31)
 180a0dc:	7c 0b 03 78 	mr      r11,r0
 180a0e0:	91 2b 00 00 	stw     r9,0(r11)
 180a0e4:	3c 00 01 82 	lis     r0,386
 180a0e8:	7c 09 03 78 	mr      r9,r0
 180a0ec:	80 09 c7 fc 	lwz     r0,-14340(r9)
 180a0f0:	30 00 00 02 	addic   r0,r0,2
 180a0f4:	3d 20 01 82 	lis     r9,386
 180a0f8:	39 29 c8 20 	addi    r9,r9,-14304
 180a0fc:	54 00 10 3a 	rlwinm  r0,r0,2,0,29
 180a100:	7c 09 02 14 	add     r0,r9,r0
 180a104:	81 3f 01 1c 	lwz     r9,284(r31)
 180a108:	7c 0b 03 78 	mr      r11,r0
 180a10c:	91 2b 00 00 	stw     r9,0(r11)
 180a110:	3c 00 01 82 	lis     r0,386
 180a114:	7c 09 03 78 	mr      r9,r0
 180a118:	80 09 c7 fc 	lwz     r0,-14340(r9)
 180a11c:	31 20 00 03 	addic   r9,r0,3
 180a120:	3c 00 01 82 	lis     r0,386
 180a124:	7c 0b 03 78 	mr      r11,r0
 180a128:	91 2b c7 fc 	stw     r9,-14340(r11)
 180a12c:	3c 00 01 82 	lis     r0,386
 180a130:	7c 09 03 78 	mr      r9,r0
 180a134:	80 09 c7 f8 	lwz     r0,-14344(r9)
 180a138:	2f 80 00 04 	cmpwi   cr7,r0,4
 180a13c:	40 9d 01 8c 	ble-    cr7,180a2c8 <main+0xa0a8>
 180a140:	3c 00 01 82 	lis     r0,386
 180a144:	7c 0b 03 78 	mr      r11,r0
 180a148:	80 0b c7 fc 	lwz     r0,-14340(r11)
 180a14c:	30 00 00 03 	addic   r0,r0,3
 180a150:	2f 80 00 06 	cmpwi   cr7,r0,6
 180a154:	41 9d 01 74 	bgt-    cr7,180a2c8 <main+0xa0a8>
 180a158:	3c 00 01 82 	lis     r0,386
 180a15c:	30 00 c8 44 	addic   r0,r0,-14268
 180a160:	7c 0b 03 78 	mr      r11,r0
 180a164:	81 2b 00 00 	lwz     r9,0(r11)
 180a168:	3c 00 01 82 	lis     r0,386
 180a16c:	30 00 c8 44 	addic   r0,r0,-14268
 180a170:	7c 0b 03 78 	mr      r11,r0
 180a174:	80 0b 00 04 	lwz     r0,4(r11)
 180a178:	7f 89 00 00 	cmpw    cr7,r9,r0
 180a17c:	40 9e 01 4c 	bne-    cr7,180a2c8 <main+0xa0a8>
 180a180:	3c 00 01 82 	lis     r0,386
 180a184:	30 00 c8 44 	addic   r0,r0,-14268
 180a188:	7c 0b 03 78 	mr      r11,r0
 180a18c:	81 2b 00 00 	lwz     r9,0(r11)
 180a190:	3c 00 01 82 	lis     r0,386
 180a194:	30 00 c8 44 	addic   r0,r0,-14268
 180a198:	7c 0b 03 78 	mr      r11,r0
 180a19c:	80 0b 00 0c 	lwz     r0,12(r11)
 180a1a0:	7f 89 00 00 	cmpw    cr7,r9,r0
 180a1a4:	40 9e 01 24 	bne-    cr7,180a2c8 <main+0xa0a8>
 180a1a8:	3c 00 01 82 	lis     r0,386
 180a1ac:	30 00 c8 44 	addic   r0,r0,-14268
 180a1b0:	7c 09 03 78 	mr      r9,r0
 180a1b4:	80 09 00 10 	lwz     r0,16(r9)
 180a1b8:	90 1f 01 18 	stw     r0,280(r31)
 180a1bc:	3c 00 01 82 	lis     r0,386
 180a1c0:	30 00 c8 44 	addic   r0,r0,-14268
 180a1c4:	7c 0b 03 78 	mr      r11,r0
 180a1c8:	80 0b 00 00 	lwz     r0,0(r11)
 180a1cc:	90 1f 01 14 	stw     r0,276(r31)
 180a1d0:	81 3f 01 14 	lwz     r9,276(r31)
 180a1d4:	80 1f 01 18 	lwz     r0,280(r31)
 180a1d8:	7f 89 00 00 	cmpw    cr7,r9,r0
 180a1dc:	40 9d 00 ec 	ble-    cr7,180a2c8 <main+0xa0a8>
 180a1e0:	3c 00 01 82 	lis     r0,386
 180a1e4:	30 00 c8 44 	addic   r0,r0,-14268
 180a1e8:	7c 0b 03 78 	mr      r11,r0
 180a1ec:	81 2b 00 08 	lwz     r9,8(r11)
 180a1f0:	3c 00 01 82 	lis     r0,386
 180a1f4:	30 00 c8 44 	addic   r0,r0,-14268
 180a1f8:	7c 0b 03 78 	mr      r11,r0
 180a1fc:	91 2b 00 00 	stw     r9,0(r11)
 180a200:	3c 00 01 82 	lis     r0,386
 180a204:	7c 09 03 78 	mr      r9,r0
 180a208:	80 09 c7 f8 	lwz     r0,-14344(r9)
 180a20c:	31 20 ff fc 	addic   r9,r0,-4
 180a210:	3c 00 01 82 	lis     r0,386
 180a214:	7c 0b 03 78 	mr      r11,r0
 180a218:	91 2b c7 f8 	stw     r9,-14344(r11)
 180a21c:	81 3f 01 18 	lwz     r9,280(r31)
 180a220:	80 1f 01 14 	lwz     r0,276(r31)
 180a224:	7c 09 02 14 	add     r0,r9,r0
 180a228:	90 1f 01 10 	stw     r0,272(r31)
 180a22c:	3c 00 01 82 	lis     r0,386
 180a230:	7c 09 03 78 	mr      r9,r0
 180a234:	80 09 c7 fc 	lwz     r0,-14340(r9)
 180a238:	3d 20 01 82 	lis     r9,386
 180a23c:	39 29 c8 20 	addi    r9,r9,-14304
 180a240:	54 00 10 3a 	rlwinm  r0,r0,2,0,29
 180a244:	7c 09 02 14 	add     r0,r9,r0
 180a248:	81 3f 01 18 	lwz     r9,280(r31)
 180a24c:	7c 0b 03 78 	mr      r11,r0
 180a250:	91 2b 00 00 	stw     r9,0(r11)
 180a254:	3c 00 01 82 	lis     r0,386
 180a258:	7c 09 03 78 	mr      r9,r0
 180a25c:	80 09 c7 fc 	lwz     r0,-14340(r9)
 180a260:	30 00 00 01 	addic   r0,r0,1
 180a264:	3d 20 01 82 	lis     r9,386
 180a268:	39 29 c8 20 	addi    r9,r9,-14304
 180a26c:	54 00 10 3a 	rlwinm  r0,r0,2,0,29
 180a270:	7c 09 02 14 	add     r0,r9,r0
 180a274:	81 3f 01 14 	lwz     r9,276(r31)
 180a278:	7c 0b 03 78 	mr      r11,r0
 180a27c:	91 2b 00 00 	stw     r9,0(r11)
 180a280:	3c 00 01 82 	lis     r0,386
 180a284:	7c 09 03 78 	mr      r9,r0
 180a288:	80 09 c7 fc 	lwz     r0,-14340(r9)
 180a28c:	30 00 00 02 	addic   r0,r0,2
 180a290:	3d 20 01 82 	lis     r9,386
 180a294:	39 29 c8 20 	addi    r9,r9,-14304
 180a298:	54 00 10 3a 	rlwinm  r0,r0,2,0,29
 180a29c:	7c 09 02 14 	add     r0,r9,r0
 180a2a0:	81 3f 01 10 	lwz     r9,272(r31)
 180a2a4:	7c 0b 03 78 	mr      r11,r0
 180a2a8:	91 2b 00 00 	stw     r9,0(r11)
 180a2ac:	3c 00 01 82 	lis     r0,386
 180a2b0:	7c 09 03 78 	mr      r9,r0
 180a2b4:	80 09 c7 fc 	lwz     r0,-14340(r9)
 180a2b8:	31 20 00 03 	addic   r9,r0,3
 180a2bc:	3c 00 01 82 	lis     r0,386
 180a2c0:	7c 0b 03 78 	mr      r11,r0
 180a2c4:	91 2b c7 fc 	stw     r9,-14340(r11)
 180a2c8:	3c 00 01 82 	lis     r0,386
 180a2cc:	7c 09 03 78 	mr      r9,r0
 180a2d0:	80 09 c7 f8 	lwz     r0,-14344(r9)
 180a2d4:	2f 80 00 04 	cmpwi   cr7,r0,4
 180a2d8:	40 9d 01 8c 	ble-    cr7,180a464 <main+0xa244>
 180a2dc:	3c 00 01 82 	lis     r0,386
 180a2e0:	7c 0b 03 78 	mr      r11,r0
 180a2e4:	80 0b c7 fc 	lwz     r0,-14340(r11)
 180a2e8:	30 00 00 03 	addic   r0,r0,3
 180a2ec:	2f 80 00 06 	cmpwi   cr7,r0,6
 180a2f0:	41 9d 01 74 	bgt-    cr7,180a464 <main+0xa244>
 180a2f4:	3c 00 01 82 	lis     r0,386
 180a2f8:	30 00 c8 44 	addic   r0,r0,-14268
 180a2fc:	7c 0b 03 78 	mr      r11,r0
 180a300:	81 2b 00 00 	lwz     r9,0(r11)
 180a304:	3c 00 01 82 	lis     r0,386
 180a308:	30 00 c8 44 	addic   r0,r0,-14268
 180a30c:	7c 0b 03 78 	mr      r11,r0
 180a310:	80 0b 00 08 	lwz     r0,8(r11)
 180a314:	7f 89 00 00 	cmpw    cr7,r9,r0
 180a318:	40 9e 01 4c 	bne-    cr7,180a464 <main+0xa244>
 180a31c:	3c 00 01 82 	lis     r0,386
 180a320:	30 00 c8 44 	addic   r0,r0,-14268
 180a324:	7c 0b 03 78 	mr      r11,r0
 180a328:	81 2b 00 00 	lwz     r9,0(r11)
 180a32c:	3c 00 01 82 	lis     r0,386
 180a330:	30 00 c8 44 	addic   r0,r0,-14268
 180a334:	7c 0b 03 78 	mr      r11,r0
 180a338:	80 0b 00 04 	lwz     r0,4(r11)
 180a33c:	7f 89 00 00 	cmpw    cr7,r9,r0
 180a340:	40 9e 01 24 	bne-    cr7,180a464 <main+0xa244>
 180a344:	3c 00 01 82 	lis     r0,386
 180a348:	30 00 c8 44 	addic   r0,r0,-14268
 180a34c:	7c 09 03 78 	mr      r9,r0
 180a350:	80 09 00 10 	lwz     r0,16(r9)
 180a354:	90 1f 01 0c 	stw     r0,268(r31)
 180a358:	3c 00 01 82 	lis     r0,386
 180a35c:	30 00 c8 44 	addic   r0,r0,-14268
 180a360:	7c 0b 03 78 	mr      r11,r0
 180a364:	80 0b 00 00 	lwz     r0,0(r11)
 180a368:	90 1f 01 08 	stw     r0,264(r31)
 180a36c:	81 3f 01 08 	lwz     r9,264(r31)
 180a370:	80 1f 01 0c 	lwz     r0,268(r31)
 180a374:	7f 89 00 00 	cmpw    cr7,r9,r0
 180a378:	40 9d 00 ec 	ble-    cr7,180a464 <main+0xa244>
 180a37c:	3c 00 01 82 	lis     r0,386
 180a380:	30 00 c8 44 	addic   r0,r0,-14268
 180a384:	7c 0b 03 78 	mr      r11,r0
 180a388:	81 2b 00 0c 	lwz     r9,12(r11)
 180a38c:	3c 00 01 82 	lis     r0,386
 180a390:	30 00 c8 44 	addic   r0,r0,-14268
 180a394:	7c 0b 03 78 	mr      r11,r0
 180a398:	91 2b 00 00 	stw     r9,0(r11)
 180a39c:	3c 00 01 82 	lis     r0,386
 180a3a0:	7c 09 03 78 	mr      r9,r0
 180a3a4:	80 09 c7 f8 	lwz     r0,-14344(r9)
 180a3a8:	31 20 ff fc 	addic   r9,r0,-4
 180a3ac:	3c 00 01 82 	lis     r0,386
 180a3b0:	7c 0b 03 78 	mr      r11,r0
 180a3b4:	91 2b c7 f8 	stw     r9,-14344(r11)
 180a3b8:	81 3f 01 0c 	lwz     r9,268(r31)
 180a3bc:	80 1f 01 08 	lwz     r0,264(r31)
 180a3c0:	7c 09 02 14 	add     r0,r9,r0
 180a3c4:	90 1f 01 04 	stw     r0,260(r31)
 180a3c8:	3c 00 01 82 	lis     r0,386
 180a3cc:	7c 09 03 78 	mr      r9,r0
 180a3d0:	80 09 c7 fc 	lwz     r0,-14340(r9)
 180a3d4:	3d 20 01 82 	lis     r9,386
 180a3d8:	39 29 c8 20 	addi    r9,r9,-14304
 180a3dc:	54 00 10 3a 	rlwinm  r0,r0,2,0,29
 180a3e0:	7c 09 02 14 	add     r0,r9,r0
 180a3e4:	81 3f 01 0c 	lwz     r9,268(r31)
 180a3e8:	7c 0b 03 78 	mr      r11,r0
 180a3ec:	91 2b 00 00 	stw     r9,0(r11)
 180a3f0:	3c 00 01 82 	lis     r0,386
 180a3f4:	7c 09 03 78 	mr      r9,r0
 180a3f8:	80 09 c7 fc 	lwz     r0,-14340(r9)
 180a3fc:	30 00 00 01 	addic   r0,r0,1
 180a400:	3d 20 01 82 	lis     r9,386
 180a404:	39 29 c8 20 	addi    r9,r9,-14304
 180a408:	54 00 10 3a 	rlwinm  r0,r0,2,0,29
 180a40c:	7c 09 02 14 	add     r0,r9,r0
 180a410:	81 3f 01 08 	lwz     r9,264(r31)
 180a414:	7c 0b 03 78 	mr      r11,r0
 180a418:	91 2b 00 00 	stw     r9,0(r11)
 180a41c:	3c 00 01 82 	lis     r0,386
 180a420:	7c 09 03 78 	mr      r9,r0
 180a424:	80 09 c7 fc 	lwz     r0,-14340(r9)
 180a428:	30 00 00 02 	addic   r0,r0,2
 180a42c:	3d 20 01 82 	lis     r9,386
 180a430:	39 29 c8 20 	addi    r9,r9,-14304
 180a434:	54 00 10 3a 	rlwinm  r0,r0,2,0,29
 180a438:	7c 09 02 14 	add     r0,r9,r0
 180a43c:	81 3f 01 04 	lwz     r9,260(r31)
 180a440:	7c 0b 03 78 	mr      r11,r0
 180a444:	91 2b 00 00 	stw     r9,0(r11)
 180a448:	3c 00 01 82 	lis     r0,386
 180a44c:	7c 09 03 78 	mr      r9,r0
 180a450:	80 09 c7 fc 	lwz     r0,-14340(r9)
 180a454:	31 20 00 03 	addic   r9,r0,3
 180a458:	3c 00 01 82 	lis     r0,386
 180a45c:	7c 0b 03 78 	mr      r11,r0
 180a460:	91 2b c7 fc 	stw     r9,-14340(r11)
 180a464:	3c 00 01 82 	lis     r0,386
 180a468:	7c 09 03 78 	mr      r9,r0
 180a46c:	80 09 c7 f8 	lwz     r0,-14344(r9)
 180a470:	2f 80 00 04 	cmpwi   cr7,r0,4
 180a474:	40 9d 01 8c 	ble-    cr7,180a600 <main+0xa3e0>
 180a478:	3c 00 01 82 	lis     r0,386
 180a47c:	7c 0b 03 78 	mr      r11,r0
 180a480:	80 0b c7 fc 	lwz     r0,-14340(r11)
 180a484:	30 00 00 03 	addic   r0,r0,3
 180a488:	2f 80 00 06 	cmpwi   cr7,r0,6
 180a48c:	41 9d 01 74 	bgt-    cr7,180a600 <main+0xa3e0>
 180a490:	3c 00 01 82 	lis     r0,386
 180a494:	30 00 c8 44 	addic   r0,r0,-14268
 180a498:	7c 0b 03 78 	mr      r11,r0
 180a49c:	81 2b 00 00 	lwz     r9,0(r11)
 180a4a0:	3c 00 01 82 	lis     r0,386
 180a4a4:	30 00 c8 44 	addic   r0,r0,-14268
 180a4a8:	7c 0b 03 78 	mr      r11,r0
 180a4ac:	80 0b 00 08 	lwz     r0,8(r11)
 180a4b0:	7f 89 00 00 	cmpw    cr7,r9,r0
 180a4b4:	40 9e 01 4c 	bne-    cr7,180a600 <main+0xa3e0>
 180a4b8:	3c 00 01 82 	lis     r0,386
 180a4bc:	30 00 c8 44 	addic   r0,r0,-14268
 180a4c0:	7c 0b 03 78 	mr      r11,r0
 180a4c4:	81 2b 00 00 	lwz     r9,0(r11)
 180a4c8:	3c 00 01 82 	lis     r0,386
 180a4cc:	30 00 c8 44 	addic   r0,r0,-14268
 180a4d0:	7c 0b 03 78 	mr      r11,r0
 180a4d4:	80 0b 00 0c 	lwz     r0,12(r11)
 180a4d8:	7f 89 00 00 	cmpw    cr7,r9,r0
 180a4dc:	40 9e 01 24 	bne-    cr7,180a600 <main+0xa3e0>
 180a4e0:	3c 00 01 82 	lis     r0,386
 180a4e4:	30 00 c8 44 	addic   r0,r0,-14268
 180a4e8:	7c 09 03 78 	mr      r9,r0
 180a4ec:	80 09 00 10 	lwz     r0,16(r9)
 180a4f0:	90 1f 01 00 	stw     r0,256(r31)
 180a4f4:	3c 00 01 82 	lis     r0,386
 180a4f8:	30 00 c8 44 	addic   r0,r0,-14268
 180a4fc:	7c 0b 03 78 	mr      r11,r0
 180a500:	80 0b 00 00 	lwz     r0,0(r11)
 180a504:	90 1f 00 fc 	stw     r0,252(r31)
 180a508:	81 3f 00 fc 	lwz     r9,252(r31)
 180a50c:	80 1f 01 00 	lwz     r0,256(r31)
 180a510:	7f 89 00 00 	cmpw    cr7,r9,r0
 180a514:	40 9d 00 ec 	ble-    cr7,180a600 <main+0xa3e0>
 180a518:	3c 00 01 82 	lis     r0,386
 180a51c:	30 00 c8 44 	addic   r0,r0,-14268
 180a520:	7c 0b 03 78 	mr      r11,r0
 180a524:	81 2b 00 04 	lwz     r9,4(r11)
 180a528:	3c 00 01 82 	lis     r0,386
 180a52c:	30 00 c8 44 	addic   r0,r0,-14268
 180a530:	7c 0b 03 78 	mr      r11,r0
 180a534:	91 2b 00 00 	stw     r9,0(r11)
 180a538:	3c 00 01 82 	lis     r0,386
 180a53c:	7c 09 03 78 	mr      r9,r0
 180a540:	80 09 c7 f8 	lwz     r0,-14344(r9)
 180a544:	31 20 ff fc 	addic   r9,r0,-4
 180a548:	3c 00 01 82 	lis     r0,386
 180a54c:	7c 0b 03 78 	mr      r11,r0
 180a550:	91 2b c7 f8 	stw     r9,-14344(r11)
 180a554:	81 3f 01 00 	lwz     r9,256(r31)
 180a558:	80 1f 00 fc 	lwz     r0,252(r31)
 180a55c:	7c 09 02 14 	add     r0,r9,r0
 180a560:	90 1f 00 f8 	stw     r0,248(r31)
 180a564:	3c 00 01 82 	lis     r0,386
 180a568:	7c 09 03 78 	mr      r9,r0
 180a56c:	80 09 c7 fc 	lwz     r0,-14340(r9)
 180a570:	3d 20 01 82 	lis     r9,386
 180a574:	39 29 c8 20 	addi    r9,r9,-14304
 180a578:	54 00 10 3a 	rlwinm  r0,r0,2,0,29
 180a57c:	7c 09 02 14 	add     r0,r9,r0
 180a580:	81 3f 01 00 	lwz     r9,256(r31)
 180a584:	7c 0b 03 78 	mr      r11,r0
 180a588:	91 2b 00 00 	stw     r9,0(r11)
 180a58c:	3c 00 01 82 	lis     r0,386
 180a590:	7c 09 03 78 	mr      r9,r0
 180a594:	80 09 c7 fc 	lwz     r0,-14340(r9)
 180a598:	30 00 00 01 	addic   r0,r0,1
 180a59c:	3d 20 01 82 	lis     r9,386
 180a5a0:	39 29 c8 20 	addi    r9,r9,-14304
 180a5a4:	54 00 10 3a 	rlwinm  r0,r0,2,0,29
 180a5a8:	7c 09 02 14 	add     r0,r9,r0
 180a5ac:	81 3f 00 fc 	lwz     r9,252(r31)
 180a5b0:	7c 0b 03 78 	mr      r11,r0
 180a5b4:	91 2b 00 00 	stw     r9,0(r11)
 180a5b8:	3c 00 01 82 	lis     r0,386
 180a5bc:	7c 09 03 78 	mr      r9,r0
 180a5c0:	80 09 c7 fc 	lwz     r0,-14340(r9)
 180a5c4:	30 00 00 02 	addic   r0,r0,2
 180a5c8:	3d 20 01 82 	lis     r9,386
 180a5cc:	39 29 c8 20 	addi    r9,r9,-14304
 180a5d0:	54 00 10 3a 	rlwinm  r0,r0,2,0,29
 180a5d4:	7c 09 02 14 	add     r0,r9,r0
 180a5d8:	81 3f 00 f8 	lwz     r9,248(r31)
 180a5dc:	7c 0b 03 78 	mr      r11,r0
 180a5e0:	91 2b 00 00 	stw     r9,0(r11)
 180a5e4:	3c 00 01 82 	lis     r0,386
 180a5e8:	7c 09 03 78 	mr      r9,r0
 180a5ec:	80 09 c7 fc 	lwz     r0,-14340(r9)
 180a5f0:	31 20 00 03 	addic   r9,r0,3
 180a5f4:	3c 00 01 82 	lis     r0,386
 180a5f8:	7c 0b 03 78 	mr      r11,r0
 180a5fc:	91 2b c7 fc 	stw     r9,-14340(r11)
 180a600:	3c 00 01 82 	lis     r0,386
 180a604:	7c 09 03 78 	mr      r9,r0
 180a608:	80 09 c7 f8 	lwz     r0,-14344(r9)
 180a60c:	2f 80 00 04 	cmpwi   cr7,r0,4
 180a610:	40 9d 01 8c 	ble-    cr7,180a79c <main+0xa57c>
 180a614:	3c 00 01 82 	lis     r0,386
 180a618:	7c 0b 03 78 	mr      r11,r0
 180a61c:	80 0b c7 fc 	lwz     r0,-14340(r11)
 180a620:	30 00 00 03 	addic   r0,r0,3
 180a624:	2f 80 00 06 	cmpwi   cr7,r0,6
 180a628:	41 9d 01 74 	bgt-    cr7,180a79c <main+0xa57c>
 180a62c:	3c 00 01 82 	lis     r0,386
 180a630:	30 00 c8 44 	addic   r0,r0,-14268
 180a634:	7c 0b 03 78 	mr      r11,r0
 180a638:	81 2b 00 00 	lwz     r9,0(r11)
 180a63c:	3c 00 01 82 	lis     r0,386
 180a640:	30 00 c8 44 	addic   r0,r0,-14268
 180a644:	7c 0b 03 78 	mr      r11,r0
 180a648:	80 0b 00 0c 	lwz     r0,12(r11)
 180a64c:	7f 89 00 00 	cmpw    cr7,r9,r0
 180a650:	40 9e 01 4c 	bne-    cr7,180a79c <main+0xa57c>
 180a654:	3c 00 01 82 	lis     r0,386
 180a658:	30 00 c8 44 	addic   r0,r0,-14268
 180a65c:	7c 0b 03 78 	mr      r11,r0
 180a660:	81 2b 00 00 	lwz     r9,0(r11)
 180a664:	3c 00 01 82 	lis     r0,386
 180a668:	30 00 c8 44 	addic   r0,r0,-14268
 180a66c:	7c 0b 03 78 	mr      r11,r0
 180a670:	80 0b 00 04 	lwz     r0,4(r11)
 180a674:	7f 89 00 00 	cmpw    cr7,r9,r0
 180a678:	40 9e 01 24 	bne-    cr7,180a79c <main+0xa57c>
 180a67c:	3c 00 01 82 	lis     r0,386
 180a680:	30 00 c8 44 	addic   r0,r0,-14268
 180a684:	7c 09 03 78 	mr      r9,r0
 180a688:	80 09 00 10 	lwz     r0,16(r9)
 180a68c:	90 1f 00 f4 	stw     r0,244(r31)
 180a690:	3c 00 01 82 	lis     r0,386
 180a694:	30 00 c8 44 	addic   r0,r0,-14268
 180a698:	7c 0b 03 78 	mr      r11,r0
 180a69c:	80 0b 00 00 	lwz     r0,0(r11)
 180a6a0:	90 1f 00 f0 	stw     r0,240(r31)
 180a6a4:	81 3f 00 f0 	lwz     r9,240(r31)
 180a6a8:	80 1f 00 f4 	lwz     r0,244(r31)
 180a6ac:	7f 89 00 00 	cmpw    cr7,r9,r0
 180a6b0:	40 9d 00 ec 	ble-    cr7,180a79c <main+0xa57c>
 180a6b4:	3c 00 01 82 	lis     r0,386
 180a6b8:	30 00 c8 44 	addic   r0,r0,-14268
 180a6bc:	7c 0b 03 78 	mr      r11,r0
 180a6c0:	81 2b 00 08 	lwz     r9,8(r11)
 180a6c4:	3c 00 01 82 	lis     r0,386
 180a6c8:	30 00 c8 44 	addic   r0,r0,-14268
 180a6cc:	7c 0b 03 78 	mr      r11,r0
 180a6d0:	91 2b 00 00 	stw     r9,0(r11)
 180a6d4:	3c 00 01 82 	lis     r0,386
 180a6d8:	7c 09 03 78 	mr      r9,r0
 180a6dc:	80 09 c7 f8 	lwz     r0,-14344(r9)
 180a6e0:	31 20 ff fc 	addic   r9,r0,-4
 180a6e4:	3c 00 01 82 	lis     r0,386
 180a6e8:	7c 0b 03 78 	mr      r11,r0
 180a6ec:	91 2b c7 f8 	stw     r9,-14344(r11)
 180a6f0:	81 3f 00 f4 	lwz     r9,244(r31)
 180a6f4:	80 1f 00 f0 	lwz     r0,240(r31)
 180a6f8:	7c 09 02 14 	add     r0,r9,r0
 180a6fc:	90 1f 00 ec 	stw     r0,236(r31)
 180a700:	3c 00 01 82 	lis     r0,386
 180a704:	7c 09 03 78 	mr      r9,r0
 180a708:	80 09 c7 fc 	lwz     r0,-14340(r9)
 180a70c:	3d 20 01 82 	lis     r9,386
 180a710:	39 29 c8 20 	addi    r9,r9,-14304
 180a714:	54 00 10 3a 	rlwinm  r0,r0,2,0,29
 180a718:	7c 09 02 14 	add     r0,r9,r0
 180a71c:	81 3f 00 f4 	lwz     r9,244(r31)
 180a720:	7c 0b 03 78 	mr      r11,r0
 180a724:	91 2b 00 00 	stw     r9,0(r11)
 180a728:	3c 00 01 82 	lis     r0,386
 180a72c:	7c 09 03 78 	mr      r9,r0
 180a730:	80 09 c7 fc 	lwz     r0,-14340(r9)
 180a734:	30 00 00 01 	addic   r0,r0,1
 180a738:	3d 20 01 82 	lis     r9,386
 180a73c:	39 29 c8 20 	addi    r9,r9,-14304
 180a740:	54 00 10 3a 	rlwinm  r0,r0,2,0,29
 180a744:	7c 09 02 14 	add     r0,r9,r0
 180a748:	81 3f 00 f0 	lwz     r9,240(r31)
 180a74c:	7c 0b 03 78 	mr      r11,r0
 180a750:	91 2b 00 00 	stw     r9,0(r11)
 180a754:	3c 00 01 82 	lis     r0,386
 180a758:	7c 09 03 78 	mr      r9,r0
 180a75c:	80 09 c7 fc 	lwz     r0,-14340(r9)
 180a760:	30 00 00 02 	addic   r0,r0,2
 180a764:	3d 20 01 82 	lis     r9,386
 180a768:	39 29 c8 20 	addi    r9,r9,-14304
 180a76c:	54 00 10 3a 	rlwinm  r0,r0,2,0,29
 180a770:	7c 09 02 14 	add     r0,r9,r0
 180a774:	81 3f 00 ec 	lwz     r9,236(r31)
 180a778:	7c 0b 03 78 	mr      r11,r0
 180a77c:	91 2b 00 00 	stw     r9,0(r11)
 180a780:	3c 00 01 82 	lis     r0,386
 180a784:	7c 09 03 78 	mr      r9,r0
 180a788:	80 09 c7 fc 	lwz     r0,-14340(r9)
 180a78c:	31 20 00 03 	addic   r9,r0,3
 180a790:	3c 00 01 82 	lis     r0,386
 180a794:	7c 0b 03 78 	mr      r11,r0
 180a798:	91 2b c7 fc 	stw     r9,-14340(r11)
 180a79c:	3c 00 01 82 	lis     r0,386
 180a7a0:	7c 09 03 78 	mr      r9,r0
 180a7a4:	80 09 c7 f8 	lwz     r0,-14344(r9)
 180a7a8:	2f 80 00 04 	cmpwi   cr7,r0,4
 180a7ac:	40 9d 01 8c 	ble-    cr7,180a938 <main+0xa718>
 180a7b0:	3c 00 01 82 	lis     r0,386
 180a7b4:	7c 0b 03 78 	mr      r11,r0
 180a7b8:	80 0b c7 fc 	lwz     r0,-14340(r11)
 180a7bc:	30 00 00 03 	addic   r0,r0,3
 180a7c0:	2f 80 00 06 	cmpwi   cr7,r0,6
 180a7c4:	41 9d 01 74 	bgt-    cr7,180a938 <main+0xa718>
 180a7c8:	3c 00 01 82 	lis     r0,386
 180a7cc:	30 00 c8 44 	addic   r0,r0,-14268
 180a7d0:	7c 0b 03 78 	mr      r11,r0
 180a7d4:	81 2b 00 00 	lwz     r9,0(r11)
 180a7d8:	3c 00 01 82 	lis     r0,386
 180a7dc:	30 00 c8 44 	addic   r0,r0,-14268
 180a7e0:	7c 0b 03 78 	mr      r11,r0
 180a7e4:	80 0b 00 0c 	lwz     r0,12(r11)
 180a7e8:	7f 89 00 00 	cmpw    cr7,r9,r0
 180a7ec:	40 9e 01 4c 	bne-    cr7,180a938 <main+0xa718>
 180a7f0:	3c 00 01 82 	lis     r0,386
 180a7f4:	30 00 c8 44 	addic   r0,r0,-14268
 180a7f8:	7c 0b 03 78 	mr      r11,r0
 180a7fc:	81 2b 00 00 	lwz     r9,0(r11)
 180a800:	3c 00 01 82 	lis     r0,386
 180a804:	30 00 c8 44 	addic   r0,r0,-14268
 180a808:	7c 0b 03 78 	mr      r11,r0
 180a80c:	80 0b 00 08 	lwz     r0,8(r11)
 180a810:	7f 89 00 00 	cmpw    cr7,r9,r0
 180a814:	40 9e 01 24 	bne-    cr7,180a938 <main+0xa718>
 180a818:	3c 00 01 82 	lis     r0,386
 180a81c:	30 00 c8 44 	addic   r0,r0,-14268
 180a820:	7c 09 03 78 	mr      r9,r0
 180a824:	80 09 00 10 	lwz     r0,16(r9)
 180a828:	90 1f 00 e8 	stw     r0,232(r31)
 180a82c:	3c 00 01 82 	lis     r0,386
 180a830:	30 00 c8 44 	addic   r0,r0,-14268
 180a834:	7c 0b 03 78 	mr      r11,r0
 180a838:	80 0b 00 00 	lwz     r0,0(r11)
 180a83c:	90 1f 00 e4 	stw     r0,228(r31)
 180a840:	81 3f 00 e4 	lwz     r9,228(r31)
 180a844:	80 1f 00 e8 	lwz     r0,232(r31)
 180a848:	7f 89 00 00 	cmpw    cr7,r9,r0
 180a84c:	40 9d 00 ec 	ble-    cr7,180a938 <main+0xa718>
 180a850:	3c 00 01 82 	lis     r0,386
 180a854:	30 00 c8 44 	addic   r0,r0,-14268
 180a858:	7c 0b 03 78 	mr      r11,r0
 180a85c:	81 2b 00 04 	lwz     r9,4(r11)
 180a860:	3c 00 01 82 	lis     r0,386
 180a864:	30 00 c8 44 	addic   r0,r0,-14268
 180a868:	7c 0b 03 78 	mr      r11,r0
 180a86c:	91 2b 00 00 	stw     r9,0(r11)
 180a870:	3c 00 01 82 	lis     r0,386
 180a874:	7c 09 03 78 	mr      r9,r0
 180a878:	80 09 c7 f8 	lwz     r0,-14344(r9)
 180a87c:	31 20 ff fc 	addic   r9,r0,-4
 180a880:	3c 00 01 82 	lis     r0,386
 180a884:	7c 0b 03 78 	mr      r11,r0
 180a888:	91 2b c7 f8 	stw     r9,-14344(r11)
 180a88c:	81 3f 00 e8 	lwz     r9,232(r31)
 180a890:	80 1f 00 e4 	lwz     r0,228(r31)
 180a894:	7c 09 02 14 	add     r0,r9,r0
 180a898:	90 1f 00 e0 	stw     r0,224(r31)
 180a89c:	3c 00 01 82 	lis     r0,386
 180a8a0:	7c 09 03 78 	mr      r9,r0
 180a8a4:	80 09 c7 fc 	lwz     r0,-14340(r9)
 180a8a8:	3d 20 01 82 	lis     r9,386
 180a8ac:	39 29 c8 20 	addi    r9,r9,-14304
 180a8b0:	54 00 10 3a 	rlwinm  r0,r0,2,0,29
 180a8b4:	7c 09 02 14 	add     r0,r9,r0
 180a8b8:	81 3f 00 e8 	lwz     r9,232(r31)
 180a8bc:	7c 0b 03 78 	mr      r11,r0
 180a8c0:	91 2b 00 00 	stw     r9,0(r11)
 180a8c4:	3c 00 01 82 	lis     r0,386
 180a8c8:	7c 09 03 78 	mr      r9,r0
 180a8cc:	80 09 c7 fc 	lwz     r0,-14340(r9)
 180a8d0:	30 00 00 01 	addic   r0,r0,1
 180a8d4:	3d 20 01 82 	lis     r9,386
 180a8d8:	39 29 c8 20 	addi    r9,r9,-14304
 180a8dc:	54 00 10 3a 	rlwinm  r0,r0,2,0,29
 180a8e0:	7c 09 02 14 	add     r0,r9,r0
 180a8e4:	81 3f 00 e4 	lwz     r9,228(r31)
 180a8e8:	7c 0b 03 78 	mr      r11,r0
 180a8ec:	91 2b 00 00 	stw     r9,0(r11)
 180a8f0:	3c 00 01 82 	lis     r0,386
 180a8f4:	7c 09 03 78 	mr      r9,r0
 180a8f8:	80 09 c7 fc 	lwz     r0,-14340(r9)
 180a8fc:	30 00 00 02 	addic   r0,r0,2
 180a900:	3d 20 01 82 	lis     r9,386
 180a904:	39 29 c8 20 	addi    r9,r9,-14304
 180a908:	54 00 10 3a 	rlwinm  r0,r0,2,0,29
 180a90c:	7c 09 02 14 	add     r0,r9,r0
 180a910:	81 3f 00 e0 	lwz     r9,224(r31)
 180a914:	7c 0b 03 78 	mr      r11,r0
 180a918:	91 2b 00 00 	stw     r9,0(r11)
 180a91c:	3c 00 01 82 	lis     r0,386
 180a920:	7c 09 03 78 	mr      r9,r0
 180a924:	80 09 c7 fc 	lwz     r0,-14340(r9)
 180a928:	31 20 00 03 	addic   r9,r0,3
 180a92c:	3c 00 01 82 	lis     r0,386
 180a930:	7c 0b 03 78 	mr      r11,r0
 180a934:	91 2b c7 fc 	stw     r9,-14340(r11)
 180a938:	3c 00 01 82 	lis     r0,386
 180a93c:	7c 09 03 78 	mr      r9,r0
 180a940:	80 09 c7 f8 	lwz     r0,-14344(r9)
 180a944:	2f 80 00 04 	cmpwi   cr7,r0,4
 180a948:	40 9d 01 8c 	ble-    cr7,180aad4 <main+0xa8b4>
 180a94c:	3c 00 01 82 	lis     r0,386
 180a950:	7c 0b 03 78 	mr      r11,r0
 180a954:	80 0b c7 fc 	lwz     r0,-14340(r11)
 180a958:	30 00 00 03 	addic   r0,r0,3
 180a95c:	2f 80 00 06 	cmpwi   cr7,r0,6
 180a960:	41 9d 01 74 	bgt-    cr7,180aad4 <main+0xa8b4>
 180a964:	3c 00 01 82 	lis     r0,386
 180a968:	30 00 c8 44 	addic   r0,r0,-14268
 180a96c:	7c 0b 03 78 	mr      r11,r0
 180a970:	81 2b 00 04 	lwz     r9,4(r11)
 180a974:	3c 00 01 82 	lis     r0,386
 180a978:	30 00 c8 44 	addic   r0,r0,-14268
 180a97c:	7c 0b 03 78 	mr      r11,r0
 180a980:	80 0b 00 00 	lwz     r0,0(r11)
 180a984:	7f 89 00 00 	cmpw    cr7,r9,r0
 180a988:	40 9e 01 4c 	bne-    cr7,180aad4 <main+0xa8b4>
 180a98c:	3c 00 01 82 	lis     r0,386
 180a990:	30 00 c8 44 	addic   r0,r0,-14268
 180a994:	7c 0b 03 78 	mr      r11,r0
 180a998:	81 2b 00 04 	lwz     r9,4(r11)
 180a99c:	3c 00 01 82 	lis     r0,386
 180a9a0:	30 00 c8 44 	addic   r0,r0,-14268
 180a9a4:	7c 0b 03 78 	mr      r11,r0
 180a9a8:	80 0b 00 08 	lwz     r0,8(r11)
 180a9ac:	7f 89 00 00 	cmpw    cr7,r9,r0
 180a9b0:	40 9e 01 24 	bne-    cr7,180aad4 <main+0xa8b4>
 180a9b4:	3c 00 01 82 	lis     r0,386
 180a9b8:	30 00 c8 44 	addic   r0,r0,-14268
 180a9bc:	7c 09 03 78 	mr      r9,r0
 180a9c0:	80 09 00 10 	lwz     r0,16(r9)
 180a9c4:	90 1f 00 dc 	stw     r0,220(r31)
 180a9c8:	3c 00 01 82 	lis     r0,386
 180a9cc:	30 00 c8 44 	addic   r0,r0,-14268
 180a9d0:	7c 0b 03 78 	mr      r11,r0
 180a9d4:	80 0b 00 04 	lwz     r0,4(r11)
 180a9d8:	90 1f 00 d8 	stw     r0,216(r31)
 180a9dc:	81 3f 00 d8 	lwz     r9,216(r31)
 180a9e0:	80 1f 00 dc 	lwz     r0,220(r31)
 180a9e4:	7f 89 00 00 	cmpw    cr7,r9,r0
 180a9e8:	40 9d 00 ec 	ble-    cr7,180aad4 <main+0xa8b4>
 180a9ec:	3c 00 01 82 	lis     r0,386
 180a9f0:	30 00 c8 44 	addic   r0,r0,-14268
 180a9f4:	7c 0b 03 78 	mr      r11,r0
 180a9f8:	81 2b 00 0c 	lwz     r9,12(r11)
 180a9fc:	3c 00 01 82 	lis     r0,386
 180aa00:	30 00 c8 44 	addic   r0,r0,-14268
 180aa04:	7c 0b 03 78 	mr      r11,r0
 180aa08:	91 2b 00 00 	stw     r9,0(r11)
 180aa0c:	3c 00 01 82 	lis     r0,386
 180aa10:	7c 09 03 78 	mr      r9,r0
 180aa14:	80 09 c7 f8 	lwz     r0,-14344(r9)
 180aa18:	31 20 ff fc 	addic   r9,r0,-4
 180aa1c:	3c 00 01 82 	lis     r0,386
 180aa20:	7c 0b 03 78 	mr      r11,r0
 180aa24:	91 2b c7 f8 	stw     r9,-14344(r11)
 180aa28:	81 3f 00 dc 	lwz     r9,220(r31)
 180aa2c:	80 1f 00 d8 	lwz     r0,216(r31)
 180aa30:	7c 09 02 14 	add     r0,r9,r0
 180aa34:	90 1f 00 d4 	stw     r0,212(r31)
 180aa38:	3c 00 01 82 	lis     r0,386
 180aa3c:	7c 09 03 78 	mr      r9,r0
 180aa40:	80 09 c7 fc 	lwz     r0,-14340(r9)
 180aa44:	3d 20 01 82 	lis     r9,386
 180aa48:	39 29 c8 20 	addi    r9,r9,-14304
 180aa4c:	54 00 10 3a 	rlwinm  r0,r0,2,0,29
 180aa50:	7c 09 02 14 	add     r0,r9,r0
 180aa54:	81 3f 00 dc 	lwz     r9,220(r31)
 180aa58:	7c 0b 03 78 	mr      r11,r0
 180aa5c:	91 2b 00 00 	stw     r9,0(r11)
 180aa60:	3c 00 01 82 	lis     r0,386
 180aa64:	7c 09 03 78 	mr      r9,r0
 180aa68:	80 09 c7 fc 	lwz     r0,-14340(r9)
 180aa6c:	30 00 00 01 	addic   r0,r0,1
 180aa70:	3d 20 01 82 	lis     r9,386
 180aa74:	39 29 c8 20 	addi    r9,r9,-14304
 180aa78:	54 00 10 3a 	rlwinm  r0,r0,2,0,29
 180aa7c:	7c 09 02 14 	add     r0,r9,r0
 180aa80:	81 3f 00 d8 	lwz     r9,216(r31)
 180aa84:	7c 0b 03 78 	mr      r11,r0
 180aa88:	91 2b 00 00 	stw     r9,0(r11)
 180aa8c:	3c 00 01 82 	lis     r0,386
 180aa90:	7c 09 03 78 	mr      r9,r0
 180aa94:	80 09 c7 fc 	lwz     r0,-14340(r9)
 180aa98:	30 00 00 02 	addic   r0,r0,2
 180aa9c:	3d 20 01 82 	lis     r9,386
 180aaa0:	39 29 c8 20 	addi    r9,r9,-14304
 180aaa4:	54 00 10 3a 	rlwinm  r0,r0,2,0,29
 180aaa8:	7c 09 02 14 	add     r0,r9,r0
 180aaac:	81 3f 00 d4 	lwz     r9,212(r31)
 180aab0:	7c 0b 03 78 	mr      r11,r0
 180aab4:	91 2b 00 00 	stw     r9,0(r11)
 180aab8:	3c 00 01 82 	lis     r0,386
 180aabc:	7c 09 03 78 	mr      r9,r0
 180aac0:	80 09 c7 fc 	lwz     r0,-14340(r9)
 180aac4:	31 20 00 03 	addic   r9,r0,3
 180aac8:	3c 00 01 82 	lis     r0,386
 180aacc:	7c 0b 03 78 	mr      r11,r0
 180aad0:	91 2b c7 fc 	stw     r9,-14340(r11)
 180aad4:	3c 00 01 82 	lis     r0,386
 180aad8:	7c 09 03 78 	mr      r9,r0
 180aadc:	80 09 c7 f8 	lwz     r0,-14344(r9)
 180aae0:	2f 80 00 04 	cmpwi   cr7,r0,4
 180aae4:	40 9d 01 8c 	ble-    cr7,180ac70 <main+0xaa50>
 180aae8:	3c 00 01 82 	lis     r0,386
 180aaec:	7c 0b 03 78 	mr      r11,r0
 180aaf0:	80 0b c7 fc 	lwz     r0,-14340(r11)
 180aaf4:	30 00 00 03 	addic   r0,r0,3
 180aaf8:	2f 80 00 06 	cmpwi   cr7,r0,6
 180aafc:	41 9d 01 74 	bgt-    cr7,180ac70 <main+0xaa50>
 180ab00:	3c 00 01 82 	lis     r0,386
 180ab04:	30 00 c8 44 	addic   r0,r0,-14268
 180ab08:	7c 0b 03 78 	mr      r11,r0
 180ab0c:	81 2b 00 04 	lwz     r9,4(r11)
 180ab10:	3c 00 01 82 	lis     r0,386
 180ab14:	30 00 c8 44 	addic   r0,r0,-14268
 180ab18:	7c 0b 03 78 	mr      r11,r0
 180ab1c:	80 0b 00 00 	lwz     r0,0(r11)
 180ab20:	7f 89 00 00 	cmpw    cr7,r9,r0
 180ab24:	40 9e 01 4c 	bne-    cr7,180ac70 <main+0xaa50>
 180ab28:	3c 00 01 82 	lis     r0,386
 180ab2c:	30 00 c8 44 	addic   r0,r0,-14268
 180ab30:	7c 0b 03 78 	mr      r11,r0
 180ab34:	81 2b 00 04 	lwz     r9,4(r11)
 180ab38:	3c 00 01 82 	lis     r0,386
 180ab3c:	30 00 c8 44 	addic   r0,r0,-14268
 180ab40:	7c 0b 03 78 	mr      r11,r0
 180ab44:	80 0b 00 0c 	lwz     r0,12(r11)
 180ab48:	7f 89 00 00 	cmpw    cr7,r9,r0
 180ab4c:	40 9e 01 24 	bne-    cr7,180ac70 <main+0xaa50>
 180ab50:	3c 00 01 82 	lis     r0,386
 180ab54:	30 00 c8 44 	addic   r0,r0,-14268
 180ab58:	7c 09 03 78 	mr      r9,r0
 180ab5c:	80 09 00 10 	lwz     r0,16(r9)
 180ab60:	90 1f 00 d0 	stw     r0,208(r31)
 180ab64:	3c 00 01 82 	lis     r0,386
 180ab68:	30 00 c8 44 	addic   r0,r0,-14268
 180ab6c:	7c 0b 03 78 	mr      r11,r0
 180ab70:	80 0b 00 04 	lwz     r0,4(r11)
 180ab74:	90 1f 00 cc 	stw     r0,204(r31)
 180ab78:	81 3f 00 cc 	lwz     r9,204(r31)
 180ab7c:	80 1f 00 d0 	lwz     r0,208(r31)
 180ab80:	7f 89 00 00 	cmpw    cr7,r9,r0
 180ab84:	40 9d 00 ec 	ble-    cr7,180ac70 <main+0xaa50>
 180ab88:	3c 00 01 82 	lis     r0,386
 180ab8c:	30 00 c8 44 	addic   r0,r0,-14268
 180ab90:	7c 0b 03 78 	mr      r11,r0
 180ab94:	81 2b 00 08 	lwz     r9,8(r11)
 180ab98:	3c 00 01 82 	lis     r0,386
 180ab9c:	30 00 c8 44 	addic   r0,r0,-14268
 180aba0:	7c 0b 03 78 	mr      r11,r0
 180aba4:	91 2b 00 00 	stw     r9,0(r11)
 180aba8:	3c 00 01 82 	lis     r0,386
 180abac:	7c 09 03 78 	mr      r9,r0
 180abb0:	80 09 c7 f8 	lwz     r0,-14344(r9)
 180abb4:	31 20 ff fc 	addic   r9,r0,-4
 180abb8:	3c 00 01 82 	lis     r0,386
 180abbc:	7c 0b 03 78 	mr      r11,r0
 180abc0:	91 2b c7 f8 	stw     r9,-14344(r11)
 180abc4:	81 3f 00 d0 	lwz     r9,208(r31)
 180abc8:	80 1f 00 cc 	lwz     r0,204(r31)
 180abcc:	7c 09 02 14 	add     r0,r9,r0
 180abd0:	90 1f 00 c8 	stw     r0,200(r31)
 180abd4:	3c 00 01 82 	lis     r0,386
 180abd8:	7c 09 03 78 	mr      r9,r0
 180abdc:	80 09 c7 fc 	lwz     r0,-14340(r9)
 180abe0:	3d 20 01 82 	lis     r9,386
 180abe4:	39 29 c8 20 	addi    r9,r9,-14304
 180abe8:	54 00 10 3a 	rlwinm  r0,r0,2,0,29
 180abec:	7c 09 02 14 	add     r0,r9,r0
 180abf0:	81 3f 00 d0 	lwz     r9,208(r31)
 180abf4:	7c 0b 03 78 	mr      r11,r0
 180abf8:	91 2b 00 00 	stw     r9,0(r11)
 180abfc:	3c 00 01 82 	lis     r0,386
 180ac00:	7c 09 03 78 	mr      r9,r0
 180ac04:	80 09 c7 fc 	lwz     r0,-14340(r9)
 180ac08:	30 00 00 01 	addic   r0,r0,1
 180ac0c:	3d 20 01 82 	lis     r9,386
 180ac10:	39 29 c8 20 	addi    r9,r9,-14304
 180ac14:	54 00 10 3a 	rlwinm  r0,r0,2,0,29
 180ac18:	7c 09 02 14 	add     r0,r9,r0
 180ac1c:	81 3f 00 cc 	lwz     r9,204(r31)
 180ac20:	7c 0b 03 78 	mr      r11,r0
 180ac24:	91 2b 00 00 	stw     r9,0(r11)
 180ac28:	3c 00 01 82 	lis     r0,386
 180ac2c:	7c 09 03 78 	mr      r9,r0
 180ac30:	80 09 c7 fc 	lwz     r0,-14340(r9)
 180ac34:	30 00 00 02 	addic   r0,r0,2
 180ac38:	3d 20 01 82 	lis     r9,386
 180ac3c:	39 29 c8 20 	addi    r9,r9,-14304
 180ac40:	54 00 10 3a 	rlwinm  r0,r0,2,0,29
 180ac44:	7c 09 02 14 	add     r0,r9,r0
 180ac48:	81 3f 00 c8 	lwz     r9,200(r31)
 180ac4c:	7c 0b 03 78 	mr      r11,r0
 180ac50:	91 2b 00 00 	stw     r9,0(r11)
 180ac54:	3c 00 01 82 	lis     r0,386
 180ac58:	7c 09 03 78 	mr      r9,r0
 180ac5c:	80 09 c7 fc 	lwz     r0,-14340(r9)
 180ac60:	31 20 00 03 	addic   r9,r0,3
 180ac64:	3c 00 01 82 	lis     r0,386
 180ac68:	7c 0b 03 78 	mr      r11,r0
 180ac6c:	91 2b c7 fc 	stw     r9,-14340(r11)
 180ac70:	3c 00 01 82 	lis     r0,386
 180ac74:	7c 09 03 78 	mr      r9,r0
 180ac78:	80 09 c7 f8 	lwz     r0,-14344(r9)
 180ac7c:	2f 80 00 04 	cmpwi   cr7,r0,4
 180ac80:	40 9d 01 8c 	ble-    cr7,180ae0c <main+0xabec>
 180ac84:	3c 00 01 82 	lis     r0,386
 180ac88:	7c 0b 03 78 	mr      r11,r0
 180ac8c:	80 0b c7 fc 	lwz     r0,-14340(r11)
 180ac90:	30 00 00 03 	addic   r0,r0,3
 180ac94:	2f 80 00 06 	cmpwi   cr7,r0,6
 180ac98:	41 9d 01 74 	bgt-    cr7,180ae0c <main+0xabec>
 180ac9c:	3c 00 01 82 	lis     r0,386
 180aca0:	30 00 c8 44 	addic   r0,r0,-14268
 180aca4:	7c 0b 03 78 	mr      r11,r0
 180aca8:	81 2b 00 04 	lwz     r9,4(r11)
 180acac:	3c 00 01 82 	lis     r0,386
 180acb0:	30 00 c8 44 	addic   r0,r0,-14268
 180acb4:	7c 0b 03 78 	mr      r11,r0
 180acb8:	80 0b 00 08 	lwz     r0,8(r11)
 180acbc:	7f 89 00 00 	cmpw    cr7,r9,r0
 180acc0:	40 9e 01 4c 	bne-    cr7,180ae0c <main+0xabec>
 180acc4:	3c 00 01 82 	lis     r0,386
 180acc8:	30 00 c8 44 	addic   r0,r0,-14268
 180accc:	7c 0b 03 78 	mr      r11,r0
 180acd0:	81 2b 00 04 	lwz     r9,4(r11)
 180acd4:	3c 00 01 82 	lis     r0,386
 180acd8:	30 00 c8 44 	addic   r0,r0,-14268
 180acdc:	7c 0b 03 78 	mr      r11,r0
 180ace0:	80 0b 00 00 	lwz     r0,0(r11)
 180ace4:	7f 89 00 00 	cmpw    cr7,r9,r0
 180ace8:	40 9e 01 24 	bne-    cr7,180ae0c <main+0xabec>
 180acec:	3c 00 01 82 	lis     r0,386
 180acf0:	30 00 c8 44 	addic   r0,r0,-14268
 180acf4:	7c 09 03 78 	mr      r9,r0
 180acf8:	80 09 00 10 	lwz     r0,16(r9)
 180acfc:	90 1f 00 c4 	stw     r0,196(r31)
 180ad00:	3c 00 01 82 	lis     r0,386
 180ad04:	30 00 c8 44 	addic   r0,r0,-14268
 180ad08:	7c 0b 03 78 	mr      r11,r0
 180ad0c:	80 0b 00 04 	lwz     r0,4(r11)
 180ad10:	90 1f 00 c0 	stw     r0,192(r31)
 180ad14:	81 3f 00 c0 	lwz     r9,192(r31)
 180ad18:	80 1f 00 c4 	lwz     r0,196(r31)
 180ad1c:	7f 89 00 00 	cmpw    cr7,r9,r0
 180ad20:	40 9d 00 ec 	ble-    cr7,180ae0c <main+0xabec>
 180ad24:	3c 00 01 82 	lis     r0,386
 180ad28:	30 00 c8 44 	addic   r0,r0,-14268
 180ad2c:	7c 0b 03 78 	mr      r11,r0
 180ad30:	81 2b 00 0c 	lwz     r9,12(r11)
 180ad34:	3c 00 01 82 	lis     r0,386
 180ad38:	30 00 c8 44 	addic   r0,r0,-14268
 180ad3c:	7c 0b 03 78 	mr      r11,r0
 180ad40:	91 2b 00 00 	stw     r9,0(r11)
 180ad44:	3c 00 01 82 	lis     r0,386
 180ad48:	7c 09 03 78 	mr      r9,r0
 180ad4c:	80 09 c7 f8 	lwz     r0,-14344(r9)
 180ad50:	31 20 ff fc 	addic   r9,r0,-4
 180ad54:	3c 00 01 82 	lis     r0,386
 180ad58:	7c 0b 03 78 	mr      r11,r0
 180ad5c:	91 2b c7 f8 	stw     r9,-14344(r11)
 180ad60:	81 3f 00 c4 	lwz     r9,196(r31)
 180ad64:	80 1f 00 c0 	lwz     r0,192(r31)
 180ad68:	7c 09 02 14 	add     r0,r9,r0
 180ad6c:	90 1f 00 bc 	stw     r0,188(r31)
 180ad70:	3c 00 01 82 	lis     r0,386
 180ad74:	7c 09 03 78 	mr      r9,r0
 180ad78:	80 09 c7 fc 	lwz     r0,-14340(r9)
 180ad7c:	3d 20 01 82 	lis     r9,386
 180ad80:	39 29 c8 20 	addi    r9,r9,-14304
 180ad84:	54 00 10 3a 	rlwinm  r0,r0,2,0,29
 180ad88:	7c 09 02 14 	add     r0,r9,r0
 180ad8c:	81 3f 00 c4 	lwz     r9,196(r31)
 180ad90:	7c 0b 03 78 	mr      r11,r0
 180ad94:	91 2b 00 00 	stw     r9,0(r11)
 180ad98:	3c 00 01 82 	lis     r0,386
 180ad9c:	7c 09 03 78 	mr      r9,r0
 180ada0:	80 09 c7 fc 	lwz     r0,-14340(r9)
 180ada4:	30 00 00 01 	addic   r0,r0,1
 180ada8:	3d 20 01 82 	lis     r9,386
 180adac:	39 29 c8 20 	addi    r9,r9,-14304
 180adb0:	54 00 10 3a 	rlwinm  r0,r0,2,0,29
 180adb4:	7c 09 02 14 	add     r0,r9,r0
 180adb8:	81 3f 00 c0 	lwz     r9,192(r31)
 180adbc:	7c 0b 03 78 	mr      r11,r0
 180adc0:	91 2b 00 00 	stw     r9,0(r11)
 180adc4:	3c 00 01 82 	lis     r0,386
 180adc8:	7c 09 03 78 	mr      r9,r0
 180adcc:	80 09 c7 fc 	lwz     r0,-14340(r9)
 180add0:	30 00 00 02 	addic   r0,r0,2
 180add4:	3d 20 01 82 	lis     r9,386
 180add8:	39 29 c8 20 	addi    r9,r9,-14304
 180addc:	54 00 10 3a 	rlwinm  r0,r0,2,0,29
 180ade0:	7c 09 02 14 	add     r0,r9,r0
 180ade4:	81 3f 00 bc 	lwz     r9,188(r31)
 180ade8:	7c 0b 03 78 	mr      r11,r0
 180adec:	91 2b 00 00 	stw     r9,0(r11)
 180adf0:	3c 00 01 82 	lis     r0,386
 180adf4:	7c 09 03 78 	mr      r9,r0
 180adf8:	80 09 c7 fc 	lwz     r0,-14340(r9)
 180adfc:	31 20 00 03 	addic   r9,r0,3
 180ae00:	3c 00 01 82 	lis     r0,386
 180ae04:	7c 0b 03 78 	mr      r11,r0
 180ae08:	91 2b c7 fc 	stw     r9,-14340(r11)
 180ae0c:	3c 00 01 82 	lis     r0,386
 180ae10:	7c 09 03 78 	mr      r9,r0
 180ae14:	80 09 c7 f8 	lwz     r0,-14344(r9)
 180ae18:	2f 80 00 04 	cmpwi   cr7,r0,4
 180ae1c:	40 9d 01 6c 	ble-    cr7,180af88 <main+0xad68>
 180ae20:	3c 00 01 82 	lis     r0,386
 180ae24:	7c 0b 03 78 	mr      r11,r0
 180ae28:	80 0b c7 fc 	lwz     r0,-14340(r11)
 180ae2c:	30 00 00 03 	addic   r0,r0,3
 180ae30:	2f 80 00 06 	cmpwi   cr7,r0,6
 180ae34:	41 9d 01 54 	bgt-    cr7,180af88 <main+0xad68>
 180ae38:	3c 00 01 82 	lis     r0,386
 180ae3c:	30 00 c8 44 	addic   r0,r0,-14268
 180ae40:	7c 0b 03 78 	mr      r11,r0
 180ae44:	81 2b 00 04 	lwz     r9,4(r11)
 180ae48:	3c 00 01 82 	lis     r0,386
 180ae4c:	30 00 c8 44 	addic   r0,r0,-14268
 180ae50:	7c 0b 03 78 	mr      r11,r0
 180ae54:	80 0b 00 08 	lwz     r0,8(r11)
 180ae58:	7f 89 00 00 	cmpw    cr7,r9,r0
 180ae5c:	40 9e 01 2c 	bne-    cr7,180af88 <main+0xad68>
 180ae60:	3c 00 01 82 	lis     r0,386
 180ae64:	30 00 c8 44 	addic   r0,r0,-14268
 180ae68:	7c 0b 03 78 	mr      r11,r0
 180ae6c:	81 2b 00 04 	lwz     r9,4(r11)
 180ae70:	3c 00 01 82 	lis     r0,386
 180ae74:	30 00 c8 44 	addic   r0,r0,-14268
 180ae78:	7c 0b 03 78 	mr      r11,r0
 180ae7c:	80 0b 00 0c 	lwz     r0,12(r11)
 180ae80:	7f 89 00 00 	cmpw    cr7,r9,r0
 180ae84:	40 9e 01 04 	bne-    cr7,180af88 <main+0xad68>
 180ae88:	3c 00 01 82 	lis     r0,386
 180ae8c:	30 00 c8 44 	addic   r0,r0,-14268
 180ae90:	7c 09 03 78 	mr      r9,r0
 180ae94:	80 09 00 10 	lwz     r0,16(r9)
 180ae98:	90 1f 00 b8 	stw     r0,184(r31)
 180ae9c:	3c 00 01 82 	lis     r0,386
 180aea0:	30 00 c8 44 	addic   r0,r0,-14268
 180aea4:	7c 0b 03 78 	mr      r11,r0
 180aea8:	80 0b 00 04 	lwz     r0,4(r11)
 180aeac:	90 1f 00 b4 	stw     r0,180(r31)
 180aeb0:	81 3f 00 b4 	lwz     r9,180(r31)
 180aeb4:	80 1f 00 b8 	lwz     r0,184(r31)
 180aeb8:	7f 89 00 00 	cmpw    cr7,r9,r0
 180aebc:	40 9d 00 cc 	ble-    cr7,180af88 <main+0xad68>
 180aec0:	3c 00 01 82 	lis     r0,386
 180aec4:	7c 09 03 78 	mr      r9,r0
 180aec8:	80 09 c7 f8 	lwz     r0,-14344(r9)
 180aecc:	31 20 ff fc 	addic   r9,r0,-4
 180aed0:	3c 00 01 82 	lis     r0,386
 180aed4:	7c 0b 03 78 	mr      r11,r0
 180aed8:	91 2b c7 f8 	stw     r9,-14344(r11)
 180aedc:	81 3f 00 b8 	lwz     r9,184(r31)
 180aee0:	80 1f 00 b4 	lwz     r0,180(r31)
 180aee4:	7c 09 02 14 	add     r0,r9,r0
 180aee8:	90 1f 00 b0 	stw     r0,176(r31)
 180aeec:	3c 00 01 82 	lis     r0,386
 180aef0:	7c 09 03 78 	mr      r9,r0
 180aef4:	80 09 c7 fc 	lwz     r0,-14340(r9)
 180aef8:	3d 20 01 82 	lis     r9,386
 180aefc:	39 29 c8 20 	addi    r9,r9,-14304
 180af00:	54 00 10 3a 	rlwinm  r0,r0,2,0,29
 180af04:	7c 09 02 14 	add     r0,r9,r0
 180af08:	81 3f 00 b8 	lwz     r9,184(r31)
 180af0c:	7c 0b 03 78 	mr      r11,r0
 180af10:	91 2b 00 00 	stw     r9,0(r11)
 180af14:	3c 00 01 82 	lis     r0,386
 180af18:	7c 09 03 78 	mr      r9,r0
 180af1c:	80 09 c7 fc 	lwz     r0,-14340(r9)
 180af20:	30 00 00 01 	addic   r0,r0,1
 180af24:	3d 20 01 82 	lis     r9,386
 180af28:	39 29 c8 20 	addi    r9,r9,-14304
 180af2c:	54 00 10 3a 	rlwinm  r0,r0,2,0,29
 180af30:	7c 09 02 14 	add     r0,r9,r0
 180af34:	81 3f 00 b4 	lwz     r9,180(r31)
 180af38:	7c 0b 03 78 	mr      r11,r0
 180af3c:	91 2b 00 00 	stw     r9,0(r11)
 180af40:	3c 00 01 82 	lis     r0,386
 180af44:	7c 09 03 78 	mr      r9,r0
 180af48:	80 09 c7 fc 	lwz     r0,-14340(r9)
 180af4c:	30 00 00 02 	addic   r0,r0,2
 180af50:	3d 20 01 82 	lis     r9,386
 180af54:	39 29 c8 20 	addi    r9,r9,-14304
 180af58:	54 00 10 3a 	rlwinm  r0,r0,2,0,29
 180af5c:	7c 09 02 14 	add     r0,r9,r0
 180af60:	81 3f 00 b0 	lwz     r9,176(r31)
 180af64:	7c 0b 03 78 	mr      r11,r0
 180af68:	91 2b 00 00 	stw     r9,0(r11)
 180af6c:	3c 00 01 82 	lis     r0,386
 180af70:	7c 09 03 78 	mr      r9,r0
 180af74:	80 09 c7 fc 	lwz     r0,-14340(r9)
 180af78:	31 20 00 03 	addic   r9,r0,3
 180af7c:	3c 00 01 82 	lis     r0,386
 180af80:	7c 0b 03 78 	mr      r11,r0
 180af84:	91 2b c7 fc 	stw     r9,-14340(r11)
 180af88:	3c 00 01 82 	lis     r0,386
 180af8c:	7c 09 03 78 	mr      r9,r0
 180af90:	80 09 c7 f8 	lwz     r0,-14344(r9)
 180af94:	2f 80 00 04 	cmpwi   cr7,r0,4
 180af98:	40 9d 01 8c 	ble-    cr7,180b124 <main+0xaf04>
 180af9c:	3c 00 01 82 	lis     r0,386
 180afa0:	7c 0b 03 78 	mr      r11,r0
 180afa4:	80 0b c7 fc 	lwz     r0,-14340(r11)
 180afa8:	30 00 00 03 	addic   r0,r0,3
 180afac:	2f 80 00 06 	cmpwi   cr7,r0,6
 180afb0:	41 9d 01 74 	bgt-    cr7,180b124 <main+0xaf04>
 180afb4:	3c 00 01 82 	lis     r0,386
 180afb8:	30 00 c8 44 	addic   r0,r0,-14268
 180afbc:	7c 0b 03 78 	mr      r11,r0
 180afc0:	81 2b 00 04 	lwz     r9,4(r11)
 180afc4:	3c 00 01 82 	lis     r0,386
 180afc8:	30 00 c8 44 	addic   r0,r0,-14268
 180afcc:	7c 0b 03 78 	mr      r11,r0
 180afd0:	80 0b 00 0c 	lwz     r0,12(r11)
 180afd4:	7f 89 00 00 	cmpw    cr7,r9,r0
 180afd8:	40 9e 01 4c 	bne-    cr7,180b124 <main+0xaf04>
 180afdc:	3c 00 01 82 	lis     r0,386
 180afe0:	30 00 c8 44 	addic   r0,r0,-14268
 180afe4:	7c 0b 03 78 	mr      r11,r0
 180afe8:	81 2b 00 04 	lwz     r9,4(r11)
 180afec:	3c 00 01 82 	lis     r0,386
 180aff0:	30 00 c8 44 	addic   r0,r0,-14268
 180aff4:	7c 0b 03 78 	mr      r11,r0
 180aff8:	80 0b 00 00 	lwz     r0,0(r11)
 180affc:	7f 89 00 00 	cmpw    cr7,r9,r0
 180b000:	40 9e 01 24 	bne-    cr7,180b124 <main+0xaf04>
 180b004:	3c 00 01 82 	lis     r0,386
 180b008:	30 00 c8 44 	addic   r0,r0,-14268
 180b00c:	7c 09 03 78 	mr      r9,r0
 180b010:	80 09 00 10 	lwz     r0,16(r9)
 180b014:	90 1f 00 ac 	stw     r0,172(r31)
 180b018:	3c 00 01 82 	lis     r0,386
 180b01c:	30 00 c8 44 	addic   r0,r0,-14268
 180b020:	7c 0b 03 78 	mr      r11,r0
 180b024:	80 0b 00 04 	lwz     r0,4(r11)
 180b028:	90 1f 00 a8 	stw     r0,168(r31)
 180b02c:	81 3f 00 a8 	lwz     r9,168(r31)
 180b030:	80 1f 00 ac 	lwz     r0,172(r31)
 180b034:	7f 89 00 00 	cmpw    cr7,r9,r0
 180b038:	40 9d 00 ec 	ble-    cr7,180b124 <main+0xaf04>
 180b03c:	3c 00 01 82 	lis     r0,386
 180b040:	30 00 c8 44 	addic   r0,r0,-14268
 180b044:	7c 0b 03 78 	mr      r11,r0
 180b048:	81 2b 00 08 	lwz     r9,8(r11)
 180b04c:	3c 00 01 82 	lis     r0,386
 180b050:	30 00 c8 44 	addic   r0,r0,-14268
 180b054:	7c 0b 03 78 	mr      r11,r0
 180b058:	91 2b 00 00 	stw     r9,0(r11)
 180b05c:	3c 00 01 82 	lis     r0,386
 180b060:	7c 09 03 78 	mr      r9,r0
 180b064:	80 09 c7 f8 	lwz     r0,-14344(r9)
 180b068:	31 20 ff fc 	addic   r9,r0,-4
 180b06c:	3c 00 01 82 	lis     r0,386
 180b070:	7c 0b 03 78 	mr      r11,r0
 180b074:	91 2b c7 f8 	stw     r9,-14344(r11)
 180b078:	81 3f 00 ac 	lwz     r9,172(r31)
 180b07c:	80 1f 00 a8 	lwz     r0,168(r31)
 180b080:	7c 09 02 14 	add     r0,r9,r0
 180b084:	90 1f 00 a4 	stw     r0,164(r31)
 180b088:	3c 00 01 82 	lis     r0,386
 180b08c:	7c 09 03 78 	mr      r9,r0
 180b090:	80 09 c7 fc 	lwz     r0,-14340(r9)
 180b094:	3d 20 01 82 	lis     r9,386
 180b098:	39 29 c8 20 	addi    r9,r9,-14304
 180b09c:	54 00 10 3a 	rlwinm  r0,r0,2,0,29
 180b0a0:	7c 09 02 14 	add     r0,r9,r0
 180b0a4:	81 3f 00 ac 	lwz     r9,172(r31)
 180b0a8:	7c 0b 03 78 	mr      r11,r0
 180b0ac:	91 2b 00 00 	stw     r9,0(r11)
 180b0b0:	3c 00 01 82 	lis     r0,386
 180b0b4:	7c 09 03 78 	mr      r9,r0
 180b0b8:	80 09 c7 fc 	lwz     r0,-14340(r9)
 180b0bc:	30 00 00 01 	addic   r0,r0,1
 180b0c0:	3d 20 01 82 	lis     r9,386
 180b0c4:	39 29 c8 20 	addi    r9,r9,-14304
 180b0c8:	54 00 10 3a 	rlwinm  r0,r0,2,0,29
 180b0cc:	7c 09 02 14 	add     r0,r9,r0
 180b0d0:	81 3f 00 a8 	lwz     r9,168(r31)
 180b0d4:	7c 0b 03 78 	mr      r11,r0
 180b0d8:	91 2b 00 00 	stw     r9,0(r11)
 180b0dc:	3c 00 01 82 	lis     r0,386
 180b0e0:	7c 09 03 78 	mr      r9,r0
 180b0e4:	80 09 c7 fc 	lwz     r0,-14340(r9)
 180b0e8:	30 00 00 02 	addic   r0,r0,2
 180b0ec:	3d 20 01 82 	lis     r9,386
 180b0f0:	39 29 c8 20 	addi    r9,r9,-14304
 180b0f4:	54 00 10 3a 	rlwinm  r0,r0,2,0,29
 180b0f8:	7c 09 02 14 	add     r0,r9,r0
 180b0fc:	81 3f 00 a4 	lwz     r9,164(r31)
 180b100:	7c 0b 03 78 	mr      r11,r0
 180b104:	91 2b 00 00 	stw     r9,0(r11)
 180b108:	3c 00 01 82 	lis     r0,386
 180b10c:	7c 09 03 78 	mr      r9,r0
 180b110:	80 09 c7 fc 	lwz     r0,-14340(r9)
 180b114:	31 20 00 03 	addic   r9,r0,3
 180b118:	3c 00 01 82 	lis     r0,386
 180b11c:	7c 0b 03 78 	mr      r11,r0
 180b120:	91 2b c7 fc 	stw     r9,-14340(r11)
 180b124:	3c 00 01 82 	lis     r0,386
 180b128:	7c 09 03 78 	mr      r9,r0
 180b12c:	80 09 c7 f8 	lwz     r0,-14344(r9)
 180b130:	2f 80 00 04 	cmpwi   cr7,r0,4
 180b134:	40 9d 01 6c 	ble-    cr7,180b2a0 <main+0xb080>
 180b138:	3c 00 01 82 	lis     r0,386
 180b13c:	7c 0b 03 78 	mr      r11,r0
 180b140:	80 0b c7 fc 	lwz     r0,-14340(r11)
 180b144:	30 00 00 03 	addic   r0,r0,3
 180b148:	2f 80 00 06 	cmpwi   cr7,r0,6
 180b14c:	41 9d 01 54 	bgt-    cr7,180b2a0 <main+0xb080>
 180b150:	3c 00 01 82 	lis     r0,386
 180b154:	30 00 c8 44 	addic   r0,r0,-14268
 180b158:	7c 0b 03 78 	mr      r11,r0
 180b15c:	81 2b 00 04 	lwz     r9,4(r11)
 180b160:	3c 00 01 82 	lis     r0,386
 180b164:	30 00 c8 44 	addic   r0,r0,-14268
 180b168:	7c 0b 03 78 	mr      r11,r0
 180b16c:	80 0b 00 0c 	lwz     r0,12(r11)
 180b170:	7f 89 00 00 	cmpw    cr7,r9,r0
 180b174:	40 9e 01 2c 	bne-    cr7,180b2a0 <main+0xb080>
 180b178:	3c 00 01 82 	lis     r0,386
 180b17c:	30 00 c8 44 	addic   r0,r0,-14268
 180b180:	7c 0b 03 78 	mr      r11,r0
 180b184:	81 2b 00 04 	lwz     r9,4(r11)
 180b188:	3c 00 01 82 	lis     r0,386
 180b18c:	30 00 c8 44 	addic   r0,r0,-14268
 180b190:	7c 0b 03 78 	mr      r11,r0
 180b194:	80 0b 00 08 	lwz     r0,8(r11)
 180b198:	7f 89 00 00 	cmpw    cr7,r9,r0
 180b19c:	40 9e 01 04 	bne-    cr7,180b2a0 <main+0xb080>
 180b1a0:	3c 00 01 82 	lis     r0,386
 180b1a4:	30 00 c8 44 	addic   r0,r0,-14268
 180b1a8:	7c 09 03 78 	mr      r9,r0
 180b1ac:	80 09 00 10 	lwz     r0,16(r9)
 180b1b0:	90 1f 00 a0 	stw     r0,160(r31)
 180b1b4:	3c 00 01 82 	lis     r0,386
 180b1b8:	30 00 c8 44 	addic   r0,r0,-14268
 180b1bc:	7c 0b 03 78 	mr      r11,r0
 180b1c0:	80 0b 00 04 	lwz     r0,4(r11)
 180b1c4:	90 1f 00 9c 	stw     r0,156(r31)
 180b1c8:	81 3f 00 9c 	lwz     r9,156(r31)
 180b1cc:	80 1f 00 a0 	lwz     r0,160(r31)
 180b1d0:	7f 89 00 00 	cmpw    cr7,r9,r0
 180b1d4:	40 9d 00 cc 	ble-    cr7,180b2a0 <main+0xb080>
 180b1d8:	3c 00 01 82 	lis     r0,386
 180b1dc:	7c 09 03 78 	mr      r9,r0
 180b1e0:	80 09 c7 f8 	lwz     r0,-14344(r9)
 180b1e4:	31 20 ff fc 	addic   r9,r0,-4
 180b1e8:	3c 00 01 82 	lis     r0,386
 180b1ec:	7c 0b 03 78 	mr      r11,r0
 180b1f0:	91 2b c7 f8 	stw     r9,-14344(r11)
 180b1f4:	81 3f 00 a0 	lwz     r9,160(r31)
 180b1f8:	80 1f 00 9c 	lwz     r0,156(r31)
 180b1fc:	7c 09 02 14 	add     r0,r9,r0
 180b200:	90 1f 00 98 	stw     r0,152(r31)
 180b204:	3c 00 01 82 	lis     r0,386
 180b208:	7c 09 03 78 	mr      r9,r0
 180b20c:	80 09 c7 fc 	lwz     r0,-14340(r9)
 180b210:	3d 20 01 82 	lis     r9,386
 180b214:	39 29 c8 20 	addi    r9,r9,-14304
 180b218:	54 00 10 3a 	rlwinm  r0,r0,2,0,29
 180b21c:	7c 09 02 14 	add     r0,r9,r0
 180b220:	81 3f 00 a0 	lwz     r9,160(r31)
 180b224:	7c 0b 03 78 	mr      r11,r0
 180b228:	91 2b 00 00 	stw     r9,0(r11)
 180b22c:	3c 00 01 82 	lis     r0,386
 180b230:	7c 09 03 78 	mr      r9,r0
 180b234:	80 09 c7 fc 	lwz     r0,-14340(r9)
 180b238:	30 00 00 01 	addic   r0,r0,1
 180b23c:	3d 20 01 82 	lis     r9,386
 180b240:	39 29 c8 20 	addi    r9,r9,-14304
 180b244:	54 00 10 3a 	rlwinm  r0,r0,2,0,29
 180b248:	7c 09 02 14 	add     r0,r9,r0
 180b24c:	81 3f 00 9c 	lwz     r9,156(r31)
 180b250:	7c 0b 03 78 	mr      r11,r0
 180b254:	91 2b 00 00 	stw     r9,0(r11)
 180b258:	3c 00 01 82 	lis     r0,386
 180b25c:	7c 09 03 78 	mr      r9,r0
 180b260:	80 09 c7 fc 	lwz     r0,-14340(r9)
 180b264:	30 00 00 02 	addic   r0,r0,2
 180b268:	3d 20 01 82 	lis     r9,386
 180b26c:	39 29 c8 20 	addi    r9,r9,-14304
 180b270:	54 00 10 3a 	rlwinm  r0,r0,2,0,29
 180b274:	7c 09 02 14 	add     r0,r9,r0
 180b278:	81 3f 00 98 	lwz     r9,152(r31)
 180b27c:	7c 0b 03 78 	mr      r11,r0
 180b280:	91 2b 00 00 	stw     r9,0(r11)
 180b284:	3c 00 01 82 	lis     r0,386
 180b288:	7c 09 03 78 	mr      r9,r0
 180b28c:	80 09 c7 fc 	lwz     r0,-14340(r9)
 180b290:	31 20 00 03 	addic   r9,r0,3
 180b294:	3c 00 01 82 	lis     r0,386
 180b298:	7c 0b 03 78 	mr      r11,r0
 180b29c:	91 2b c7 fc 	stw     r9,-14340(r11)
 180b2a0:	3c 00 01 82 	lis     r0,386
 180b2a4:	7c 09 03 78 	mr      r9,r0
 180b2a8:	80 09 c7 f8 	lwz     r0,-14344(r9)
 180b2ac:	2f 80 00 04 	cmpwi   cr7,r0,4
 180b2b0:	40 9d 01 8c 	ble-    cr7,180b43c <main+0xb21c>
 180b2b4:	3c 00 01 82 	lis     r0,386
 180b2b8:	7c 0b 03 78 	mr      r11,r0
 180b2bc:	80 0b c7 fc 	lwz     r0,-14340(r11)
 180b2c0:	30 00 00 03 	addic   r0,r0,3
 180b2c4:	2f 80 00 06 	cmpwi   cr7,r0,6
 180b2c8:	41 9d 01 74 	bgt-    cr7,180b43c <main+0xb21c>
 180b2cc:	3c 00 01 82 	lis     r0,386
 180b2d0:	30 00 c8 44 	addic   r0,r0,-14268
 180b2d4:	7c 0b 03 78 	mr      r11,r0
 180b2d8:	81 2b 00 08 	lwz     r9,8(r11)
 180b2dc:	3c 00 01 82 	lis     r0,386
 180b2e0:	30 00 c8 44 	addic   r0,r0,-14268
 180b2e4:	7c 0b 03 78 	mr      r11,r0
 180b2e8:	80 0b 00 00 	lwz     r0,0(r11)
 180b2ec:	7f 89 00 00 	cmpw    cr7,r9,r0
 180b2f0:	40 9e 01 4c 	bne-    cr7,180b43c <main+0xb21c>
 180b2f4:	3c 00 01 82 	lis     r0,386
 180b2f8:	30 00 c8 44 	addic   r0,r0,-14268
 180b2fc:	7c 0b 03 78 	mr      r11,r0
 180b300:	81 2b 00 08 	lwz     r9,8(r11)
 180b304:	3c 00 01 82 	lis     r0,386
 180b308:	30 00 c8 44 	addic   r0,r0,-14268
 180b30c:	7c 0b 03 78 	mr      r11,r0
 180b310:	80 0b 00 04 	lwz     r0,4(r11)
 180b314:	7f 89 00 00 	cmpw    cr7,r9,r0
 180b318:	40 9e 01 24 	bne-    cr7,180b43c <main+0xb21c>
 180b31c:	3c 00 01 82 	lis     r0,386
 180b320:	30 00 c8 44 	addic   r0,r0,-14268
 180b324:	7c 09 03 78 	mr      r9,r0
 180b328:	80 09 00 10 	lwz     r0,16(r9)
 180b32c:	90 1f 00 94 	stw     r0,148(r31)
 180b330:	3c 00 01 82 	lis     r0,386
 180b334:	30 00 c8 44 	addic   r0,r0,-14268
 180b338:	7c 0b 03 78 	mr      r11,r0
 180b33c:	80 0b 00 08 	lwz     r0,8(r11)
 180b340:	90 1f 00 90 	stw     r0,144(r31)
 180b344:	81 3f 00 90 	lwz     r9,144(r31)
 180b348:	80 1f 00 94 	lwz     r0,148(r31)
 180b34c:	7f 89 00 00 	cmpw    cr7,r9,r0
 180b350:	40 9d 00 ec 	ble-    cr7,180b43c <main+0xb21c>
 180b354:	3c 00 01 82 	lis     r0,386
 180b358:	30 00 c8 44 	addic   r0,r0,-14268
 180b35c:	7c 0b 03 78 	mr      r11,r0
 180b360:	81 2b 00 0c 	lwz     r9,12(r11)
 180b364:	3c 00 01 82 	lis     r0,386
 180b368:	30 00 c8 44 	addic   r0,r0,-14268
 180b36c:	7c 0b 03 78 	mr      r11,r0
 180b370:	91 2b 00 00 	stw     r9,0(r11)
 180b374:	3c 00 01 82 	lis     r0,386
 180b378:	7c 09 03 78 	mr      r9,r0
 180b37c:	80 09 c7 f8 	lwz     r0,-14344(r9)
 180b380:	31 20 ff fc 	addic   r9,r0,-4
 180b384:	3c 00 01 82 	lis     r0,386
 180b388:	7c 0b 03 78 	mr      r11,r0
 180b38c:	91 2b c7 f8 	stw     r9,-14344(r11)
 180b390:	81 3f 00 94 	lwz     r9,148(r31)
 180b394:	80 1f 00 90 	lwz     r0,144(r31)
 180b398:	7c 09 02 14 	add     r0,r9,r0
 180b39c:	90 1f 00 8c 	stw     r0,140(r31)
 180b3a0:	3c 00 01 82 	lis     r0,386
 180b3a4:	7c 09 03 78 	mr      r9,r0
 180b3a8:	80 09 c7 fc 	lwz     r0,-14340(r9)
 180b3ac:	3d 20 01 82 	lis     r9,386
 180b3b0:	39 29 c8 20 	addi    r9,r9,-14304
 180b3b4:	54 00 10 3a 	rlwinm  r0,r0,2,0,29
 180b3b8:	7c 09 02 14 	add     r0,r9,r0
 180b3bc:	81 3f 00 94 	lwz     r9,148(r31)
 180b3c0:	7c 0b 03 78 	mr      r11,r0
 180b3c4:	91 2b 00 00 	stw     r9,0(r11)
 180b3c8:	3c 00 01 82 	lis     r0,386
 180b3cc:	7c 09 03 78 	mr      r9,r0
 180b3d0:	80 09 c7 fc 	lwz     r0,-14340(r9)
 180b3d4:	30 00 00 01 	addic   r0,r0,1
 180b3d8:	3d 20 01 82 	lis     r9,386
 180b3dc:	39 29 c8 20 	addi    r9,r9,-14304
 180b3e0:	54 00 10 3a 	rlwinm  r0,r0,2,0,29
 180b3e4:	7c 09 02 14 	add     r0,r9,r0
 180b3e8:	81 3f 00 90 	lwz     r9,144(r31)
 180b3ec:	7c 0b 03 78 	mr      r11,r0
 180b3f0:	91 2b 00 00 	stw     r9,0(r11)
 180b3f4:	3c 00 01 82 	lis     r0,386
 180b3f8:	7c 09 03 78 	mr      r9,r0
 180b3fc:	80 09 c7 fc 	lwz     r0,-14340(r9)
 180b400:	30 00 00 02 	addic   r0,r0,2
 180b404:	3d 20 01 82 	lis     r9,386
 180b408:	39 29 c8 20 	addi    r9,r9,-14304
 180b40c:	54 00 10 3a 	rlwinm  r0,r0,2,0,29
 180b410:	7c 09 02 14 	add     r0,r9,r0
 180b414:	81 3f 00 8c 	lwz     r9,140(r31)
 180b418:	7c 0b 03 78 	mr      r11,r0
 180b41c:	91 2b 00 00 	stw     r9,0(r11)
 180b420:	3c 00 01 82 	lis     r0,386
 180b424:	7c 09 03 78 	mr      r9,r0
 180b428:	80 09 c7 fc 	lwz     r0,-14340(r9)
 180b42c:	31 20 00 03 	addic   r9,r0,3
 180b430:	3c 00 01 82 	lis     r0,386
 180b434:	7c 0b 03 78 	mr      r11,r0
 180b438:	91 2b c7 fc 	stw     r9,-14340(r11)
 180b43c:	3c 00 01 82 	lis     r0,386
 180b440:	7c 09 03 78 	mr      r9,r0
 180b444:	80 09 c7 f8 	lwz     r0,-14344(r9)
 180b448:	2f 80 00 04 	cmpwi   cr7,r0,4
 180b44c:	40 9d 01 8c 	ble-    cr7,180b5d8 <main+0xb3b8>
 180b450:	3c 00 01 82 	lis     r0,386
 180b454:	7c 0b 03 78 	mr      r11,r0
 180b458:	80 0b c7 fc 	lwz     r0,-14340(r11)
 180b45c:	30 00 00 03 	addic   r0,r0,3
 180b460:	2f 80 00 06 	cmpwi   cr7,r0,6
 180b464:	41 9d 01 74 	bgt-    cr7,180b5d8 <main+0xb3b8>
 180b468:	3c 00 01 82 	lis     r0,386
 180b46c:	30 00 c8 44 	addic   r0,r0,-14268
 180b470:	7c 0b 03 78 	mr      r11,r0
 180b474:	81 2b 00 08 	lwz     r9,8(r11)
 180b478:	3c 00 01 82 	lis     r0,386
 180b47c:	30 00 c8 44 	addic   r0,r0,-14268
 180b480:	7c 0b 03 78 	mr      r11,r0
 180b484:	80 0b 00 00 	lwz     r0,0(r11)
 180b488:	7f 89 00 00 	cmpw    cr7,r9,r0
 180b48c:	40 9e 01 4c 	bne-    cr7,180b5d8 <main+0xb3b8>
 180b490:	3c 00 01 82 	lis     r0,386
 180b494:	30 00 c8 44 	addic   r0,r0,-14268
 180b498:	7c 0b 03 78 	mr      r11,r0
 180b49c:	81 2b 00 08 	lwz     r9,8(r11)
 180b4a0:	3c 00 01 82 	lis     r0,386
 180b4a4:	30 00 c8 44 	addic   r0,r0,-14268
 180b4a8:	7c 0b 03 78 	mr      r11,r0
 180b4ac:	80 0b 00 0c 	lwz     r0,12(r11)
 180b4b0:	7f 89 00 00 	cmpw    cr7,r9,r0
 180b4b4:	40 9e 01 24 	bne-    cr7,180b5d8 <main+0xb3b8>
 180b4b8:	3c 00 01 82 	lis     r0,386
 180b4bc:	30 00 c8 44 	addic   r0,r0,-14268
 180b4c0:	7c 09 03 78 	mr      r9,r0
 180b4c4:	80 09 00 10 	lwz     r0,16(r9)
 180b4c8:	90 1f 00 88 	stw     r0,136(r31)
 180b4cc:	3c 00 01 82 	lis     r0,386
 180b4d0:	30 00 c8 44 	addic   r0,r0,-14268
 180b4d4:	7c 0b 03 78 	mr      r11,r0
 180b4d8:	80 0b 00 08 	lwz     r0,8(r11)
 180b4dc:	90 1f 00 84 	stw     r0,132(r31)
 180b4e0:	81 3f 00 84 	lwz     r9,132(r31)
 180b4e4:	80 1f 00 88 	lwz     r0,136(r31)
 180b4e8:	7f 89 00 00 	cmpw    cr7,r9,r0
 180b4ec:	40 9d 00 ec 	ble-    cr7,180b5d8 <main+0xb3b8>
 180b4f0:	3c 00 01 82 	lis     r0,386
 180b4f4:	30 00 c8 44 	addic   r0,r0,-14268
 180b4f8:	7c 0b 03 78 	mr      r11,r0
 180b4fc:	81 2b 00 04 	lwz     r9,4(r11)
 180b500:	3c 00 01 82 	lis     r0,386
 180b504:	30 00 c8 44 	addic   r0,r0,-14268
 180b508:	7c 0b 03 78 	mr      r11,r0
 180b50c:	91 2b 00 00 	stw     r9,0(r11)
 180b510:	3c 00 01 82 	lis     r0,386
 180b514:	7c 09 03 78 	mr      r9,r0
 180b518:	80 09 c7 f8 	lwz     r0,-14344(r9)
 180b51c:	31 20 ff fc 	addic   r9,r0,-4
 180b520:	3c 00 01 82 	lis     r0,386
 180b524:	7c 0b 03 78 	mr      r11,r0
 180b528:	91 2b c7 f8 	stw     r9,-14344(r11)
 180b52c:	81 3f 00 88 	lwz     r9,136(r31)
 180b530:	80 1f 00 84 	lwz     r0,132(r31)
 180b534:	7c 09 02 14 	add     r0,r9,r0
 180b538:	90 1f 00 80 	stw     r0,128(r31)
 180b53c:	3c 00 01 82 	lis     r0,386
 180b540:	7c 09 03 78 	mr      r9,r0
 180b544:	80 09 c7 fc 	lwz     r0,-14340(r9)
 180b548:	3d 20 01 82 	lis     r9,386
 180b54c:	39 29 c8 20 	addi    r9,r9,-14304
 180b550:	54 00 10 3a 	rlwinm  r0,r0,2,0,29
 180b554:	7c 09 02 14 	add     r0,r9,r0
 180b558:	81 3f 00 88 	lwz     r9,136(r31)
 180b55c:	7c 0b 03 78 	mr      r11,r0
 180b560:	91 2b 00 00 	stw     r9,0(r11)
 180b564:	3c 00 01 82 	lis     r0,386
 180b568:	7c 09 03 78 	mr      r9,r0
 180b56c:	80 09 c7 fc 	lwz     r0,-14340(r9)
 180b570:	30 00 00 01 	addic   r0,r0,1
 180b574:	3d 20 01 82 	lis     r9,386
 180b578:	39 29 c8 20 	addi    r9,r9,-14304
 180b57c:	54 00 10 3a 	rlwinm  r0,r0,2,0,29
 180b580:	7c 09 02 14 	add     r0,r9,r0
 180b584:	81 3f 00 84 	lwz     r9,132(r31)
 180b588:	7c 0b 03 78 	mr      r11,r0
 180b58c:	91 2b 00 00 	stw     r9,0(r11)
 180b590:	3c 00 01 82 	lis     r0,386
 180b594:	7c 09 03 78 	mr      r9,r0
 180b598:	80 09 c7 fc 	lwz     r0,-14340(r9)
 180b59c:	30 00 00 02 	addic   r0,r0,2
 180b5a0:	3d 20 01 82 	lis     r9,386
 180b5a4:	39 29 c8 20 	addi    r9,r9,-14304
 180b5a8:	54 00 10 3a 	rlwinm  r0,r0,2,0,29
 180b5ac:	7c 09 02 14 	add     r0,r9,r0
 180b5b0:	81 3f 00 80 	lwz     r9,128(r31)
 180b5b4:	7c 0b 03 78 	mr      r11,r0
 180b5b8:	91 2b 00 00 	stw     r9,0(r11)
 180b5bc:	3c 00 01 82 	lis     r0,386
 180b5c0:	7c 09 03 78 	mr      r9,r0
 180b5c4:	80 09 c7 fc 	lwz     r0,-14340(r9)
 180b5c8:	31 20 00 03 	addic   r9,r0,3
 180b5cc:	3c 00 01 82 	lis     r0,386
 180b5d0:	7c 0b 03 78 	mr      r11,r0
 180b5d4:	91 2b c7 fc 	stw     r9,-14340(r11)
 180b5d8:	3c 00 01 82 	lis     r0,386
 180b5dc:	7c 09 03 78 	mr      r9,r0
 180b5e0:	80 09 c7 f8 	lwz     r0,-14344(r9)
 180b5e4:	2f 80 00 04 	cmpwi   cr7,r0,4
 180b5e8:	40 9d 01 8c 	ble-    cr7,180b774 <main+0xb554>
 180b5ec:	3c 00 01 82 	lis     r0,386
 180b5f0:	7c 0b 03 78 	mr      r11,r0
 180b5f4:	80 0b c7 fc 	lwz     r0,-14340(r11)
 180b5f8:	30 00 00 03 	addic   r0,r0,3
 180b5fc:	2f 80 00 06 	cmpwi   cr7,r0,6
 180b600:	41 9d 01 74 	bgt-    cr7,180b774 <main+0xb554>
 180b604:	3c 00 01 82 	lis     r0,386
 180b608:	30 00 c8 44 	addic   r0,r0,-14268
 180b60c:	7c 0b 03 78 	mr      r11,r0
 180b610:	81 2b 00 08 	lwz     r9,8(r11)
 180b614:	3c 00 01 82 	lis     r0,386
 180b618:	30 00 c8 44 	addic   r0,r0,-14268
 180b61c:	7c 0b 03 78 	mr      r11,r0
 180b620:	80 0b 00 04 	lwz     r0,4(r11)
 180b624:	7f 89 00 00 	cmpw    cr7,r9,r0
 180b628:	40 9e 01 4c 	bne-    cr7,180b774 <main+0xb554>
 180b62c:	3c 00 01 82 	lis     r0,386
 180b630:	30 00 c8 44 	addic   r0,r0,-14268
 180b634:	7c 0b 03 78 	mr      r11,r0
 180b638:	81 2b 00 08 	lwz     r9,8(r11)
 180b63c:	3c 00 01 82 	lis     r0,386
 180b640:	30 00 c8 44 	addic   r0,r0,-14268
 180b644:	7c 0b 03 78 	mr      r11,r0
 180b648:	80 0b 00 00 	lwz     r0,0(r11)
 180b64c:	7f 89 00 00 	cmpw    cr7,r9,r0
 180b650:	40 9e 01 24 	bne-    cr7,180b774 <main+0xb554>
 180b654:	3c 00 01 82 	lis     r0,386
 180b658:	30 00 c8 44 	addic   r0,r0,-14268
 180b65c:	7c 09 03 78 	mr      r9,r0
 180b660:	80 09 00 10 	lwz     r0,16(r9)
 180b664:	90 1f 00 7c 	stw     r0,124(r31)
 180b668:	3c 00 01 82 	lis     r0,386
 180b66c:	30 00 c8 44 	addic   r0,r0,-14268
 180b670:	7c 0b 03 78 	mr      r11,r0
 180b674:	80 0b 00 08 	lwz     r0,8(r11)
 180b678:	90 1f 00 78 	stw     r0,120(r31)
 180b67c:	81 3f 00 78 	lwz     r9,120(r31)
 180b680:	80 1f 00 7c 	lwz     r0,124(r31)
 180b684:	7f 89 00 00 	cmpw    cr7,r9,r0
 180b688:	40 9d 00 ec 	ble-    cr7,180b774 <main+0xb554>
 180b68c:	3c 00 01 82 	lis     r0,386
 180b690:	30 00 c8 44 	addic   r0,r0,-14268
 180b694:	7c 0b 03 78 	mr      r11,r0
 180b698:	81 2b 00 0c 	lwz     r9,12(r11)
 180b69c:	3c 00 01 82 	lis     r0,386
 180b6a0:	30 00 c8 44 	addic   r0,r0,-14268
 180b6a4:	7c 0b 03 78 	mr      r11,r0
 180b6a8:	91 2b 00 00 	stw     r9,0(r11)
 180b6ac:	3c 00 01 82 	lis     r0,386
 180b6b0:	7c 09 03 78 	mr      r9,r0
 180b6b4:	80 09 c7 f8 	lwz     r0,-14344(r9)
 180b6b8:	31 20 ff fc 	addic   r9,r0,-4
 180b6bc:	3c 00 01 82 	lis     r0,386
 180b6c0:	7c 0b 03 78 	mr      r11,r0
 180b6c4:	91 2b c7 f8 	stw     r9,-14344(r11)
 180b6c8:	81 3f 00 7c 	lwz     r9,124(r31)
 180b6cc:	80 1f 00 78 	lwz     r0,120(r31)
 180b6d0:	7c 09 02 14 	add     r0,r9,r0
 180b6d4:	90 1f 00 74 	stw     r0,116(r31)
 180b6d8:	3c 00 01 82 	lis     r0,386
 180b6dc:	7c 09 03 78 	mr      r9,r0
 180b6e0:	80 09 c7 fc 	lwz     r0,-14340(r9)
 180b6e4:	3d 20 01 82 	lis     r9,386
 180b6e8:	39 29 c8 20 	addi    r9,r9,-14304
 180b6ec:	54 00 10 3a 	rlwinm  r0,r0,2,0,29
 180b6f0:	7c 09 02 14 	add     r0,r9,r0
 180b6f4:	81 3f 00 7c 	lwz     r9,124(r31)
 180b6f8:	7c 0b 03 78 	mr      r11,r0
 180b6fc:	91 2b 00 00 	stw     r9,0(r11)
 180b700:	3c 00 01 82 	lis     r0,386
 180b704:	7c 09 03 78 	mr      r9,r0
 180b708:	80 09 c7 fc 	lwz     r0,-14340(r9)
 180b70c:	30 00 00 01 	addic   r0,r0,1
 180b710:	3d 20 01 82 	lis     r9,386
 180b714:	39 29 c8 20 	addi    r9,r9,-14304
 180b718:	54 00 10 3a 	rlwinm  r0,r0,2,0,29
 180b71c:	7c 09 02 14 	add     r0,r9,r0
 180b720:	81 3f 00 78 	lwz     r9,120(r31)
 180b724:	7c 0b 03 78 	mr      r11,r0
 180b728:	91 2b 00 00 	stw     r9,0(r11)
 180b72c:	3c 00 01 82 	lis     r0,386
 180b730:	7c 09 03 78 	mr      r9,r0
 180b734:	80 09 c7 fc 	lwz     r0,-14340(r9)
 180b738:	30 00 00 02 	addic   r0,r0,2
 180b73c:	3d 20 01 82 	lis     r9,386
 180b740:	39 29 c8 20 	addi    r9,r9,-14304
 180b744:	54 00 10 3a 	rlwinm  r0,r0,2,0,29
 180b748:	7c 09 02 14 	add     r0,r9,r0
 180b74c:	81 3f 00 74 	lwz     r9,116(r31)
 180b750:	7c 0b 03 78 	mr      r11,r0
 180b754:	91 2b 00 00 	stw     r9,0(r11)
 180b758:	3c 00 01 82 	lis     r0,386
 180b75c:	7c 09 03 78 	mr      r9,r0
 180b760:	80 09 c7 fc 	lwz     r0,-14340(r9)
 180b764:	31 20 00 03 	addic   r9,r0,3
 180b768:	3c 00 01 82 	lis     r0,386
 180b76c:	7c 0b 03 78 	mr      r11,r0
 180b770:	91 2b c7 fc 	stw     r9,-14340(r11)
 180b774:	3c 00 01 82 	lis     r0,386
 180b778:	7c 09 03 78 	mr      r9,r0
 180b77c:	80 09 c7 f8 	lwz     r0,-14344(r9)
 180b780:	2f 80 00 04 	cmpwi   cr7,r0,4
 180b784:	40 9d 01 6c 	ble-    cr7,180b8f0 <main+0xb6d0>
 180b788:	3c 00 01 82 	lis     r0,386
 180b78c:	7c 0b 03 78 	mr      r11,r0
 180b790:	80 0b c7 fc 	lwz     r0,-14340(r11)
 180b794:	30 00 00 03 	addic   r0,r0,3
 180b798:	2f 80 00 06 	cmpwi   cr7,r0,6
 180b79c:	41 9d 01 54 	bgt-    cr7,180b8f0 <main+0xb6d0>
 180b7a0:	3c 00 01 82 	lis     r0,386
 180b7a4:	30 00 c8 44 	addic   r0,r0,-14268
 180b7a8:	7c 0b 03 78 	mr      r11,r0
 180b7ac:	81 2b 00 08 	lwz     r9,8(r11)
 180b7b0:	3c 00 01 82 	lis     r0,386
 180b7b4:	30 00 c8 44 	addic   r0,r0,-14268
 180b7b8:	7c 0b 03 78 	mr      r11,r0
 180b7bc:	80 0b 00 04 	lwz     r0,4(r11)
 180b7c0:	7f 89 00 00 	cmpw    cr7,r9,r0
 180b7c4:	40 9e 01 2c 	bne-    cr7,180b8f0 <main+0xb6d0>
 180b7c8:	3c 00 01 82 	lis     r0,386
 180b7cc:	30 00 c8 44 	addic   r0,r0,-14268
 180b7d0:	7c 0b 03 78 	mr      r11,r0
 180b7d4:	81 2b 00 08 	lwz     r9,8(r11)
 180b7d8:	3c 00 01 82 	lis     r0,386
 180b7dc:	30 00 c8 44 	addic   r0,r0,-14268
 180b7e0:	7c 0b 03 78 	mr      r11,r0
 180b7e4:	80 0b 00 0c 	lwz     r0,12(r11)
 180b7e8:	7f 89 00 00 	cmpw    cr7,r9,r0
 180b7ec:	40 9e 01 04 	bne-    cr7,180b8f0 <main+0xb6d0>
 180b7f0:	3c 00 01 82 	lis     r0,386
 180b7f4:	30 00 c8 44 	addic   r0,r0,-14268
 180b7f8:	7c 09 03 78 	mr      r9,r0
 180b7fc:	80 09 00 10 	lwz     r0,16(r9)
 180b800:	90 1f 00 70 	stw     r0,112(r31)
 180b804:	3c 00 01 82 	lis     r0,386
 180b808:	30 00 c8 44 	addic   r0,r0,-14268
 180b80c:	7c 0b 03 78 	mr      r11,r0
 180b810:	80 0b 00 08 	lwz     r0,8(r11)
 180b814:	90 1f 00 6c 	stw     r0,108(r31)
 180b818:	81 3f 00 6c 	lwz     r9,108(r31)
 180b81c:	80 1f 00 70 	lwz     r0,112(r31)
 180b820:	7f 89 00 00 	cmpw    cr7,r9,r0
 180b824:	40 9d 00 cc 	ble-    cr7,180b8f0 <main+0xb6d0>
 180b828:	3c 00 01 82 	lis     r0,386
 180b82c:	7c 09 03 78 	mr      r9,r0
 180b830:	80 09 c7 f8 	lwz     r0,-14344(r9)
 180b834:	31 20 ff fc 	addic   r9,r0,-4
 180b838:	3c 00 01 82 	lis     r0,386
 180b83c:	7c 0b 03 78 	mr      r11,r0
 180b840:	91 2b c7 f8 	stw     r9,-14344(r11)
 180b844:	81 3f 00 70 	lwz     r9,112(r31)
 180b848:	80 1f 00 6c 	lwz     r0,108(r31)
 180b84c:	7c 09 02 14 	add     r0,r9,r0
 180b850:	90 1f 00 68 	stw     r0,104(r31)
 180b854:	3c 00 01 82 	lis     r0,386
 180b858:	7c 09 03 78 	mr      r9,r0
 180b85c:	80 09 c7 fc 	lwz     r0,-14340(r9)
 180b860:	3d 20 01 82 	lis     r9,386
 180b864:	39 29 c8 20 	addi    r9,r9,-14304
 180b868:	54 00 10 3a 	rlwinm  r0,r0,2,0,29
 180b86c:	7c 09 02 14 	add     r0,r9,r0
 180b870:	81 3f 00 70 	lwz     r9,112(r31)
 180b874:	7c 0b 03 78 	mr      r11,r0
 180b878:	91 2b 00 00 	stw     r9,0(r11)
 180b87c:	3c 00 01 82 	lis     r0,386
 180b880:	7c 09 03 78 	mr      r9,r0
 180b884:	80 09 c7 fc 	lwz     r0,-14340(r9)
 180b888:	30 00 00 01 	addic   r0,r0,1
 180b88c:	3d 20 01 82 	lis     r9,386
 180b890:	39 29 c8 20 	addi    r9,r9,-14304
 180b894:	54 00 10 3a 	rlwinm  r0,r0,2,0,29
 180b898:	7c 09 02 14 	add     r0,r9,r0
 180b89c:	81 3f 00 6c 	lwz     r9,108(r31)
 180b8a0:	7c 0b 03 78 	mr      r11,r0
 180b8a4:	91 2b 00 00 	stw     r9,0(r11)
 180b8a8:	3c 00 01 82 	lis     r0,386
 180b8ac:	7c 09 03 78 	mr      r9,r0
 180b8b0:	80 09 c7 fc 	lwz     r0,-14340(r9)
 180b8b4:	30 00 00 02 	addic   r0,r0,2
 180b8b8:	3d 20 01 82 	lis     r9,386
 180b8bc:	39 29 c8 20 	addi    r9,r9,-14304
 180b8c0:	54 00 10 3a 	rlwinm  r0,r0,2,0,29
 180b8c4:	7c 09 02 14 	add     r0,r9,r0
 180b8c8:	81 3f 00 68 	lwz     r9,104(r31)
 180b8cc:	7c 0b 03 78 	mr      r11,r0
 180b8d0:	91 2b 00 00 	stw     r9,0(r11)
 180b8d4:	3c 00 01 82 	lis     r0,386
 180b8d8:	7c 09 03 78 	mr      r9,r0
 180b8dc:	80 09 c7 fc 	lwz     r0,-14340(r9)
 180b8e0:	31 20 00 03 	addic   r9,r0,3
 180b8e4:	3c 00 01 82 	lis     r0,386
 180b8e8:	7c 0b 03 78 	mr      r11,r0
 180b8ec:	91 2b c7 fc 	stw     r9,-14340(r11)
 180b8f0:	3c 00 01 82 	lis     r0,386
 180b8f4:	7c 09 03 78 	mr      r9,r0
 180b8f8:	80 09 c7 f8 	lwz     r0,-14344(r9)
 180b8fc:	2f 80 00 04 	cmpwi   cr7,r0,4
 180b900:	40 9d 01 8c 	ble-    cr7,180ba8c <main+0xb86c>
 180b904:	3c 00 01 82 	lis     r0,386
 180b908:	7c 0b 03 78 	mr      r11,r0
 180b90c:	80 0b c7 fc 	lwz     r0,-14340(r11)
 180b910:	30 00 00 03 	addic   r0,r0,3
 180b914:	2f 80 00 06 	cmpwi   cr7,r0,6
 180b918:	41 9d 01 74 	bgt-    cr7,180ba8c <main+0xb86c>
 180b91c:	3c 00 01 82 	lis     r0,386
 180b920:	30 00 c8 44 	addic   r0,r0,-14268
 180b924:	7c 0b 03 78 	mr      r11,r0
 180b928:	81 2b 00 08 	lwz     r9,8(r11)
 180b92c:	3c 00 01 82 	lis     r0,386
 180b930:	30 00 c8 44 	addic   r0,r0,-14268
 180b934:	7c 0b 03 78 	mr      r11,r0
 180b938:	80 0b 00 0c 	lwz     r0,12(r11)
 180b93c:	7f 89 00 00 	cmpw    cr7,r9,r0
 180b940:	40 9e 01 4c 	bne-    cr7,180ba8c <main+0xb86c>
 180b944:	3c 00 01 82 	lis     r0,386
 180b948:	30 00 c8 44 	addic   r0,r0,-14268
 180b94c:	7c 0b 03 78 	mr      r11,r0
 180b950:	81 2b 00 08 	lwz     r9,8(r11)
 180b954:	3c 00 01 82 	lis     r0,386
 180b958:	30 00 c8 44 	addic   r0,r0,-14268
 180b95c:	7c 0b 03 78 	mr      r11,r0
 180b960:	80 0b 00 00 	lwz     r0,0(r11)
 180b964:	7f 89 00 00 	cmpw    cr7,r9,r0
 180b968:	40 9e 01 24 	bne-    cr7,180ba8c <main+0xb86c>
 180b96c:	3c 00 01 82 	lis     r0,386
 180b970:	30 00 c8 44 	addic   r0,r0,-14268
 180b974:	7c 09 03 78 	mr      r9,r0
 180b978:	80 09 00 10 	lwz     r0,16(r9)
 180b97c:	90 1f 00 64 	stw     r0,100(r31)
 180b980:	3c 00 01 82 	lis     r0,386
 180b984:	30 00 c8 44 	addic   r0,r0,-14268
 180b988:	7c 0b 03 78 	mr      r11,r0
 180b98c:	80 0b 00 08 	lwz     r0,8(r11)
 180b990:	90 1f 00 60 	stw     r0,96(r31)
 180b994:	81 3f 00 60 	lwz     r9,96(r31)
 180b998:	80 1f 00 64 	lwz     r0,100(r31)
 180b99c:	7f 89 00 00 	cmpw    cr7,r9,r0
 180b9a0:	40 9d 00 ec 	ble-    cr7,180ba8c <main+0xb86c>
 180b9a4:	3c 00 01 82 	lis     r0,386
 180b9a8:	30 00 c8 44 	addic   r0,r0,-14268
 180b9ac:	7c 0b 03 78 	mr      r11,r0
 180b9b0:	81 2b 00 04 	lwz     r9,4(r11)
 180b9b4:	3c 00 01 82 	lis     r0,386
 180b9b8:	30 00 c8 44 	addic   r0,r0,-14268
 180b9bc:	7c 0b 03 78 	mr      r11,r0
 180b9c0:	91 2b 00 00 	stw     r9,0(r11)
 180b9c4:	3c 00 01 82 	lis     r0,386
 180b9c8:	7c 09 03 78 	mr      r9,r0
 180b9cc:	80 09 c7 f8 	lwz     r0,-14344(r9)
 180b9d0:	31 20 ff fc 	addic   r9,r0,-4
 180b9d4:	3c 00 01 82 	lis     r0,386
 180b9d8:	7c 0b 03 78 	mr      r11,r0
 180b9dc:	91 2b c7 f8 	stw     r9,-14344(r11)
 180b9e0:	81 3f 00 64 	lwz     r9,100(r31)
 180b9e4:	80 1f 00 60 	lwz     r0,96(r31)
 180b9e8:	7c 09 02 14 	add     r0,r9,r0
 180b9ec:	90 1f 00 5c 	stw     r0,92(r31)
 180b9f0:	3c 00 01 82 	lis     r0,386
 180b9f4:	7c 09 03 78 	mr      r9,r0
 180b9f8:	80 09 c7 fc 	lwz     r0,-14340(r9)
 180b9fc:	3d 20 01 82 	lis     r9,386
 180ba00:	39 29 c8 20 	addi    r9,r9,-14304
 180ba04:	54 00 10 3a 	rlwinm  r0,r0,2,0,29
 180ba08:	7c 09 02 14 	add     r0,r9,r0
 180ba0c:	81 3f 00 64 	lwz     r9,100(r31)
 180ba10:	7c 0b 03 78 	mr      r11,r0
 180ba14:	91 2b 00 00 	stw     r9,0(r11)
 180ba18:	3c 00 01 82 	lis     r0,386
 180ba1c:	7c 09 03 78 	mr      r9,r0
 180ba20:	80 09 c7 fc 	lwz     r0,-14340(r9)
 180ba24:	30 00 00 01 	addic   r0,r0,1
 180ba28:	3d 20 01 82 	lis     r9,386
 180ba2c:	39 29 c8 20 	addi    r9,r9,-14304
 180ba30:	54 00 10 3a 	rlwinm  r0,r0,2,0,29
 180ba34:	7c 09 02 14 	add     r0,r9,r0
 180ba38:	81 3f 00 60 	lwz     r9,96(r31)
 180ba3c:	7c 0b 03 78 	mr      r11,r0
 180ba40:	91 2b 00 00 	stw     r9,0(r11)
 180ba44:	3c 00 01 82 	lis     r0,386
 180ba48:	7c 09 03 78 	mr      r9,r0
 180ba4c:	80 09 c7 fc 	lwz     r0,-14340(r9)
 180ba50:	30 00 00 02 	addic   r0,r0,2
 180ba54:	3d 20 01 82 	lis     r9,386
 180ba58:	39 29 c8 20 	addi    r9,r9,-14304
 180ba5c:	54 00 10 3a 	rlwinm  r0,r0,2,0,29
 180ba60:	7c 09 02 14 	add     r0,r9,r0
 180ba64:	81 3f 00 5c 	lwz     r9,92(r31)
 180ba68:	7c 0b 03 78 	mr      r11,r0
 180ba6c:	91 2b 00 00 	stw     r9,0(r11)
 180ba70:	3c 00 01 82 	lis     r0,386
 180ba74:	7c 09 03 78 	mr      r9,r0
 180ba78:	80 09 c7 fc 	lwz     r0,-14340(r9)
 180ba7c:	31 20 00 03 	addic   r9,r0,3
 180ba80:	3c 00 01 82 	lis     r0,386
 180ba84:	7c 0b 03 78 	mr      r11,r0
 180ba88:	91 2b c7 fc 	stw     r9,-14340(r11)
 180ba8c:	3c 00 01 82 	lis     r0,386
 180ba90:	7c 09 03 78 	mr      r9,r0
 180ba94:	80 09 c7 f8 	lwz     r0,-14344(r9)
 180ba98:	2f 80 00 04 	cmpwi   cr7,r0,4
 180ba9c:	40 9d 01 6c 	ble-    cr7,180bc08 <main+0xb9e8>
 180baa0:	3c 00 01 82 	lis     r0,386
 180baa4:	7c 0b 03 78 	mr      r11,r0
 180baa8:	80 0b c7 fc 	lwz     r0,-14340(r11)
 180baac:	30 00 00 03 	addic   r0,r0,3
 180bab0:	2f 80 00 06 	cmpwi   cr7,r0,6
 180bab4:	41 9d 01 54 	bgt-    cr7,180bc08 <main+0xb9e8>
 180bab8:	3c 00 01 82 	lis     r0,386
 180babc:	30 00 c8 44 	addic   r0,r0,-14268
 180bac0:	7c 0b 03 78 	mr      r11,r0
 180bac4:	81 2b 00 08 	lwz     r9,8(r11)
 180bac8:	3c 00 01 82 	lis     r0,386
 180bacc:	30 00 c8 44 	addic   r0,r0,-14268
 180bad0:	7c 0b 03 78 	mr      r11,r0
 180bad4:	80 0b 00 0c 	lwz     r0,12(r11)
 180bad8:	7f 89 00 00 	cmpw    cr7,r9,r0
 180badc:	40 9e 01 2c 	bne-    cr7,180bc08 <main+0xb9e8>
 180bae0:	3c 00 01 82 	lis     r0,386
 180bae4:	30 00 c8 44 	addic   r0,r0,-14268
 180bae8:	7c 0b 03 78 	mr      r11,r0
 180baec:	81 2b 00 08 	lwz     r9,8(r11)
 180baf0:	3c 00 01 82 	lis     r0,386
 180baf4:	30 00 c8 44 	addic   r0,r0,-14268
 180baf8:	7c 0b 03 78 	mr      r11,r0
 180bafc:	80 0b 00 04 	lwz     r0,4(r11)
 180bb00:	7f 89 00 00 	cmpw    cr7,r9,r0
 180bb04:	40 9e 01 04 	bne-    cr7,180bc08 <main+0xb9e8>
 180bb08:	3c 00 01 82 	lis     r0,386
 180bb0c:	30 00 c8 44 	addic   r0,r0,-14268
 180bb10:	7c 09 03 78 	mr      r9,r0
 180bb14:	80 09 00 10 	lwz     r0,16(r9)
 180bb18:	90 1f 00 58 	stw     r0,88(r31)
 180bb1c:	3c 00 01 82 	lis     r0,386
 180bb20:	30 00 c8 44 	addic   r0,r0,-14268
 180bb24:	7c 0b 03 78 	mr      r11,r0
 180bb28:	80 0b 00 08 	lwz     r0,8(r11)
 180bb2c:	90 1f 00 54 	stw     r0,84(r31)
 180bb30:	81 3f 00 54 	lwz     r9,84(r31)
 180bb34:	80 1f 00 58 	lwz     r0,88(r31)
 180bb38:	7f 89 00 00 	cmpw    cr7,r9,r0
 180bb3c:	40 9d 00 cc 	ble-    cr7,180bc08 <main+0xb9e8>
 180bb40:	3c 00 01 82 	lis     r0,386
 180bb44:	7c 09 03 78 	mr      r9,r0
 180bb48:	80 09 c7 f8 	lwz     r0,-14344(r9)
 180bb4c:	31 20 ff fc 	addic   r9,r0,-4
 180bb50:	3c 00 01 82 	lis     r0,386
 180bb54:	7c 0b 03 78 	mr      r11,r0
 180bb58:	91 2b c7 f8 	stw     r9,-14344(r11)
 180bb5c:	81 3f 00 58 	lwz     r9,88(r31)
 180bb60:	80 1f 00 54 	lwz     r0,84(r31)
 180bb64:	7c 09 02 14 	add     r0,r9,r0
 180bb68:	90 1f 00 50 	stw     r0,80(r31)
 180bb6c:	3c 00 01 82 	lis     r0,386
 180bb70:	7c 09 03 78 	mr      r9,r0
 180bb74:	80 09 c7 fc 	lwz     r0,-14340(r9)
 180bb78:	3d 20 01 82 	lis     r9,386
 180bb7c:	39 29 c8 20 	addi    r9,r9,-14304
 180bb80:	54 00 10 3a 	rlwinm  r0,r0,2,0,29
 180bb84:	7c 09 02 14 	add     r0,r9,r0
 180bb88:	81 3f 00 58 	lwz     r9,88(r31)
 180bb8c:	7c 0b 03 78 	mr      r11,r0
 180bb90:	91 2b 00 00 	stw     r9,0(r11)
 180bb94:	3c 00 01 82 	lis     r0,386
 180bb98:	7c 09 03 78 	mr      r9,r0
 180bb9c:	80 09 c7 fc 	lwz     r0,-14340(r9)
 180bba0:	30 00 00 01 	addic   r0,r0,1
 180bba4:	3d 20 01 82 	lis     r9,386
 180bba8:	39 29 c8 20 	addi    r9,r9,-14304
 180bbac:	54 00 10 3a 	rlwinm  r0,r0,2,0,29
 180bbb0:	7c 09 02 14 	add     r0,r9,r0
 180bbb4:	81 3f 00 54 	lwz     r9,84(r31)
 180bbb8:	7c 0b 03 78 	mr      r11,r0
 180bbbc:	91 2b 00 00 	stw     r9,0(r11)
 180bbc0:	3c 00 01 82 	lis     r0,386
 180bbc4:	7c 09 03 78 	mr      r9,r0
 180bbc8:	80 09 c7 fc 	lwz     r0,-14340(r9)
 180bbcc:	30 00 00 02 	addic   r0,r0,2
 180bbd0:	3d 20 01 82 	lis     r9,386
 180bbd4:	39 29 c8 20 	addi    r9,r9,-14304
 180bbd8:	54 00 10 3a 	rlwinm  r0,r0,2,0,29
 180bbdc:	7c 09 02 14 	add     r0,r9,r0
 180bbe0:	81 3f 00 50 	lwz     r9,80(r31)
 180bbe4:	7c 0b 03 78 	mr      r11,r0
 180bbe8:	91 2b 00 00 	stw     r9,0(r11)
 180bbec:	3c 00 01 82 	lis     r0,386
 180bbf0:	7c 09 03 78 	mr      r9,r0
 180bbf4:	80 09 c7 fc 	lwz     r0,-14340(r9)
 180bbf8:	31 20 00 03 	addic   r9,r0,3
 180bbfc:	3c 00 01 82 	lis     r0,386
 180bc00:	7c 0b 03 78 	mr      r11,r0
 180bc04:	91 2b c7 fc 	stw     r9,-14340(r11)
 180bc08:	3c 00 01 82 	lis     r0,386
 180bc0c:	7c 09 03 78 	mr      r9,r0
 180bc10:	80 09 c7 f8 	lwz     r0,-14344(r9)
 180bc14:	2f 80 00 04 	cmpwi   cr7,r0,4
 180bc18:	40 9d 01 8c 	ble-    cr7,180bda4 <main+0xbb84>
 180bc1c:	3c 00 01 82 	lis     r0,386
 180bc20:	7c 0b 03 78 	mr      r11,r0
 180bc24:	80 0b c7 fc 	lwz     r0,-14340(r11)
 180bc28:	30 00 00 03 	addic   r0,r0,3
 180bc2c:	2f 80 00 06 	cmpwi   cr7,r0,6
 180bc30:	41 9d 01 74 	bgt-    cr7,180bda4 <main+0xbb84>
 180bc34:	3c 00 01 82 	lis     r0,386
 180bc38:	30 00 c8 44 	addic   r0,r0,-14268
 180bc3c:	7c 0b 03 78 	mr      r11,r0
 180bc40:	81 2b 00 0c 	lwz     r9,12(r11)
 180bc44:	3c 00 01 82 	lis     r0,386
 180bc48:	30 00 c8 44 	addic   r0,r0,-14268
 180bc4c:	7c 0b 03 78 	mr      r11,r0
 180bc50:	80 0b 00 00 	lwz     r0,0(r11)
 180bc54:	7f 89 00 00 	cmpw    cr7,r9,r0
 180bc58:	40 9e 01 4c 	bne-    cr7,180bda4 <main+0xbb84>
 180bc5c:	3c 00 01 82 	lis     r0,386
 180bc60:	30 00 c8 44 	addic   r0,r0,-14268
 180bc64:	7c 0b 03 78 	mr      r11,r0
 180bc68:	81 2b 00 0c 	lwz     r9,12(r11)
 180bc6c:	3c 00 01 82 	lis     r0,386
 180bc70:	30 00 c8 44 	addic   r0,r0,-14268
 180bc74:	7c 0b 03 78 	mr      r11,r0
 180bc78:	80 0b 00 04 	lwz     r0,4(r11)
 180bc7c:	7f 89 00 00 	cmpw    cr7,r9,r0
 180bc80:	40 9e 01 24 	bne-    cr7,180bda4 <main+0xbb84>
 180bc84:	3c 00 01 82 	lis     r0,386
 180bc88:	30 00 c8 44 	addic   r0,r0,-14268
 180bc8c:	7c 09 03 78 	mr      r9,r0
 180bc90:	80 09 00 10 	lwz     r0,16(r9)
 180bc94:	90 1f 00 4c 	stw     r0,76(r31)
 180bc98:	3c 00 01 82 	lis     r0,386
 180bc9c:	30 00 c8 44 	addic   r0,r0,-14268
 180bca0:	7c 0b 03 78 	mr      r11,r0
 180bca4:	80 0b 00 0c 	lwz     r0,12(r11)
 180bca8:	90 1f 00 48 	stw     r0,72(r31)
 180bcac:	81 3f 00 48 	lwz     r9,72(r31)
 180bcb0:	80 1f 00 4c 	lwz     r0,76(r31)
 180bcb4:	7f 89 00 00 	cmpw    cr7,r9,r0
 180bcb8:	40 9d 00 ec 	ble-    cr7,180bda4 <main+0xbb84>
 180bcbc:	3c 00 01 82 	lis     r0,386
 180bcc0:	30 00 c8 44 	addic   r0,r0,-14268
 180bcc4:	7c 0b 03 78 	mr      r11,r0
 180bcc8:	81 2b 00 08 	lwz     r9,8(r11)
 180bccc:	3c 00 01 82 	lis     r0,386
 180bcd0:	30 00 c8 44 	addic   r0,r0,-14268
 180bcd4:	7c 0b 03 78 	mr      r11,r0
 180bcd8:	91 2b 00 00 	stw     r9,0(r11)
 180bcdc:	3c 00 01 82 	lis     r0,386
 180bce0:	7c 09 03 78 	mr      r9,r0
 180bce4:	80 09 c7 f8 	lwz     r0,-14344(r9)
 180bce8:	31 20 ff fc 	addic   r9,r0,-4
 180bcec:	3c 00 01 82 	lis     r0,386
 180bcf0:	7c 0b 03 78 	mr      r11,r0
 180bcf4:	91 2b c7 f8 	stw     r9,-14344(r11)
 180bcf8:	81 3f 00 4c 	lwz     r9,76(r31)
 180bcfc:	80 1f 00 48 	lwz     r0,72(r31)
 180bd00:	7c 09 02 14 	add     r0,r9,r0
 180bd04:	90 1f 00 44 	stw     r0,68(r31)
 180bd08:	3c 00 01 82 	lis     r0,386
 180bd0c:	7c 09 03 78 	mr      r9,r0
 180bd10:	80 09 c7 fc 	lwz     r0,-14340(r9)
 180bd14:	3d 20 01 82 	lis     r9,386
 180bd18:	39 29 c8 20 	addi    r9,r9,-14304
 180bd1c:	54 00 10 3a 	rlwinm  r0,r0,2,0,29
 180bd20:	7c 09 02 14 	add     r0,r9,r0
 180bd24:	81 3f 00 4c 	lwz     r9,76(r31)
 180bd28:	7c 0b 03 78 	mr      r11,r0
 180bd2c:	91 2b 00 00 	stw     r9,0(r11)
 180bd30:	3c 00 01 82 	lis     r0,386
 180bd34:	7c 09 03 78 	mr      r9,r0
 180bd38:	80 09 c7 fc 	lwz     r0,-14340(r9)
 180bd3c:	30 00 00 01 	addic   r0,r0,1
 180bd40:	3d 20 01 82 	lis     r9,386
 180bd44:	39 29 c8 20 	addi    r9,r9,-14304
 180bd48:	54 00 10 3a 	rlwinm  r0,r0,2,0,29
 180bd4c:	7c 09 02 14 	add     r0,r9,r0
 180bd50:	81 3f 00 48 	lwz     r9,72(r31)
 180bd54:	7c 0b 03 78 	mr      r11,r0
 180bd58:	91 2b 00 00 	stw     r9,0(r11)
 180bd5c:	3c 00 01 82 	lis     r0,386
 180bd60:	7c 09 03 78 	mr      r9,r0
 180bd64:	80 09 c7 fc 	lwz     r0,-14340(r9)
 180bd68:	30 00 00 02 	addic   r0,r0,2
 180bd6c:	3d 20 01 82 	lis     r9,386
 180bd70:	39 29 c8 20 	addi    r9,r9,-14304
 180bd74:	54 00 10 3a 	rlwinm  r0,r0,2,0,29
 180bd78:	7c 09 02 14 	add     r0,r9,r0
 180bd7c:	81 3f 00 44 	lwz     r9,68(r31)
 180bd80:	7c 0b 03 78 	mr      r11,r0
 180bd84:	91 2b 00 00 	stw     r9,0(r11)
 180bd88:	3c 00 01 82 	lis     r0,386
 180bd8c:	7c 09 03 78 	mr      r9,r0
 180bd90:	80 09 c7 fc 	lwz     r0,-14340(r9)
 180bd94:	31 20 00 03 	addic   r9,r0,3
 180bd98:	3c 00 01 82 	lis     r0,386
 180bd9c:	7c 0b 03 78 	mr      r11,r0
 180bda0:	91 2b c7 fc 	stw     r9,-14340(r11)
 180bda4:	3c 00 01 82 	lis     r0,386
 180bda8:	7c 09 03 78 	mr      r9,r0
 180bdac:	80 09 c7 f8 	lwz     r0,-14344(r9)
 180bdb0:	2f 80 00 04 	cmpwi   cr7,r0,4
 180bdb4:	40 9d 01 8c 	ble-    cr7,180bf40 <main+0xbd20>
 180bdb8:	3c 00 01 82 	lis     r0,386
 180bdbc:	7c 0b 03 78 	mr      r11,r0
 180bdc0:	80 0b c7 fc 	lwz     r0,-14340(r11)
 180bdc4:	30 00 00 03 	addic   r0,r0,3
 180bdc8:	2f 80 00 06 	cmpwi   cr7,r0,6
 180bdcc:	41 9d 01 74 	bgt-    cr7,180bf40 <main+0xbd20>
 180bdd0:	3c 00 01 82 	lis     r0,386
 180bdd4:	30 00 c8 44 	addic   r0,r0,-14268
 180bdd8:	7c 0b 03 78 	mr      r11,r0
 180bddc:	81 2b 00 0c 	lwz     r9,12(r11)
 180bde0:	3c 00 01 82 	lis     r0,386
 180bde4:	30 00 c8 44 	addic   r0,r0,-14268
 180bde8:	7c 0b 03 78 	mr      r11,r0
 180bdec:	80 0b 00 00 	lwz     r0,0(r11)
 180bdf0:	7f 89 00 00 	cmpw    cr7,r9,r0
 180bdf4:	40 9e 01 4c 	bne-    cr7,180bf40 <main+0xbd20>
 180bdf8:	3c 00 01 82 	lis     r0,386
 180bdfc:	30 00 c8 44 	addic   r0,r0,-14268
 180be00:	7c 0b 03 78 	mr      r11,r0
 180be04:	81 2b 00 0c 	lwz     r9,12(r11)
 180be08:	3c 00 01 82 	lis     r0,386
 180be0c:	30 00 c8 44 	addic   r0,r0,-14268
 180be10:	7c 0b 03 78 	mr      r11,r0
 180be14:	80 0b 00 08 	lwz     r0,8(r11)
 180be18:	7f 89 00 00 	cmpw    cr7,r9,r0
 180be1c:	40 9e 01 24 	bne-    cr7,180bf40 <main+0xbd20>
 180be20:	3c 00 01 82 	lis     r0,386
 180be24:	30 00 c8 44 	addic   r0,r0,-14268
 180be28:	7c 09 03 78 	mr      r9,r0
 180be2c:	80 09 00 10 	lwz     r0,16(r9)
 180be30:	90 1f 00 40 	stw     r0,64(r31)
 180be34:	3c 00 01 82 	lis     r0,386
 180be38:	30 00 c8 44 	addic   r0,r0,-14268
 180be3c:	7c 0b 03 78 	mr      r11,r0
 180be40:	80 0b 00 0c 	lwz     r0,12(r11)
 180be44:	90 1f 00 3c 	stw     r0,60(r31)
 180be48:	81 3f 00 3c 	lwz     r9,60(r31)
 180be4c:	80 1f 00 40 	lwz     r0,64(r31)
 180be50:	7f 89 00 00 	cmpw    cr7,r9,r0
 180be54:	40 9d 00 ec 	ble-    cr7,180bf40 <main+0xbd20>
 180be58:	3c 00 01 82 	lis     r0,386
 180be5c:	30 00 c8 44 	addic   r0,r0,-14268
 180be60:	7c 0b 03 78 	mr      r11,r0
 180be64:	81 2b 00 04 	lwz     r9,4(r11)
 180be68:	3c 00 01 82 	lis     r0,386
 180be6c:	30 00 c8 44 	addic   r0,r0,-14268
 180be70:	7c 0b 03 78 	mr      r11,r0
 180be74:	91 2b 00 00 	stw     r9,0(r11)
 180be78:	3c 00 01 82 	lis     r0,386
 180be7c:	7c 09 03 78 	mr      r9,r0
 180be80:	80 09 c7 f8 	lwz     r0,-14344(r9)
 180be84:	31 20 ff fc 	addic   r9,r0,-4
 180be88:	3c 00 01 82 	lis     r0,386
 180be8c:	7c 0b 03 78 	mr      r11,r0
 180be90:	91 2b c7 f8 	stw     r9,-14344(r11)
 180be94:	81 3f 00 40 	lwz     r9,64(r31)
 180be98:	80 1f 00 3c 	lwz     r0,60(r31)
 180be9c:	7c 09 02 14 	add     r0,r9,r0
 180bea0:	90 1f 00 38 	stw     r0,56(r31)
 180bea4:	3c 00 01 82 	lis     r0,386
 180bea8:	7c 09 03 78 	mr      r9,r0
 180beac:	80 09 c7 fc 	lwz     r0,-14340(r9)
 180beb0:	3d 20 01 82 	lis     r9,386
 180beb4:	39 29 c8 20 	addi    r9,r9,-14304
 180beb8:	54 00 10 3a 	rlwinm  r0,r0,2,0,29
 180bebc:	7c 09 02 14 	add     r0,r9,r0
 180bec0:	81 3f 00 40 	lwz     r9,64(r31)
 180bec4:	7c 0b 03 78 	mr      r11,r0
 180bec8:	91 2b 00 00 	stw     r9,0(r11)
 180becc:	3c 00 01 82 	lis     r0,386
 180bed0:	7c 09 03 78 	mr      r9,r0
 180bed4:	80 09 c7 fc 	lwz     r0,-14340(r9)
 180bed8:	30 00 00 01 	addic   r0,r0,1
 180bedc:	3d 20 01 82 	lis     r9,386
 180bee0:	39 29 c8 20 	addi    r9,r9,-14304
 180bee4:	54 00 10 3a 	rlwinm  r0,r0,2,0,29
 180bee8:	7c 09 02 14 	add     r0,r9,r0
 180beec:	81 3f 00 3c 	lwz     r9,60(r31)
 180bef0:	7c 0b 03 78 	mr      r11,r0
 180bef4:	91 2b 00 00 	stw     r9,0(r11)
 180bef8:	3c 00 01 82 	lis     r0,386
 180befc:	7c 09 03 78 	mr      r9,r0
 180bf00:	80 09 c7 fc 	lwz     r0,-14340(r9)
 180bf04:	30 00 00 02 	addic   r0,r0,2
 180bf08:	3d 20 01 82 	lis     r9,386
 180bf0c:	39 29 c8 20 	addi    r9,r9,-14304
 180bf10:	54 00 10 3a 	rlwinm  r0,r0,2,0,29
 180bf14:	7c 09 02 14 	add     r0,r9,r0
 180bf18:	81 3f 00 38 	lwz     r9,56(r31)
 180bf1c:	7c 0b 03 78 	mr      r11,r0
 180bf20:	91 2b 00 00 	stw     r9,0(r11)
 180bf24:	3c 00 01 82 	lis     r0,386
 180bf28:	7c 09 03 78 	mr      r9,r0
 180bf2c:	80 09 c7 fc 	lwz     r0,-14340(r9)
 180bf30:	31 20 00 03 	addic   r9,r0,3
 180bf34:	3c 00 01 82 	lis     r0,386
 180bf38:	7c 0b 03 78 	mr      r11,r0
 180bf3c:	91 2b c7 fc 	stw     r9,-14340(r11)
 180bf40:	3c 00 01 82 	lis     r0,386
 180bf44:	7c 09 03 78 	mr      r9,r0
 180bf48:	80 09 c7 f8 	lwz     r0,-14344(r9)
 180bf4c:	2f 80 00 04 	cmpwi   cr7,r0,4
 180bf50:	40 9d 01 8c 	ble-    cr7,180c0dc <main+0xbebc>
 180bf54:	3c 00 01 82 	lis     r0,386
 180bf58:	7c 0b 03 78 	mr      r11,r0
 180bf5c:	80 0b c7 fc 	lwz     r0,-14340(r11)
 180bf60:	30 00 00 03 	addic   r0,r0,3
 180bf64:	2f 80 00 06 	cmpwi   cr7,r0,6
 180bf68:	41 9d 01 74 	bgt-    cr7,180c0dc <main+0xbebc>
 180bf6c:	3c 00 01 82 	lis     r0,386
 180bf70:	30 00 c8 44 	addic   r0,r0,-14268
 180bf74:	7c 0b 03 78 	mr      r11,r0
 180bf78:	81 2b 00 0c 	lwz     r9,12(r11)
 180bf7c:	3c 00 01 82 	lis     r0,386
 180bf80:	30 00 c8 44 	addic   r0,r0,-14268
 180bf84:	7c 0b 03 78 	mr      r11,r0
 180bf88:	80 0b 00 04 	lwz     r0,4(r11)
 180bf8c:	7f 89 00 00 	cmpw    cr7,r9,r0
 180bf90:	40 9e 01 4c 	bne-    cr7,180c0dc <main+0xbebc>
 180bf94:	3c 00 01 82 	lis     r0,386
 180bf98:	30 00 c8 44 	addic   r0,r0,-14268
 180bf9c:	7c 0b 03 78 	mr      r11,r0
 180bfa0:	81 2b 00 0c 	lwz     r9,12(r11)
 180bfa4:	3c 00 01 82 	lis     r0,386
 180bfa8:	30 00 c8 44 	addic   r0,r0,-14268
 180bfac:	7c 0b 03 78 	mr      r11,r0
 180bfb0:	80 0b 00 00 	lwz     r0,0(r11)
 180bfb4:	7f 89 00 00 	cmpw    cr7,r9,r0
 180bfb8:	40 9e 01 24 	bne-    cr7,180c0dc <main+0xbebc>
 180bfbc:	3c 00 01 82 	lis     r0,386
 180bfc0:	30 00 c8 44 	addic   r0,r0,-14268
 180bfc4:	7c 09 03 78 	mr      r9,r0
 180bfc8:	80 09 00 10 	lwz     r0,16(r9)
 180bfcc:	90 1f 00 34 	stw     r0,52(r31)
 180bfd0:	3c 00 01 82 	lis     r0,386
 180bfd4:	30 00 c8 44 	addic   r0,r0,-14268
 180bfd8:	7c 0b 03 78 	mr      r11,r0
 180bfdc:	80 0b 00 0c 	lwz     r0,12(r11)
 180bfe0:	90 1f 00 30 	stw     r0,48(r31)
 180bfe4:	81 3f 00 30 	lwz     r9,48(r31)
 180bfe8:	80 1f 00 34 	lwz     r0,52(r31)
 180bfec:	7f 89 00 00 	cmpw    cr7,r9,r0
 180bff0:	40 9d 00 ec 	ble-    cr7,180c0dc <main+0xbebc>
 180bff4:	3c 00 01 82 	lis     r0,386
 180bff8:	30 00 c8 44 	addic   r0,r0,-14268
 180bffc:	7c 0b 03 78 	mr      r11,r0
 180c000:	81 2b 00 08 	lwz     r9,8(r11)
 180c004:	3c 00 01 82 	lis     r0,386
 180c008:	30 00 c8 44 	addic   r0,r0,-14268
 180c00c:	7c 0b 03 78 	mr      r11,r0
 180c010:	91 2b 00 00 	stw     r9,0(r11)
 180c014:	3c 00 01 82 	lis     r0,386
 180c018:	7c 09 03 78 	mr      r9,r0
 180c01c:	80 09 c7 f8 	lwz     r0,-14344(r9)
 180c020:	31 20 ff fc 	addic   r9,r0,-4
 180c024:	3c 00 01 82 	lis     r0,386
 180c028:	7c 0b 03 78 	mr      r11,r0
 180c02c:	91 2b c7 f8 	stw     r9,-14344(r11)
 180c030:	81 3f 00 34 	lwz     r9,52(r31)
 180c034:	80 1f 00 30 	lwz     r0,48(r31)
 180c038:	7c 09 02 14 	add     r0,r9,r0
 180c03c:	90 1f 00 2c 	stw     r0,44(r31)
 180c040:	3c 00 01 82 	lis     r0,386
 180c044:	7c 09 03 78 	mr      r9,r0
 180c048:	80 09 c7 fc 	lwz     r0,-14340(r9)
 180c04c:	3d 20 01 82 	lis     r9,386
 180c050:	39 29 c8 20 	addi    r9,r9,-14304
 180c054:	54 00 10 3a 	rlwinm  r0,r0,2,0,29
 180c058:	7c 09 02 14 	add     r0,r9,r0
 180c05c:	81 3f 00 34 	lwz     r9,52(r31)
 180c060:	7c 0b 03 78 	mr      r11,r0
 180c064:	91 2b 00 00 	stw     r9,0(r11)
 180c068:	3c 00 01 82 	lis     r0,386
 180c06c:	7c 09 03 78 	mr      r9,r0
 180c070:	80 09 c7 fc 	lwz     r0,-14340(r9)
 180c074:	30 00 00 01 	addic   r0,r0,1
 180c078:	3d 20 01 82 	lis     r9,386
 180c07c:	39 29 c8 20 	addi    r9,r9,-14304
 180c080:	54 00 10 3a 	rlwinm  r0,r0,2,0,29
 180c084:	7c 09 02 14 	add     r0,r9,r0
 180c088:	81 3f 00 30 	lwz     r9,48(r31)
 180c08c:	7c 0b 03 78 	mr      r11,r0
 180c090:	91 2b 00 00 	stw     r9,0(r11)
 180c094:	3c 00 01 82 	lis     r0,386
 180c098:	7c 09 03 78 	mr      r9,r0
 180c09c:	80 09 c7 fc 	lwz     r0,-14340(r9)
 180c0a0:	30 00 00 02 	addic   r0,r0,2
 180c0a4:	3d 20 01 82 	lis     r9,386
 180c0a8:	39 29 c8 20 	addi    r9,r9,-14304
 180c0ac:	54 00 10 3a 	rlwinm  r0,r0,2,0,29
 180c0b0:	7c 09 02 14 	add     r0,r9,r0
 180c0b4:	81 3f 00 2c 	lwz     r9,44(r31)
 180c0b8:	7c 0b 03 78 	mr      r11,r0
 180c0bc:	91 2b 00 00 	stw     r9,0(r11)
 180c0c0:	3c 00 01 82 	lis     r0,386
 180c0c4:	7c 09 03 78 	mr      r9,r0
 180c0c8:	80 09 c7 fc 	lwz     r0,-14340(r9)
 180c0cc:	31 20 00 03 	addic   r9,r0,3
 180c0d0:	3c 00 01 82 	lis     r0,386
 180c0d4:	7c 0b 03 78 	mr      r11,r0
 180c0d8:	91 2b c7 fc 	stw     r9,-14340(r11)
 180c0dc:	3c 00 01 82 	lis     r0,386
 180c0e0:	7c 09 03 78 	mr      r9,r0
 180c0e4:	80 09 c7 f8 	lwz     r0,-14344(r9)
 180c0e8:	2f 80 00 04 	cmpwi   cr7,r0,4
 180c0ec:	40 9d 01 6c 	ble-    cr7,180c258 <main+0xc038>
 180c0f0:	3c 00 01 82 	lis     r0,386
 180c0f4:	7c 0b 03 78 	mr      r11,r0
 180c0f8:	80 0b c7 fc 	lwz     r0,-14340(r11)
 180c0fc:	30 00 00 03 	addic   r0,r0,3
 180c100:	2f 80 00 06 	cmpwi   cr7,r0,6
 180c104:	41 9d 01 54 	bgt-    cr7,180c258 <main+0xc038>
 180c108:	3c 00 01 82 	lis     r0,386
 180c10c:	30 00 c8 44 	addic   r0,r0,-14268
 180c110:	7c 0b 03 78 	mr      r11,r0
 180c114:	81 2b 00 0c 	lwz     r9,12(r11)
 180c118:	3c 00 01 82 	lis     r0,386
 180c11c:	30 00 c8 44 	addic   r0,r0,-14268
 180c120:	7c 0b 03 78 	mr      r11,r0
 180c124:	80 0b 00 04 	lwz     r0,4(r11)
 180c128:	7f 89 00 00 	cmpw    cr7,r9,r0
 180c12c:	40 9e 01 2c 	bne-    cr7,180c258 <main+0xc038>
 180c130:	3c 00 01 82 	lis     r0,386
 180c134:	30 00 c8 44 	addic   r0,r0,-14268
 180c138:	7c 0b 03 78 	mr      r11,r0
 180c13c:	81 2b 00 0c 	lwz     r9,12(r11)
 180c140:	3c 00 01 82 	lis     r0,386
 180c144:	30 00 c8 44 	addic   r0,r0,-14268
 180c148:	7c 0b 03 78 	mr      r11,r0
 180c14c:	80 0b 00 08 	lwz     r0,8(r11)
 180c150:	7f 89 00 00 	cmpw    cr7,r9,r0
 180c154:	40 9e 01 04 	bne-    cr7,180c258 <main+0xc038>
 180c158:	3c 00 01 82 	lis     r0,386
 180c15c:	30 00 c8 44 	addic   r0,r0,-14268
 180c160:	7c 09 03 78 	mr      r9,r0
 180c164:	80 09 00 10 	lwz     r0,16(r9)
 180c168:	90 1f 00 28 	stw     r0,40(r31)
 180c16c:	3c 00 01 82 	lis     r0,386
 180c170:	30 00 c8 44 	addic   r0,r0,-14268
 180c174:	7c 0b 03 78 	mr      r11,r0
 180c178:	80 0b 00 0c 	lwz     r0,12(r11)
 180c17c:	90 1f 00 24 	stw     r0,36(r31)
 180c180:	81 3f 00 24 	lwz     r9,36(r31)
 180c184:	80 1f 00 28 	lwz     r0,40(r31)
 180c188:	7f 89 00 00 	cmpw    cr7,r9,r0
 180c18c:	40 9d 00 cc 	ble-    cr7,180c258 <main+0xc038>
 180c190:	3c 00 01 82 	lis     r0,386
 180c194:	7c 09 03 78 	mr      r9,r0
 180c198:	80 09 c7 f8 	lwz     r0,-14344(r9)
 180c19c:	31 20 ff fc 	addic   r9,r0,-4
 180c1a0:	3c 00 01 82 	lis     r0,386
 180c1a4:	7c 0b 03 78 	mr      r11,r0
 180c1a8:	91 2b c7 f8 	stw     r9,-14344(r11)
 180c1ac:	81 3f 00 28 	lwz     r9,40(r31)
 180c1b0:	80 1f 00 24 	lwz     r0,36(r31)
 180c1b4:	7c 09 02 14 	add     r0,r9,r0
 180c1b8:	90 1f 00 20 	stw     r0,32(r31)
 180c1bc:	3c 00 01 82 	lis     r0,386
 180c1c0:	7c 09 03 78 	mr      r9,r0
 180c1c4:	80 09 c7 fc 	lwz     r0,-14340(r9)
 180c1c8:	3d 20 01 82 	lis     r9,386
 180c1cc:	39 29 c8 20 	addi    r9,r9,-14304
 180c1d0:	54 00 10 3a 	rlwinm  r0,r0,2,0,29
 180c1d4:	7c 09 02 14 	add     r0,r9,r0
 180c1d8:	81 3f 00 28 	lwz     r9,40(r31)
 180c1dc:	7c 0b 03 78 	mr      r11,r0
 180c1e0:	91 2b 00 00 	stw     r9,0(r11)
 180c1e4:	3c 00 01 82 	lis     r0,386
 180c1e8:	7c 09 03 78 	mr      r9,r0
 180c1ec:	80 09 c7 fc 	lwz     r0,-14340(r9)
 180c1f0:	30 00 00 01 	addic   r0,r0,1
 180c1f4:	3d 20 01 82 	lis     r9,386
 180c1f8:	39 29 c8 20 	addi    r9,r9,-14304
 180c1fc:	54 00 10 3a 	rlwinm  r0,r0,2,0,29
 180c200:	7c 09 02 14 	add     r0,r9,r0
 180c204:	81 3f 00 24 	lwz     r9,36(r31)
 180c208:	7c 0b 03 78 	mr      r11,r0
 180c20c:	91 2b 00 00 	stw     r9,0(r11)
 180c210:	3c 00 01 82 	lis     r0,386
 180c214:	7c 09 03 78 	mr      r9,r0
 180c218:	80 09 c7 fc 	lwz     r0,-14340(r9)
 180c21c:	30 00 00 02 	addic   r0,r0,2
 180c220:	3d 20 01 82 	lis     r9,386
 180c224:	39 29 c8 20 	addi    r9,r9,-14304
 180c228:	54 00 10 3a 	rlwinm  r0,r0,2,0,29
 180c22c:	7c 09 02 14 	add     r0,r9,r0
 180c230:	81 3f 00 20 	lwz     r9,32(r31)
 180c234:	7c 0b 03 78 	mr      r11,r0
 180c238:	91 2b 00 00 	stw     r9,0(r11)
 180c23c:	3c 00 01 82 	lis     r0,386
 180c240:	7c 09 03 78 	mr      r9,r0
 180c244:	80 09 c7 fc 	lwz     r0,-14340(r9)
 180c248:	31 20 00 03 	addic   r9,r0,3
 180c24c:	3c 00 01 82 	lis     r0,386
 180c250:	7c 0b 03 78 	mr      r11,r0
 180c254:	91 2b c7 fc 	stw     r9,-14340(r11)
 180c258:	3c 00 01 82 	lis     r0,386
 180c25c:	7c 09 03 78 	mr      r9,r0
 180c260:	80 09 c7 f8 	lwz     r0,-14344(r9)
 180c264:	2f 80 00 04 	cmpwi   cr7,r0,4
 180c268:	40 9d 01 8c 	ble-    cr7,180c3f4 <main+0xc1d4>
 180c26c:	3c 00 01 82 	lis     r0,386
 180c270:	7c 0b 03 78 	mr      r11,r0
 180c274:	80 0b c7 fc 	lwz     r0,-14340(r11)
 180c278:	30 00 00 03 	addic   r0,r0,3
 180c27c:	2f 80 00 06 	cmpwi   cr7,r0,6
 180c280:	41 9d 01 74 	bgt-    cr7,180c3f4 <main+0xc1d4>
 180c284:	3c 00 01 82 	lis     r0,386
 180c288:	30 00 c8 44 	addic   r0,r0,-14268
 180c28c:	7c 0b 03 78 	mr      r11,r0
 180c290:	81 2b 00 0c 	lwz     r9,12(r11)
 180c294:	3c 00 01 82 	lis     r0,386
 180c298:	30 00 c8 44 	addic   r0,r0,-14268
 180c29c:	7c 0b 03 78 	mr      r11,r0
 180c2a0:	80 0b 00 08 	lwz     r0,8(r11)
 180c2a4:	7f 89 00 00 	cmpw    cr7,r9,r0
 180c2a8:	40 9e 01 4c 	bne-    cr7,180c3f4 <main+0xc1d4>
 180c2ac:	3c 00 01 82 	lis     r0,386
 180c2b0:	30 00 c8 44 	addic   r0,r0,-14268
 180c2b4:	7c 0b 03 78 	mr      r11,r0
 180c2b8:	81 2b 00 0c 	lwz     r9,12(r11)
 180c2bc:	3c 00 01 82 	lis     r0,386
 180c2c0:	30 00 c8 44 	addic   r0,r0,-14268
 180c2c4:	7c 0b 03 78 	mr      r11,r0
 180c2c8:	80 0b 00 00 	lwz     r0,0(r11)
 180c2cc:	7f 89 00 00 	cmpw    cr7,r9,r0
 180c2d0:	40 9e 01 24 	bne-    cr7,180c3f4 <main+0xc1d4>
 180c2d4:	3c 00 01 82 	lis     r0,386
 180c2d8:	30 00 c8 44 	addic   r0,r0,-14268
 180c2dc:	7c 09 03 78 	mr      r9,r0
 180c2e0:	80 09 00 10 	lwz     r0,16(r9)
 180c2e4:	90 1f 00 1c 	stw     r0,28(r31)
 180c2e8:	3c 00 01 82 	lis     r0,386
 180c2ec:	30 00 c8 44 	addic   r0,r0,-14268
 180c2f0:	7c 0b 03 78 	mr      r11,r0
 180c2f4:	80 0b 00 0c 	lwz     r0,12(r11)
 180c2f8:	90 1f 00 18 	stw     r0,24(r31)
 180c2fc:	81 3f 00 18 	lwz     r9,24(r31)
 180c300:	80 1f 00 1c 	lwz     r0,28(r31)
 180c304:	7f 89 00 00 	cmpw    cr7,r9,r0
 180c308:	40 9d 00 ec 	ble-    cr7,180c3f4 <main+0xc1d4>
 180c30c:	3c 00 01 82 	lis     r0,386
 180c310:	30 00 c8 44 	addic   r0,r0,-14268
 180c314:	7c 0b 03 78 	mr      r11,r0
 180c318:	81 2b 00 04 	lwz     r9,4(r11)
 180c31c:	3c 00 01 82 	lis     r0,386
 180c320:	30 00 c8 44 	addic   r0,r0,-14268
 180c324:	7c 0b 03 78 	mr      r11,r0
 180c328:	91 2b 00 00 	stw     r9,0(r11)
 180c32c:	3c 00 01 82 	lis     r0,386
 180c330:	7c 09 03 78 	mr      r9,r0
 180c334:	80 09 c7 f8 	lwz     r0,-14344(r9)
 180c338:	31 20 ff fc 	addic   r9,r0,-4
 180c33c:	3c 00 01 82 	lis     r0,386
 180c340:	7c 0b 03 78 	mr      r11,r0
 180c344:	91 2b c7 f8 	stw     r9,-14344(r11)
 180c348:	81 3f 00 1c 	lwz     r9,28(r31)
 180c34c:	80 1f 00 18 	lwz     r0,24(r31)
 180c350:	7c 09 02 14 	add     r0,r9,r0
 180c354:	90 1f 00 14 	stw     r0,20(r31)
 180c358:	3c 00 01 82 	lis     r0,386
 180c35c:	7c 09 03 78 	mr      r9,r0
 180c360:	80 09 c7 fc 	lwz     r0,-14340(r9)
 180c364:	3d 20 01 82 	lis     r9,386
 180c368:	39 29 c8 20 	addi    r9,r9,-14304
 180c36c:	54 00 10 3a 	rlwinm  r0,r0,2,0,29
 180c370:	7c 09 02 14 	add     r0,r9,r0
 180c374:	81 3f 00 1c 	lwz     r9,28(r31)
 180c378:	7c 0b 03 78 	mr      r11,r0
 180c37c:	91 2b 00 00 	stw     r9,0(r11)
 180c380:	3c 00 01 82 	lis     r0,386
 180c384:	7c 09 03 78 	mr      r9,r0
 180c388:	80 09 c7 fc 	lwz     r0,-14340(r9)
 180c38c:	30 00 00 01 	addic   r0,r0,1
 180c390:	3d 20 01 82 	lis     r9,386
 180c394:	39 29 c8 20 	addi    r9,r9,-14304
 180c398:	54 00 10 3a 	rlwinm  r0,r0,2,0,29
 180c39c:	7c 09 02 14 	add     r0,r9,r0
 180c3a0:	81 3f 00 18 	lwz     r9,24(r31)
 180c3a4:	7c 0b 03 78 	mr      r11,r0
 180c3a8:	91 2b 00 00 	stw     r9,0(r11)
 180c3ac:	3c 00 01 82 	lis     r0,386
 180c3b0:	7c 09 03 78 	mr      r9,r0
 180c3b4:	80 09 c7 fc 	lwz     r0,-14340(r9)
 180c3b8:	30 00 00 02 	addic   r0,r0,2
 180c3bc:	3d 20 01 82 	lis     r9,386
 180c3c0:	39 29 c8 20 	addi    r9,r9,-14304
 180c3c4:	54 00 10 3a 	rlwinm  r0,r0,2,0,29
 180c3c8:	7c 09 02 14 	add     r0,r9,r0
 180c3cc:	81 3f 00 14 	lwz     r9,20(r31)
 180c3d0:	7c 0b 03 78 	mr      r11,r0
 180c3d4:	91 2b 00 00 	stw     r9,0(r11)
 180c3d8:	3c 00 01 82 	lis     r0,386
 180c3dc:	7c 09 03 78 	mr      r9,r0
 180c3e0:	80 09 c7 fc 	lwz     r0,-14340(r9)
 180c3e4:	31 20 00 03 	addic   r9,r0,3
 180c3e8:	3c 00 01 82 	lis     r0,386
 180c3ec:	7c 0b 03 78 	mr      r11,r0
 180c3f0:	91 2b c7 fc 	stw     r9,-14340(r11)
 180c3f4:	3c 00 01 82 	lis     r0,386
 180c3f8:	7c 09 03 78 	mr      r9,r0
 180c3fc:	80 09 c7 f8 	lwz     r0,-14344(r9)
 180c400:	2f 80 00 04 	cmpwi   cr7,r0,4
 180c404:	40 9d 01 6c 	ble-    cr7,180c570 <main+0xc350>
 180c408:	3c 00 01 82 	lis     r0,386
 180c40c:	7c 0b 03 78 	mr      r11,r0
 180c410:	80 0b c7 fc 	lwz     r0,-14340(r11)
 180c414:	30 00 00 03 	addic   r0,r0,3
 180c418:	2f 80 00 06 	cmpwi   cr7,r0,6
 180c41c:	41 9d 01 54 	bgt-    cr7,180c570 <main+0xc350>
 180c420:	3c 00 01 82 	lis     r0,386
 180c424:	30 00 c8 44 	addic   r0,r0,-14268
 180c428:	7c 0b 03 78 	mr      r11,r0
 180c42c:	81 2b 00 0c 	lwz     r9,12(r11)
 180c430:	3c 00 01 82 	lis     r0,386
 180c434:	30 00 c8 44 	addic   r0,r0,-14268
 180c438:	7c 0b 03 78 	mr      r11,r0
 180c43c:	80 0b 00 08 	lwz     r0,8(r11)
 180c440:	7f 89 00 00 	cmpw    cr7,r9,r0
 180c444:	40 9e 01 2c 	bne-    cr7,180c570 <main+0xc350>
 180c448:	3c 00 01 82 	lis     r0,386
 180c44c:	30 00 c8 44 	addic   r0,r0,-14268
 180c450:	7c 0b 03 78 	mr      r11,r0
 180c454:	81 2b 00 0c 	lwz     r9,12(r11)
 180c458:	3c 00 01 82 	lis     r0,386
 180c45c:	30 00 c8 44 	addic   r0,r0,-14268
 180c460:	7c 0b 03 78 	mr      r11,r0
 180c464:	80 0b 00 04 	lwz     r0,4(r11)
 180c468:	7f 89 00 00 	cmpw    cr7,r9,r0
 180c46c:	40 9e 01 04 	bne-    cr7,180c570 <main+0xc350>
 180c470:	3c 00 01 82 	lis     r0,386
 180c474:	30 00 c8 44 	addic   r0,r0,-14268
 180c478:	7c 09 03 78 	mr      r9,r0
 180c47c:	80 09 00 10 	lwz     r0,16(r9)
 180c480:	90 1f 00 10 	stw     r0,16(r31)
 180c484:	3c 00 01 82 	lis     r0,386
 180c488:	30 00 c8 44 	addic   r0,r0,-14268
 180c48c:	7c 0b 03 78 	mr      r11,r0
 180c490:	80 0b 00 0c 	lwz     r0,12(r11)
 180c494:	90 1f 00 0c 	stw     r0,12(r31)
 180c498:	81 3f 00 0c 	lwz     r9,12(r31)
 180c49c:	80 1f 00 10 	lwz     r0,16(r31)
 180c4a0:	7f 89 00 00 	cmpw    cr7,r9,r0
 180c4a4:	40 9d 00 cc 	ble-    cr7,180c570 <main+0xc350>
 180c4a8:	3c 00 01 82 	lis     r0,386
 180c4ac:	7c 09 03 78 	mr      r9,r0
 180c4b0:	80 09 c7 f8 	lwz     r0,-14344(r9)
 180c4b4:	31 20 ff fc 	addic   r9,r0,-4
 180c4b8:	3c 00 01 82 	lis     r0,386
 180c4bc:	7c 0b 03 78 	mr      r11,r0
 180c4c0:	91 2b c7 f8 	stw     r9,-14344(r11)
 180c4c4:	81 3f 00 10 	lwz     r9,16(r31)
 180c4c8:	80 1f 00 0c 	lwz     r0,12(r31)
 180c4cc:	7c 09 02 14 	add     r0,r9,r0
 180c4d0:	90 1f 00 08 	stw     r0,8(r31)
 180c4d4:	3c 00 01 82 	lis     r0,386
 180c4d8:	7c 09 03 78 	mr      r9,r0
 180c4dc:	80 09 c7 fc 	lwz     r0,-14340(r9)
 180c4e0:	3d 20 01 82 	lis     r9,386
 180c4e4:	39 29 c8 20 	addi    r9,r9,-14304
 180c4e8:	54 00 10 3a 	rlwinm  r0,r0,2,0,29
 180c4ec:	7c 09 02 14 	add     r0,r9,r0
 180c4f0:	81 3f 00 10 	lwz     r9,16(r31)
 180c4f4:	7c 0b 03 78 	mr      r11,r0
 180c4f8:	91 2b 00 00 	stw     r9,0(r11)
 180c4fc:	3c 00 01 82 	lis     r0,386
 180c500:	7c 09 03 78 	mr      r9,r0
 180c504:	80 09 c7 fc 	lwz     r0,-14340(r9)
 180c508:	30 00 00 01 	addic   r0,r0,1
 180c50c:	3d 20 01 82 	lis     r9,386
 180c510:	39 29 c8 20 	addi    r9,r9,-14304
 180c514:	54 00 10 3a 	rlwinm  r0,r0,2,0,29
 180c518:	7c 09 02 14 	add     r0,r9,r0
 180c51c:	81 3f 00 0c 	lwz     r9,12(r31)
 180c520:	7c 0b 03 78 	mr      r11,r0
 180c524:	91 2b 00 00 	stw     r9,0(r11)
 180c528:	3c 00 01 82 	lis     r0,386
 180c52c:	7c 09 03 78 	mr      r9,r0
 180c530:	80 09 c7 fc 	lwz     r0,-14340(r9)
 180c534:	30 00 00 02 	addic   r0,r0,2
 180c538:	3d 20 01 82 	lis     r9,386
 180c53c:	39 29 c8 20 	addi    r9,r9,-14304
 180c540:	54 00 10 3a 	rlwinm  r0,r0,2,0,29
 180c544:	7c 09 02 14 	add     r0,r9,r0
 180c548:	81 3f 00 08 	lwz     r9,8(r31)
 180c54c:	7c 0b 03 78 	mr      r11,r0
 180c550:	91 2b 00 00 	stw     r9,0(r11)
 180c554:	3c 00 01 82 	lis     r0,386
 180c558:	7c 09 03 78 	mr      r9,r0
 180c55c:	80 09 c7 fc 	lwz     r0,-14340(r9)
 180c560:	31 20 00 03 	addic   r9,r0,3
 180c564:	3c 00 01 82 	lis     r0,386
 180c568:	7c 0b 03 78 	mr      r11,r0
 180c56c:	91 2b c7 fc 	stw     r9,-14340(r11)
 180c570:	80 1f 05 f4 	lwz     r0,1524(r31)
 180c574:	2f 80 00 00 	cmpwi   cr7,r0,0
 180c578:	40 9d 00 08 	ble-    cr7,180c580 <main+0xc360>
 180c57c:	4b ff 3c d0 	b       180024c <main+0x2c>
 180c580:	38 00 00 4d 	li      r0,77
 180c584:	90 1f 05 f4 	stw     r0,1524(r31)
 180c588:	80 1f 05 f4 	lwz     r0,1524(r31)
 180c58c:	7c 03 03 78 	mr      r3,r0
 180c590:	39 7f 06 00 	addi    r11,r31,1536
 180c594:	80 0b 00 04 	lwz     r0,4(r11)
 180c598:	7c 08 03 a6 	mtlr    r0
 180c59c:	83 eb ff fc 	lwz     r31,-4(r11)
 180c5a0:	7d 61 5b 78 	mr      r1,r11
 180c5a4:	4e 80 00 20 	blr

0180c5a8 <_exit>:
 180c5a8:	94 21 ff e8 	stwu    r1,-24(r1)
 180c5ac:	93 e1 00 14 	stw     r31,20(r1)
 180c5b0:	7c 3f 0b 78 	mr      r31,r1
 180c5b4:	90 7f 00 08 	stw     r3,8(r31)
 180c5b8:	48 00 00 00 	b       180c5b8 <_exit+0x10>

0180c5bc <_start>:
 180c5bc:	94 21 ff f0 	stwu    r1,-16(r1)
 180c5c0:	7c 08 02 a6 	mflr    r0
 180c5c4:	90 01 00 14 	stw     r0,20(r1)
 180c5c8:	93 e1 00 0c 	stw     r31,12(r1)
 180c5cc:	7c 3f 0b 78 	mr      r31,r1
 180c5d0:	38 60 00 00 	li      r3,0
 180c5d4:	38 80 00 00 	li      r4,0
 180c5d8:	4b ff 3c 49 	bl      1800220 <main>
 180c5dc:	38 60 00 00 	li      r3,0
 180c5e0:	4b ff ff c9 	bl      180c5a8 <_exit>

0180c5e4 <__eabi>:
 180c5e4:	3d 40 01 82 	lis     r10,386
 180c5e8:	3d 60 01 82 	lis     r11,386
 180c5ec:	81 2a c7 f0 	lwz     r9,-14352(r10)
 180c5f0:	39 6b c7 d0 	addi    r11,r11,-14384
 180c5f4:	29 09 00 00 	cmplwi  cr2,r9,0
 180c5f8:	4c 8a 00 20 	bnelr   cr2
 180c5fc:	90 2a c7 f0 	stw     r1,-14352(r10)
 180c600:	80 6b 00 08 	lwz     r3,8(r11)
 180c604:	80 8b 00 0c 	lwz     r4,12(r11)
 180c608:	7c 83 20 00 	cmpw    cr1,r3,r4
 180c60c:	41 86 00 08 	beq-    cr1,180c614 <__eabi+0x30>
 180c610:	81 ab 00 04 	lwz     r13,4(r11)
 180c614:	80 6b 00 14 	lwz     r3,20(r11)
 180c618:	80 8b 00 18 	lwz     r4,24(r11)
 180c61c:	7c 83 20 00 	cmpw    cr1,r3,r4
 180c620:	41 a6 00 08 	beq+    cr1,180c628 <__eabi+0x44>
 180c624:	80 4b 00 10 	lwz     r2,16(r11)
 180c628:	4b ff 3a 6c 	b       1800094 <__init>

0180c62c <__eabi_convert>:
 180c62c:	7c 83 20 40 	cmplw   cr1,r3,r4
 180c630:	7c a3 20 50 	subf    r5,r3,r4
 180c634:	4c 84 00 20 	bgelr   cr1
 180c638:	7c a5 16 70 	srawi   r5,r5,2
 180c63c:	38 63 ff fc 	addi    r3,r3,-4
 180c640:	7c a9 03 a6 	mtctr   r5
 180c644:	84 c3 00 04 	lwzu    r6,4(r3)
 180c648:	2c 06 00 00 	cmpwi   r6,0
 180c64c:	41 82 00 0c 	beq-    180c658 <__eabi_convert+0x2c>
 180c650:	7c c6 62 14 	add     r6,r6,r12
 180c654:	90 c3 00 00 	stw     r6,0(r3)
 180c658:	42 00 ff ec 	bdnz+   180c644 <__eabi_convert+0x18>
 180c65c:	4e 80 00 20 	blr

0180c660 <__eabi_uconvert>:
 180c660:	7c 83 20 40 	cmplw   cr1,r3,r4
 180c664:	7c a3 20 50 	subf    r5,r3,r4
 180c668:	4c 84 00 20 	bgelr   cr1
 180c66c:	7c a5 16 70 	srawi   r5,r5,2
 180c670:	38 63 ff fc 	addi    r3,r3,-4
 180c674:	7c a9 03 a6 	mtctr   r5
 180c678:	84 c3 00 04 	lwzu    r6,4(r3)
 180c67c:	7c c6 62 14 	add     r6,r6,r12
 180c680:	80 e6 00 00 	lwz     r7,0(r6)
 180c684:	90 c3 00 00 	stw     r6,0(r3)
 180c688:	7c e7 62 14 	add     r7,r7,r12
 180c68c:	90 e6 00 00 	stw     r7,0(r6)
 180c690:	42 00 ff e8 	bdnz+   180c678 <__eabi_uconvert+0x18>
 180c694:	4e 80 00 20 	blr

0180c698 <__do_global_ctors_aux>:
 180c698:	7c 08 02 a6 	mflr    r0
 180c69c:	94 21 ff f0 	stwu    r1,-16(r1)
 180c6a0:	93 e1 00 0c 	stw     r31,12(r1)
 180c6a4:	3f e0 01 82 	lis     r31,386
 180c6a8:	90 01 00 14 	stw     r0,20(r1)
 180c6ac:	3b ff c7 c0 	addi    r31,r31,-14400
 180c6b0:	80 1f ff fc 	lwz     r0,-4(r31)
 180c6b4:	2f 80 ff ff 	cmpwi   cr7,r0,-1
 180c6b8:	41 9e 00 1c 	beq-    cr7,180c6d4 <__do_global_ctors_aux+0x3c>
 180c6bc:	3b ff ff fc 	addi    r31,r31,-4
 180c6c0:	7c 09 03 a6 	mtctr   r0
 180c6c4:	4e 80 04 21 	bctrl
 180c6c8:	84 1f ff fc 	lwzu    r0,-4(r31)
 180c6cc:	2f 80 ff ff 	cmpwi   cr7,r0,-1
 180c6d0:	40 9e ff f0 	bne+    cr7,180c6c0 <__do_global_ctors_aux+0x28>
 180c6d4:	80 01 00 14 	lwz     r0,20(r1)
 180c6d8:	83 e1 00 0c 	lwz     r31,12(r1)
 180c6dc:	38 21 00 10 	addi    r1,r1,16
 180c6e0:	7c 08 03 a6 	mtlr    r0
 180c6e4:	4e 80 00 20 	blr

0180c6e8 <call___do_global_ctors_aux>:
 180c6e8:	7c 08 02 a6 	mflr    r0
 180c6ec:	94 21 ff f8 	stwu    r1,-8(r1)
 180c6f0:	90 01 00 0c 	stw     r0,12(r1)
 180c6f4:	80 01 00 0c 	lwz     r0,12(r1)
 180c6f8:	38 21 00 08 	addi    r1,r1,8
 180c6fc:	7c 08 03 a6 	mtlr    r0
 180c700:	4e 80 00 20 	blr

Disassembly of section .fini:

0180c704 <__fini>:
 180c704:	94 21 ff f0 	stwu    r1,-16(r1)
 180c708:	7c 08 02 a6 	mflr    r0
 180c70c:	90 01 00 14 	stw     r0,20(r1)
 180c710:	4b ff 39 a9 	bl      18000b8 <__do_global_dtors_aux>
 180c714:	80 01 00 14 	lwz     r0,20(r1)
 180c718:	7c 08 03 a6 	mtlr    r0
 180c71c:	38 21 00 10 	addi    r1,r1,16
 180c720:	4e 80 00 20 	blr
