
/home/vaillant/ppc2/perf/malardalen/ppc-eabi/gcc-4.4.2/nsichneu/nsichneu.elf:     file format elf32-powerpc


Disassembly of section .init:

01800094 <__init>:
 1800094:	94 21 ff f0 	stwu    r1,-16(r1)
 1800098:	7c 08 02 a6 	mflr    r0
 180009c:	90 01 00 14 	stw     r0,20(r1)
 18000a0:	48 00 00 f9 	bl      1800198 <frame_dummy>
 18000a4:	48 00 c5 f5 	bl      180c698 <__do_global_ctors_aux>
 18000a8:	80 01 00 14 	lwz     r0,20(r1)
 18000ac:	7c 08 03 a6 	mtlr    r0
 18000b0:	38 21 00 10 	addi    r1,r1,16
 18000b4:	4e 80 00 20 	blr

Disassembly of section .text:

018000b8 <__do_global_dtors_aux>:
 18000b8:	94 21 ff e8 	stwu    r1,-24(r1)
 18000bc:	7c 08 02 a6 	mflr    r0
 18000c0:	93 e1 00 14 	stw     r31,20(r1)
 18000c4:	3f e0 01 82 	lis     r31,386
 18000c8:	90 01 00 1c 	stw     r0,28(r1)
 18000cc:	88 1f c8 00 	lbz     r0,-14336(r31)
 18000d0:	93 81 00 08 	stw     r28,8(r1)
 18000d4:	2f 80 00 00 	cmpwi   cr7,r0,0
 18000d8:	93 a1 00 0c 	stw     r29,12(r1)
 18000dc:	93 c1 00 10 	stw     r30,16(r1)
 18000e0:	40 9e 00 7c 	bne-    cr7,180015c <__do_global_dtors_aux+0xa4>
 18000e4:	3f 80 01 82 	lis     r28,386
 18000e8:	3f a0 01 82 	lis     r29,386
 18000ec:	3b 9c c7 c4 	addi    r28,r28,-14396
 18000f0:	3b bd c7 c8 	addi    r29,r29,-14392
 18000f4:	7f bc e8 50 	subf    r29,r28,r29
 18000f8:	3f c0 01 82 	lis     r30,386
 18000fc:	7f bd 16 70 	srawi   r29,r29,2
 1800100:	81 3e c8 04 	lwz     r9,-14332(r30)
 1800104:	3b bd ff ff 	addi    r29,r29,-1
 1800108:	7f 89 e8 40 	cmplw   cr7,r9,r29
 180010c:	40 9c 00 2c 	bge-    cr7,1800138 <__do_global_dtors_aux+0x80>
 1800110:	3b de c8 04 	addi    r30,r30,-14332
 1800114:	39 29 00 01 	addi    r9,r9,1
 1800118:	55 20 10 3a 	rlwinm  r0,r9,2,0,29
 180011c:	91 3e 00 00 	stw     r9,0(r30)
 1800120:	7c 1c 00 2e 	lwzx    r0,r28,r0
 1800124:	7c 09 03 a6 	mtctr   r0
 1800128:	4e 80 04 21 	bctrl
 180012c:	81 3e 00 00 	lwz     r9,0(r30)
 1800130:	7f 89 e8 40 	cmplw   cr7,r9,r29
 1800134:	41 9c ff e0 	blt+    cr7,1800114 <__do_global_dtors_aux+0x5c>
 1800138:	3d 20 00 00 	lis     r9,0
 180013c:	38 09 00 00 	addi    r0,r9,0
 1800140:	2f 80 00 00 	cmpwi   cr7,r0,0
 1800144:	41 9e 00 10 	beq-    cr7,1800154 <__do_global_dtors_aux+0x9c>
 1800148:	3c 60 01 82 	lis     r3,386
 180014c:	38 63 c7 48 	addi    r3,r3,-14520
 1800150:	4a 7f fe b1 	bl      0 <__init-0x1800094>
 1800154:	38 00 00 01 	li      r0,1
 1800158:	98 1f c8 00 	stb     r0,-14336(r31)
 180015c:	80 01 00 1c 	lwz     r0,28(r1)
 1800160:	83 81 00 08 	lwz     r28,8(r1)
 1800164:	7c 08 03 a6 	mtlr    r0
 1800168:	83 a1 00 0c 	lwz     r29,12(r1)
 180016c:	83 c1 00 10 	lwz     r30,16(r1)
 1800170:	83 e1 00 14 	lwz     r31,20(r1)
 1800174:	38 21 00 18 	addi    r1,r1,24
 1800178:	4e 80 00 20 	blr

0180017c <call___do_global_dtors_aux>:
 180017c:	7c 08 02 a6 	mflr    r0
 1800180:	94 21 ff f8 	stwu    r1,-8(r1)
 1800184:	90 01 00 0c 	stw     r0,12(r1)
 1800188:	80 01 00 0c 	lwz     r0,12(r1)
 180018c:	38 21 00 08 	addi    r1,r1,8
 1800190:	7c 08 03 a6 	mtlr    r0
 1800194:	4e 80 00 20 	blr

01800198 <frame_dummy>:
 1800198:	7c 08 02 a6 	mflr    r0
 180019c:	94 21 ff f8 	stwu    r1,-8(r1)
 18001a0:	3d 20 00 00 	lis     r9,0
 18001a4:	90 01 00 0c 	stw     r0,12(r1)
 18001a8:	38 09 00 00 	addi    r0,r9,0
 18001ac:	2f 80 00 00 	cmpwi   cr7,r0,0
 18001b0:	41 9e 00 18 	beq-    cr7,18001c8 <frame_dummy+0x30>
 18001b4:	3c 60 01 82 	lis     r3,386
 18001b8:	3c 80 01 82 	lis     r4,386
 18001bc:	38 63 c7 48 	addi    r3,r3,-14520
 18001c0:	38 84 c8 08 	addi    r4,r4,-14328
 18001c4:	4a 7f fe 3d 	bl      0 <__init-0x1800094>
 18001c8:	3c 60 01 82 	lis     r3,386
 18001cc:	80 03 c7 cc 	lwz     r0,-14388(r3)
 18001d0:	38 63 c7 cc 	addi    r3,r3,-14388
 18001d4:	2f 80 00 00 	cmpwi   cr7,r0,0
 18001d8:	41 9e 00 1c 	beq-    cr7,18001f4 <frame_dummy+0x5c>
 18001dc:	3d 20 00 00 	lis     r9,0
 18001e0:	38 09 00 00 	addi    r0,r9,0
 18001e4:	2f 80 00 00 	cmpwi   cr7,r0,0
 18001e8:	41 9e 00 0c 	beq-    cr7,18001f4 <frame_dummy+0x5c>
 18001ec:	7c 09 03 a6 	mtctr   r0
 18001f0:	4e 80 04 21 	bctrl
 18001f4:	80 01 00 0c 	lwz     r0,12(r1)
 18001f8:	38 21 00 08 	addi    r1,r1,8
 18001fc:	7c 08 03 a6 	mtlr    r0
 1800200:	4e 80 00 20 	blr

01800204 <call_frame_dummy>:
 1800204:	7c 08 02 a6 	mflr    r0
 1800208:	94 21 ff f8 	stwu    r1,-8(r1)
 180020c:	90 01 00 0c 	stw     r0,12(r1)
 1800210:	80 01 00 0c 	lwz     r0,12(r1)
 1800214:	38 21 00 08 	addi    r1,r1,8
 1800218:	7c 08 03 a6 	mtlr    r0
 180021c:	4e 80 00 20 	blr

01800220 <main>:
 1800220:	94 21 fa 00 	stwu    r1,-1536(r1)
 1800224:	7c 08 02 a6 	mflr    r0
 1800228:	90 01 06 04 	stw     r0,1540(r1)
 180022c:	93 e1 05 fc 	stw     r31,1532(r1)
 1800230:	7c 3f 0b 78 	mr      r31,r1
 1800234:	48 00 c3 b1 	bl      180c5e4 <__eabi>
 1800238:	38 00 00 32 	li      r0,50
 180023c:	90 1f 05 f0 	stw     r0,1520(r31)
 1800240:	38 00 02 bc 	li      r0,700
 1800244:	90 1f 05 f4 	stw     r0,1524(r31)
 1800248:	48 00 c3 28 	b       180c570 <main+0xc350>
 180024c:	80 1f 05 f4 	lwz     r0,1524(r31)
 1800250:	30 00 ff ff 	addic   r0,r0,-1
 1800254:	90 1f 05 f4 	stw     r0,1524(r31)
 1800258:	3c 00 01 82 	lis     r0,386
 180025c:	7c 09 03 78 	mr      r9,r0
 1800260:	80 09 c7 f4 	lwz     r0,-14348(r9)
 1800264:	2f 80 00 02 	cmpwi   cr7,r0,2
 1800268:	40 9d 01 44 	ble-    cr7,18003ac <main+0x18c>
 180026c:	3c 00 01 82 	lis     r0,386
 1800270:	7c 0b 03 78 	mr      r11,r0
 1800274:	80 0b c7 fc 	lwz     r0,-14340(r11)
 1800278:	30 00 00 03 	addic   r0,r0,3
 180027c:	2f 80 00 06 	cmpwi   cr7,r0,6
 1800280:	41 9d 01 2c 	bgt-    cr7,18003ac <main+0x18c>
 1800284:	3c 00 01 82 	lis     r0,386
 1800288:	30 00 c8 38 	addic   r0,r0,-14280
 180028c:	7c 0b 03 78 	mr      r11,r0
 1800290:	81 2b 00 04 	lwz     r9,4(r11)
 1800294:	3c 00 01 82 	lis     r0,386
 1800298:	30 00 c8 38 	addic   r0,r0,-14280
 180029c:	7c 0b 03 78 	mr      r11,r0
 18002a0:	80 0b 00 08 	lwz     r0,8(r11)
 18002a4:	7f 89 00 00 	cmpw    cr7,r9,r0
 18002a8:	40 9e 01 04 	bne-    cr7,18003ac <main+0x18c>
 18002ac:	3c 00 01 82 	lis     r0,386
 18002b0:	30 00 c8 38 	addic   r0,r0,-14280
 18002b4:	7c 09 03 78 	mr      r9,r0
 18002b8:	80 09 00 00 	lwz     r0,0(r9)
 18002bc:	90 1f 05 ec 	stw     r0,1516(r31)
 18002c0:	3c 00 01 82 	lis     r0,386
 18002c4:	30 00 c8 38 	addic   r0,r0,-14280
 18002c8:	7c 0b 03 78 	mr      r11,r0
 18002cc:	80 0b 00 04 	lwz     r0,4(r11)
 18002d0:	90 1f 05 e8 	stw     r0,1512(r31)
 18002d4:	81 3f 05 ec 	lwz     r9,1516(r31)
 18002d8:	80 1f 05 e8 	lwz     r0,1512(r31)
 18002dc:	7f 89 00 00 	cmpw    cr7,r9,r0
 18002e0:	40 9c 00 cc 	bge-    cr7,18003ac <main+0x18c>
 18002e4:	3c 00 01 82 	lis     r0,386
 18002e8:	7c 09 03 78 	mr      r9,r0
 18002ec:	80 09 c7 f4 	lwz     r0,-14348(r9)
 18002f0:	31 20 ff fd 	addic   r9,r0,-3
 18002f4:	3c 00 01 82 	lis     r0,386
 18002f8:	7c 0b 03 78 	mr      r11,r0
 18002fc:	91 2b c7 f4 	stw     r9,-14348(r11)
 1800300:	81 3f 05 ec 	lwz     r9,1516(r31)
 1800304:	80 1f 05 e8 	lwz     r0,1512(r31)
 1800308:	7c 00 48 50 	subf    r0,r0,r9
 180030c:	90 1f 05 e4 	stw     r0,1508(r31)
 1800310:	3c 00 01 82 	lis     r0,386
 1800314:	7c 09 03 78 	mr      r9,r0
 1800318:	80 09 c7 fc 	lwz     r0,-14340(r9)
 180031c:	3d 20 01 82 	lis     r9,386
 1800320:	39 29 c8 20 	addi    r9,r9,-14304
 1800324:	54 00 10 3a 	rlwinm  r0,r0,2,0,29
 1800328:	7c 09 02 14 	add     r0,r9,r0
 180032c:	81 3f 05 ec 	lwz     r9,1516(r31)
 1800330:	7c 0b 03 78 	mr      r11,r0
 1800334:	91 2b 00 00 	stw     r9,0(r11)
 1800338:	3c 00 01 82 	lis     r0,386
 180033c:	7c 09 03 78 	mr      r9,r0
 1800340:	80 09 c7 fc 	lwz     r0,-14340(r9)
 1800344:	30 00 00 01 	addic   r0,r0,1
 1800348:	3d 20 01 82 	lis     r9,386
 180034c:	39 29 c8 20 	addi    r9,r9,-14304
 1800350:	54 00 10 3a 	rlwinm  r0,r0,2,0,29
 1800354:	7c 09 02 14 	add     r0,r9,r0
 1800358:	81 3f 05 e8 	lwz     r9,1512(r31)
 180035c:	7c 0b 03 78 	mr      r11,r0
 1800360:	91 2b 00 00 	stw     r9,0(r11)
 1800364:	3c 00 01 82 	lis     r0,386
 1800368:	7c 09 03 78 	mr      r9,r0
 180036c:	80 09 c7 fc 	lwz     r0,-14340(r9)
 1800370:	30 00 00 02 	addic   r0,r0,2
 1800374:	3d 20 01 82 	lis     r9,386
 1800378:	39 29 c8 20 	addi    r9,r9,-14304
 180037c:	54 00 10 3a 	rlwinm  r0,r0,2,0,29
 1800380:	7c 09 02 14 	add     r0,r9,r0
 1800384:	81 3f 05 e4 	lwz     r9,1508(r31)
 1800388:	7c 0b 03 78 	mr      r11,r0
 180038c:	91 2b 00 00 	stw     r9,0(r11)
 1800390:	3c 00 01 82 	lis     r0,386
 1800394:	7c 09 03 78 	mr      r9,r0
 1800398:	80 09 c7 fc 	lwz     r0,-14340(r9)
 180039c:	31 20 00 03 	addic   r9,r0,3
 18003a0:	3c 00 01 82 	lis     r0,386
 18003a4:	7c 0b 03 78 	mr      r11,r0
 18003a8:	91 2b c7 fc 	stw     r9,-14340(r11)
 18003ac:	3c 00 01 82 	lis     r0,386
 18003b0:	7c 09 03 78 	mr      r9,r0
 18003b4:	80 09 c7 f4 	lwz     r0,-14348(r9)
 18003b8:	2f 80 00 02 	cmpwi   cr7,r0,2
 18003bc:	40 9d 01 44 	ble-    cr7,1800500 <main+0x2e0>
 18003c0:	3c 00 01 82 	lis     r0,386
 18003c4:	7c 0b 03 78 	mr      r11,r0
 18003c8:	80 0b c7 fc 	lwz     r0,-14340(r11)
 18003cc:	30 00 00 03 	addic   r0,r0,3
 18003d0:	2f 80 00 06 	cmpwi   cr7,r0,6
 18003d4:	41 9d 01 2c 	bgt-    cr7,1800500 <main+0x2e0>
 18003d8:	3c 00 01 82 	lis     r0,386
 18003dc:	30 00 c8 38 	addic   r0,r0,-14280
 18003e0:	7c 0b 03 78 	mr      r11,r0
 18003e4:	81 2b 00 08 	lwz     r9,8(r11)
 18003e8:	3c 00 01 82 	lis     r0,386
 18003ec:	30 00 c8 38 	addic   r0,r0,-14280
 18003f0:	7c 0b 03 78 	mr      r11,r0
 18003f4:	80 0b 00 04 	lwz     r0,4(r11)
 18003f8:	7f 89 00 00 	cmpw    cr7,r9,r0
 18003fc:	40 9e 01 04 	bne-    cr7,1800500 <main+0x2e0>
 1800400:	3c 00 01 82 	lis     r0,386
 1800404:	30 00 c8 38 	addic   r0,r0,-14280
 1800408:	7c 09 03 78 	mr      r9,r0
 180040c:	80 09 00 00 	lwz     r0,0(r9)
 1800410:	90 1f 05 e0 	stw     r0,1504(r31)
 1800414:	3c 00 01 82 	lis     r0,386
 1800418:	30 00 c8 38 	addic   r0,r0,-14280
 180041c:	7c 0b 03 78 	mr      r11,r0
 1800420:	80 0b 00 08 	lwz     r0,8(r11)
 1800424:	90 1f 05 dc 	stw     r0,1500(r31)
 1800428:	81 3f 05 e0 	lwz     r9,1504(r31)
 180042c:	80 1f 05 dc 	lwz     r0,1500(r31)
 1800430:	7f 89 00 00 	cmpw    cr7,r9,r0
 1800434:	40 9c 00 cc 	bge-    cr7,1800500 <main+0x2e0>
 1800438:	3c 00 01 82 	lis     r0,386
 180043c:	7c 09 03 78 	mr      r9,r0
 1800440:	80 09 c7 f4 	lwz     r0,-14348(r9)
 1800444:	31 20 ff fd 	addic   r9,r0,-3
 1800448:	3c 00 01 82 	lis     r0,386
 180044c:	7c 0b 03 78 	mr      r11,r0
 1800450:	91 2b c7 f4 	stw     r9,-14348(r11)
 1800454:	81 3f 05 e0 	lwz     r9,1504(r31)
 1800458:	80 1f 05 dc 	lwz     r0,1500(r31)
 180045c:	7c 00 48 50 	subf    r0,r0,r9
 1800460:	90 1f 05 d8 	stw     r0,1496(r31)
 1800464:	3c 00 01 82 	lis     r0,386
 1800468:	7c 09 03 78 	mr      r9,r0
 180046c:	80 09 c7 fc 	lwz     r0,-14340(r9)
 1800470:	3d 20 01 82 	lis     r9,386
 1800474:	39 29 c8 20 	addi    r9,r9,-14304
 1800478:	54 00 10 3a 	rlwinm  r0,r0,2,0,29
 180047c:	7c 09 02 14 	add     r0,r9,r0
 1800480:	81 3f 05 e0 	lwz     r9,1504(r31)
 1800484:	7c 0b 03 78 	mr      r11,r0
 1800488:	91 2b 00 00 	stw     r9,0(r11)
 180048c:	3c 00 01 82 	lis     r0,386
 1800490:	7c 09 03 78 	mr      r9,r0
 1800494:	80 09 c7 fc 	lwz     r0,-14340(r9)
 1800498:	30 00 00 01 	addic   r0,r0,1
 180049c:	3d 20 01 82 	lis     r9,386
 18004a0:	39 29 c8 20 	addi    r9,r9,-14304
 18004a4:	54 00 10 3a 	rlwinm  r0,r0,2,0,29
 18004a8:	7c 09 02 14 	add     r0,r9,r0
 18004ac:	81 3f 05 dc 	lwz     r9,1500(r31)
 18004b0:	7c 0b 03 78 	mr      r11,r0
 18004b4:	91 2b 00 00 	stw     r9,0(r11)
 18004b8:	3c 00 01 82 	lis     r0,386
 18004bc:	7c 09 03 78 	mr      r9,r0
 18004c0:	80 09 c7 fc 	lwz     r0,-14340(r9)
 18004c4:	30 00 00 02 	addic   r0,r0,2
 18004c8:	3d 20 01 82 	lis     r9,386
 18004cc:	39 29 c8 20 	addi    r9,r9,-14304
 18004d0:	54 00 10 3a 	rlwinm  r0,r0,2,0,29
 18004d4:	7c 09 02 14 	add     r0,r9,r0
 18004d8:	81 3f 05 d8 	lwz     r9,1496(r31)
 18004dc:	7c 0b 03 78 	mr      r11,r0
 18004e0:	91 2b 00 00 	stw     r9,0(r11)
 18004e4:	3c 00 01 82 	lis     r0,386
 18004e8:	7c 09 03 78 	mr      r9,r0
 18004ec:	80 09 c7 fc 	lwz     r0,-14340(r9)
 18004f0:	31 20 00 03 	addic   r9,r0,3
 18004f4:	3c 00 01 82 	lis     r0,386
 18004f8:	7c 0b 03 78 	mr      r11,r0
 18004fc:	91 2b c7 fc 	stw     r9,-14340(r11)
 1800500:	3c 00 01 82 	lis     r0,386
 1800504:	7c 09 03 78 	mr      r9,r0
 1800508:	80 09 c7 f4 	lwz     r0,-14348(r9)
 180050c:	2f 80 00 02 	cmpwi   cr7,r0,2
 1800510:	40 9d 01 44 	ble-    cr7,1800654 <main+0x434>
 1800514:	3c 00 01 82 	lis     r0,386
 1800518:	7c 0b 03 78 	mr      r11,r0
 180051c:	80 0b c7 fc 	lwz     r0,-14340(r11)
 1800520:	30 00 00 03 	addic   r0,r0,3
 1800524:	2f 80 00 06 	cmpwi   cr7,r0,6
 1800528:	41 9d 01 2c 	bgt-    cr7,1800654 <main+0x434>
 180052c:	3c 00 01 82 	lis     r0,386
 1800530:	30 00 c8 38 	addic   r0,r0,-14280
 1800534:	7c 0b 03 78 	mr      r11,r0
 1800538:	81 2b 00 00 	lwz     r9,0(r11)
 180053c:	3c 00 01 82 	lis     r0,386
 1800540:	30 00 c8 38 	addic   r0,r0,-14280
 1800544:	7c 0b 03 78 	mr      r11,r0
 1800548:	80 0b 00 08 	lwz     r0,8(r11)
 180054c:	7f 89 00 00 	cmpw    cr7,r9,r0
 1800550:	40 9e 01 04 	bne-    cr7,1800654 <main+0x434>
 1800554:	3c 00 01 82 	lis     r0,386
 1800558:	30 00 c8 38 	addic   r0,r0,-14280
 180055c:	7c 09 03 78 	mr      r9,r0
 1800560:	80 09 00 04 	lwz     r0,4(r9)
 1800564:	90 1f 05 d4 	stw     r0,1492(r31)
 1800568:	3c 00 01 82 	lis     r0,386
 180056c:	30 00 c8 38 	addic   r0,r0,-14280
 1800570:	7c 0b 03 78 	mr      r11,r0
 1800574:	80 0b 00 00 	lwz     r0,0(r11)
 1800578:	90 1f 05 d0 	stw     r0,1488(r31)
 180057c:	81 3f 05 d4 	lwz     r9,1492(r31)
 1800580:	80 1f 05 d0 	lwz     r0,1488(r31)
 1800584:	7f 89 00 00 	cmpw    cr7,r9,r0
 1800588:	40 9c 00 cc 	bge-    cr7,1800654 <main+0x434>
 180058c:	3c 00 01 82 	lis     r0,386
 1800590:	7c 09 03 78 	mr      r9,r0
 1800594:	80 09 c7 f4 	lwz     r0,-14348(r9)
 1800598:	31 20 ff fd 	addic   r9,r0,-3
 180059c:	3c 00 01 82 	lis     r0,386
 18005a0:	7c 0b 03 78 	mr      r11,r0
 18005a4:	91 2b c7 f4 	stw     r9,-14348(r11)
 18005a8:	81 3f 05 d4 	lwz     r9,1492(r31)
 18005ac:	80 1f 05 d0 	lwz     r0,1488(r31)
 18005b0:	7c 00 48 50 	subf    r0,r0,r9
 18005b4:	90 1f 05 cc 	stw     r0,1484(r31)
 18005b8:	3c 00 01 82 	lis     r0,386
 18005bc:	7c 09 03 78 	mr      r9,r0
 18005c0:	80 09 c7 fc 	lwz     r0,-14340(r9)
 18005c4:	3d 20 01 82 	lis     r9,386
 18005c8:	39 29 c8 20 	addi    r9,r9,-14304
 18005cc:	54 00 10 3a 	rlwinm  r0,r0,2,0,29
 18005d0:	7c 09 02 14 	add     r0,r9,r0
 18005d4:	81 3f 05 d4 	lwz     r9,1492(r31)
 18005d8:	7c 0b 03 78 	mr      r11,r0
 18005dc:	91 2b 00 00 	stw     r9,0(r11)
 18005e0:	3c 00 01 82 	lis     r0,386
 18005e4:	7c 09 03 78 	mr      r9,r0
 18005e8:	80 09 c7 fc 	lwz     r0,-14340(r9)
 18005ec:	30 00 00 01 	addic   r0,r0,1
 18005f0:	3d 20 01 82 	lis     r9,386
 18005f4:	39 29 c8 20 	addi    r9,r9,-14304
 18005f8:	54 00 10 3a 	rlwinm  r0,r0,2,0,29
 18005fc:	7c 09 02 14 	add     r0,r9,r0
 1800600:	81 3f 05 d0 	lwz     r9,1488(r31)
 1800604:	7c 0b 03 78 	mr      r11,r0
 1800608:	91 2b 00 00 	stw     r9,0(r11)
 180060c:	3c 00 01 82 	lis     r0,386
 1800610:	7c 09 03 78 	mr      r9,r0
 1800614:	80 09 c7 fc 	lwz     r0,-14340(r9)
 1800618:	30 00 00 02 	addic   r0,r0,2
 180061c:	3d 20 01 82 	lis     r9,386
 1800620:	39 29 c8 20 	addi    r9,r9,-14304
 1800624:	54 00 10 3a 	rlwinm  r0,r0,2,0,29
 1800628:	7c 09 02 14 	add     r0,r9,r0
 180062c:	81 3f 05 cc 	lwz     r9,1484(r31)
 1800630:	7c 0b 03 78 	mr      r11,r0
 1800634:	91 2b 00 00 	stw     r9,0(r11)
 1800638:	3c 00 01 82 	lis     r0,386
 180063c:	7c 09 03 78 	mr      r9,r0
 1800640:	80 09 c7 fc 	lwz     r0,-14340(r9)
 1800644:	31 20 00 03 	addic   r9,r0,3
 1800648:	3c 00 01 82 	lis     r0,386
 180064c:	7c 0b 03 78 	mr      r11,r0
 1800650:	91 2b c7 fc 	stw     r9,-14340(r11)
 1800654:	3c 00 01 82 	lis     r0,386
 1800658:	7c 09 03 78 	mr      r9,r0
 180065c:	80 09 c7 f4 	lwz     r0,-14348(r9)
 1800660:	2f 80 00 02 	cmpwi   cr7,r0,2
 1800664:	40 9d 01 44 	ble-    cr7,18007a8 <main+0x588>
 1800668:	3c 00 01 82 	lis     r0,386
 180066c:	7c 0b 03 78 	mr      r11,r0
 1800670:	80 0b c7 fc 	lwz     r0,-14340(r11)
 1800674:	30 00 00 03 	addic   r0,r0,3
 1800678:	2f 80 00 06 	cmpwi   cr7,r0,6
 180067c:	41 9d 01 2c 	bgt-    cr7,18007a8 <main+0x588>
 1800680:	3c 00 01 82 	lis     r0,386
 1800684:	30 00 c8 38 	addic   r0,r0,-14280
 1800688:	7c 0b 03 78 	mr      r11,r0
 180068c:	81 2b 00 08 	lwz     r9,8(r11)
 1800690:	3c 00 01 82 	lis     r0,386
 1800694:	30 00 c8 38 	addic   r0,r0,-14280
 1800698:	7c 0b 03 78 	mr      r11,r0
 180069c:	80 0b 00 00 	lwz     r0,0(r11)
 18006a0:	7f 89 00 00 	cmpw    cr7,r9,r0
 18006a4:	40 9e 01 04 	bne-    cr7,18007a8 <main+0x588>
 18006a8:	3c 00 01 82 	lis     r0,386
 18006ac:	30 00 c8 38 	addic   r0,r0,-14280
 18006b0:	7c 09 03 78 	mr      r9,r0
 18006b4:	80 09 00 04 	lwz     r0,4(r9)
 18006b8:	90 1f 05 c8 	stw     r0,1480(r31)
 18006bc:	3c 00 01 82 	lis     r0,386
 18006c0:	30 00 c8 38 	addic   r0,r0,-14280
 18006c4:	7c 0b 03 78 	mr      r11,r0
 18006c8:	80 0b 00 08 	lwz     r0,8(r11)
 18006cc:	90 1f 05 c4 	stw     r0,1476(r31)
 18006d0:	81 3f 05 c8 	lwz     r9,1480(r31)
 18006d4:	80 1f 05 c4 	lwz     r0,1476(r31)
 18006d8:	7f 89 00 00 	cmpw    cr7,r9,r0
 18006dc:	40 9c 00 cc 	bge-    cr7,18007a8 <main+0x588>
 18006e0:	3c 00 01 82 	lis     r0,386
 18006e4:	7c 09 03 78 	mr      r9,r0
 18006e8:	80 09 c7 f4 	lwz     r0,-14348(r9)
 18006ec:	31 20 ff fd 	addic   r9,r0,-3
 18006f0:	3c 00 01 82 	lis     r0,386
 18006f4:	7c 0b 03 78 	mr      r11,r0
 18006f8:	91 2b c7 f4 	stw     r9,-14348(r11)
 18006fc:	81 3f 05 c8 	lwz     r9,1480(r31)
 1800700:	80 1f 05 c4 	lwz     r0,1476(r31)
 1800704:	7c 00 48 50 	subf    r0,r0,r9
 1800708:	90 1f 05 c0 	stw     r0,1472(r31)
 180070c:	3c 00 01 82 	lis     r0,386
 1800710:	7c 09 03 78 	mr      r9,r0
 1800714:	80 09 c7 fc 	lwz     r0,-14340(r9)
 1800718:	3d 20 01 82 	lis     r9,386
 180071c:	39 29 c8 20 	addi    r9,r9,-14304
 1800720:	54 00 10 3a 	rlwinm  r0,r0,2,0,29
 1800724:	7c 09 02 14 	add     r0,r9,r0
 1800728:	81 3f 05 c8 	lwz     r9,1480(r31)
 180072c:	7c 0b 03 78 	mr      r11,r0
 1800730:	91 2b 00 00 	stw     r9,0(r11)
 1800734:	3c 00 01 82 	lis     r0,386
 1800738:	7c 09 03 78 	mr      r9,r0
 180073c:	80 09 c7 fc 	lwz     r0,-14340(r9)
 1800740:	30 00 00 01 	addic   r0,r0,1
 1800744:	3d 20 01 82 	lis     r9,386
 1800748:	39 29 c8 20 	addi    r9,r9,-14304
 180074c:	54 00 10 3a 	rlwinm  r0,r0,2,0,29
 1800750:	7c 09 02 14 	add     r0,r9,r0
 1800754:	81 3f 05 c4 	lwz     r9,1476(r31)
 1800758:	7c 0b 03 78 	mr      r11,r0
 180075c:	91 2b 00 00 	stw     r9,0(r11)
 1800760:	3c 00 01 82 	lis     r0,386
 1800764:	7c 09 03 78 	mr      r9,r0
 1800768:	80 09 c7 fc 	lwz     r0,-14340(r9)
 180076c:	30 00 00 02 	addic   r0,r0,2
 1800770:	3d 20 01 82 	lis     r9,386
 1800774:	39 29 c8 20 	addi    r9,r9,-14304
 1800778:	54 00 10 3a 	rlwinm  r0,r0,2,0,29
 180077c:	7c 09 02 14 	add     r0,r9,r0
 1800780:	81 3f 05 c0 	lwz     r9,1472(r31)
 1800784:	7c 0b 03 78 	mr      r11,r0
 1800788:	91 2b 00 00 	stw     r9,0(r11)
 180078c:	3c 00 01 82 	lis     r0,386
 1800790:	7c 09 03 78 	mr      r9,r0
 1800794:	80 09 c7 fc 	lwz     r0,-14340(r9)
 1800798:	31 20 00 03 	addic   r9,r0,3
 180079c:	3c 00 01 82 	lis     r0,386
 18007a0:	7c 0b 03 78 	mr      r11,r0
 18007a4:	91 2b c7 fc 	stw     r9,-14340(r11)
 18007a8:	3c 00 01 82 	lis     r0,386
 18007ac:	7c 09 03 78 	mr      r9,r0
 18007b0:	80 09 c7 f4 	lwz     r0,-14348(r9)
 18007b4:	2f 80 00 02 	cmpwi   cr7,r0,2
 18007b8:	40 9d 01 44 	ble-    cr7,18008fc <main+0x6dc>
 18007bc:	3c 00 01 82 	lis     r0,386
 18007c0:	7c 0b 03 78 	mr      r11,r0
 18007c4:	80 0b c7 fc 	lwz     r0,-14340(r11)
 18007c8:	30 00 00 03 	addic   r0,r0,3
 18007cc:	2f 80 00 06 	cmpwi   cr7,r0,6
 18007d0:	41 9d 01 2c 	bgt-    cr7,18008fc <main+0x6dc>
 18007d4:	3c 00 01 82 	lis     r0,386
 18007d8:	30 00 c8 38 	addic   r0,r0,-14280
 18007dc:	7c 0b 03 78 	mr      r11,r0
 18007e0:	81 2b 00 00 	lwz     r9,0(r11)
 18007e4:	3c 00 01 82 	lis     r0,386
 18007e8:	30 00 c8 38 	addic   r0,r0,-14280
 18007ec:	7c 0b 03 78 	mr      r11,r0
 18007f0:	80 0b 00 04 	lwz     r0,4(r11)
 18007f4:	7f 89 00 00 	cmpw    cr7,r9,r0
 18007f8:	40 9e 01 04 	bne-    cr7,18008fc <main+0x6dc>
 18007fc:	3c 00 01 82 	lis     r0,386
 1800800:	30 00 c8 38 	addic   r0,r0,-14280
 1800804:	7c 09 03 78 	mr      r9,r0
 1800808:	80 09 00 08 	lwz     r0,8(r9)
 180080c:	90 1f 05 bc 	stw     r0,1468(r31)
 1800810:	3c 00 01 82 	lis     r0,386
 1800814:	30 00 c8 38 	addic   r0,r0,-14280
 1800818:	7c 0b 03 78 	mr      r11,r0
 180081c:	80 0b 00 00 	lwz     r0,0(r11)
 1800820:	90 1f 05 b8 	stw     r0,1464(r31)
 1800824:	81 3f 05 bc 	lwz     r9,1468(r31)
 1800828:	80 1f 05 b8 	lwz     r0,1464(r31)
 180082c:	7f 89 00 00 	cmpw    cr7,r9,r0
 1800830:	40 9c 00 cc 	bge-    cr7,18008fc <main+0x6dc>
 1800834:	3c 00 01 82 	lis     r0,386
 1800838:	7c 09 03 78 	mr      r9,r0
 180083c:	80 09 c7 f4 	lwz     r0,-14348(r9)
 1800840:	31 20 ff fd 	addic   r9,r0,-3
 1800844:	3c 00 01 82 	lis     r0,386
 1800848:	7c 0b 03 78 	mr      r11,r0
 180084c:	91 2b c7 f4 	stw     r9,-14348(r11)
 1800850:	81 3f 05 bc 	lwz     r9,1468(r31)
 1800854:	80 1f 05 b8 	lwz     r0,1464(r31)
 1800858:	7c 00 48 50 	subf    r0,r0,r9
 180085c:	90 1f 05 b4 	stw     r0,1460(r31)
 1800860:	3c 00 01 82 	lis     r0,386
 1800864:	7c 09 03 78 	mr      r9,r0
 1800868:	80 09 c7 fc 	lwz     r0,-14340(r9)
 180086c:	3d 20 01 82 	lis     r9,386
 1800870:	39 29 c8 20 	addi    r9,r9,-14304
 1800874:	54 00 10 3a 	rlwinm  r0,r0,2,0,29
 1800878:	7c 09 02 14 	add     r0,r9,r0
 180087c:	81 3f 05 bc 	lwz     r9,1468(r31)
 1800880:	7c 0b 03 78 	mr      r11,r0
 1800884:	91 2b 00 00 	stw     r9,0(r11)
 1800888:	3c 00 01 82 	lis     r0,386
 180088c:	7c 09 03 78 	mr      r9,r0
 1800890:	80 09 c7 fc 	lwz     r0,-14340(r9)
 1800894:	30 00 00 01 	addic   r0,r0,1
 1800898:	3d 20 01 82 	lis     r9,386
 180089c:	39 29 c8 20 	addi    r9,r9,-14304
 18008a0:	54 00 10 3a 	rlwinm  r0,r0,2,0,29
 18008a4:	7c 09 02 14 	add     r0,r9,r0
 18008a8:	81 3f 05 b8 	lwz     r9,1464(r31)
 18008ac:	7c 0b 03 78 	mr      r11,r0
 18008b0:	91 2b 00 00 	stw     r9,0(r11)
 18008b4:	3c 00 01 82 	lis     r0,386
 18008b8:	7c 09 03 78 	mr      r9,r0
 18008bc:	80 09 c7 fc 	lwz     r0,-14340(r9)
 18008c0:	30 00 00 02 	addic   r0,r0,2
 18008c4:	3d 20 01 82 	lis     r9,386
 18008c8:	39 29 c8 20 	addi    r9,r9,-14304
 18008cc:	54 00 10 3a 	rlwinm  r0,r0,2,0,29
 18008d0:	7c 09 02 14 	add     r0,r9,r0
 18008d4:	81 3f 05 b4 	lwz     r9,1460(r31)
 18008d8:	7c 0b 03 78 	mr      r11,r0
 18008dc:	91 2b 00 00 	stw     r9,0(r11)
 18008e0:	3c 00 01 82 	lis     r0,386
 18008e4:	7c 09 03 78 	mr      r9,r0
 18008e8:	80 09 c7 fc 	lwz     r0,-14340(r9)
 18008ec:	31 20 00 03 	addic   r9,r0,3
 18008f0:	3c 00 01 82 	lis     r0,386
 18008f4:	7c 0b 03 78 	mr      r11,r0
 18008f8:	91 2b c7 fc 	stw     r9,-14340(r11)
 18008fc:	3c 00 01 82 	lis     r0,386
 1800900:	7c 09 03 78 	mr      r9,r0
 1800904:	80 09 c7 f4 	lwz     r0,-14348(r9)
 1800908:	2f 80 00 02 	cmpwi   cr7,r0,2
 180090c:	40 9d 01 44 	ble-    cr7,1800a50 <main+0x830>
 1800910:	3c 00 01 82 	lis     r0,386
 1800914:	7c 0b 03 78 	mr      r11,r0
 1800918:	80 0b c7 fc 	lwz     r0,-14340(r11)
 180091c:	30 00 00 03 	addic   r0,r0,3
 1800920:	2f 80 00 06 	cmpwi   cr7,r0,6
 1800924:	41 9d 01 2c 	bgt-    cr7,1800a50 <main+0x830>
 1800928:	3c 00 01 82 	lis     r0,386
 180092c:	30 00 c8 38 	addic   r0,r0,-14280
 1800930:	7c 0b 03 78 	mr      r11,r0
 1800934:	81 2b 00 04 	lwz     r9,4(r11)
 1800938:	3c 00 01 82 	lis     r0,386
 180093c:	30 00 c8 38 	addic   r0,r0,-14280
 1800940:	7c 0b 03 78 	mr      r11,r0
 1800944:	80 0b 00 00 	lwz     r0,0(r11)
 1800948:	7f 89 00 00 	cmpw    cr7,r9,r0
 180094c:	40 9e 01 04 	bne-    cr7,1800a50 <main+0x830>
 1800950:	3c 00 01 82 	lis     r0,386
 1800954:	30 00 c8 38 	addic   r0,r0,-14280
 1800958:	7c 09 03 78 	mr      r9,r0
 180095c:	80 09 00 08 	lwz     r0,8(r9)
 1800960:	90 1f 05 b0 	stw     r0,1456(r31)
 1800964:	3c 00 01 82 	lis     r0,386
 1800968:	30 00 c8 38 	addic   r0,r0,-14280
 180096c:	7c 0b 03 78 	mr      r11,r0
 1800970:	80 0b 00 04 	lwz     r0,4(r11)
 1800974:	90 1f 05 ac 	stw     r0,1452(r31)
 1800978:	81 3f 05 b0 	lwz     r9,1456(r31)
 180097c:	80 1f 05 ac 	lwz     r0,1452(r31)
 1800980:	7f 89 00 00 	cmpw    cr7,r9,r0
 1800984:	40 9c 00 cc 	bge-    cr7,1800a50 <main+0x830>
 1800988:	3c 00 01 82 	lis     r0,386
 180098c:	7c 09 03 78 	mr      r9,r0
 1800990:	80 09 c7 f4 	lwz     r0,-14348(r9)
 1800994:	31 20 ff fd 	addic   r9,r0,-3
 1800998:	3c 00 01 82 	lis     r0,386
 180099c:	7c 0b 03 78 	mr      r11,r0
 18009a0:	91 2b c7 f4 	stw     r9,-14348(r11)
 18009a4:	81 3f 05 b0 	lwz     r9,1456(r31)
 18009a8:	80 1f 05 ac 	lwz     r0,1452(r31)
 18009ac:	7c 00 48 50 	subf    r0,r0,r9
 18009b0:	90 1f 05 a8 	stw     r0,1448(r31)
 18009b4:	3c 00 01 82 	lis     r0,386
 18009b8:	7c 09 03 78 	mr      r9,r0
 18009bc:	80 09 c7 fc 	lwz     r0,-14340(r9)
 18009c0:	3d 20 01 82 	lis     r9,386
 18009c4:	39 29 c8 20 	addi    r9,r9,-14304
 18009c8:	54 00 10 3a 	rlwinm  r0,r0,2,0,29
 18009cc:	7c 09 02 14 	add     r0,r9,r0
 18009d0:	81 3f 05 b0 	lwz     r9,1456(r31)
 18009d4:	7c 0b 03 78 	mr      r11,r0
 18009d8:	91 2b 00 00 	stw     r9,0(r11)
 18009dc:	3c 00 01 82 	lis     r0,386
 18009e0:	7c 09 03 78 	mr      r9,r0
 18009e4:	80 09 c7 fc 	lwz     r0,-14340(r9)
 18009e8:	30 00 00 01 	addic   r0,r0,1
 18009ec:	3d 20 01 82 	lis     r9,386
 18009f0:	39 29 c8 20 	addi    r9,r9,-14304
 18009f4:	54 00 10 3a 	rlwinm  r0,r0,2,0,29
 18009f8:	7c 09 02 14 	add     r0,r9,r0
 18009fc:	81 3f 05 ac 	lwz     r9,1452(r31)
 1800a00:	7c 0b 03 78 	mr      r11,r0
 1800a04:	91 2b 00 00 	stw     r9,0(r11)
 1800a08:	3c 00 01 82 	lis     r0,386
 1800a0c:	7c 09 03 78 	mr      r9,r0
 1800a10:	80 09 c7 fc 	lwz     r0,-14340(r9)
 1800a14:	30 00 00 02 	addic   r0,r0,2
 1800a18:	3d 20 01 82 	lis     r9,386
 1800a1c:	39 29 c8 20 	addi    r9,r9,-14304
 1800a20:	54 00 10 3a 	rlwinm  r0,r0,2,0,29
 1800a24:	7c 09 02 14 	add     r0,r9,r0
 1800a28:	81 3f 05 a8 	lwz     r9,1448(r31)
 1800a2c:	7c 0b 03 78 	mr      r11,r0
 1800a30:	91 2b 00 00 	stw     r9,0(r11)
 1800a34:	3c 00 01 82 	lis     r0,386
 1800a38:	7c 09 03 78 	mr      r9,r0
 1800a3c:	80 09 c7 fc 	lwz     r0,-14340(r9)
 1800a40:	31 20 00 03 	addic   r9,r0,3
 1800a44:	3c 00 01 82 	lis     r0,386
 1800a48:	7c 0b 03 78 	mr      r11,r0
 1800a4c:	91 2b c7 fc 	stw     r9,-14340(r11)
 1800a50:	3c 00 01 82 	lis     r0,386
 1800a54:	7c 09 03 78 	mr      r9,r0
 1800a58:	80 09 c7 f8 	lwz     r0,-14344(r9)
 1800a5c:	2f 80 00 03 	cmpwi   cr7,r0,3
 1800a60:	40 9d 01 6c 	ble-    cr7,1800bcc <main+0x9ac>
 1800a64:	3c 00 01 82 	lis     r0,386
 1800a68:	7c 0b 03 78 	mr      r11,r0
 1800a6c:	80 0b c7 fc 	lwz     r0,-14340(r11)
 1800a70:	30 00 00 03 	addic   r0,r0,3
 1800a74:	2f 80 00 06 	cmpwi   cr7,r0,6
 1800a78:	41 9d 01 54 	bgt-    cr7,1800bcc <main+0x9ac>
 1800a7c:	3c 00 01 82 	lis     r0,386
 1800a80:	30 00 c8 44 	addic   r0,r0,-14268
 1800a84:	7c 0b 03 78 	mr      r11,r0
 1800a88:	81 2b 00 04 	lwz     r9,4(r11)
 1800a8c:	3c 00 01 82 	lis     r0,386
 1800a90:	30 00 c8 44 	addic   r0,r0,-14268
 1800a94:	7c 0b 03 78 	mr      r11,r0
 1800a98:	80 0b 00 08 	lwz     r0,8(r11)
 1800a9c:	7f 89 00 00 	cmpw    cr7,r9,r0
 1800aa0:	40 9e 01 2c 	bne-    cr7,1800bcc <main+0x9ac>
 1800aa4:	3c 00 01 82 	lis     r0,386
 1800aa8:	30 00 c8 44 	addic   r0,r0,-14268
 1800aac:	7c 0b 03 78 	mr      r11,r0
 1800ab0:	81 2b 00 04 	lwz     r9,4(r11)
 1800ab4:	3c 00 01 82 	lis     r0,386
 1800ab8:	30 00 c8 44 	addic   r0,r0,-14268
 1800abc:	7c 0b 03 78 	mr      r11,r0
 1800ac0:	80 0b 00 0c 	lwz     r0,12(r11)
 1800ac4:	7f 89 00 00 	cmpw    cr7,r9,r0
 1800ac8:	40 9e 01 04 	bne-    cr7,1800bcc <main+0x9ac>
 1800acc:	3c 00 01 82 	lis     r0,386
 1800ad0:	30 00 c8 44 	addic   r0,r0,-14268
 1800ad4:	7c 09 03 78 	mr      r9,r0
 1800ad8:	80 09 00 00 	lwz     r0,0(r9)
 1800adc:	90 1f 05 a4 	stw     r0,1444(r31)
 1800ae0:	3c 00 01 82 	lis     r0,386
 1800ae4:	30 00 c8 44 	addic   r0,r0,-14268
 1800ae8:	7c 0b 03 78 	mr      r11,r0
 1800aec:	80 0b 00 04 	lwz     r0,4(r11)
 1800af0:	90 1f 05 a0 	stw     r0,1440(r31)
 1800af4:	81 3f 05 a0 	lwz     r9,1440(r31)
 1800af8:	80 1f 05 a4 	lwz     r0,1444(r31)
 1800afc:	7f 89 00 00 	cmpw    cr7,r9,r0
 1800b00:	40 9d 00 cc 	ble-    cr7,1800bcc <main+0x9ac>
 1800b04:	3c 00 01 82 	lis     r0,386
 1800b08:	7c 09 03 78 	mr      r9,r0
 1800b0c:	80 09 c7 f8 	lwz     r0,-14344(r9)
 1800b10:	31 20 ff fc 	addic   r9,r0,-4
 1800b14:	3c 00 01 82 	lis     r0,386
 1800b18:	7c 0b 03 78 	mr      r11,r0
 1800b1c:	91 2b c7 f8 	stw     r9,-14344(r11)
 1800b20:	81 3f 05 a4 	lwz     r9,1444(r31)
 1800b24:	80 1f 05 a0 	lwz     r0,1440(r31)
 1800b28:	7c 09 02 14 	add     r0,r9,r0
 1800b2c:	90 1f 05 9c 	stw     r0,1436(r31)
 1800b30:	3c 00 01 82 	lis     r0,386
 1800b34:	7c 09 03 78 	mr      r9,r0
 1800b38:	80 09 c7 fc 	lwz     r0,-14340(r9)
 1800b3c:	3d 20 01 82 	lis     r9,386
 1800b40:	39 29 c8 20 	addi    r9,r9,-14304
 1800b44:	54 00 10 3a 	rlwinm  r0,r0,2,0,29
 1800b48:	7c 09 02 14 	add     r0,r9,r0
 1800b4c:	81 3f 05 a4 	lwz     r9,1444(r31)
 1800b50:	7c 0b 03 78 	mr      r11,r0
 1800b54:	91 2b 00 00 	stw     r9,0(r11)
 1800b58:	3c 00 01 82 	lis     r0,386
 1800b5c:	7c 09 03 78 	mr      r9,r0
 1800b60:	80 09 c7 fc 	lwz     r0,-14340(r9)
 1800b64:	30 00 00 01 	addic   r0,r0,1
 1800b68:	3d 20 01 82 	lis     r9,386
 1800b6c:	39 29 c8 20 	addi    r9,r9,-14304
 1800b70:	54 00 10 3a 	rlwinm  r0,r0,2,0,29
 1800b74:	7c 09 02 14 	add     r0,r9,r0
 1800b78:	81 3f 05 a0 	lwz     r9,1440(r31)
 1800b7c:	7c 0b 03 78 	mr      r11,r0
 1800b80:	91 2b 00 00 	stw     r9,0(r11)
 1800b84:	3c 00 01 82 	lis     r0,386
 1800b88:	7c 09 03 78 	mr      r9,r0
 1800b8c:	80 09 c7 fc 	lwz     r0,-14340(r9)
 1800b90:	30 00 00 02 	addic   r0,r0,2
 1800b94:	3d 20 01 82 	lis     r9,386
 1800b98:	39 29 c8 20 	addi    r9,r9,-14304
 1800b9c:	54 00 10 3a 	rlwinm  r0,r0,2,0,29
 1800ba0:	7c 09 02 14 	add     r0,r9,r0
 1800ba4:	81 3f 05 9c 	lwz     r9,1436(r31)
 1800ba8:	7c 0b 03 78 	mr      r11,r0
 1800bac:	91 2b 00 00 	stw     r9,0(r11)
 1800bb0:	3c 00 01 82 	lis     r0,386
 1800bb4:	7c 09 03 78 	mr      r9,r0
 1800bb8:	80 09 c7 fc 	lwz     r0,-14340(r9)
 1800bbc:	31 20 00 03 	addic   r9,r0,3
 1800bc0:	3c 00 01 82 	lis     r0,386
 1800bc4:	7c 0b 03 78 	mr      r11,r0
 1800bc8:	91 2b c7 fc 	stw     r9,-14340(r11)
 1800bcc:	3c 00 01 82 	lis     r0,386
 1800bd0:	7c 09 03 78 	mr      r9,r0
 1800bd4:	80 09 c7 f8 	lwz     r0,-14344(r9)
 1800bd8:	2f 80 00 03 	cmpwi   cr7,r0,3
 1800bdc:	40 9d 01 6c 	ble-    cr7,1800d48 <main+0xb28>
 1800be0:	3c 00 01 82 	lis     r0,386
 1800be4:	7c 0b 03 78 	mr      r11,r0
 1800be8:	80 0b c7 fc 	lwz     r0,-14340(r11)
 1800bec:	30 00 00 03 	addic   r0,r0,3
 1800bf0:	2f 80 00 06 	cmpwi   cr7,r0,6
 1800bf4:	41 9d 01 54 	bgt-    cr7,1800d48 <main+0xb28>
 1800bf8:	3c 00 01 82 	lis     r0,386
 1800bfc:	30 00 c8 44 	addic   r0,r0,-14268
 1800c00:	7c 0b 03 78 	mr      r11,r0
 1800c04:	81 2b 00 04 	lwz     r9,4(r11)
 1800c08:	3c 00 01 82 	lis     r0,386
 1800c0c:	30 00 c8 44 	addic   r0,r0,-14268
 1800c10:	7c 0b 03 78 	mr      r11,r0
 1800c14:	80 0b 00 0c 	lwz     r0,12(r11)
 1800c18:	7f 89 00 00 	cmpw    cr7,r9,r0
 1800c1c:	40 9e 01 2c 	bne-    cr7,1800d48 <main+0xb28>
 1800c20:	3c 00 01 82 	lis     r0,386
 1800c24:	30 00 c8 44 	addic   r0,r0,-14268
 1800c28:	7c 0b 03 78 	mr      r11,r0
 1800c2c:	81 2b 00 04 	lwz     r9,4(r11)
 1800c30:	3c 00 01 82 	lis     r0,386
 1800c34:	30 00 c8 44 	addic   r0,r0,-14268
 1800c38:	7c 0b 03 78 	mr      r11,r0
 1800c3c:	80 0b 00 08 	lwz     r0,8(r11)
 1800c40:	7f 89 00 00 	cmpw    cr7,r9,r0
 1800c44:	40 9e 01 04 	bne-    cr7,1800d48 <main+0xb28>
 1800c48:	3c 00 01 82 	lis     r0,386
 1800c4c:	30 00 c8 44 	addic   r0,r0,-14268
 1800c50:	7c 09 03 78 	mr      r9,r0
 1800c54:	80 09 00 00 	lwz     r0,0(r9)
 1800c58:	90 1f 05 98 	stw     r0,1432(r31)
 1800c5c:	3c 00 01 82 	lis     r0,386
 1800c60:	30 00 c8 44 	addic   r0,r0,-14268
 1800c64:	7c 0b 03 78 	mr      r11,r0
 1800c68:	80 0b 00 04 	lwz     r0,4(r11)
 1800c6c:	90 1f 05 94 	stw     r0,1428(r31)
 1800c70:	81 3f 05 94 	lwz     r9,1428(r31)
 1800c74:	80 1f 05 98 	lwz     r0,1432(r31)
 1800c78:	7f 89 00 00 	cmpw    cr7,r9,r0
 1800c7c:	40 9d 00 cc 	ble-    cr7,1800d48 <main+0xb28>
 1800c80:	3c 00 01 82 	lis     r0,386
 1800c84:	7c 09 03 78 	mr      r9,r0
 1800c88:	80 09 c7 f8 	lwz     r0,-14344(r9)
 1800c8c:	31 20 ff fc 	addic   r9,r0,-4
 1800c90:	3c 00 01 82 	lis     r0,386
 1800c94:	7c 0b 03 78 	mr      r11,r0
 1800c98:	91 2b c7 f8 	stw     r9,-14344(r11)
 1800c9c:	81 3f 05 98 	lwz     r9,1432(r31)
 1800ca0:	80 1f 05 94 	lwz     r0,1428(r31)
 1800ca4:	7c 09 02 14 	add     r0,r9,r0
 1800ca8:	90 1f 05 90 	stw     r0,1424(r31)
 1800cac:	3c 00 01 82 	lis     r0,386
 1800cb0:	7c 09 03 78 	mr      r9,r0
 1800cb4:	80 09 c7 fc 	lwz     r0,-14340(r9)
 1800cb8:	3d 20 01 82 	lis     r9,386
 1800cbc:	39 29 c8 20 	addi    r9,r9,-14304
 1800cc0:	54 00 10 3a 	rlwinm  r0,r0,2,0,29
 1800cc4:	7c 09 02 14 	add     r0,r9,r0
 1800cc8:	81 3f 05 98 	lwz     r9,1432(r31)
 1800ccc:	7c 0b 03 78 	mr      r11,r0
 1800cd0:	91 2b 00 00 	stw     r9,0(r11)
 1800cd4:	3c 00 01 82 	lis     r0,386
 1800cd8:	7c 09 03 78 	mr      r9,r0
 1800cdc:	80 09 c7 fc 	lwz     r0,-14340(r9)
 1800ce0:	30 00 00 01 	addic   r0,r0,1
 1800ce4:	3d 20 01 82 	lis     r9,386
 1800ce8:	39 29 c8 20 	addi    r9,r9,-14304
 1800cec:	54 00 10 3a 	rlwinm  r0,r0,2,0,29
 1800cf0:	7c 09 02 14 	add     r0,r9,r0
 1800cf4:	81 3f 05 94 	lwz     r9,1428(r31)
 1800cf8:	7c 0b 03 78 	mr      r11,r0
 1800cfc:	91 2b 00 00 	stw     r9,0(r11)
 1800d00:	3c 00 01 82 	lis     r0,386
 1800d04:	7c 09 03 78 	mr      r9,r0
 1800d08:	80 09 c7 fc 	lwz     r0,-14340(r9)
 1800d0c:	30 00 00 02 	addic   r0,r0,2
 1800d10:	3d 20 01 82 	lis     r9,386
 1800d14:	39 29 c8 20 	addi    r9,r9,-14304
 1800d18:	54 00 10 3a 	rlwinm  r0,r0,2,0,29
 1800d1c:	7c 09 02 14 	add     r0,r9,r0
 1800d20:	81 3f 05 90 	lwz     r9,1424(r31)
 1800d24:	7c 0b 03 78 	mr      r11,r0
 1800d28:	91 2b 00 00 	stw     r9,0(r11)
 1800d2c:	3c 00 01 82 	lis     r0,386
 1800d30:	7c 09 03 78 	mr      r9,r0
 1800d34:	80 09 c7 fc 	lwz     r0,-14340(r9)
 1800d38:	31 20 00 03 	addic   r9,r0,3
 1800d3c:	3c 00 01 82 	lis     r0,386
 1800d40:	7c 0b 03 78 	mr      r11,r0
 1800d44:	91 2b c7 fc 	stw     r9,-14340(r11)
 1800d48:	3c 00 01 82 	lis     r0,386
 1800d4c:	7c 09 03 78 	mr      r9,r0
 1800d50:	80 09 c7 f8 	lwz     r0,-14344(r9)
 1800d54:	2f 80 00 03 	cmpwi   cr7,r0,3
 1800d58:	40 9d 01 6c 	ble-    cr7,1800ec4 <main+0xca4>
 1800d5c:	3c 00 01 82 	lis     r0,386
 1800d60:	7c 0b 03 78 	mr      r11,r0
 1800d64:	80 0b c7 fc 	lwz     r0,-14340(r11)
 1800d68:	30 00 00 03 	addic   r0,r0,3
 1800d6c:	2f 80 00 06 	cmpwi   cr7,r0,6
 1800d70:	41 9d 01 54 	bgt-    cr7,1800ec4 <main+0xca4>
 1800d74:	3c 00 01 82 	lis     r0,386
 1800d78:	30 00 c8 44 	addic   r0,r0,-14268
 1800d7c:	7c 0b 03 78 	mr      r11,r0
 1800d80:	81 2b 00 08 	lwz     r9,8(r11)
 1800d84:	3c 00 01 82 	lis     r0,386
 1800d88:	30 00 c8 44 	addic   r0,r0,-14268
 1800d8c:	7c 0b 03 78 	mr      r11,r0
 1800d90:	80 0b 00 04 	lwz     r0,4(r11)
 1800d94:	7f 89 00 00 	cmpw    cr7,r9,r0
 1800d98:	40 9e 01 2c 	bne-    cr7,1800ec4 <main+0xca4>
 1800d9c:	3c 00 01 82 	lis     r0,386
 1800da0:	30 00 c8 44 	addic   r0,r0,-14268
 1800da4:	7c 0b 03 78 	mr      r11,r0
 1800da8:	81 2b 00 08 	lwz     r9,8(r11)
 1800dac:	3c 00 01 82 	lis     r0,386
 1800db0:	30 00 c8 44 	addic   r0,r0,-14268
 1800db4:	7c 0b 03 78 	mr      r11,r0
 1800db8:	80 0b 00 0c 	lwz     r0,12(r11)
 1800dbc:	7f 89 00 00 	cmpw    cr7,r9,r0
 1800dc0:	40 9e 01 04 	bne-    cr7,1800ec4 <main+0xca4>
 1800dc4:	3c 00 01 82 	lis     r0,386
 1800dc8:	30 00 c8 44 	addic   r0,r0,-14268
 1800dcc:	7c 09 03 78 	mr      r9,r0
 1800dd0:	80 09 00 00 	lwz     r0,0(r9)
 1800dd4:	90 1f 05 8c 	stw     r0,1420(r31)
 1800dd8:	3c 00 01 82 	lis     r0,386
 1800ddc:	30 00 c8 44 	addic   r0,r0,-14268
 1800de0:	7c 0b 03 78 	mr      r11,r0
 1800de4:	80 0b 00 08 	lwz     r0,8(r11)
 1800de8:	90 1f 05 88 	stw     r0,1416(r31)
 1800dec:	81 3f 05 88 	lwz     r9,1416(r31)
 1800df0:	80 1f 05 8c 	lwz     r0,1420(r31)
 1800df4:	7f 89 00 00 	cmpw    cr7,r9,r0
 1800df8:	40 9d 00 cc 	ble-    cr7,1800ec4 <main+0xca4>
 1800dfc:	3c 00 01 82 	lis     r0,386
 1800e00:	7c 09 03 78 	mr      r9,r0
 1800e04:	80 09 c7 f8 	lwz     r0,-14344(r9)
 1800e08:	31 20 ff fc 	addic   r9,r0,-4
 1800e0c:	3c 00 01 82 	lis     r0,386
 1800e10:	7c 0b 03 78 	mr      r11,r0
 1800e14:	91 2b c7 f8 	stw     r9,-14344(r11)
 1800e18:	81 3f 05 8c 	lwz     r9,1420(r31)
 1800e1c:	80 1f 05 88 	lwz     r0,1416(r31)
 1800e20:	7c 09 02 14 	add     r0,r9,r0
 1800e24:	90 1f 05 84 	stw     r0,1412(r31)
 1800e28:	3c 00 01 82 	lis     r0,386
 1800e2c:	7c 09 03 78 	mr      r9,r0
 1800e30:	80 09 c7 fc 	lwz     r0,-14340(r9)
 1800e34:	3d 20 01 82 	lis     r9,386
 1800e38:	39 29 c8 20 	addi    r9,r9,-14304
 1800e3c:	54 00 10 3a 	rlwinm  r0,r0,2,0,29
 1800e40:	7c 09 02 14 	add     r0,r9,r0
 1800e44:	81 3f 05 8c 	lwz     r9,1420(r31)
 1800e48:	7c 0b 03 78 	mr      r11,r0
 1800e4c:	91 2b 00 00 	stw     r9,0(r11)
 1800e50:	3c 00 01 82 	lis     r0,386
 1800e54:	7c 09 03 78 	mr      r9,r0
 1800e58:	80 09 c7 fc 	lwz     r0,-14340(r9)
 1800e5c:	30 00 00 01 	addic   r0,r0,1
 1800e60:	3d 20 01 82 	lis     r9,386
 1800e64:	39 29 c8 20 	addi    r9,r9,-14304
 1800e68:	54 00 10 3a 	rlwinm  r0,r0,2,0,29
 1800e6c:	7c 09 02 14 	add     r0,r9,r0
 1800e70:	81 3f 05 88 	lwz     r9,1416(r31)
 1800e74:	7c 0b 03 78 	mr      r11,r0
 1800e78:	91 2b 00 00 	stw     r9,0(r11)
 1800e7c:	3c 00 01 82 	lis     r0,386
 1800e80:	7c 09 03 78 	mr      r9,r0
 1800e84:	80 09 c7 fc 	lwz     r0,-14340(r9)
 1800e88:	30 00 00 02 	addic   r0,r0,2
 1800e8c:	3d 20 01 82 	lis     r9,386
 1800e90:	39 29 c8 20 	addi    r9,r9,-14304
 1800e94:	54 00 10 3a 	rlwinm  r0,r0,2,0,29
 1800e98:	7c 09 02 14 	add     r0,r9,r0
 1800e9c:	81 3f 05 84 	lwz     r9,1412(r31)
 1800ea0:	7c 0b 03 78 	mr      r11,r0
 1800ea4:	91 2b 00 00 	stw     r9,0(r11)
 1800ea8:	3c 00 01 82 	lis     r0,386
 1800eac:	7c 09 03 78 	mr      r9,r0
 1800eb0:	80 09 c7 fc 	lwz     r0,-14340(r9)
 1800eb4:	31 20 00 03 	addic   r9,r0,3
 1800eb8:	3c 00 01 82 	lis     r0,386
 1800ebc:	7c 0b 03 78 	mr      r11,r0
 1800ec0:	91 2b c7 fc 	stw     r9,-14340(r11)
 1800ec4:	3c 00 01 82 	lis     r0,386
 1800ec8:	7c 09 03 78 	mr      r9,r0
 1800ecc:	80 09 c7 f8 	lwz     r0,-14344(r9)
 1800ed0:	2f 80 00 03 	cmpwi   cr7,r0,3
 1800ed4:	40 9d 01 6c 	ble-    cr7,1801040 <main+0xe20>
 1800ed8:	3c 00 01 82 	lis     r0,386
 1800edc:	7c 0b 03 78 	mr      r11,r0
 1800ee0:	80 0b c7 fc 	lwz     r0,-14340(r11)
 1800ee4:	30 00 00 03 	addic   r0,r0,3
 1800ee8:	2f 80 00 06 	cmpwi   cr7,r0,6
 1800eec:	41 9d 01 54 	bgt-    cr7,1801040 <main+0xe20>
 1800ef0:	3c 00 01 82 	lis     r0,386
 1800ef4:	30 00 c8 44 	addic   r0,r0,-14268
 1800ef8:	7c 0b 03 78 	mr      r11,r0
 1800efc:	81 2b 00 08 	lwz     r9,8(r11)
 1800f00:	3c 00 01 82 	lis     r0,386
 1800f04:	30 00 c8 44 	addic   r0,r0,-14268
 1800f08:	7c 0b 03 78 	mr      r11,r0
 1800f0c:	80 0b 00 0c 	lwz     r0,12(r11)
 1800f10:	7f 89 00 00 	cmpw    cr7,r9,r0
 1800f14:	40 9e 01 2c 	bne-    cr7,1801040 <main+0xe20>
 1800f18:	3c 00 01 82 	lis     r0,386
 1800f1c:	30 00 c8 44 	addic   r0,r0,-14268
 1800f20:	7c 0b 03 78 	mr      r11,r0
 1800f24:	81 2b 00 08 	lwz     r9,8(r11)
 1800f28:	3c 00 01 82 	lis     r0,386
 1800f2c:	30 00 c8 44 	addic   r0,r0,-14268
 1800f30:	7c 0b 03 78 	mr      r11,r0
 1800f34:	80 0b 00 04 	lwz     r0,4(r11)
 1800f38:	7f 89 00 00 	cmpw    cr7,r9,r0
 1800f3c:	40 9e 01 04 	bne-    cr7,1801040 <main+0xe20>
 1800f40:	3c 00 01 82 	lis     r0,386
 1800f44:	30 00 c8 44 	addic   r0,r0,-14268
 1800f48:	7c 09 03 78 	mr      r9,r0
 1800f4c:	80 09 00 00 	lwz     r0,0(r9)
 1800f50:	90 1f 05 80 	stw     r0,1408(r31)
 1800f54:	3c 00 01 82 	lis     r0,386
 1800f58:	30 00 c8 44 	addic   r0,r0,-14268
 1800f5c:	7c 0b 03 78 	mr      r11,r0
 1800f60:	80 0b 00 08 	lwz     r0,8(r11)
 1800f64:	90 1f 05 7c 	stw     r0,1404(r31)
 1800f68:	81 3f 05 7c 	lwz     r9,1404(r31)
 1800f6c:	80 1f 05 80 	lwz     r0,1408(r31)
 1800f70:	7f 89 00 00 	cmpw    cr7,r9,r0
 1800f74:	40 9d 00 cc 	ble-    cr7,1801040 <main+0xe20>
 1800f78:	3c 00 01 82 	lis     r0,386
 1800f7c:	7c 09 03 78 	mr      r9,r0
 1800f80:	80 09 c7 f8 	lwz     r0,-14344(r9)
 1800f84:	31 20 ff fc 	addic   r9,r0,-4
 1800f88:	3c 00 01 82 	lis     r0,386
 1800f8c:	7c 0b 03 78 	mr      r11,r0
 1800f90:	91 2b c7 f8 	stw     r9,-14344(r11)
 1800f94:	81 3f 05 80 	lwz     r9,1408(r31)
 1800f98:	80 1f 05 7c 	lwz     r0,1404(r31)
 1800f9c:	7c 09 02 14 	add     r0,r9,r0
 1800fa0:	90 1f 05 78 	stw     r0,1400(r31)
 1800fa4:	3c 00 01 82 	lis     r0,386
 1800fa8:	7c 09 03 78 	mr      r9,r0
 1800fac:	80 09 c7 fc 	lwz     r0,-14340(r9)
 1800fb0:	3d 20 01 82 	lis     r9,386
 1800fb4:	39 29 c8 20 	addi    r9,r9,-14304
 1800fb8:	54 00 10 3a 	rlwinm  r0,r0,2,0,29
 1800fbc:	7c 09 02 14 	add     r0,r9,r0
 1800fc0:	81 3f 05 80 	lwz     r9,1408(r31)
 1800fc4:	7c 0b 03 78 	mr      r11,r0
 1800fc8:	91 2b 00 00 	stw     r9,0(r11)
 1800fcc:	3c 00 01 82 	lis     r0,386
 1800fd0:	7c 09 03 78 	mr      r9,r0
 1800fd4:	80 09 c7 fc 	lwz     r0,-14340(r9)
 1800fd8:	30 00 00 01 	addic   r0,r0,1
 1800fdc:	3d 20 01 82 	lis     r9,386
 1800fe0:	39 29 c8 20 	addi    r9,r9,-14304
 1800fe4:	54 00 10 3a 	rlwinm  r0,r0,2,0,29
 1800fe8:	7c 09 02 14 	add     r0,r9,r0
 1800fec:	81 3f 05 7c 	lwz     r9,1404(r31)
 1800ff0:	7c 0b 03 78 	mr      r11,r0
 1800ff4:	91 2b 00 00 	stw     r9,0(r11)
 1800ff8:	3c 00 01 82 	lis     r0,386
 1800ffc:	7c 09 03 78 	mr      r9,r0
 1801000:	80 09 c7 fc 	lwz     r0,-14340(r9)
 1801004:	30 00 00 02 	addic   r0,r0,2
 1801008:	3d 20 01 82 	lis     r9,386
 180100c:	39 29 c8 20 	addi    r9,r9,-14304
 1801010:	54 00 10 3a 	rlwinm  r0,r0,2,0,29
 1801014:	7c 09 02 14 	add     r0,r9,r0
 1801018:	81 3f 05 78 	lwz     r9,1400(r31)
 180101c:	7c 0b 03 78 	mr      r11,r0
 1801020:	91 2b 00 00 	stw     r9,0(r11)
 1801024:	3c 00 01 82 	lis     r0,386
 1801028:	7c 09 03 78 	mr      r9,r0
 180102c:	80 09 c7 fc 	lwz     r0,-14340(r9)
 1801030:	31 20 00 03 	addic   r9,r0,3
 1801034:	3c 00 01 82 	lis     r0,386
 1801038:	7c 0b 03 78 	mr      r11,r0
 180103c:	91 2b c7 fc 	stw     r9,-14340(r11)
 1801040:	3c 00 01 82 	lis     r0,386
 1801044:	7c 09 03 78 	mr      r9,r0
 1801048:	80 09 c7 f8 	lwz     r0,-14344(r9)
 180104c:	2f 80 00 03 	cmpwi   cr7,r0,3
 1801050:	40 9d 01 6c 	ble-    cr7,18011bc <main+0xf9c>
 1801054:	3c 00 01 82 	lis     r0,386
 1801058:	7c 0b 03 78 	mr      r11,r0
 180105c:	80 0b c7 fc 	lwz     r0,-14340(r11)
 1801060:	30 00 00 03 	addic   r0,r0,3
 1801064:	2f 80 00 06 	cmpwi   cr7,r0,6
 1801068:	41 9d 01 54 	bgt-    cr7,18011bc <main+0xf9c>
 180106c:	3c 00 01 82 	lis     r0,386
 1801070:	30 00 c8 44 	addic   r0,r0,-14268
 1801074:	7c 0b 03 78 	mr      r11,r0
 1801078:	81 2b 00 0c 	lwz     r9,12(r11)
 180107c:	3c 00 01 82 	lis     r0,386
 1801080:	30 00 c8 44 	addic   r0,r0,-14268
 1801084:	7c 0b 03 78 	mr      r11,r0
 1801088:	80 0b 00 04 	lwz     r0,4(r11)
 180108c:	7f 89 00 00 	cmpw    cr7,r9,r0
 1801090:	40 9e 01 2c 	bne-    cr7,18011bc <main+0xf9c>
 1801094:	3c 00 01 82 	lis     r0,386
 1801098:	30 00 c8 44 	addic   r0,r0,-14268
 180109c:	7c 0b 03 78 	mr      r11,r0
 18010a0:	81 2b 00 0c 	lwz     r9,12(r11)
 18010a4:	3c 00 01 82 	lis     r0,386
 18010a8:	30 00 c8 44 	addic   r0,r0,-14268
 18010ac:	7c 0b 03 78 	mr      r11,r0
 18010b0:	80 0b 00 08 	lwz     r0,8(r11)
 18010b4:	7f 89 00 00 	cmpw    cr7,r9,r0
 18010b8:	40 9e 01 04 	bne-    cr7,18011bc <main+0xf9c>
 18010bc:	3c 00 01 82 	lis     r0,386
 18010c0:	30 00 c8 44 	addic   r0,r0,-14268
 18010c4:	7c 09 03 78 	mr      r9,r0
 18010c8:	80 09 00 00 	lwz     r0,0(r9)
 18010cc:	90 1f 05 74 	stw     r0,1396(r31)
 18010d0:	3c 00 01 82 	lis     r0,386
 18010d4:	30 00 c8 44 	addic   r0,r0,-14268
 18010d8:	7c 0b 03 78 	mr      r11,r0
 18010dc:	80 0b 00 0c 	lwz     r0,12(r11)
 18010e0:	90 1f 05 70 	stw     r0,1392(r31)
 18010e4:	81 3f 05 70 	lwz     r9,1392(r31)
 18010e8:	80 1f 05 74 	lwz     r0,1396(r31)
 18010ec:	7f 89 00 00 	cmpw    cr7,r9,r0
 18010f0:	40 9d 00 cc 	ble-    cr7,18011bc <main+0xf9c>
 18010f4:	3c 00 01 82 	lis     r0,386
 18010f8:	7c 09 03 78 	mr      r9,r0
 18010fc:	80 09 c7 f8 	lwz     r0,-14344(r9)
 1801100:	31 20 ff fc 	addic   r9,r0,-4
 1801104:	3c 00 01 82 	lis     r0,386
 1801108:	7c 0b 03 78 	mr      r11,r0
 180110c:	91 2b c7 f8 	stw     r9,-14344(r11)
 1801110:	81 3f 05 74 	lwz     r9,1396(r31)
 1801114:	80 1f 05 70 	lwz     r0,1392(r31)
 1801118:	7c 09 02 14 	add     r0,r9,r0
 180111c:	90 1f 05 6c 	stw     r0,1388(r31)
 1801120:	3c 00 01 82 	lis     r0,386
 1801124:	7c 09 03 78 	mr      r9,r0
 1801128:	80 09 c7 fc 	lwz     r0,-14340(r9)
 180112c:	3d 20 01 82 	lis     r9,386
 1801130:	39 29 c8 20 	addi    r9,r9,-14304
 1801134:	54 00 10 3a 	rlwinm  r0,r0,2,0,29
 1801138:	7c 09 02 14 	add     r0,r9,r0
 180113c:	81 3f 05 74 	lwz     r9,1396(r31)
 1801140:	7c 0b 03 78 	mr      r11,r0
 1801144:	91 2b 00 00 	stw     r9,0(r11)
 1801148:	3c 00 01 82 	lis     r0,386
 180114c:	7c 09 03 78 	mr      r9,r0
 1801150:	80 09 c7 fc 	lwz     r0,-14340(r9)
 1801154:	30 00 00 01 	addic   r0,r0,1
 1801158:	3d 20 01 82 	lis     r9,386
 180115c:	39 29 c8 20 	addi    r9,r9,-14304
 1801160:	54 00 10 3a 	rlwinm  r0,r0,2,0,29
 1801164:	7c 09 02 14 	add     r0,r9,r0
 1801168:	81 3f 05 70 	lwz     r9,1392(r31)
 180116c:	7c 0b 03 78 	mr      r11,r0
 1801170:	91 2b 00 00 	stw     r9,0(r11)
 1801174:	3c 00 01 82 	lis     r0,386
 1801178:	7c 09 03 78 	mr      r9,r0
 180117c:	80 09 c7 fc 	lwz     r0,-14340(r9)
 1801180:	30 00 00 02 	addic   r0,r0,2
 1801184:	3d 20 01 82 	lis     r9,386
 1801188:	39 29 c8 20 	addi    r9,r9,-14304
 180118c:	54 00 10 3a 	rlwinm  r0,r0,2,0,29
 1801190:	7c 09 02 14 	add     r0,r9,r0
 1801194:	81 3f 05 6c 	lwz     r9,1388(r31)
 1801198:	7c 0b 03 78 	mr      r11,r0
 180119c:	91 2b 00 00 	stw     r9,0(r11)
 18011a0:	3c 00 01 82 	lis     r0,386
 18011a4:	7c 09 03 78 	mr      r9,r0
 18011a8:	80 09 c7 fc 	lwz     r0,-14340(r9)
 18011ac:	31 20 00 03 	addic   r9,r0,3
 18011b0:	3c 00 01 82 	lis     r0,386
 18011b4:	7c 0b 03 78 	mr      r11,r0
 18011b8:	91 2b c7 fc 	stw     r9,-14340(r11)
 18011bc:	3c 00 01 82 	lis     r0,386
 18011c0:	7c 09 03 78 	mr      r9,r0
 18011c4:	80 09 c7 f8 	lwz     r0,-14344(r9)
 18011c8:	2f 80 00 03 	cmpwi   cr7,r0,3
 18011cc:	40 9d 01 6c 	ble-    cr7,1801338 <main+0x1118>
 18011d0:	3c 00 01 82 	lis     r0,386
 18011d4:	7c 0b 03 78 	mr      r11,r0
 18011d8:	80 0b c7 fc 	lwz     r0,-14340(r11)
 18011dc:	30 00 00 03 	addic   r0,r0,3
 18011e0:	2f 80 00 06 	cmpwi   cr7,r0,6
 18011e4:	41 9d 01 54 	bgt-    cr7,1801338 <main+0x1118>
 18011e8:	3c 00 01 82 	lis     r0,386
 18011ec:	30 00 c8 44 	addic   r0,r0,-14268
 18011f0:	7c 0b 03 78 	mr      r11,r0
 18011f4:	81 2b 00 0c 	lwz     r9,12(r11)
 18011f8:	3c 00 01 82 	lis     r0,386
 18011fc:	30 00 c8 44 	addic   r0,r0,-14268
 1801200:	7c 0b 03 78 	mr      r11,r0
 1801204:	80 0b 00 08 	lwz     r0,8(r11)
 1801208:	7f 89 00 00 	cmpw    cr7,r9,r0
 180120c:	40 9e 01 2c 	bne-    cr7,1801338 <main+0x1118>
 1801210:	3c 00 01 82 	lis     r0,386
 1801214:	30 00 c8 44 	addic   r0,r0,-14268
 1801218:	7c 0b 03 78 	mr      r11,r0
 180121c:	81 2b 00 0c 	lwz     r9,12(r11)
 1801220:	3c 00 01 82 	lis     r0,386
 1801224:	30 00 c8 44 	addic   r0,r0,-14268
 1801228:	7c 0b 03 78 	mr      r11,r0
 180122c:	80 0b 00 04 	lwz     r0,4(r11)
 1801230:	7f 89 00 00 	cmpw    cr7,r9,r0
 1801234:	40 9e 01 04 	bne-    cr7,1801338 <main+0x1118>
 1801238:	3c 00 01 82 	lis     r0,386
 180123c:	30 00 c8 44 	addic   r0,r0,-14268
 1801240:	7c 09 03 78 	mr      r9,r0
 1801244:	80 09 00 00 	lwz     r0,0(r9)
 1801248:	90 1f 05 68 	stw     r0,1384(r31)
 180124c:	3c 00 01 82 	lis     r0,386
 1801250:	30 00 c8 44 	addic   r0,r0,-14268
 1801254:	7c 0b 03 78 	mr      r11,r0
 1801258:	80 0b 00 0c 	lwz     r0,12(r11)
 180125c:	90 1f 05 64 	stw     r0,1380(r31)
 1801260:	81 3f 05 64 	lwz     r9,1380(r31)
 1801264:	80 1f 05 68 	lwz     r0,1384(r31)
 1801268:	7f 89 00 00 	cmpw    cr7,r9,r0
 180126c:	40 9d 00 cc 	ble-    cr7,1801338 <main+0x1118>
 1801270:	3c 00 01 82 	lis     r0,386
 1801274:	7c 09 03 78 	mr      r9,r0
 1801278:	80 09 c7 f8 	lwz     r0,-14344(r9)
 180127c:	31 20 ff fc 	addic   r9,r0,-4
 1801280:	3c 00 01 82 	lis     r0,386
 1801284:	7c 0b 03 78 	mr      r11,r0
 1801288:	91 2b c7 f8 	stw     r9,-14344(r11)
 180128c:	81 3f 05 68 	lwz     r9,1384(r31)
 1801290:	80 1f 05 64 	lwz     r0,1380(r31)
 1801294:	7c 09 02 14 	add     r0,r9,r0
 1801298:	90 1f 05 60 	stw     r0,1376(r31)
 180129c:	3c 00 01 82 	lis     r0,386
 18012a0:	7c 09 03 78 	mr      r9,r0
 18012a4:	80 09 c7 fc 	lwz     r0,-14340(r9)
 18012a8:	3d 20 01 82 	lis     r9,386
 18012ac:	39 29 c8 20 	addi    r9,r9,-14304
 18012b0:	54 00 10 3a 	rlwinm  r0,r0,2,0,29
 18012b4:	7c 09 02 14 	add     r0,r9,r0
 18012b8:	81 3f 05 68 	lwz     r9,1384(r31)
 18012bc:	7c 0b 03 78 	mr      r11,r0
 18012c0:	91 2b 00 00 	stw     r9,0(r11)
 18012c4:	3c 00 01 82 	lis     r0,386
 18012c8:	7c 09 03 78 	mr      r9,r0
 18012cc:	80 09 c7 fc 	lwz     r0,-14340(r9)
 18012d0:	30 00 00 01 	addic   r0,r0,1
 18012d4:	3d 20 01 82 	lis     r9,386
 18012d8:	39 29 c8 20 	addi    r9,r9,-14304
 18012dc:	54 00 10 3a 	rlwinm  r0,r0,2,0,29
 18012e0:	7c 09 02 14 	add     r0,r9,r0
 18012e4:	81 3f 05 64 	lwz     r9,1380(r31)
 18012e8:	7c 0b 03 78 	mr      r11,r0
 18012ec:	91 2b 00 00 	stw     r9,0(r11)
 18012f0:	3c 00 01 82 	lis     r0,386
 18012f4:	7c 09 03 78 	mr      r9,r0
 18012f8:	80 09 c7 fc 	lwz     r0,-14340(r9)
 18012fc:	30 00 00 02 	addic   r0,r0,2
 1801300:	3d 20 01 82 	lis     r9,386
 1801304:	39 29 c8 20 	addi    r9,r9,-14304
 1801308:	54 00 10 3a 	rlwinm  r0,r0,2,0,29
 180130c:	7c 09 02 14 	add     r0,r9,r0
 1801310:	81 3f 05 60 	lwz     r9,1376(r31)
 1801314:	7c 0b 03 78 	mr      r11,r0
 1801318:	91 2b 00 00 	stw     r9,0(r11)
 180131c:	3c 00 01 82 	lis     r0,386
 1801320:	7c 09 03 78 	mr      r9,r0
 1801324:	80 09 c7 fc 	lwz     r0,-14340(r9)
 1801328:	31 20 00 03 	addic   r9,r0,3
 180132c:	3c 00 01 82 	lis     r0,386
 1801330:	7c 0b 03 78 	mr      r11,r0
 1801334:	91 2b c7 fc 	stw     r9,-14340(r11)
 1801338:	3c 00 01 82 	lis     r0,386
 180133c:	7c 09 03 78 	mr      r9,r0
 1801340:	80 09 c7 f8 	lwz     r0,-14344(r9)
 1801344:	2f 80 00 03 	cmpwi   cr7,r0,3
 1801348:	40 9d 01 6c 	ble-    cr7,18014b4 <main+0x1294>
 180134c:	3c 00 01 82 	lis     r0,386
 1801350:	7c 0b 03 78 	mr      r11,r0
 1801354:	80 0b c7 fc 	lwz     r0,-14340(r11)
 1801358:	30 00 00 03 	addic   r0,r0,3
 180135c:	2f 80 00 06 	cmpwi   cr7,r0,6
 1801360:	41 9d 01 54 	bgt-    cr7,18014b4 <main+0x1294>
 1801364:	3c 00 01 82 	lis     r0,386
 1801368:	30 00 c8 44 	addic   r0,r0,-14268
 180136c:	7c 0b 03 78 	mr      r11,r0
 1801370:	81 2b 00 00 	lwz     r9,0(r11)
 1801374:	3c 00 01 82 	lis     r0,386
 1801378:	30 00 c8 44 	addic   r0,r0,-14268
 180137c:	7c 0b 03 78 	mr      r11,r0
 1801380:	80 0b 00 08 	lwz     r0,8(r11)
 1801384:	7f 89 00 00 	cmpw    cr7,r9,r0
 1801388:	40 9e 01 2c 	bne-    cr7,18014b4 <main+0x1294>
 180138c:	3c 00 01 82 	lis     r0,386
 1801390:	30 00 c8 44 	addic   r0,r0,-14268
 1801394:	7c 0b 03 78 	mr      r11,r0
 1801398:	81 2b 00 00 	lwz     r9,0(r11)
 180139c:	3c 00 01 82 	lis     r0,386
 18013a0:	30 00 c8 44 	addic   r0,r0,-14268
 18013a4:	7c 0b 03 78 	mr      r11,r0
 18013a8:	80 0b 00 0c 	lwz     r0,12(r11)
 18013ac:	7f 89 00 00 	cmpw    cr7,r9,r0
 18013b0:	40 9e 01 04 	bne-    cr7,18014b4 <main+0x1294>
 18013b4:	3c 00 01 82 	lis     r0,386
 18013b8:	30 00 c8 44 	addic   r0,r0,-14268
 18013bc:	7c 09 03 78 	mr      r9,r0
 18013c0:	80 09 00 04 	lwz     r0,4(r9)
 18013c4:	90 1f 05 5c 	stw     r0,1372(r31)
 18013c8:	3c 00 01 82 	lis     r0,386
 18013cc:	30 00 c8 44 	addic   r0,r0,-14268
 18013d0:	7c 0b 03 78 	mr      r11,r0
 18013d4:	80 0b 00 00 	lwz     r0,0(r11)
 18013d8:	90 1f 05 58 	stw     r0,1368(r31)
 18013dc:	81 3f 05 58 	lwz     r9,1368(r31)
 18013e0:	80 1f 05 5c 	lwz     r0,1372(r31)
 18013e4:	7f 89 00 00 	cmpw    cr7,r9,r0
 18013e8:	40 9d 00 cc 	ble-    cr7,18014b4 <main+0x1294>
 18013ec:	3c 00 01 82 	lis     r0,386
 18013f0:	7c 09 03 78 	mr      r9,r0
 18013f4:	80 09 c7 f8 	lwz     r0,-14344(r9)
 18013f8:	31 20 ff fc 	addic   r9,r0,-4
 18013fc:	3c 00 01 82 	lis     r0,386
 1801400:	7c 0b 03 78 	mr      r11,r0
 1801404:	91 2b c7 f8 	stw     r9,-14344(r11)
 1801408:	81 3f 05 5c 	lwz     r9,1372(r31)
 180140c:	80 1f 05 58 	lwz     r0,1368(r31)
 1801410:	7c 09 02 14 	add     r0,r9,r0
 1801414:	90 1f 05 54 	stw     r0,1364(r31)
 1801418:	3c 00 01 82 	lis     r0,386
 180141c:	7c 09 03 78 	mr      r9,r0
 1801420:	80 09 c7 fc 	lwz     r0,-14340(r9)
 1801424:	3d 20 01 82 	lis     r9,386
 1801428:	39 29 c8 20 	addi    r9,r9,-14304
 180142c:	54 00 10 3a 	rlwinm  r0,r0,2,0,29
 1801430:	7c 09 02 14 	add     r0,r9,r0
 1801434:	81 3f 05 5c 	lwz     r9,1372(r31)
 1801438:	7c 0b 03 78 	mr      r11,r0
 180143c:	91 2b 00 00 	stw     r9,0(r11)
 1801440:	3c 00 01 82 	lis     r0,386
 1801444:	7c 09 03 78 	mr      r9,r0
 1801448:	80 09 c7 fc 	lwz     r0,-14340(r9)
 180144c:	30 00 00 01 	addic   r0,r0,1
 1801450:	3d 20 01 82 	lis     r9,386
 1801454:	39 29 c8 20 	addi    r9,r9,-14304
 1801458:	54 00 10 3a 	rlwinm  r0,r0,2,0,29
 180145c:	7c 09 02 14 	add     r0,r9,r0
 1801460:	81 3f 05 58 	lwz     r9,1368(r31)
 1801464:	7c 0b 03 78 	mr      r11,r0
 1801468:	91 2b 00 00 	stw     r9,0(r11)
 180146c:	3c 00 01 82 	lis     r0,386
 1801470:	7c 09 03 78 	mr      r9,r0
 1801474:	80 09 c7 fc 	lwz     r0,-14340(r9)
 1801478:	30 00 00 02 	addic   r0,r0,2
 180147c:	3d 20 01 82 	lis     r9,386
 1801480:	39 29 c8 20 	addi    r9,r9,-14304
 1801484:	54 00 10 3a 	rlwinm  r0,r0,2,0,29
 1801488:	7c 09 02 14 	add     r0,r9,r0
 180148c:	81 3f 05 54 	lwz     r9,1364(r31)
 1801490:	7c 0b 03 78 	mr      r11,r0
 1801494:	91 2b 00 00 	stw     r9,0(r11)
 1801498:	3c 00 01 82 	lis     r0,386
 180149c:	7c 09 03 78 	mr      r9,r0
 18014a0:	80 09 c7 fc 	lwz     r0,-14340(r9)
 18014a4:	31 20 00 03 	addic   r9,r0,3
 18014a8:	3c 00 01 82 	lis     r0,386
 18014ac:	7c 0b 03 78 	mr      r11,r0
 18014b0:	91 2b c7 fc 	stw     r9,-14340(r11)
 18014b4:	3c 00 01 82 	lis     r0,386
 18014b8:	7c 09 03 78 	mr      r9,r0
 18014bc:	80 09 c7 f8 	lwz     r0,-14344(r9)
 18014c0:	2f 80 00 03 	cmpwi   cr7,r0,3
 18014c4:	40 9d 01 6c 	ble-    cr7,1801630 <main+0x1410>
 18014c8:	3c 00 01 82 	lis     r0,386
 18014cc:	7c 0b 03 78 	mr      r11,r0
 18014d0:	80 0b c7 fc 	lwz     r0,-14340(r11)
 18014d4:	30 00 00 03 	addic   r0,r0,3
 18014d8:	2f 80 00 06 	cmpwi   cr7,r0,6
 18014dc:	41 9d 01 54 	bgt-    cr7,1801630 <main+0x1410>
 18014e0:	3c 00 01 82 	lis     r0,386
 18014e4:	30 00 c8 44 	addic   r0,r0,-14268
 18014e8:	7c 0b 03 78 	mr      r11,r0
 18014ec:	81 2b 00 00 	lwz     r9,0(r11)
 18014f0:	3c 00 01 82 	lis     r0,386
 18014f4:	30 00 c8 44 	addic   r0,r0,-14268
 18014f8:	7c 0b 03 78 	mr      r11,r0
 18014fc:	80 0b 00 0c 	lwz     r0,12(r11)
 1801500:	7f 89 00 00 	cmpw    cr7,r9,r0
 1801504:	40 9e 01 2c 	bne-    cr7,1801630 <main+0x1410>
 1801508:	3c 00 01 82 	lis     r0,386
 180150c:	30 00 c8 44 	addic   r0,r0,-14268
 1801510:	7c 0b 03 78 	mr      r11,r0
 1801514:	81 2b 00 00 	lwz     r9,0(r11)
 1801518:	3c 00 01 82 	lis     r0,386
 180151c:	30 00 c8 44 	addic   r0,r0,-14268
 1801520:	7c 0b 03 78 	mr      r11,r0
 1801524:	80 0b 00 08 	lwz     r0,8(r11)
 1801528:	7f 89 00 00 	cmpw    cr7,r9,r0
 180152c:	40 9e 01 04 	bne-    cr7,1801630 <main+0x1410>
 1801530:	3c 00 01 82 	lis     r0,386
 1801534:	30 00 c8 44 	addic   r0,r0,-14268
 1801538:	7c 09 03 78 	mr      r9,r0
 180153c:	80 09 00 04 	lwz     r0,4(r9)
 1801540:	90 1f 05 50 	stw     r0,1360(r31)
 1801544:	3c 00 01 82 	lis     r0,386
 1801548:	30 00 c8 44 	addic   r0,r0,-14268
 180154c:	7c 0b 03 78 	mr      r11,r0
 1801550:	80 0b 00 00 	lwz     r0,0(r11)
 1801554:	90 1f 05 4c 	stw     r0,1356(r31)
 1801558:	81 3f 05 4c 	lwz     r9,1356(r31)
 180155c:	80 1f 05 50 	lwz     r0,1360(r31)
 1801560:	7f 89 00 00 	cmpw    cr7,r9,r0
 1801564:	40 9d 00 cc 	ble-    cr7,1801630 <main+0x1410>
 1801568:	3c 00 01 82 	lis     r0,386
 180156c:	7c 09 03 78 	mr      r9,r0
 1801570:	80 09 c7 f8 	lwz     r0,-14344(r9)
 1801574:	31 20 ff fc 	addic   r9,r0,-4
 1801578:	3c 00 01 82 	lis     r0,386
 180157c:	7c 0b 03 78 	mr      r11,r0
 1801580:	91 2b c7 f8 	stw     r9,-14344(r11)
 1801584:	81 3f 05 50 	lwz     r9,1360(r31)
 1801588:	80 1f 05 4c 	lwz     r0,1356(r31)
 180158c:	7c 09 02 14 	add     r0,r9,r0
 1801590:	90 1f 05 48 	stw     r0,1352(r31)
 1801594:	3c 00 01 82 	lis     r0,386
 1801598:	7c 09 03 78 	mr      r9,r0
 180159c:	80 09 c7 fc 	lwz     r0,-14340(r9)
 18015a0:	3d 20 01 82 	lis     r9,386
 18015a4:	39 29 c8 20 	addi    r9,r9,-14304
 18015a8:	54 00 10 3a 	rlwinm  r0,r0,2,0,29
 18015ac:	7c 09 02 14 	add     r0,r9,r0
 18015b0:	81 3f 05 50 	lwz     r9,1360(r31)
 18015b4:	7c 0b 03 78 	mr      r11,r0
 18015b8:	91 2b 00 00 	stw     r9,0(r11)
 18015bc:	3c 00 01 82 	lis     r0,386
 18015c0:	7c 09 03 78 	mr      r9,r0
 18015c4:	80 09 c7 fc 	lwz     r0,-14340(r9)
 18015c8:	30 00 00 01 	addic   r0,r0,1
 18015cc:	3d 20 01 82 	lis     r9,386
 18015d0:	39 29 c8 20 	addi    r9,r9,-14304
 18015d4:	54 00 10 3a 	rlwinm  r0,r0,2,0,29
 18015d8:	7c 09 02 14 	add     r0,r9,r0
 18015dc:	81 3f 05 4c 	lwz     r9,1356(r31)
 18015e0:	7c 0b 03 78 	mr      r11,r0
 18015e4:	91 2b 00 00 	stw     r9,0(r11)
 18015e8:	3c 00 01 82 	lis     r0,386
 18015ec:	7c 09 03 78 	mr      r9,r0
 18015f0:	80 09 c7 fc 	lwz     r0,-14340(r9)
 18015f4:	30 00 00 02 	addic   r0,r0,2
 18015f8:	3d 20 01 82 	lis     r9,386
 18015fc:	39 29 c8 20 	addi    r9,r9,-14304
 1801600:	54 00 10 3a 	rlwinm  r0,r0,2,0,29
 1801604:	7c 09 02 14 	add     r0,r9,r0
 1801608:	81 3f 05 48 	lwz     r9,1352(r31)
 180160c:	7c 0b 03 78 	mr      r11,r0
 1801610:	91 2b 00 00 	stw     r9,0(r11)
 1801614:	3c 00 01 82 	lis     r0,386
 1801618:	7c 09 03 78 	mr      r9,r0
 180161c:	80 09 c7 fc 	lwz     r0,-14340(r9)
 1801620:	31 20 00 03 	addic   r9,r0,3
 1801624:	3c 00 01 82 	lis     r0,386
 1801628:	7c 0b 03 78 	mr      r11,r0
 180162c:	91 2b c7 fc 	stw     r9,-14340(r11)
 1801630:	3c 00 01 82 	lis     r0,386
 1801634:	7c 09 03 78 	mr      r9,r0
 1801638:	80 09 c7 f8 	lwz     r0,-14344(r9)
 180163c:	2f 80 00 03 	cmpwi   cr7,r0,3
 1801640:	40 9d 01 6c 	ble-    cr7,18017ac <main+0x158c>
 1801644:	3c 00 01 82 	lis     r0,386
 1801648:	7c 0b 03 78 	mr      r11,r0
 180164c:	80 0b c7 fc 	lwz     r0,-14340(r11)
 1801650:	30 00 00 03 	addic   r0,r0,3
 1801654:	2f 80 00 06 	cmpwi   cr7,r0,6
 1801658:	41 9d 01 54 	bgt-    cr7,18017ac <main+0x158c>
 180165c:	3c 00 01 82 	lis     r0,386
 1801660:	30 00 c8 44 	addic   r0,r0,-14268
 1801664:	7c 0b 03 78 	mr      r11,r0
 1801668:	81 2b 00 08 	lwz     r9,8(r11)
 180166c:	3c 00 01 82 	lis     r0,386
 1801670:	30 00 c8 44 	addic   r0,r0,-14268
 1801674:	7c 0b 03 78 	mr      r11,r0
 1801678:	80 0b 00 00 	lwz     r0,0(r11)
 180167c:	7f 89 00 00 	cmpw    cr7,r9,r0
 1801680:	40 9e 01 2c 	bne-    cr7,18017ac <main+0x158c>
 1801684:	3c 00 01 82 	lis     r0,386
 1801688:	30 00 c8 44 	addic   r0,r0,-14268
 180168c:	7c 0b 03 78 	mr      r11,r0
 1801690:	81 2b 00 08 	lwz     r9,8(r11)
 1801694:	3c 00 01 82 	lis     r0,386
 1801698:	30 00 c8 44 	addic   r0,r0,-14268
 180169c:	7c 0b 03 78 	mr      r11,r0
 18016a0:	80 0b 00 0c 	lwz     r0,12(r11)
 18016a4:	7f 89 00 00 	cmpw    cr7,r9,r0
 18016a8:	40 9e 01 04 	bne-    cr7,18017ac <main+0x158c>
 18016ac:	3c 00 01 82 	lis     r0,386
 18016b0:	30 00 c8 44 	addic   r0,r0,-14268
 18016b4:	7c 09 03 78 	mr      r9,r0
 18016b8:	80 09 00 04 	lwz     r0,4(r9)
 18016bc:	90 1f 05 44 	stw     r0,1348(r31)
 18016c0:	3c 00 01 82 	lis     r0,386
 18016c4:	30 00 c8 44 	addic   r0,r0,-14268
 18016c8:	7c 0b 03 78 	mr      r11,r0
 18016cc:	80 0b 00 08 	lwz     r0,8(r11)
 18016d0:	90 1f 05 40 	stw     r0,1344(r31)
 18016d4:	81 3f 05 40 	lwz     r9,1344(r31)
 18016d8:	80 1f 05 44 	lwz     r0,1348(r31)
 18016dc:	7f 89 00 00 	cmpw    cr7,r9,r0
 18016e0:	40 9d 00 cc 	ble-    cr7,18017ac <main+0x158c>
 18016e4:	3c 00 01 82 	lis     r0,386
 18016e8:	7c 09 03 78 	mr      r9,r0
 18016ec:	80 09 c7 f8 	lwz     r0,-14344(r9)
 18016f0:	31 20 ff fc 	addic   r9,r0,-4
 18016f4:	3c 00 01 82 	lis     r0,386
 18016f8:	7c 0b 03 78 	mr      r11,r0
 18016fc:	91 2b c7 f8 	stw     r9,-14344(r11)
 1801700:	81 3f 05 44 	lwz     r9,1348(r31)
 1801704:	80 1f 05 40 	lwz     r0,1344(r31)
 1801708:	7c 09 02 14 	add     r0,r9,r0
 180170c:	90 1f 05 3c 	stw     r0,1340(r31)
 1801710:	3c 00 01 82 	lis     r0,386
 1801714:	7c 09 03 78 	mr      r9,r0
 1801718:	80 09 c7 fc 	lwz     r0,-14340(r9)
 180171c:	3d 20 01 82 	lis     r9,386
 1801720:	39 29 c8 20 	addi    r9,r9,-14304
 1801724:	54 00 10 3a 	rlwinm  r0,r0,2,0,29
 1801728:	7c 09 02 14 	add     r0,r9,r0
 180172c:	81 3f 05 44 	lwz     r9,1348(r31)
 1801730:	7c 0b 03 78 	mr      r11,r0
 1801734:	91 2b 00 00 	stw     r9,0(r11)
 1801738:	3c 00 01 82 	lis     r0,386
 180173c:	7c 09 03 78 	mr      r9,r0
 1801740:	80 09 c7 fc 	lwz     r0,-14340(r9)
 1801744:	30 00 00 01 	addic   r0,r0,1
 1801748:	3d 20 01 82 	lis     r9,386
 180174c:	39 29 c8 20 	addi    r9,r9,-14304
 1801750:	54 00 10 3a 	rlwinm  r0,r0,2,0,29
 1801754:	7c 09 02 14 	add     r0,r9,r0
 1801758:	81 3f 05 40 	lwz     r9,1344(r31)
 180175c:	7c 0b 03 78 	mr      r11,r0
 1801760:	91 2b 00 00 	stw     r9,0(r11)
 1801764:	3c 00 01 82 	lis     r0,386
 1801768:	7c 09 03 78 	mr      r9,r0
 180176c:	80 09 c7 fc 	lwz     r0,-14340(r9)
 1801770:	30 00 00 02 	addic   r0,r0,2
 1801774:	3d 20 01 82 	lis     r9,386
 1801778:	39 29 c8 20 	addi    r9,r9,-14304
 180177c:	54 00 10 3a 	rlwinm  r0,r0,2,0,29
 1801780:	7c 09 02 14 	add     r0,r9,r0
 1801784:	81 3f 05 3c 	lwz     r9,1340(r31)
 1801788:	7c 0b 03 78 	mr      r11,r0
 180178c:	91 2b 00 00 	stw     r9,0(r11)
 1801790:	3c 00 01 82 	lis     r0,386
 1801794:	7c 09 03 78 	mr      r9,r0
 1801798:	80 09 c7 fc 	lwz     r0,-14340(r9)
 180179c:	31 20 00 03 	addic   r9,r0,3
 18017a0:	3c 00 01 82 	lis     r0,386
 18017a4:	7c 0b 03 78 	mr      r11,r0
 18017a8:	91 2b c7 fc 	stw     r9,-14340(r11)
 18017ac:	3c 00 01 82 	lis     r0,386
 18017b0:	7c 09 03 78 	mr      r9,r0
 18017b4:	80 09 c7 f8 	lwz     r0,-14344(r9)
 18017b8:	2f 80 00 03 	cmpwi   cr7,r0,3
 18017bc:	40 9d 01 6c 	ble-    cr7,1801928 <main+0x1708>
 18017c0:	3c 00 01 82 	lis     r0,386
 18017c4:	7c 0b 03 78 	mr      r11,r0
 18017c8:	80 0b c7 fc 	lwz     r0,-14340(r11)
 18017cc:	30 00 00 03 	addic   r0,r0,3
 18017d0:	2f 80 00 06 	cmpwi   cr7,r0,6
 18017d4:	41 9d 01 54 	bgt-    cr7,1801928 <main+0x1708>
 18017d8:	3c 00 01 82 	lis     r0,386
 18017dc:	30 00 c8 44 	addic   r0,r0,-14268
 18017e0:	7c 0b 03 78 	mr      r11,r0
 18017e4:	81 2b 00 08 	lwz     r9,8(r11)
 18017e8:	3c 00 01 82 	lis     r0,386
 18017ec:	30 00 c8 44 	addic   r0,r0,-14268
 18017f0:	7c 0b 03 78 	mr      r11,r0
 18017f4:	80 0b 00 0c 	lwz     r0,12(r11)
 18017f8:	7f 89 00 00 	cmpw    cr7,r9,r0
 18017fc:	40 9e 01 2c 	bne-    cr7,1801928 <main+0x1708>
 1801800:	3c 00 01 82 	lis     r0,386
 1801804:	30 00 c8 44 	addic   r0,r0,-14268
 1801808:	7c 0b 03 78 	mr      r11,r0
 180180c:	81 2b 00 08 	lwz     r9,8(r11)
 1801810:	3c 00 01 82 	lis     r0,386
 1801814:	30 00 c8 44 	addic   r0,r0,-14268
 1801818:	7c 0b 03 78 	mr      r11,r0
 180181c:	80 0b 00 00 	lwz     r0,0(r11)
 1801820:	7f 89 00 00 	cmpw    cr7,r9,r0
 1801824:	40 9e 01 04 	bne-    cr7,1801928 <main+0x1708>
 1801828:	3c 00 01 82 	lis     r0,386
 180182c:	30 00 c8 44 	addic   r0,r0,-14268
 1801830:	7c 09 03 78 	mr      r9,r0
 1801834:	80 09 00 04 	lwz     r0,4(r9)
 1801838:	90 1f 05 38 	stw     r0,1336(r31)
 180183c:	3c 00 01 82 	lis     r0,386
 1801840:	30 00 c8 44 	addic   r0,r0,-14268
 1801844:	7c 0b 03 78 	mr      r11,r0
 1801848:	80 0b 00 08 	lwz     r0,8(r11)
 180184c:	90 1f 05 34 	stw     r0,1332(r31)
 1801850:	81 3f 05 34 	lwz     r9,1332(r31)
 1801854:	80 1f 05 38 	lwz     r0,1336(r31)
 1801858:	7f 89 00 00 	cmpw    cr7,r9,r0
 180185c:	40 9d 00 cc 	ble-    cr7,1801928 <main+0x1708>
 1801860:	3c 00 01 82 	lis     r0,386
 1801864:	7c 09 03 78 	mr      r9,r0
 1801868:	80 09 c7 f8 	lwz     r0,-14344(r9)
 180186c:	31 20 ff fc 	addic   r9,r0,-4
 1801870:	3c 00 01 82 	lis     r0,386
 1801874:	7c 0b 03 78 	mr      r11,r0
 1801878:	91 2b c7 f8 	stw     r9,-14344(r11)
 180187c:	81 3f 05 38 	lwz     r9,1336(r31)
 1801880:	80 1f 05 34 	lwz     r0,1332(r31)
 1801884:	7c 09 02 14 	add     r0,r9,r0
 1801888:	90 1f 05 30 	stw     r0,1328(r31)
 180188c:	3c 00 01 82 	lis     r0,386
 1801890:	7c 09 03 78 	mr      r9,r0
 1801894:	80 09 c7 fc 	lwz     r0,-14340(r9)
 1801898:	3d 20 01 82 	lis     r9,386
 180189c:	39 29 c8 20 	addi    r9,r9,-14304
 18018a0:	54 00 10 3a 	rlwinm  r0,r0,2,0,29
 18018a4:	7c 09 02 14 	add     r0,r9,r0
 18018a8:	81 3f 05 38 	lwz     r9,1336(r31)
 18018ac:	7c 0b 03 78 	mr      r11,r0
 18018b0:	91 2b 00 00 	stw     r9,0(r11)
 18018b4:	3c 00 01 82 	lis     r0,386
 18018b8:	7c 09 03 78 	mr      r9,r0
 18018bc:	80 09 c7 fc 	lwz     r0,-14340(r9)
 18018c0:	30 00 00 01 	addic   r0,r0,1
 18018c4:	3d 20 01 82 	lis     r9,386
 18018c8:	39 29 c8 20 	addi    r9,r9,-14304
 18018cc:	54 00 10 3a 	rlwinm  r0,r0,2,0,29
 18018d0:	7c 09 02 14 	add     r0,r9,r0
 18018d4:	81 3f 05 34 	lwz     r9,1332(r31)
 18018d8:	7c 0b 03 78 	mr      r11,r0
 18018dc:	91 2b 00 00 	stw     r9,0(r11)
 18018e0:	3c 00 01 82 	lis     r0,386
 18018e4:	7c 09 03 78 	mr      r9,r0
 18018e8:	80 09 c7 fc 	lwz     r0,-14340(r9)
 18018ec:	30 00 00 02 	addic   r0,r0,2
 18018f0:	3d 20 01 82 	lis     r9,386
 18018f4:	39 29 c8 20 	addi    r9,r9,-14304
 18018f8:	54 00 10 3a 	rlwinm  r0,r0,2,0,29
 18018fc:	7c 09 02 14 	add     r0,r9,r0
 1801900:	81 3f 05 30 	lwz     r9,1328(r31)
 1801904:	7c 0b 03 78 	mr      r11,r0
 1801908:	91 2b 00 00 	stw     r9,0(r11)
 180190c:	3c 00 01 82 	lis     r0,386
 1801910:	7c 09 03 78 	mr      r9,r0
 1801914:	80 09 c7 fc 	lwz     r0,-14340(r9)
 1801918:	31 20 00 03 	addic   r9,r0,3
 180191c:	3c 00 01 82 	lis     r0,386
 1801920:	7c 0b 03 78 	mr      r11,r0
 1801924:	91 2b c7 fc 	stw     r9,-14340(r11)
 1801928:	3c 00 01 82 	lis     r0,386
 180192c:	7c 09 03 78 	mr      r9,r0
 1801930:	80 09 c7 f8 	lwz     r0,-14344(r9)
 1801934:	2f 80 00 03 	cmpwi   cr7,r0,3
 1801938:	40 9d 01 6c 	ble-    cr7,1801aa4 <main+0x1884>
 180193c:	3c 00 01 82 	lis     r0,386
 1801940:	7c 0b 03 78 	mr      r11,r0
 1801944:	80 0b c7 fc 	lwz     r0,-14340(r11)
 1801948:	30 00 00 03 	addic   r0,r0,3
 180194c:	2f 80 00 06 	cmpwi   cr7,r0,6
 1801950:	41 9d 01 54 	bgt-    cr7,1801aa4 <main+0x1884>
 1801954:	3c 00 01 82 	lis     r0,386
 1801958:	30 00 c8 44 	addic   r0,r0,-14268
 180195c:	7c 0b 03 78 	mr      r11,r0
 1801960:	81 2b 00 0c 	lwz     r9,12(r11)
 1801964:	3c 00 01 82 	lis     r0,386
 1801968:	30 00 c8 44 	addic   r0,r0,-14268
 180196c:	7c 0b 03 78 	mr      r11,r0
 1801970:	80 0b 00 00 	lwz     r0,0(r11)
 1801974:	7f 89 00 00 	cmpw    cr7,r9,r0
 1801978:	40 9e 01 2c 	bne-    cr7,1801aa4 <main+0x1884>
 180197c:	3c 00 01 82 	lis     r0,386
 1801980:	30 00 c8 44 	addic   r0,r0,-14268
 1801984:	7c 0b 03 78 	mr      r11,r0
 1801988:	81 2b 00 0c 	lwz     r9,12(r11)
 180198c:	3c 00 01 82 	lis     r0,386
 1801990:	30 00 c8 44 	addic   r0,r0,-14268
 1801994:	7c 0b 03 78 	mr      r11,r0
 1801998:	80 0b 00 08 	lwz     r0,8(r11)
 180199c:	7f 89 00 00 	cmpw    cr7,r9,r0
 18019a0:	40 9e 01 04 	bne-    cr7,1801aa4 <main+0x1884>
 18019a4:	3c 00 01 82 	lis     r0,386
 18019a8:	30 00 c8 44 	addic   r0,r0,-14268
 18019ac:	7c 09 03 78 	mr      r9,r0
 18019b0:	80 09 00 04 	lwz     r0,4(r9)
 18019b4:	90 1f 05 2c 	stw     r0,1324(r31)
 18019b8:	3c 00 01 82 	lis     r0,386
 18019bc:	30 00 c8 44 	addic   r0,r0,-14268
 18019c0:	7c 0b 03 78 	mr      r11,r0
 18019c4:	80 0b 00 0c 	lwz     r0,12(r11)
 18019c8:	90 1f 05 28 	stw     r0,1320(r31)
 18019cc:	81 3f 05 28 	lwz     r9,1320(r31)
 18019d0:	80 1f 05 2c 	lwz     r0,1324(r31)
 18019d4:	7f 89 00 00 	cmpw    cr7,r9,r0
 18019d8:	40 9d 00 cc 	ble-    cr7,1801aa4 <main+0x1884>
 18019dc:	3c 00 01 82 	lis     r0,386
 18019e0:	7c 09 03 78 	mr      r9,r0
 18019e4:	80 09 c7 f8 	lwz     r0,-14344(r9)
 18019e8:	31 20 ff fc 	addic   r9,r0,-4
 18019ec:	3c 00 01 82 	lis     r0,386
 18019f0:	7c 0b 03 78 	mr      r11,r0
 18019f4:	91 2b c7 f8 	stw     r9,-14344(r11)
 18019f8:	81 3f 05 2c 	lwz     r9,1324(r31)
 18019fc:	80 1f 05 28 	lwz     r0,1320(r31)
 1801a00:	7c 09 02 14 	add     r0,r9,r0
 1801a04:	90 1f 05 24 	stw     r0,1316(r31)
 1801a08:	3c 00 01 82 	lis     r0,386
 1801a0c:	7c 09 03 78 	mr      r9,r0
 1801a10:	80 09 c7 fc 	lwz     r0,-14340(r9)
 1801a14:	3d 20 01 82 	lis     r9,386
 1801a18:	39 29 c8 20 	addi    r9,r9,-14304
 1801a1c:	54 00 10 3a 	rlwinm  r0,r0,2,0,29
 1801a20:	7c 09 02 14 	add     r0,r9,r0
 1801a24:	81 3f 05 2c 	lwz     r9,1324(r31)
 1801a28:	7c 0b 03 78 	mr      r11,r0
 1801a2c:	91 2b 00 00 	stw     r9,0(r11)
 1801a30:	3c 00 01 82 	lis     r0,386
 1801a34:	7c 09 03 78 	mr      r9,r0
 1801a38:	80 09 c7 fc 	lwz     r0,-14340(r9)
 1801a3c:	30 00 00 01 	addic   r0,r0,1
 1801a40:	3d 20 01 82 	lis     r9,386
 1801a44:	39 29 c8 20 	addi    r9,r9,-14304
 1801a48:	54 00 10 3a 	rlwinm  r0,r0,2,0,29
 1801a4c:	7c 09 02 14 	add     r0,r9,r0
 1801a50:	81 3f 05 28 	lwz     r9,1320(r31)
 1801a54:	7c 0b 03 78 	mr      r11,r0
 1801a58:	91 2b 00 00 	stw     r9,0(r11)
 1801a5c:	3c 00 01 82 	lis     r0,386
 1801a60:	7c 09 03 78 	mr      r9,r0
 1801a64:	80 09 c7 fc 	lwz     r0,-14340(r9)
 1801a68:	30 00 00 02 	addic   r0,r0,2
 1801a6c:	3d 20 01 82 	lis     r9,386
 1801a70:	39 29 c8 20 	addi    r9,r9,-14304
 1801a74:	54 00 10 3a 	rlwinm  r0,r0,2,0,29
 1801a78:	7c 09 02 14 	add     r0,r9,r0
 1801a7c:	81 3f 05 24 	lwz     r9,1316(r31)
 1801a80:	7c 0b 03 78 	mr      r11,r0
 1801a84:	91 2b 00 00 	stw     r9,0(r11)
 1801a88:	3c 00 01 82 	lis     r0,386
 1801a8c:	7c 09 03 78 	mr      r9,r0
 1801a90:	80 09 c7 fc 	lwz     r0,-14340(r9)
 1801a94:	31 20 00 03 	addic   r9,r0,3
 1801a98:	3c 00 01 82 	lis     r0,386
 1801a9c:	7c 0b 03 78 	mr      r11,r0
 1801aa0:	91 2b c7 fc 	stw     r9,-14340(r11)
 1801aa4:	3c 00 01 82 	lis     r0,386
 1801aa8:	7c 09 03 78 	mr      r9,r0
 1801aac:	80 09 c7 f8 	lwz     r0,-14344(r9)
 1801ab0:	2f 80 00 03 	cmpwi   cr7,r0,3
 1801ab4:	40 9d 01 6c 	ble-    cr7,1801c20 <main+0x1a00>
 1801ab8:	3c 00 01 82 	lis     r0,386
 1801abc:	7c 0b 03 78 	mr      r11,r0
 1801ac0:	80 0b c7 fc 	lwz     r0,-14340(r11)
 1801ac4:	30 00 00 03 	addic   r0,r0,3
 1801ac8:	2f 80 00 06 	cmpwi   cr7,r0,6
 1801acc:	41 9d 01 54 	bgt-    cr7,1801c20 <main+0x1a00>
 1801ad0:	3c 00 01 82 	lis     r0,386
 1801ad4:	30 00 c8 44 	addic   r0,r0,-14268
 1801ad8:	7c 0b 03 78 	mr      r11,r0
 1801adc:	81 2b 00 0c 	lwz     r9,12(r11)
 1801ae0:	3c 00 01 82 	lis     r0,386
 1801ae4:	30 00 c8 44 	addic   r0,r0,-14268
 1801ae8:	7c 0b 03 78 	mr      r11,r0
 1801aec:	80 0b 00 08 	lwz     r0,8(r11)
 1801af0:	7f 89 00 00 	cmpw    cr7,r9,r0
 1801af4:	40 9e 01 2c 	bne-    cr7,1801c20 <main+0x1a00>
 1801af8:	3c 00 01 82 	lis     r0,386
 1801afc:	30 00 c8 44 	addic   r0,r0,-14268
 1801b00:	7c 0b 03 78 	mr      r11,r0
 1801b04:	81 2b 00 0c 	lwz     r9,12(r11)
 1801b08:	3c 00 01 82 	lis     r0,386
 1801b0c:	30 00 c8 44 	addic   r0,r0,-14268
 1801b10:	7c 0b 03 78 	mr      r11,r0
 1801b14:	80 0b 00 00 	lwz     r0,0(r11)
 1801b18:	7f 89 00 00 	cmpw    cr7,r9,r0
 1801b1c:	40 9e 01 04 	bne-    cr7,1801c20 <main+0x1a00>
 1801b20:	3c 00 01 82 	lis     r0,386
 1801b24:	30 00 c8 44 	addic   r0,r0,-14268
 1801b28:	7c 09 03 78 	mr      r9,r0
 1801b2c:	80 09 00 04 	lwz     r0,4(r9)
 1801b30:	90 1f 05 20 	stw     r0,1312(r31)
 1801b34:	3c 00 01 82 	lis     r0,386
 1801b38:	30 00 c8 44 	addic   r0,r0,-14268
 1801b3c:	7c 0b 03 78 	mr      r11,r0
 1801b40:	80 0b 00 0c 	lwz     r0,12(r11)
 1801b44:	90 1f 05 1c 	stw     r0,1308(r31)
 1801b48:	81 3f 05 1c 	lwz     r9,1308(r31)
 1801b4c:	80 1f 05 20 	lwz     r0,1312(r31)
 1801b50:	7f 89 00 00 	cmpw    cr7,r9,r0
 1801b54:	40 9d 00 cc 	ble-    cr7,1801c20 <main+0x1a00>
 1801b58:	3c 00 01 82 	lis     r0,386
 1801b5c:	7c 09 03 78 	mr      r9,r0
 1801b60:	80 09 c7 f8 	lwz     r0,-14344(r9)
 1801b64:	31 20 ff fc 	addic   r9,r0,-4
 1801b68:	3c 00 01 82 	lis     r0,386
 1801b6c:	7c 0b 03 78 	mr      r11,r0
 1801b70:	91 2b c7 f8 	stw     r9,-14344(r11)
 1801b74:	81 3f 05 20 	lwz     r9,1312(r31)
 1801b78:	80 1f 05 1c 	lwz     r0,1308(r31)
 1801b7c:	7c 09 02 14 	add     r0,r9,r0
 1801b80:	90 1f 05 18 	stw     r0,1304(r31)
 1801b84:	3c 00 01 82 	lis     r0,386
 1801b88:	7c 09 03 78 	mr      r9,r0
 1801b8c:	80 09 c7 fc 	lwz     r0,-14340(r9)
 1801b90:	3d 20 01 82 	lis     r9,386
 1801b94:	39 29 c8 20 	addi    r9,r9,-14304
 1801b98:	54 00 10 3a 	rlwinm  r0,r0,2,0,29
 1801b9c:	7c 09 02 14 	add     r0,r9,r0
 1801ba0:	81 3f 05 20 	lwz     r9,1312(r31)
 1801ba4:	7c 0b 03 78 	mr      r11,r0
 1801ba8:	91 2b 00 00 	stw     r9,0(r11)
 1801bac:	3c 00 01 82 	lis     r0,386
 1801bb0:	7c 09 03 78 	mr      r9,r0
 1801bb4:	80 09 c7 fc 	lwz     r0,-14340(r9)
 1801bb8:	30 00 00 01 	addic   r0,r0,1
 1801bbc:	3d 20 01 82 	lis     r9,386
 1801bc0:	39 29 c8 20 	addi    r9,r9,-14304
 1801bc4:	54 00 10 3a 	rlwinm  r0,r0,2,0,29
 1801bc8:	7c 09 02 14 	add     r0,r9,r0
 1801bcc:	81 3f 05 1c 	lwz     r9,1308(r31)
 1801bd0:	7c 0b 03 78 	mr      r11,r0
 1801bd4:	91 2b 00 00 	stw     r9,0(r11)
 1801bd8:	3c 00 01 82 	lis     r0,386
 1801bdc:	7c 09 03 78 	mr      r9,r0
 1801be0:	80 09 c7 fc 	lwz     r0,-14340(r9)
 1801be4:	30 00 00 02 	addic   r0,r0,2
 1801be8:	3d 20 01 82 	lis     r9,386
 1801bec:	39 29 c8 20 	addi    r9,r9,-14304
 1801bf0:	54 00 10 3a 	rlwinm  r0,r0,2,0,29
 1801bf4:	7c 09 02 14 	add     r0,r9,r0
 1801bf8:	81 3f 05 18 	lwz     r9,1304(r31)
 1801bfc:	7c 0b 03 78 	mr      r11,r0
 1801c00:	91 2b 00 00 	stw     r9,0(r11)
 1801c04:	3c 00 01 82 	lis     r0,386
 1801c08:	7c 09 03 78 	mr      r9,r0
 1801c0c:	80 09 c7 fc 	lwz     r0,-14340(r9)
 1801c10:	31 20 00 03 	addic   r9,r0,3
 1801c14:	3c 00 01 82 	lis     r0,386
 1801c18:	7c 0b 03 78 	mr      r11,r0
 1801c1c:	91 2b c7 fc 	stw     r9,-14340(r11)
 1801c20:	3c 00 01 82 	lis     r0,386
 1801c24:	7c 09 03 78 	mr      r9,r0
 1801c28:	80 09 c7 f8 	lwz     r0,-14344(r9)
 1801c2c:	2f 80 00 03 	cmpwi   cr7,r0,3
 1801c30:	40 9d 01 6c 	ble-    cr7,1801d9c <main+0x1b7c>
 1801c34:	3c 00 01 82 	lis     r0,386
 1801c38:	7c 0b 03 78 	mr      r11,r0
 1801c3c:	80 0b c7 fc 	lwz     r0,-14340(r11)
 1801c40:	30 00 00 03 	addic   r0,r0,3
 1801c44:	2f 80 00 06 	cmpwi   cr7,r0,6
 1801c48:	41 9d 01 54 	bgt-    cr7,1801d9c <main+0x1b7c>
 1801c4c:	3c 00 01 82 	lis     r0,386
 1801c50:	30 00 c8 44 	addic   r0,r0,-14268
 1801c54:	7c 0b 03 78 	mr      r11,r0
 1801c58:	81 2b 00 00 	lwz     r9,0(r11)
 1801c5c:	3c 00 01 82 	lis     r0,386
 1801c60:	30 00 c8 44 	addic   r0,r0,-14268
 1801c64:	7c 0b 03 78 	mr      r11,r0
 1801c68:	80 0b 00 04 	lwz     r0,4(r11)
 1801c6c:	7f 89 00 00 	cmpw    cr7,r9,r0
 1801c70:	40 9e 01 2c 	bne-    cr7,1801d9c <main+0x1b7c>
 1801c74:	3c 00 01 82 	lis     r0,386
 1801c78:	30 00 c8 44 	addic   r0,r0,-14268
 1801c7c:	7c 0b 03 78 	mr      r11,r0
 1801c80:	81 2b 00 00 	lwz     r9,0(r11)
 1801c84:	3c 00 01 82 	lis     r0,386
 1801c88:	30 00 c8 44 	addic   r0,r0,-14268
 1801c8c:	7c 0b 03 78 	mr      r11,r0
 1801c90:	80 0b 00 0c 	lwz     r0,12(r11)
 1801c94:	7f 89 00 00 	cmpw    cr7,r9,r0
 1801c98:	40 9e 01 04 	bne-    cr7,1801d9c <main+0x1b7c>
 1801c9c:	3c 00 01 82 	lis     r0,386
 1801ca0:	30 00 c8 44 	addic   r0,r0,-14268
 1801ca4:	7c 09 03 78 	mr      r9,r0
 1801ca8:	80 09 00 08 	lwz     r0,8(r9)
 1801cac:	90 1f 05 14 	stw     r0,1300(r31)
 1801cb0:	3c 00 01 82 	lis     r0,386
 1801cb4:	30 00 c8 44 	addic   r0,r0,-14268
 1801cb8:	7c 0b 03 78 	mr      r11,r0
 1801cbc:	80 0b 00 00 	lwz     r0,0(r11)
 1801cc0:	90 1f 05 10 	stw     r0,1296(r31)
 1801cc4:	81 3f 05 10 	lwz     r9,1296(r31)
 1801cc8:	80 1f 05 14 	lwz     r0,1300(r31)
 1801ccc:	7f 89 00 00 	cmpw    cr7,r9,r0
 1801cd0:	40 9d 00 cc 	ble-    cr7,1801d9c <main+0x1b7c>
 1801cd4:	3c 00 01 82 	lis     r0,386
 1801cd8:	7c 09 03 78 	mr      r9,r0
 1801cdc:	80 09 c7 f8 	lwz     r0,-14344(r9)
 1801ce0:	31 20 ff fc 	addic   r9,r0,-4
 1801ce4:	3c 00 01 82 	lis     r0,386
 1801ce8:	7c 0b 03 78 	mr      r11,r0
 1801cec:	91 2b c7 f8 	stw     r9,-14344(r11)
 1801cf0:	81 3f 05 14 	lwz     r9,1300(r31)
 1801cf4:	80 1f 05 10 	lwz     r0,1296(r31)
 1801cf8:	7c 09 02 14 	add     r0,r9,r0
 1801cfc:	90 1f 05 0c 	stw     r0,1292(r31)
 1801d00:	3c 00 01 82 	lis     r0,386
 1801d04:	7c 09 03 78 	mr      r9,r0
 1801d08:	80 09 c7 fc 	lwz     r0,-14340(r9)
 1801d0c:	3d 20 01 82 	lis     r9,386
 1801d10:	39 29 c8 20 	addi    r9,r9,-14304
 1801d14:	54 00 10 3a 	rlwinm  r0,r0,2,0,29
 1801d18:	7c 09 02 14 	add     r0,r9,r0
 1801d1c:	81 3f 05 14 	lwz     r9,1300(r31)
 1801d20:	7c 0b 03 78 	mr      r11,r0
 1801d24:	91 2b 00 00 	stw     r9,0(r11)
 1801d28:	3c 00 01 82 	lis     r0,386
 1801d2c:	7c 09 03 78 	mr      r9,r0
 1801d30:	80 09 c7 fc 	lwz     r0,-14340(r9)
 1801d34:	30 00 00 01 	addic   r0,r0,1
 1801d38:	3d 20 01 82 	lis     r9,386
 1801d3c:	39 29 c8 20 	addi    r9,r9,-14304
 1801d40:	54 00 10 3a 	rlwinm  r0,r0,2,0,29
 1801d44:	7c 09 02 14 	add     r0,r9,r0
 1801d48:	81 3f 05 10 	lwz     r9,1296(r31)
 1801d4c:	7c 0b 03 78 	mr      r11,r0
 1801d50:	91 2b 00 00 	stw     r9,0(r11)
 1801d54:	3c 00 01 82 	lis     r0,386
 1801d58:	7c 09 03 78 	mr      r9,r0
 1801d5c:	80 09 c7 fc 	lwz     r0,-14340(r9)
 1801d60:	30 00 00 02 	addic   r0,r0,2
 1801d64:	3d 20 01 82 	lis     r9,386
 1801d68:	39 29 c8 20 	addi    r9,r9,-14304
 1801d6c:	54 00 10 3a 	rlwinm  r0,r0,2,0,29
 1801d70:	7c 09 02 14 	add     r0,r9,r0
 1801d74:	81 3f 05 0c 	lwz     r9,1292(r31)
 1801d78:	7c 0b 03 78 	mr      r11,r0
 1801d7c:	91 2b 00 00 	stw     r9,0(r11)
 1801d80:	3c 00 01 82 	lis     r0,386
 1801d84:	7c 09 03 78 	mr      r9,r0
 1801d88:	80 09 c7 fc 	lwz     r0,-14340(r9)
 1801d8c:	31 20 00 03 	addic   r9,r0,3
 1801d90:	3c 00 01 82 	lis     r0,386
 1801d94:	7c 0b 03 78 	mr      r11,r0
 1801d98:	91 2b c7 fc 	stw     r9,-14340(r11)
 1801d9c:	3c 00 01 82 	lis     r0,386
 1801da0:	7c 09 03 78 	mr      r9,r0
 1801da4:	80 09 c7 f8 	lwz     r0,-14344(r9)
 1801da8:	2f 80 00 03 	cmpwi   cr7,r0,3
 1801dac:	40 9d 01 6c 	ble-    cr7,1801f18 <main+0x1cf8>
 1801db0:	3c 00 01 82 	lis     r0,386
 1801db4:	7c 0b 03 78 	mr      r11,r0
 1801db8:	80 0b c7 fc 	lwz     r0,-14340(r11)
 1801dbc:	30 00 00 03 	addic   r0,r0,3
 1801dc0:	2f 80 00 06 	cmpwi   cr7,r0,6
 1801dc4:	41 9d 01 54 	bgt-    cr7,1801f18 <main+0x1cf8>
 1801dc8:	3c 00 01 82 	lis     r0,386
 1801dcc:	30 00 c8 44 	addic   r0,r0,-14268
 1801dd0:	7c 0b 03 78 	mr      r11,r0
 1801dd4:	81 2b 00 00 	lwz     r9,0(r11)
 1801dd8:	3c 00 01 82 	lis     r0,386
 1801ddc:	30 00 c8 44 	addic   r0,r0,-14268
 1801de0:	7c 0b 03 78 	mr      r11,r0
 1801de4:	80 0b 00 0c 	lwz     r0,12(r11)
 1801de8:	7f 89 00 00 	cmpw    cr7,r9,r0
 1801dec:	40 9e 01 2c 	bne-    cr7,1801f18 <main+0x1cf8>
 1801df0:	3c 00 01 82 	lis     r0,386
 1801df4:	30 00 c8 44 	addic   r0,r0,-14268
 1801df8:	7c 0b 03 78 	mr      r11,r0
 1801dfc:	81 2b 00 00 	lwz     r9,0(r11)
 1801e00:	3c 00 01 82 	lis     r0,386
 1801e04:	30 00 c8 44 	addic   r0,r0,-14268
 1801e08:	7c 0b 03 78 	mr      r11,r0
 1801e0c:	80 0b 00 04 	lwz     r0,4(r11)
 1801e10:	7f 89 00 00 	cmpw    cr7,r9,r0
 1801e14:	40 9e 01 04 	bne-    cr7,1801f18 <main+0x1cf8>
 1801e18:	3c 00 01 82 	lis     r0,386
 1801e1c:	30 00 c8 44 	addic   r0,r0,-14268
 1801e20:	7c 09 03 78 	mr      r9,r0
 1801e24:	80 09 00 08 	lwz     r0,8(r9)
 1801e28:	90 1f 05 08 	stw     r0,1288(r31)
 1801e2c:	3c 00 01 82 	lis     r0,386
 1801e30:	30 00 c8 44 	addic   r0,r0,-14268
 1801e34:	7c 0b 03 78 	mr      r11,r0
 1801e38:	80 0b 00 00 	lwz     r0,0(r11)
 1801e3c:	90 1f 05 04 	stw     r0,1284(r31)
 1801e40:	81 3f 05 04 	lwz     r9,1284(r31)
 1801e44:	80 1f 05 08 	lwz     r0,1288(r31)
 1801e48:	7f 89 00 00 	cmpw    cr7,r9,r0
 1801e4c:	40 9d 00 cc 	ble-    cr7,1801f18 <main+0x1cf8>
 1801e50:	3c 00 01 82 	lis     r0,386
 1801e54:	7c 09 03 78 	mr      r9,r0
 1801e58:	80 09 c7 f8 	lwz     r0,-14344(r9)
 1801e5c:	31 20 ff fc 	addic   r9,r0,-4
 1801e60:	3c 00 01 82 	lis     r0,386
 1801e64:	7c 0b 03 78 	mr      r11,r0
 1801e68:	91 2b c7 f8 	stw     r9,-14344(r11)
 1801e6c:	81 3f 05 08 	lwz     r9,1288(r31)
 1801e70:	80 1f 05 04 	lwz     r0,1284(r31)
 1801e74:	7c 09 02 14 	add     r0,r9,r0
 1801e78:	90 1f 05 00 	stw     r0,1280(r31)
 1801e7c:	3c 00 01 82 	lis     r0,386
 1801e80:	7c 09 03 78 	mr      r9,r0
 1801e84:	80 09 c7 fc 	lwz     r0,-14340(r9)
 1801e88:	3d 20 01 82 	lis     r9,386
 1801e8c:	39 29 c8 20 	addi    r9,r9,-14304
 1801e90:	54 00 10 3a 	rlwinm  r0,r0,2,0,29
 1801e94:	7c 09 02 14 	add     r0,r9,r0
 1801e98:	81 3f 05 08 	lwz     r9,1288(r31)
 1801e9c:	7c 0b 03 78 	mr      r11,r0
 1801ea0:	91 2b 00 00 	stw     r9,0(r11)
 1801ea4:	3c 00 01 82 	lis     r0,386
 1801ea8:	7c 09 03 78 	mr      r9,r0
 1801eac:	80 09 c7 fc 	lwz     r0,-14340(r9)
 1801eb0:	30 00 00 01 	addic   r0,r0,1
 1801eb4:	3d 20 01 82 	lis     r9,386
 1801eb8:	39 29 c8 20 	addi    r9,r9,-14304
 1801ebc:	54 00 10 3a 	rlwinm  r0,r0,2,0,29
 1801ec0:	7c 09 02 14 	add     r0,r9,r0
 1801ec4:	81 3f 05 04 	lwz     r9,1284(r31)
 1801ec8:	7c 0b 03 78 	mr      r11,r0
 1801ecc:	91 2b 00 00 	stw     r9,0(r11)
 1801ed0:	3c 00 01 82 	lis     r0,386
 1801ed4:	7c 09 03 78 	mr      r9,r0
 1801ed8:	80 09 c7 fc 	lwz     r0,-14340(r9)
 1801edc:	30 00 00 02 	addic   r0,r0,2
 1801ee0:	3d 20 01 82 	lis     r9,386
 1801ee4:	39 29 c8 20 	addi    r9,r9,-14304
 1801ee8:	54 00 10 3a 	rlwinm  r0,r0,2,0,29
 1801eec:	7c 09 02 14 	add     r0,r9,r0
 1801ef0:	81 3f 05 00 	lwz     r9,1280(r31)
 1801ef4:	7c 0b 03 78 	mr      r11,r0
 1801ef8:	91 2b 00 00 	stw     r9,0(r11)
 1801efc:	3c 00 01 82 	lis     r0,386
 1801f00:	7c 09 03 78 	mr      r9,r0
 1801f04:	80 09 c7 fc 	lwz     r0,-14340(r9)
 1801f08:	31 20 00 03 	addic   r9,r0,3
 1801f0c:	3c 00 01 82 	lis     r0,386
 1801f10:	7c 0b 03 78 	mr      r11,r0
 1801f14:	91 2b c7 fc 	stw     r9,-14340(r11)
 1801f18:	3c 00 01 82 	lis     r0,386
 1801f1c:	7c 09 03 78 	mr      r9,r0
 1801f20:	80 09 c7 f8 	lwz     r0,-14344(r9)
 1801f24:	2f 80 00 03 	cmpwi   cr7,r0,3
 1801f28:	40 9d 01 6c 	ble-    cr7,1802094 <main+0x1e74>
 1801f2c:	3c 00 01 82 	lis     r0,386
 1801f30:	7c 0b 03 78 	mr      r11,r0
 1801f34:	80 0b c7 fc 	lwz     r0,-14340(r11)
 1801f38:	30 00 00 03 	addic   r0,r0,3
 1801f3c:	2f 80 00 06 	cmpwi   cr7,r0,6
 1801f40:	41 9d 01 54 	bgt-    cr7,1802094 <main+0x1e74>
 1801f44:	3c 00 01 82 	lis     r0,386
 1801f48:	30 00 c8 44 	addic   r0,r0,-14268
 1801f4c:	7c 0b 03 78 	mr      r11,r0
 1801f50:	81 2b 00 04 	lwz     r9,4(r11)
 1801f54:	3c 00 01 82 	lis     r0,386
 1801f58:	30 00 c8 44 	addic   r0,r0,-14268
 1801f5c:	7c 0b 03 78 	mr      r11,r0
 1801f60:	80 0b 00 00 	lwz     r0,0(r11)
 1801f64:	7f 89 00 00 	cmpw    cr7,r9,r0
 1801f68:	40 9e 01 2c 	bne-    cr7,1802094 <main+0x1e74>
 1801f6c:	3c 00 01 82 	lis     r0,386
 1801f70:	30 00 c8 44 	addic   r0,r0,-14268
 1801f74:	7c 0b 03 78 	mr      r11,r0
 1801f78:	81 2b 00 04 	lwz     r9,4(r11)
 1801f7c:	3c 00 01 82 	lis     r0,386
 1801f80:	30 00 c8 44 	addic   r0,r0,-14268
 1801f84:	7c 0b 03 78 	mr      r11,r0
 1801f88:	80 0b 00 0c 	lwz     r0,12(r11)
 1801f8c:	7f 89 00 00 	cmpw    cr7,r9,r0
 1801f90:	40 9e 01 04 	bne-    cr7,1802094 <main+0x1e74>
 1801f94:	3c 00 01 82 	lis     r0,386
 1801f98:	30 00 c8 44 	addic   r0,r0,-14268
 1801f9c:	7c 09 03 78 	mr      r9,r0
 1801fa0:	80 09 00 08 	lwz     r0,8(r9)
 1801fa4:	90 1f 04 fc 	stw     r0,1276(r31)
 1801fa8:	3c 00 01 82 	lis     r0,386
 1801fac:	30 00 c8 44 	addic   r0,r0,-14268
 1801fb0:	7c 0b 03 78 	mr      r11,r0
 1801fb4:	80 0b 00 04 	lwz     r0,4(r11)
 1801fb8:	90 1f 04 f8 	stw     r0,1272(r31)
 1801fbc:	81 3f 04 f8 	lwz     r9,1272(r31)
 1801fc0:	80 1f 04 fc 	lwz     r0,1276(r31)
 1801fc4:	7f 89 00 00 	cmpw    cr7,r9,r0
 1801fc8:	40 9d 00 cc 	ble-    cr7,1802094 <main+0x1e74>
 1801fcc:	3c 00 01 82 	lis     r0,386
 1801fd0:	7c 09 03 78 	mr      r9,r0
 1801fd4:	80 09 c7 f8 	lwz     r0,-14344(r9)
 1801fd8:	31 20 ff fc 	addic   r9,r0,-4
 1801fdc:	3c 00 01 82 	lis     r0,386
 1801fe0:	7c 0b 03 78 	mr      r11,r0
 1801fe4:	91 2b c7 f8 	stw     r9,-14344(r11)
 1801fe8:	81 3f 04 fc 	lwz     r9,1276(r31)
 1801fec:	80 1f 04 f8 	lwz     r0,1272(r31)
 1801ff0:	7c 09 02 14 	add     r0,r9,r0
 1801ff4:	90 1f 04 f4 	stw     r0,1268(r31)
 1801ff8:	3c 00 01 82 	lis     r0,386
 1801ffc:	7c 09 03 78 	mr      r9,r0
 1802000:	80 09 c7 fc 	lwz     r0,-14340(r9)
 1802004:	3d 20 01 82 	lis     r9,386
 1802008:	39 29 c8 20 	addi    r9,r9,-14304
 180200c:	54 00 10 3a 	rlwinm  r0,r0,2,0,29
 1802010:	7c 09 02 14 	add     r0,r9,r0
 1802014:	81 3f 04 fc 	lwz     r9,1276(r31)
 1802018:	7c 0b 03 78 	mr      r11,r0
 180201c:	91 2b 00 00 	stw     r9,0(r11)
 1802020:	3c 00 01 82 	lis     r0,386
 1802024:	7c 09 03 78 	mr      r9,r0
 1802028:	80 09 c7 fc 	lwz     r0,-14340(r9)
 180202c:	30 00 00 01 	addic   r0,r0,1
 1802030:	3d 20 01 82 	lis     r9,386
 1802034:	39 29 c8 20 	addi    r9,r9,-14304
 1802038:	54 00 10 3a 	rlwinm  r0,r0,2,0,29
 180203c:	7c 09 02 14 	add     r0,r9,r0
 1802040:	81 3f 04 f8 	lwz     r9,1272(r31)
 1802044:	7c 0b 03 78 	mr      r11,r0
 1802048:	91 2b 00 00 	stw     r9,0(r11)
 180204c:	3c 00 01 82 	lis     r0,386
 1802050:	7c 09 03 78 	mr      r9,r0
 1802054:	80 09 c7 fc 	lwz     r0,-14340(r9)
 1802058:	30 00 00 02 	addic   r0,r0,2
 180205c:	3d 20 01 82 	lis     r9,386
 1802060:	39 29 c8 20 	addi    r9,r9,-14304
 1802064:	54 00 10 3a 	rlwinm  r0,r0,2,0,29
 1802068:	7c 09 02 14 	add     r0,r9,r0
 180206c:	81 3f 04 f4 	lwz     r9,1268(r31)
 1802070:	7c 0b 03 78 	mr      r11,r0
 1802074:	91 2b 00 00 	stw     r9,0(r11)
 1802078:	3c 00 01 82 	lis     r0,386
 180207c:	7c 09 03 78 	mr      r9,r0
 1802080:	80 09 c7 fc 	lwz     r0,-14340(r9)
 1802084:	31 20 00 03 	addic   r9,r0,3
 1802088:	3c 00 01 82 	lis     r0,386
 180208c:	7c 0b 03 78 	mr      r11,r0
 1802090:	91 2b c7 fc 	stw     r9,-14340(r11)
 1802094:	3c 00 01 82 	lis     r0,386
 1802098:	7c 09 03 78 	mr      r9,r0
 180209c:	80 09 c7 f8 	lwz     r0,-14344(r9)
 18020a0:	2f 80 00 03 	cmpwi   cr7,r0,3
 18020a4:	40 9d 01 6c 	ble-    cr7,1802210 <main+0x1ff0>
 18020a8:	3c 00 01 82 	lis     r0,386
 18020ac:	7c 0b 03 78 	mr      r11,r0
 18020b0:	80 0b c7 fc 	lwz     r0,-14340(r11)
 18020b4:	30 00 00 03 	addic   r0,r0,3
 18020b8:	2f 80 00 06 	cmpwi   cr7,r0,6
 18020bc:	41 9d 01 54 	bgt-    cr7,1802210 <main+0x1ff0>
 18020c0:	3c 00 01 82 	lis     r0,386
 18020c4:	30 00 c8 44 	addic   r0,r0,-14268
 18020c8:	7c 0b 03 78 	mr      r11,r0
 18020cc:	81 2b 00 04 	lwz     r9,4(r11)
 18020d0:	3c 00 01 82 	lis     r0,386
 18020d4:	30 00 c8 44 	addic   r0,r0,-14268
 18020d8:	7c 0b 03 78 	mr      r11,r0
 18020dc:	80 0b 00 0c 	lwz     r0,12(r11)
 18020e0:	7f 89 00 00 	cmpw    cr7,r9,r0
 18020e4:	40 9e 01 2c 	bne-    cr7,1802210 <main+0x1ff0>
 18020e8:	3c 00 01 82 	lis     r0,386
 18020ec:	30 00 c8 44 	addic   r0,r0,-14268
 18020f0:	7c 0b 03 78 	mr      r11,r0
 18020f4:	81 2b 00 04 	lwz     r9,4(r11)
 18020f8:	3c 00 01 82 	lis     r0,386
 18020fc:	30 00 c8 44 	addic   r0,r0,-14268
 1802100:	7c 0b 03 78 	mr      r11,r0
 1802104:	80 0b 00 00 	lwz     r0,0(r11)
 1802108:	7f 89 00 00 	cmpw    cr7,r9,r0
 180210c:	40 9e 01 04 	bne-    cr7,1802210 <main+0x1ff0>
 1802110:	3c 00 01 82 	lis     r0,386
 1802114:	30 00 c8 44 	addic   r0,r0,-14268
 1802118:	7c 09 03 78 	mr      r9,r0
 180211c:	80 09 00 08 	lwz     r0,8(r9)
 1802120:	90 1f 04 f0 	stw     r0,1264(r31)
 1802124:	3c 00 01 82 	lis     r0,386
 1802128:	30 00 c8 44 	addic   r0,r0,-14268
 180212c:	7c 0b 03 78 	mr      r11,r0
 1802130:	80 0b 00 04 	lwz     r0,4(r11)
 1802134:	90 1f 04 ec 	stw     r0,1260(r31)
 1802138:	81 3f 04 ec 	lwz     r9,1260(r31)
 180213c:	80 1f 04 f0 	lwz     r0,1264(r31)
 1802140:	7f 89 00 00 	cmpw    cr7,r9,r0
 1802144:	40 9d 00 cc 	ble-    cr7,1802210 <main+0x1ff0>
 1802148:	3c 00 01 82 	lis     r0,386
 180214c:	7c 09 03 78 	mr      r9,r0
 1802150:	80 09 c7 f8 	lwz     r0,-14344(r9)
 1802154:	31 20 ff fc 	addic   r9,r0,-4
 1802158:	3c 00 01 82 	lis     r0,386
 180215c:	7c 0b 03 78 	mr      r11,r0
 1802160:	91 2b c7 f8 	stw     r9,-14344(r11)
 1802164:	81 3f 04 f0 	lwz     r9,1264(r31)
 1802168:	80 1f 04 ec 	lwz     r0,1260(r31)
 180216c:	7c 09 02 14 	add     r0,r9,r0
 1802170:	90 1f 04 e8 	stw     r0,1256(r31)
 1802174:	3c 00 01 82 	lis     r0,386
 1802178:	7c 09 03 78 	mr      r9,r0
 180217c:	80 09 c7 fc 	lwz     r0,-14340(r9)
 1802180:	3d 20 01 82 	lis     r9,386
 1802184:	39 29 c8 20 	addi    r9,r9,-14304
 1802188:	54 00 10 3a 	rlwinm  r0,r0,2,0,29
 180218c:	7c 09 02 14 	add     r0,r9,r0
 1802190:	81 3f 04 f0 	lwz     r9,1264(r31)
 1802194:	7c 0b 03 78 	mr      r11,r0
 1802198:	91 2b 00 00 	stw     r9,0(r11)
 180219c:	3c 00 01 82 	lis     r0,386
 18021a0:	7c 09 03 78 	mr      r9,r0
 18021a4:	80 09 c7 fc 	lwz     r0,-14340(r9)
 18021a8:	30 00 00 01 	addic   r0,r0,1
 18021ac:	3d 20 01 82 	lis     r9,386
 18021b0:	39 29 c8 20 	addi    r9,r9,-14304
 18021b4:	54 00 10 3a 	rlwinm  r0,r0,2,0,29
 18021b8:	7c 09 02 14 	add     r0,r9,r0
 18021bc:	81 3f 04 ec 	lwz     r9,1260(r31)
 18021c0:	7c 0b 03 78 	mr      r11,r0
 18021c4:	91 2b 00 00 	stw     r9,0(r11)
 18021c8:	3c 00 01 82 	lis     r0,386
 18021cc:	7c 09 03 78 	mr      r9,r0
 18021d0:	80 09 c7 fc 	lwz     r0,-14340(r9)
 18021d4:	30 00 00 02 	addic   r0,r0,2
 18021d8:	3d 20 01 82 	lis     r9,386
 18021dc:	39 29 c8 20 	addi    r9,r9,-14304
 18021e0:	54 00 10 3a 	rlwinm  r0,r0,2,0,29
 18021e4:	7c 09 02 14 	add     r0,r9,r0
 18021e8:	81 3f 04 e8 	lwz     r9,1256(r31)
 18021ec:	7c 0b 03 78 	mr      r11,r0
 18021f0:	91 2b 00 00 	stw     r9,0(r11)
 18021f4:	3c 00 01 82 	lis     r0,386
 18021f8:	7c 09 03 78 	mr      r9,r0
 18021fc:	80 09 c7 fc 	lwz     r0,-14340(r9)
 1802200:	31 20 00 03 	addic   r9,r0,3
 1802204:	3c 00 01 82 	lis     r0,386
 1802208:	7c 0b 03 78 	mr      r11,r0
 180220c:	91 2b c7 fc 	stw     r9,-14340(r11)
 1802210:	3c 00 01 82 	lis     r0,386
 1802214:	7c 09 03 78 	mr      r9,r0
 1802218:	80 09 c7 f8 	lwz     r0,-14344(r9)
 180221c:	2f 80 00 03 	cmpwi   cr7,r0,3
 1802220:	40 9d 01 6c 	ble-    cr7,180238c <main+0x216c>
 1802224:	3c 00 01 82 	lis     r0,386
 1802228:	7c 0b 03 78 	mr      r11,r0
 180222c:	80 0b c7 fc 	lwz     r0,-14340(r11)
 1802230:	30 00 00 03 	addic   r0,r0,3
 1802234:	2f 80 00 06 	cmpwi   cr7,r0,6
 1802238:	41 9d 01 54 	bgt-    cr7,180238c <main+0x216c>
 180223c:	3c 00 01 82 	lis     r0,386
 1802240:	30 00 c8 44 	addic   r0,r0,-14268
 1802244:	7c 0b 03 78 	mr      r11,r0
 1802248:	81 2b 00 0c 	lwz     r9,12(r11)
 180224c:	3c 00 01 82 	lis     r0,386
 1802250:	30 00 c8 44 	addic   r0,r0,-14268
 1802254:	7c 0b 03 78 	mr      r11,r0
 1802258:	80 0b 00 00 	lwz     r0,0(r11)
 180225c:	7f 89 00 00 	cmpw    cr7,r9,r0
 1802260:	40 9e 01 2c 	bne-    cr7,180238c <main+0x216c>
 1802264:	3c 00 01 82 	lis     r0,386
 1802268:	30 00 c8 44 	addic   r0,r0,-14268
 180226c:	7c 0b 03 78 	mr      r11,r0
 1802270:	81 2b 00 0c 	lwz     r9,12(r11)
 1802274:	3c 00 01 82 	lis     r0,386
 1802278:	30 00 c8 44 	addic   r0,r0,-14268
 180227c:	7c 0b 03 78 	mr      r11,r0
 1802280:	80 0b 00 04 	lwz     r0,4(r11)
 1802284:	7f 89 00 00 	cmpw    cr7,r9,r0
 1802288:	40 9e 01 04 	bne-    cr7,180238c <main+0x216c>
 180228c:	3c 00 01 82 	lis     r0,386
 1802290:	30 00 c8 44 	addic   r0,r0,-14268
 1802294:	7c 09 03 78 	mr      r9,r0
 1802298:	80 09 00 08 	lwz     r0,8(r9)
 180229c:	90 1f 04 e4 	stw     r0,1252(r31)
 18022a0:	3c 00 01 82 	lis     r0,386
 18022a4:	30 00 c8 44 	addic   r0,r0,-14268
 18022a8:	7c 0b 03 78 	mr      r11,r0
 18022ac:	80 0b 00 0c 	lwz     r0,12(r11)
 18022b0:	90 1f 04 e0 	stw     r0,1248(r31)
 18022b4:	81 3f 04 e0 	lwz     r9,1248(r31)
 18022b8:	80 1f 04 e4 	lwz     r0,1252(r31)
 18022bc:	7f 89 00 00 	cmpw    cr7,r9,r0
 18022c0:	40 9d 00 cc 	ble-    cr7,180238c <main+0x216c>
 18022c4:	3c 00 01 82 	lis     r0,386
 18022c8:	7c 09 03 78 	mr      r9,r0
 18022cc:	80 09 c7 f8 	lwz     r0,-14344(r9)
 18022d0:	31 20 ff fc 	addic   r9,r0,-4
 18022d4:	3c 00 01 82 	lis     r0,386
 18022d8:	7c 0b 03 78 	mr      r11,r0
 18022dc:	91 2b c7 f8 	stw     r9,-14344(r11)
 18022e0:	81 3f 04 e4 	lwz     r9,1252(r31)
 18022e4:	80 1f 04 e0 	lwz     r0,1248(r31)
 18022e8:	7c 09 02 14 	add     r0,r9,r0
 18022ec:	90 1f 04 dc 	stw     r0,1244(r31)
 18022f0:	3c 00 01 82 	lis     r0,386
 18022f4:	7c 09 03 78 	mr      r9,r0
 18022f8:	80 09 c7 fc 	lwz     r0,-14340(r9)
 18022fc:	3d 20 01 82 	lis     r9,386
 1802300:	39 29 c8 20 	addi    r9,r9,-14304
 1802304:	54 00 10 3a 	rlwinm  r0,r0,2,0,29
 1802308:	7c 09 02 14 	add     r0,r9,r0
 180230c:	81 3f 04 e4 	lwz     r9,1252(r31)
 1802310:	7c 0b 03 78 	mr      r11,r0
 1802314:	91 2b 00 00 	stw     r9,0(r11)
 1802318:	3c 00 01 82 	lis     r0,386
 180231c:	7c 09 03 78 	mr      r9,r0
 1802320:	80 09 c7 fc 	lwz     r0,-14340(r9)
 1802324:	30 00 00 01 	addic   r0,r0,1
 1802328:	3d 20 01 82 	lis     r9,386
 180232c:	39 29 c8 20 	addi    r9,r9,-14304
 1802330:	54 00 10 3a 	rlwinm  r0,r0,2,0,29
 1802334:	7c 09 02 14 	add     r0,r9,r0
 1802338:	81 3f 04 e0 	lwz     r9,1248(r31)
 180233c:	7c 0b 03 78 	mr      r11,r0
 1802340:	91 2b 00 00 	stw     r9,0(r11)
 1802344:	3c 00 01 82 	lis     r0,386
 1802348:	7c 09 03 78 	mr      r9,r0
 180234c:	80 09 c7 fc 	lwz     r0,-14340(r9)
 1802350:	30 00 00 02 	addic   r0,r0,2
 1802354:	3d 20 01 82 	lis     r9,386
 1802358:	39 29 c8 20 	addi    r9,r9,-14304
 180235c:	54 00 10 3a 	rlwinm  r0,r0,2,0,29
 1802360:	7c 09 02 14 	add     r0,r9,r0
 1802364:	81 3f 04 dc 	lwz     r9,1244(r31)
 1802368:	7c 0b 03 78 	mr      r11,r0
 180236c:	91 2b 00 00 	stw     r9,0(r11)
 1802370:	3c 00 01 82 	lis     r0,386
 1802374:	7c 09 03 78 	mr      r9,r0
 1802378:	80 09 c7 fc 	lwz     r0,-14340(r9)
 180237c:	31 20 00 03 	addic   r9,r0,3
 1802380:	3c 00 01 82 	lis     r0,386
 1802384:	7c 0b 03 78 	mr      r11,r0
 1802388:	91 2b c7 fc 	stw     r9,-14340(r11)
 180238c:	3c 00 01 82 	lis     r0,386
 1802390:	7c 09 03 78 	mr      r9,r0
 1802394:	80 09 c7 f8 	lwz     r0,-14344(r9)
 1802398:	2f 80 00 03 	cmpwi   cr7,r0,3
 180239c:	40 9d 01 6c 	ble-    cr7,1802508 <main+0x22e8>
 18023a0:	3c 00 01 82 	lis     r0,386
 18023a4:	7c 0b 03 78 	mr      r11,r0
 18023a8:	80 0b c7 fc 	lwz     r0,-14340(r11)
 18023ac:	30 00 00 03 	addic   r0,r0,3
 18023b0:	2f 80 00 06 	cmpwi   cr7,r0,6
 18023b4:	41 9d 01 54 	bgt-    cr7,1802508 <main+0x22e8>
 18023b8:	3c 00 01 82 	lis     r0,386
 18023bc:	30 00 c8 44 	addic   r0,r0,-14268
 18023c0:	7c 0b 03 78 	mr      r11,r0
 18023c4:	81 2b 00 0c 	lwz     r9,12(r11)
 18023c8:	3c 00 01 82 	lis     r0,386
 18023cc:	30 00 c8 44 	addic   r0,r0,-14268
 18023d0:	7c 0b 03 78 	mr      r11,r0
 18023d4:	80 0b 00 04 	lwz     r0,4(r11)
 18023d8:	7f 89 00 00 	cmpw    cr7,r9,r0
 18023dc:	40 9e 01 2c 	bne-    cr7,1802508 <main+0x22e8>
 18023e0:	3c 00 01 82 	lis     r0,386
 18023e4:	30 00 c8 44 	addic   r0,r0,-14268
 18023e8:	7c 0b 03 78 	mr      r11,r0
 18023ec:	81 2b 00 0c 	lwz     r9,12(r11)
 18023f0:	3c 00 01 82 	lis     r0,386
 18023f4:	30 00 c8 44 	addic   r0,r0,-14268
 18023f8:	7c 0b 03 78 	mr      r11,r0
 18023fc:	80 0b 00 00 	lwz     r0,0(r11)
 1802400:	7f 89 00 00 	cmpw    cr7,r9,r0
 1802404:	40 9e 01 04 	bne-    cr7,1802508 <main+0x22e8>
 1802408:	3c 00 01 82 	lis     r0,386
 180240c:	30 00 c8 44 	addic   r0,r0,-14268
 1802410:	7c 09 03 78 	mr      r9,r0
 1802414:	80 09 00 08 	lwz     r0,8(r9)
 1802418:	90 1f 04 d8 	stw     r0,1240(r31)
 180241c:	3c 00 01 82 	lis     r0,386
 1802420:	30 00 c8 44 	addic   r0,r0,-14268
 1802424:	7c 0b 03 78 	mr      r11,r0
 1802428:	80 0b 00 0c 	lwz     r0,12(r11)
 180242c:	90 1f 04 d4 	stw     r0,1236(r31)
 1802430:	81 3f 04 d4 	lwz     r9,1236(r31)
 1802434:	80 1f 04 d8 	lwz     r0,1240(r31)
 1802438:	7f 89 00 00 	cmpw    cr7,r9,r0
 180243c:	40 9d 00 cc 	ble-    cr7,1802508 <main+0x22e8>
 1802440:	3c 00 01 82 	lis     r0,386
 1802444:	7c 09 03 78 	mr      r9,r0
 1802448:	80 09 c7 f8 	lwz     r0,-14344(r9)
 180244c:	31 20 ff fc 	addic   r9,r0,-4
 1802450:	3c 00 01 82 	lis     r0,386
 1802454:	7c 0b 03 78 	mr      r11,r0
 1802458:	91 2b c7 f8 	stw     r9,-14344(r11)
 180245c:	81 3f 04 d8 	lwz     r9,1240(r31)
 1802460:	80 1f 04 d4 	lwz     r0,1236(r31)
 1802464:	7c 09 02 14 	add     r0,r9,r0
 1802468:	90 1f 04 d0 	stw     r0,1232(r31)
 180246c:	3c 00 01 82 	lis     r0,386
 1802470:	7c 09 03 78 	mr      r9,r0
 1802474:	80 09 c7 fc 	lwz     r0,-14340(r9)
 1802478:	3d 20 01 82 	lis     r9,386
 180247c:	39 29 c8 20 	addi    r9,r9,-14304
 1802480:	54 00 10 3a 	rlwinm  r0,r0,2,0,29
 1802484:	7c 09 02 14 	add     r0,r9,r0
 1802488:	81 3f 04 d8 	lwz     r9,1240(r31)
 180248c:	7c 0b 03 78 	mr      r11,r0
 1802490:	91 2b 00 00 	stw     r9,0(r11)
 1802494:	3c 00 01 82 	lis     r0,386
 1802498:	7c 09 03 78 	mr      r9,r0
 180249c:	80 09 c7 fc 	lwz     r0,-14340(r9)
 18024a0:	30 00 00 01 	addic   r0,r0,1
 18024a4:	3d 20 01 82 	lis     r9,386
 18024a8:	39 29 c8 20 	addi    r9,r9,-14304
 18024ac:	54 00 10 3a 	rlwinm  r0,r0,2,0,29
 18024b0:	7c 09 02 14 	add     r0,r9,r0
 18024b4:	81 3f 04 d4 	lwz     r9,1236(r31)
 18024b8:	7c 0b 03 78 	mr      r11,r0
 18024bc:	91 2b 00 00 	stw     r9,0(r11)
 18024c0:	3c 00 01 82 	lis     r0,386
 18024c4:	7c 09 03 78 	mr      r9,r0
 18024c8:	80 09 c7 fc 	lwz     r0,-14340(r9)
 18024cc:	30 00 00 02 	addic   r0,r0,2
 18024d0:	3d 20 01 82 	lis     r9,386
 18024d4:	39 29 c8 20 	addi    r9,r9,-14304
 18024d8:	54 00 10 3a 	rlwinm  r0,r0,2,0,29
 18024dc:	7c 09 02 14 	add     r0,r9,r0
 18024e0:	81 3f 04 d0 	lwz     r9,1232(r31)
 18024e4:	7c 0b 03 78 	mr      r11,r0
 18024e8:	91 2b 00 00 	stw     r9,0(r11)
 18024ec:	3c 00 01 82 	lis     r0,386
 18024f0:	7c 09 03 78 	mr      r9,r0
 18024f4:	80 09 c7 fc 	lwz     r0,-14340(r9)
 18024f8:	31 20 00 03 	addic   r9,r0,3
 18024fc:	3c 00 01 82 	lis     r0,386
 1802500:	7c 0b 03 78 	mr      r11,r0
 1802504:	91 2b c7 fc 	stw     r9,-14340(r11)
 1802508:	3c 00 01 82 	lis     r0,386
 180250c:	7c 09 03 78 	mr      r9,r0
 1802510:	80 09 c7 f8 	lwz     r0,-14344(r9)
 1802514:	2f 80 00 03 	cmpwi   cr7,r0,3
 1802518:	40 9d 01 6c 	ble-    cr7,1802684 <main+0x2464>
 180251c:	3c 00 01 82 	lis     r0,386
 1802520:	7c 0b 03 78 	mr      r11,r0
 1802524:	80 0b c7 fc 	lwz     r0,-14340(r11)
 1802528:	30 00 00 03 	addic   r0,r0,3
 180252c:	2f 80 00 06 	cmpwi   cr7,r0,6
 1802530:	41 9d 01 54 	bgt-    cr7,1802684 <main+0x2464>
 1802534:	3c 00 01 82 	lis     r0,386
 1802538:	30 00 c8 44 	addic   r0,r0,-14268
 180253c:	7c 0b 03 78 	mr      r11,r0
 1802540:	81 2b 00 00 	lwz     r9,0(r11)
 1802544:	3c 00 01 82 	lis     r0,386
 1802548:	30 00 c8 44 	addic   r0,r0,-14268
 180254c:	7c 0b 03 78 	mr      r11,r0
 1802550:	80 0b 00 04 	lwz     r0,4(r11)
 1802554:	7f 89 00 00 	cmpw    cr7,r9,r0
 1802558:	40 9e 01 2c 	bne-    cr7,1802684 <main+0x2464>
 180255c:	3c 00 01 82 	lis     r0,386
 1802560:	30 00 c8 44 	addic   r0,r0,-14268
 1802564:	7c 0b 03 78 	mr      r11,r0
 1802568:	81 2b 00 00 	lwz     r9,0(r11)
 180256c:	3c 00 01 82 	lis     r0,386
 1802570:	30 00 c8 44 	addic   r0,r0,-14268
 1802574:	7c 0b 03 78 	mr      r11,r0
 1802578:	80 0b 00 08 	lwz     r0,8(r11)
 180257c:	7f 89 00 00 	cmpw    cr7,r9,r0
 1802580:	40 9e 01 04 	bne-    cr7,1802684 <main+0x2464>
 1802584:	3c 00 01 82 	lis     r0,386
 1802588:	30 00 c8 44 	addic   r0,r0,-14268
 180258c:	7c 09 03 78 	mr      r9,r0
 1802590:	80 09 00 0c 	lwz     r0,12(r9)
 1802594:	90 1f 04 cc 	stw     r0,1228(r31)
 1802598:	3c 00 01 82 	lis     r0,386
 180259c:	30 00 c8 44 	addic   r0,r0,-14268
 18025a0:	7c 0b 03 78 	mr      r11,r0
 18025a4:	80 0b 00 00 	lwz     r0,0(r11)
 18025a8:	90 1f 04 c8 	stw     r0,1224(r31)
 18025ac:	81 3f 04 c8 	lwz     r9,1224(r31)
 18025b0:	80 1f 04 cc 	lwz     r0,1228(r31)
 18025b4:	7f 89 00 00 	cmpw    cr7,r9,r0
 18025b8:	40 9d 00 cc 	ble-    cr7,1802684 <main+0x2464>
 18025bc:	3c 00 01 82 	lis     r0,386
 18025c0:	7c 09 03 78 	mr      r9,r0
 18025c4:	80 09 c7 f8 	lwz     r0,-14344(r9)
 18025c8:	31 20 ff fc 	addic   r9,r0,-4
 18025cc:	3c 00 01 82 	lis     r0,386
 18025d0:	7c 0b 03 78 	mr      r11,r0
 18025d4:	91 2b c7 f8 	stw     r9,-14344(r11)
 18025d8:	81 3f 04 cc 	lwz     r9,1228(r31)
 18025dc:	80 1f 04 c8 	lwz     r0,1224(r31)
 18025e0:	7c 09 02 14 	add     r0,r9,r0
 18025e4:	90 1f 04 c4 	stw     r0,1220(r31)
 18025e8:	3c 00 01 82 	lis     r0,386
 18025ec:	7c 09 03 78 	mr      r9,r0
 18025f0:	80 09 c7 fc 	lwz     r0,-14340(r9)
 18025f4:	3d 20 01 82 	lis     r9,386
 18025f8:	39 29 c8 20 	addi    r9,r9,-14304
 18025fc:	54 00 10 3a 	rlwinm  r0,r0,2,0,29
 1802600:	7c 09 02 14 	add     r0,r9,r0
 1802604:	81 3f 04 cc 	lwz     r9,1228(r31)
 1802608:	7c 0b 03 78 	mr      r11,r0
 180260c:	91 2b 00 00 	stw     r9,0(r11)
 1802610:	3c 00 01 82 	lis     r0,386
 1802614:	7c 09 03 78 	mr      r9,r0
 1802618:	80 09 c7 fc 	lwz     r0,-14340(r9)
 180261c:	30 00 00 01 	addic   r0,r0,1
 1802620:	3d 20 01 82 	lis     r9,386
 1802624:	39 29 c8 20 	addi    r9,r9,-14304
 1802628:	54 00 10 3a 	rlwinm  r0,r0,2,0,29
 180262c:	7c 09 02 14 	add     r0,r9,r0
 1802630:	81 3f 04 c8 	lwz     r9,1224(r31)
 1802634:	7c 0b 03 78 	mr      r11,r0
 1802638:	91 2b 00 00 	stw     r9,0(r11)
 180263c:	3c 00 01 82 	lis     r0,386
 1802640:	7c 09 03 78 	mr      r9,r0
 1802644:	80 09 c7 fc 	lwz     r0,-14340(r9)
 1802648:	30 00 00 02 	addic   r0,r0,2
 180264c:	3d 20 01 82 	lis     r9,386
 1802650:	39 29 c8 20 	addi    r9,r9,-14304
 1802654:	54 00 10 3a 	rlwinm  r0,r0,2,0,29
 1802658:	7c 09 02 14 	add     r0,r9,r0
 180265c:	81 3f 04 c4 	lwz     r9,1220(r31)
 1802660:	7c 0b 03 78 	mr      r11,r0
 1802664:	91 2b 00 00 	stw     r9,0(r11)
 1802668:	3c 00 01 82 	lis     r0,386
 180266c:	7c 09 03 78 	mr      r9,r0
 1802670:	80 09 c7 fc 	lwz     r0,-14340(r9)
 1802674:	31 20 00 03 	addic   r9,r0,3
 1802678:	3c 00 01 82 	lis     r0,386
 180267c:	7c 0b 03 78 	mr      r11,r0
 1802680:	91 2b c7 fc 	stw     r9,-14340(r11)
 1802684:	3c 00 01 82 	lis     r0,386
 1802688:	7c 09 03 78 	mr      r9,r0
 180268c:	80 09 c7 f8 	lwz     r0,-14344(r9)
 1802690:	2f 80 00 03 	cmpwi   cr7,r0,3
 1802694:	40 9d 01 6c 	ble-    cr7,1802800 <main+0x25e0>
 1802698:	3c 00 01 82 	lis     r0,386
 180269c:	7c 0b 03 78 	mr      r11,r0
 18026a0:	80 0b c7 fc 	lwz     r0,-14340(r11)
 18026a4:	30 00 00 03 	addic   r0,r0,3
 18026a8:	2f 80 00 06 	cmpwi   cr7,r0,6
 18026ac:	41 9d 01 54 	bgt-    cr7,1802800 <main+0x25e0>
 18026b0:	3c 00 01 82 	lis     r0,386
 18026b4:	30 00 c8 44 	addic   r0,r0,-14268
 18026b8:	7c 0b 03 78 	mr      r11,r0
 18026bc:	81 2b 00 00 	lwz     r9,0(r11)
 18026c0:	3c 00 01 82 	lis     r0,386
 18026c4:	30 00 c8 44 	addic   r0,r0,-14268
 18026c8:	7c 0b 03 78 	mr      r11,r0
 18026cc:	80 0b 00 08 	lwz     r0,8(r11)
 18026d0:	7f 89 00 00 	cmpw    cr7,r9,r0
 18026d4:	40 9e 01 2c 	bne-    cr7,1802800 <main+0x25e0>
 18026d8:	3c 00 01 82 	lis     r0,386
 18026dc:	30 00 c8 44 	addic   r0,r0,-14268
 18026e0:	7c 0b 03 78 	mr      r11,r0
 18026e4:	81 2b 00 00 	lwz     r9,0(r11)
 18026e8:	3c 00 01 82 	lis     r0,386
 18026ec:	30 00 c8 44 	addic   r0,r0,-14268
 18026f0:	7c 0b 03 78 	mr      r11,r0
 18026f4:	80 0b 00 04 	lwz     r0,4(r11)
 18026f8:	7f 89 00 00 	cmpw    cr7,r9,r0
 18026fc:	40 9e 01 04 	bne-    cr7,1802800 <main+0x25e0>
 1802700:	3c 00 01 82 	lis     r0,386
 1802704:	30 00 c8 44 	addic   r0,r0,-14268
 1802708:	7c 09 03 78 	mr      r9,r0
 180270c:	80 09 00 0c 	lwz     r0,12(r9)
 1802710:	90 1f 04 c0 	stw     r0,1216(r31)
 1802714:	3c 00 01 82 	lis     r0,386
 1802718:	30 00 c8 44 	addic   r0,r0,-14268
 180271c:	7c 0b 03 78 	mr      r11,r0
 1802720:	80 0b 00 00 	lwz     r0,0(r11)
 1802724:	90 1f 04 bc 	stw     r0,1212(r31)
 1802728:	81 3f 04 bc 	lwz     r9,1212(r31)
 180272c:	80 1f 04 c0 	lwz     r0,1216(r31)
 1802730:	7f 89 00 00 	cmpw    cr7,r9,r0
 1802734:	40 9d 00 cc 	ble-    cr7,1802800 <main+0x25e0>
 1802738:	3c 00 01 82 	lis     r0,386
 180273c:	7c 09 03 78 	mr      r9,r0
 1802740:	80 09 c7 f8 	lwz     r0,-14344(r9)
 1802744:	31 20 ff fc 	addic   r9,r0,-4
 1802748:	3c 00 01 82 	lis     r0,386
 180274c:	7c 0b 03 78 	mr      r11,r0
 1802750:	91 2b c7 f8 	stw     r9,-14344(r11)
 1802754:	81 3f 04 c0 	lwz     r9,1216(r31)
 1802758:	80 1f 04 bc 	lwz     r0,1212(r31)
 180275c:	7c 09 02 14 	add     r0,r9,r0
 1802760:	90 1f 04 b8 	stw     r0,1208(r31)
 1802764:	3c 00 01 82 	lis     r0,386
 1802768:	7c 09 03 78 	mr      r9,r0
 180276c:	80 09 c7 fc 	lwz     r0,-14340(r9)
 1802770:	3d 20 01 82 	lis     r9,386
 1802774:	39 29 c8 20 	addi    r9,r9,-14304
 1802778:	54 00 10 3a 	rlwinm  r0,r0,2,0,29
 180277c:	7c 09 02 14 	add     r0,r9,r0
 1802780:	81 3f 04 c0 	lwz     r9,1216(r31)
 1802784:	7c 0b 03 78 	mr      r11,r0
 1802788:	91 2b 00 00 	stw     r9,0(r11)
 180278c:	3c 00 01 82 	lis     r0,386
 1802790:	7c 09 03 78 	mr      r9,r0
 1802794:	80 09 c7 fc 	lwz     r0,-14340(r9)
 1802798:	30 00 00 01 	addic   r0,r0,1
 180279c:	3d 20 01 82 	lis     r9,386
 18027a0:	39 29 c8 20 	addi    r9,r9,-14304
 18027a4:	54 00 10 3a 	rlwinm  r0,r0,2,0,29
 18027a8:	7c 09 02 14 	add     r0,r9,r0
 18027ac:	81 3f 04 bc 	lwz     r9,1212(r31)
 18027b0:	7c 0b 03 78 	mr      r11,r0
 18027b4:	91 2b 00 00 	stw     r9,0(r11)
 18027b8:	3c 00 01 82 	lis     r0,386
 18027bc:	7c 09 03 78 	mr      r9,r0
 18027c0:	80 09 c7 fc 	lwz     r0,-14340(r9)
 18027c4:	30 00 00 02 	addic   r0,r0,2
 18027c8:	3d 20 01 82 	lis     r9,386
 18027cc:	39 29 c8 20 	addi    r9,r9,-14304
 18027d0:	54 00 10 3a 	rlwinm  r0,r0,2,0,29
 18027d4:	7c 09 02 14 	add     r0,r9,r0
 18027d8:	81 3f 04 b8 	lwz     r9,1208(r31)
 18027dc:	7c 0b 03 78 	mr      r11,r0
 18027e0:	91 2b 00 00 	stw     r9,0(r11)
 18027e4:	3c 00 01 82 	lis     r0,386
 18027e8:	7c 09 03 78 	mr      r9,r0
 18027ec:	80 09 c7 fc 	lwz     r0,-14340(r9)
 18027f0:	31 20 00 03 	addic   r9,r0,3
 18027f4:	3c 00 01 82 	lis     r0,386
 18027f8:	7c 0b 03 78 	mr      r11,r0
 18027fc:	91 2b c7 fc 	stw     r9,-14340(r11)
 1802800:	3c 00 01 82 	lis     r0,386
 1802804:	7c 09 03 78 	mr      r9,r0
 1802808:	80 09 c7 f8 	lwz     r0,-14344(r9)
 180280c:	2f 80 00 03 	cmpwi   cr7,r0,3
 1802810:	40 9d 01 6c 	ble-    cr7,180297c <main+0x275c>
 1802814:	3c 00 01 82 	lis     r0,386
 1802818:	7c 0b 03 78 	mr      r11,r0
 180281c:	80 0b c7 fc 	lwz     r0,-14340(r11)
 1802820:	30 00 00 03 	addic   r0,r0,3
 1802824:	2f 80 00 06 	cmpwi   cr7,r0,6
 1802828:	41 9d 01 54 	bgt-    cr7,180297c <main+0x275c>
 180282c:	3c 00 01 82 	lis     r0,386
 1802830:	30 00 c8 44 	addic   r0,r0,-14268
 1802834:	7c 0b 03 78 	mr      r11,r0
 1802838:	81 2b 00 04 	lwz     r9,4(r11)
 180283c:	3c 00 01 82 	lis     r0,386
 1802840:	30 00 c8 44 	addic   r0,r0,-14268
 1802844:	7c 0b 03 78 	mr      r11,r0
 1802848:	80 0b 00 00 	lwz     r0,0(r11)
 180284c:	7f 89 00 00 	cmpw    cr7,r9,r0
 1802850:	40 9e 01 2c 	bne-    cr7,180297c <main+0x275c>
 1802854:	3c 00 01 82 	lis     r0,386
 1802858:	30 00 c8 44 	addic   r0,r0,-14268
 180285c:	7c 0b 03 78 	mr      r11,r0
 1802860:	81 2b 00 04 	lwz     r9,4(r11)
 1802864:	3c 00 01 82 	lis     r0,386
 1802868:	30 00 c8 44 	addic   r0,r0,-14268
 180286c:	7c 0b 03 78 	mr      r11,r0
 1802870:	80 0b 00 08 	lwz     r0,8(r11)
 1802874:	7f 89 00 00 	cmpw    cr7,r9,r0
 1802878:	40 9e 01 04 	bne-    cr7,180297c <main+0x275c>
 180287c:	3c 00 01 82 	lis     r0,386
 1802880:	30 00 c8 44 	addic   r0,r0,-14268
 1802884:	7c 09 03 78 	mr      r9,r0
 1802888:	80 09 00 0c 	lwz     r0,12(r9)
 180288c:	90 1f 04 b4 	stw     r0,1204(r31)
 1802890:	3c 00 01 82 	lis     r0,386
 1802894:	30 00 c8 44 	addic   r0,r0,-14268
 1802898:	7c 0b 03 78 	mr      r11,r0
 180289c:	80 0b 00 04 	lwz     r0,4(r11)
 18028a0:	90 1f 04 b0 	stw     r0,1200(r31)
 18028a4:	81 3f 04 b0 	lwz     r9,1200(r31)
 18028a8:	80 1f 04 b4 	lwz     r0,1204(r31)
 18028ac:	7f 89 00 00 	cmpw    cr7,r9,r0
 18028b0:	40 9d 00 cc 	ble-    cr7,180297c <main+0x275c>
 18028b4:	3c 00 01 82 	lis     r0,386
 18028b8:	7c 09 03 78 	mr      r9,r0
 18028bc:	80 09 c7 f8 	lwz     r0,-14344(r9)
 18028c0:	31 20 ff fc 	addic   r9,r0,-4
 18028c4:	3c 00 01 82 	lis     r0,386
 18028c8:	7c 0b 03 78 	mr      r11,r0
 18028cc:	91 2b c7 f8 	stw     r9,-14344(r11)
 18028d0:	81 3f 04 b4 	lwz     r9,1204(r31)
 18028d4:	80 1f 04 b0 	lwz     r0,1200(r31)
 18028d8:	7c 09 02 14 	add     r0,r9,r0
 18028dc:	90 1f 04 ac 	stw     r0,1196(r31)
 18028e0:	3c 00 01 82 	lis     r0,386
 18028e4:	7c 09 03 78 	mr      r9,r0
 18028e8:	80 09 c7 fc 	lwz     r0,-14340(r9)
 18028ec:	3d 20 01 82 	lis     r9,386
 18028f0:	39 29 c8 20 	addi    r9,r9,-14304
 18028f4:	54 00 10 3a 	rlwinm  r0,r0,2,0,29
 18028f8:	7c 09 02 14 	add     r0,r9,r0
 18028fc:	81 3f 04 b4 	lwz     r9,1204(r31)
 1802900:	7c 0b 03 78 	mr      r11,r0
 1802904:	91 2b 00 00 	stw     r9,0(r11)
 1802908:	3c 00 01 82 	lis     r0,386
 180290c:	7c 09 03 78 	mr      r9,r0
 1802910:	80 09 c7 fc 	lwz     r0,-14340(r9)
 1802914:	30 00 00 01 	addic   r0,r0,1
 1802918:	3d 20 01 82 	lis     r9,386
 180291c:	39 29 c8 20 	addi    r9,r9,-14304
 1802920:	54 00 10 3a 	rlwinm  r0,r0,2,0,29
 1802924:	7c 09 02 14 	add     r0,r9,r0
 1802928:	81 3f 04 b0 	lwz     r9,1200(r31)
 180292c:	7c 0b 03 78 	mr      r11,r0
 1802930:	91 2b 00 00 	stw     r9,0(r11)
 1802934:	3c 00 01 82 	lis     r0,386
 1802938:	7c 09 03 78 	mr      r9,r0
 180293c:	80 09 c7 fc 	lwz     r0,-14340(r9)
 1802940:	30 00 00 02 	addic   r0,r0,2
 1802944:	3d 20 01 82 	lis     r9,386
 1802948:	39 29 c8 20 	addi    r9,r9,-14304
 180294c:	54 00 10 3a 	rlwinm  r0,r0,2,0,29
 1802950:	7c 09 02 14 	add     r0,r9,r0
 1802954:	81 3f 04 ac 	lwz     r9,1196(r31)
 1802958:	7c 0b 03 78 	mr      r11,r0
 180295c:	91 2b 00 00 	stw     r9,0(r11)
 1802960:	3c 00 01 82 	lis     r0,386
 1802964:	7c 09 03 78 	mr      r9,r0
 1802968:	80 09 c7 fc 	lwz     r0,-14340(r9)
 180296c:	31 20 00 03 	addic   r9,r0,3
 1802970:	3c 00 01 82 	lis     r0,386
 1802974:	7c 0b 03 78 	mr      r11,r0
 1802978:	91 2b c7 fc 	stw     r9,-14340(r11)
 180297c:	3c 00 01 82 	lis     r0,386
 1802980:	7c 09 03 78 	mr      r9,r0
 1802984:	80 09 c7 f8 	lwz     r0,-14344(r9)
 1802988:	2f 80 00 03 	cmpwi   cr7,r0,3
 180298c:	40 9d 01 6c 	ble-    cr7,1802af8 <main+0x28d8>
 1802990:	3c 00 01 82 	lis     r0,386
 1802994:	7c 0b 03 78 	mr      r11,r0
 1802998:	80 0b c7 fc 	lwz     r0,-14340(r11)
 180299c:	30 00 00 03 	addic   r0,r0,3
 18029a0:	2f 80 00 06 	cmpwi   cr7,r0,6
 18029a4:	41 9d 01 54 	bgt-    cr7,1802af8 <main+0x28d8>
 18029a8:	3c 00 01 82 	lis     r0,386
 18029ac:	30 00 c8 44 	addic   r0,r0,-14268
 18029b0:	7c 0b 03 78 	mr      r11,r0
 18029b4:	81 2b 00 04 	lwz     r9,4(r11)
 18029b8:	3c 00 01 82 	lis     r0,386
 18029bc:	30 00 c8 44 	addic   r0,r0,-14268
 18029c0:	7c 0b 03 78 	mr      r11,r0
 18029c4:	80 0b 00 08 	lwz     r0,8(r11)
 18029c8:	7f 89 00 00 	cmpw    cr7,r9,r0
 18029cc:	40 9e 01 2c 	bne-    cr7,1802af8 <main+0x28d8>
 18029d0:	3c 00 01 82 	lis     r0,386
 18029d4:	30 00 c8 44 	addic   r0,r0,-14268
 18029d8:	7c 0b 03 78 	mr      r11,r0
 18029dc:	81 2b 00 04 	lwz     r9,4(r11)
 18029e0:	3c 00 01 82 	lis     r0,386
 18029e4:	30 00 c8 44 	addic   r0,r0,-14268
 18029e8:	7c 0b 03 78 	mr      r11,r0
 18029ec:	80 0b 00 00 	lwz     r0,0(r11)
 18029f0:	7f 89 00 00 	cmpw    cr7,r9,r0
 18029f4:	40 9e 01 04 	bne-    cr7,1802af8 <main+0x28d8>
 18029f8:	3c 00 01 82 	lis     r0,386
 18029fc:	30 00 c8 44 	addic   r0,r0,-14268
 1802a00:	7c 09 03 78 	mr      r9,r0
 1802a04:	80 09 00 0c 	lwz     r0,12(r9)
 1802a08:	90 1f 04 a8 	stw     r0,1192(r31)
 1802a0c:	3c 00 01 82 	lis     r0,386
 1802a10:	30 00 c8 44 	addic   r0,r0,-14268
 1802a14:	7c 0b 03 78 	mr      r11,r0
 1802a18:	80 0b 00 04 	lwz     r0,4(r11)
 1802a1c:	90 1f 04 a4 	stw     r0,1188(r31)
 1802a20:	81 3f 04 a4 	lwz     r9,1188(r31)
 1802a24:	80 1f 04 a8 	lwz     r0,1192(r31)
 1802a28:	7f 89 00 00 	cmpw    cr7,r9,r0
 1802a2c:	40 9d 00 cc 	ble-    cr7,1802af8 <main+0x28d8>
 1802a30:	3c 00 01 82 	lis     r0,386
 1802a34:	7c 09 03 78 	mr      r9,r0
 1802a38:	80 09 c7 f8 	lwz     r0,-14344(r9)
 1802a3c:	31 20 ff fc 	addic   r9,r0,-4
 1802a40:	3c 00 01 82 	lis     r0,386
 1802a44:	7c 0b 03 78 	mr      r11,r0
 1802a48:	91 2b c7 f8 	stw     r9,-14344(r11)
 1802a4c:	81 3f 04 a8 	lwz     r9,1192(r31)
 1802a50:	80 1f 04 a4 	lwz     r0,1188(r31)
 1802a54:	7c 09 02 14 	add     r0,r9,r0
 1802a58:	90 1f 04 a0 	stw     r0,1184(r31)
 1802a5c:	3c 00 01 82 	lis     r0,386
 1802a60:	7c 09 03 78 	mr      r9,r0
 1802a64:	80 09 c7 fc 	lwz     r0,-14340(r9)
 1802a68:	3d 20 01 82 	lis     r9,386
 1802a6c:	39 29 c8 20 	addi    r9,r9,-14304
 1802a70:	54 00 10 3a 	rlwinm  r0,r0,2,0,29
 1802a74:	7c 09 02 14 	add     r0,r9,r0
 1802a78:	81 3f 04 a8 	lwz     r9,1192(r31)
 1802a7c:	7c 0b 03 78 	mr      r11,r0
 1802a80:	91 2b 00 00 	stw     r9,0(r11)
 1802a84:	3c 00 01 82 	lis     r0,386
 1802a88:	7c 09 03 78 	mr      r9,r0
 1802a8c:	80 09 c7 fc 	lwz     r0,-14340(r9)
 1802a90:	30 00 00 01 	addic   r0,r0,1
 1802a94:	3d 20 01 82 	lis     r9,386
 1802a98:	39 29 c8 20 	addi    r9,r9,-14304
 1802a9c:	54 00 10 3a 	rlwinm  r0,r0,2,0,29
 1802aa0:	7c 09 02 14 	add     r0,r9,r0
 1802aa4:	81 3f 04 a4 	lwz     r9,1188(r31)
 1802aa8:	7c 0b 03 78 	mr      r11,r0
 1802aac:	91 2b 00 00 	stw     r9,0(r11)
 1802ab0:	3c 00 01 82 	lis     r0,386
 1802ab4:	7c 09 03 78 	mr      r9,r0
 1802ab8:	80 09 c7 fc 	lwz     r0,-14340(r9)
 1802abc:	30 00 00 02 	addic   r0,r0,2
 1802ac0:	3d 20 01 82 	lis     r9,386
 1802ac4:	39 29 c8 20 	addi    r9,r9,-14304
 1802ac8:	54 00 10 3a 	rlwinm  r0,r0,2,0,29
 1802acc:	7c 09 02 14 	add     r0,r9,r0
 1802ad0:	81 3f 04 a0 	lwz     r9,1184(r31)
 1802ad4:	7c 0b 03 78 	mr      r11,r0
 1802ad8:	91 2b 00 00 	stw     r9,0(r11)
 1802adc:	3c 00 01 82 	lis     r0,386
 1802ae0:	7c 09 03 78 	mr      r9,r0
 1802ae4:	80 09 c7 fc 	lwz     r0,-14340(r9)
 1802ae8:	31 20 00 03 	addic   r9,r0,3
 1802aec:	3c 00 01 82 	lis     r0,386
 1802af0:	7c 0b 03 78 	mr      r11,r0
 1802af4:	91 2b c7 fc 	stw     r9,-14340(r11)
 1802af8:	3c 00 01 82 	lis     r0,386
 1802afc:	7c 09 03 78 	mr      r9,r0
 1802b00:	80 09 c7 f8 	lwz     r0,-14344(r9)
 1802b04:	2f 80 00 03 	cmpwi   cr7,r0,3
 1802b08:	40 9d 01 6c 	ble-    cr7,1802c74 <main+0x2a54>
 1802b0c:	3c 00 01 82 	lis     r0,386
 1802b10:	7c 0b 03 78 	mr      r11,r0
 1802b14:	80 0b c7 fc 	lwz     r0,-14340(r11)
 1802b18:	30 00 00 03 	addic   r0,r0,3
 1802b1c:	2f 80 00 06 	cmpwi   cr7,r0,6
 1802b20:	41 9d 01 54 	bgt-    cr7,1802c74 <main+0x2a54>
 1802b24:	3c 00 01 82 	lis     r0,386
 1802b28:	30 00 c8 44 	addic   r0,r0,-14268
 1802b2c:	7c 0b 03 78 	mr      r11,r0
 1802b30:	81 2b 00 08 	lwz     r9,8(r11)
 1802b34:	3c 00 01 82 	lis     r0,386
 1802b38:	30 00 c8 44 	addic   r0,r0,-14268
 1802b3c:	7c 0b 03 78 	mr      r11,r0
 1802b40:	80 0b 00 00 	lwz     r0,0(r11)
 1802b44:	7f 89 00 00 	cmpw    cr7,r9,r0
 1802b48:	40 9e 01 2c 	bne-    cr7,1802c74 <main+0x2a54>
 1802b4c:	3c 00 01 82 	lis     r0,386
 1802b50:	30 00 c8 44 	addic   r0,r0,-14268
 1802b54:	7c 0b 03 78 	mr      r11,r0
 1802b58:	81 2b 00 08 	lwz     r9,8(r11)
 1802b5c:	3c 00 01 82 	lis     r0,386
 1802b60:	30 00 c8 44 	addic   r0,r0,-14268
 1802b64:	7c 0b 03 78 	mr      r11,r0
 1802b68:	80 0b 00 04 	lwz     r0,4(r11)
 1802b6c:	7f 89 00 00 	cmpw    cr7,r9,r0
 1802b70:	40 9e 01 04 	bne-    cr7,1802c74 <main+0x2a54>
 1802b74:	3c 00 01 82 	lis     r0,386
 1802b78:	30 00 c8 44 	addic   r0,r0,-14268
 1802b7c:	7c 09 03 78 	mr      r9,r0
 1802b80:	80 09 00 0c 	lwz     r0,12(r9)
 1802b84:	90 1f 04 9c 	stw     r0,1180(r31)
 1802b88:	3c 00 01 82 	lis     r0,386
 1802b8c:	30 00 c8 44 	addic   r0,r0,-14268
 1802b90:	7c 0b 03 78 	mr      r11,r0
 1802b94:	80 0b 00 08 	lwz     r0,8(r11)
 1802b98:	90 1f 04 98 	stw     r0,1176(r31)
 1802b9c:	81 3f 04 98 	lwz     r9,1176(r31)
 1802ba0:	80 1f 04 9c 	lwz     r0,1180(r31)
 1802ba4:	7f 89 00 00 	cmpw    cr7,r9,r0
 1802ba8:	40 9d 00 cc 	ble-    cr7,1802c74 <main+0x2a54>
 1802bac:	3c 00 01 82 	lis     r0,386
 1802bb0:	7c 09 03 78 	mr      r9,r0
 1802bb4:	80 09 c7 f8 	lwz     r0,-14344(r9)
 1802bb8:	31 20 ff fc 	addic   r9,r0,-4
 1802bbc:	3c 00 01 82 	lis     r0,386
 1802bc0:	7c 0b 03 78 	mr      r11,r0
 1802bc4:	91 2b c7 f8 	stw     r9,-14344(r11)
 1802bc8:	81 3f 04 9c 	lwz     r9,1180(r31)
 1802bcc:	80 1f 04 98 	lwz     r0,1176(r31)
 1802bd0:	7c 09 02 14 	add     r0,r9,r0
 1802bd4:	90 1f 04 94 	stw     r0,1172(r31)
 1802bd8:	3c 00 01 82 	lis     r0,386
 1802bdc:	7c 09 03 78 	mr      r9,r0
 1802be0:	80 09 c7 fc 	lwz     r0,-14340(r9)
 1802be4:	3d 20 01 82 	lis     r9,386
 1802be8:	39 29 c8 20 	addi    r9,r9,-14304
 1802bec:	54 00 10 3a 	rlwinm  r0,r0,2,0,29
 1802bf0:	7c 09 02 14 	add     r0,r9,r0
 1802bf4:	81 3f 04 9c 	lwz     r9,1180(r31)
 1802bf8:	7c 0b 03 78 	mr      r11,r0
 1802bfc:	91 2b 00 00 	stw     r9,0(r11)
 1802c00:	3c 00 01 82 	lis     r0,386
 1802c04:	7c 09 03 78 	mr      r9,r0
 1802c08:	80 09 c7 fc 	lwz     r0,-14340(r9)
 1802c0c:	30 00 00 01 	addic   r0,r0,1
 1802c10:	3d 20 01 82 	lis     r9,386
 1802c14:	39 29 c8 20 	addi    r9,r9,-14304
 1802c18:	54 00 10 3a 	rlwinm  r0,r0,2,0,29
 1802c1c:	7c 09 02 14 	add     r0,r9,r0
 1802c20:	81 3f 04 98 	lwz     r9,1176(r31)
 1802c24:	7c 0b 03 78 	mr      r11,r0
 1802c28:	91 2b 00 00 	stw     r9,0(r11)
 1802c2c:	3c 00 01 82 	lis     r0,386
 1802c30:	7c 09 03 78 	mr      r9,r0
 1802c34:	80 09 c7 fc 	lwz     r0,-14340(r9)
 1802c38:	30 00 00 02 	addic   r0,r0,2
 1802c3c:	3d 20 01 82 	lis     r9,386
 1802c40:	39 29 c8 20 	addi    r9,r9,-14304
 1802c44:	54 00 10 3a 	rlwinm  r0,r0,2,0,29
 1802c48:	7c 09 02 14 	add     r0,r9,r0
 1802c4c:	81 3f 04 94 	lwz     r9,1172(r31)
 1802c50:	7c 0b 03 78 	mr      r11,r0
 1802c54:	91 2b 00 00 	stw     r9,0(r11)
 1802c58:	3c 00 01 82 	lis     r0,386
 1802c5c:	7c 09 03 78 	mr      r9,r0
 1802c60:	80 09 c7 fc 	lwz     r0,-14340(r9)
 1802c64:	31 20 00 03 	addic   r9,r0,3
 1802c68:	3c 00 01 82 	lis     r0,386
 1802c6c:	7c 0b 03 78 	mr      r11,r0
 1802c70:	91 2b c7 fc 	stw     r9,-14340(r11)
 1802c74:	3c 00 01 82 	lis     r0,386
 1802c78:	7c 09 03 78 	mr      r9,r0
 1802c7c:	80 09 c7 f8 	lwz     r0,-14344(r9)
 1802c80:	2f 80 00 03 	cmpwi   cr7,r0,3
 1802c84:	40 9d 01 6c 	ble-    cr7,1802df0 <main+0x2bd0>
 1802c88:	3c 00 01 82 	lis     r0,386
 1802c8c:	7c 0b 03 78 	mr      r11,r0
 1802c90:	80 0b c7 fc 	lwz     r0,-14340(r11)
 1802c94:	30 00 00 03 	addic   r0,r0,3
 1802c98:	2f 80 00 06 	cmpwi   cr7,r0,6
 1802c9c:	41 9d 01 54 	bgt-    cr7,1802df0 <main+0x2bd0>
 1802ca0:	3c 00 01 82 	lis     r0,386
 1802ca4:	30 00 c8 44 	addic   r0,r0,-14268
 1802ca8:	7c 0b 03 78 	mr      r11,r0
 1802cac:	81 2b 00 08 	lwz     r9,8(r11)
 1802cb0:	3c 00 01 82 	lis     r0,386
 1802cb4:	30 00 c8 44 	addic   r0,r0,-14268
 1802cb8:	7c 0b 03 78 	mr      r11,r0
 1802cbc:	80 0b 00 04 	lwz     r0,4(r11)
 1802cc0:	7f 89 00 00 	cmpw    cr7,r9,r0
 1802cc4:	40 9e 01 2c 	bne-    cr7,1802df0 <main+0x2bd0>
 1802cc8:	3c 00 01 82 	lis     r0,386
 1802ccc:	30 00 c8 44 	addic   r0,r0,-14268
 1802cd0:	7c 0b 03 78 	mr      r11,r0
 1802cd4:	81 2b 00 08 	lwz     r9,8(r11)
 1802cd8:	3c 00 01 82 	lis     r0,386
 1802cdc:	30 00 c8 44 	addic   r0,r0,-14268
 1802ce0:	7c 0b 03 78 	mr      r11,r0
 1802ce4:	80 0b 00 00 	lwz     r0,0(r11)
 1802ce8:	7f 89 00 00 	cmpw    cr7,r9,r0
 1802cec:	40 9e 01 04 	bne-    cr7,1802df0 <main+0x2bd0>
 1802cf0:	3c 00 01 82 	lis     r0,386
 1802cf4:	30 00 c8 44 	addic   r0,r0,-14268
 1802cf8:	7c 09 03 78 	mr      r9,r0
 1802cfc:	80 09 00 0c 	lwz     r0,12(r9)
 1802d00:	90 1f 04 90 	stw     r0,1168(r31)
 1802d04:	3c 00 01 82 	lis     r0,386
 1802d08:	30 00 c8 44 	addic   r0,r0,-14268
 1802d0c:	7c 0b 03 78 	mr      r11,r0
 1802d10:	80 0b 00 08 	lwz     r0,8(r11)
 1802d14:	90 1f 04 8c 	stw     r0,1164(r31)
 1802d18:	81 3f 04 8c 	lwz     r9,1164(r31)
 1802d1c:	80 1f 04 90 	lwz     r0,1168(r31)
 1802d20:	7f 89 00 00 	cmpw    cr7,r9,r0
 1802d24:	40 9d 00 cc 	ble-    cr7,1802df0 <main+0x2bd0>
 1802d28:	3c 00 01 82 	lis     r0,386
 1802d2c:	7c 09 03 78 	mr      r9,r0
 1802d30:	80 09 c7 f8 	lwz     r0,-14344(r9)
 1802d34:	31 20 ff fc 	addic   r9,r0,-4
 1802d38:	3c 00 01 82 	lis     r0,386
 1802d3c:	7c 0b 03 78 	mr      r11,r0
 1802d40:	91 2b c7 f8 	stw     r9,-14344(r11)
 1802d44:	81 3f 04 90 	lwz     r9,1168(r31)
 1802d48:	80 1f 04 8c 	lwz     r0,1164(r31)
 1802d4c:	7c 09 02 14 	add     r0,r9,r0
 1802d50:	90 1f 04 88 	stw     r0,1160(r31)
 1802d54:	3c 00 01 82 	lis     r0,386
 1802d58:	7c 09 03 78 	mr      r9,r0
 1802d5c:	80 09 c7 fc 	lwz     r0,-14340(r9)
 1802d60:	3d 20 01 82 	lis     r9,386
 1802d64:	39 29 c8 20 	addi    r9,r9,-14304
 1802d68:	54 00 10 3a 	rlwinm  r0,r0,2,0,29
 1802d6c:	7c 09 02 14 	add     r0,r9,r0
 1802d70:	81 3f 04 90 	lwz     r9,1168(r31)
 1802d74:	7c 0b 03 78 	mr      r11,r0
 1802d78:	91 2b 00 00 	stw     r9,0(r11)
 1802d7c:	3c 00 01 82 	lis     r0,386
 1802d80:	7c 09 03 78 	mr      r9,r0
 1802d84:	80 09 c7 fc 	lwz     r0,-14340(r9)
 1802d88:	30 00 00 01 	addic   r0,r0,1
 1802d8c:	3d 20 01 82 	lis     r9,386
 1802d90:	39 29 c8 20 	addi    r9,r9,-14304
 1802d94:	54 00 10 3a 	rlwinm  r0,r0,2,0,29
 1802d98:	7c 09 02 14 	add     r0,r9,r0
 1802d9c:	81 3f 04 8c 	lwz     r9,1164(r31)
 1802da0:	7c 0b 03 78 	mr      r11,r0
 1802da4:	91 2b 00 00 	stw     r9,0(r11)
 1802da8:	3c 00 01 82 	lis     r0,386
 1802dac:	7c 09 03 78 	mr      r9,r0
 1802db0:	80 09 c7 fc 	lwz     r0,-14340(r9)
 1802db4:	30 00 00 02 	addic   r0,r0,2
 1802db8:	3d 20 01 82 	lis     r9,386
 1802dbc:	39 29 c8 20 	addi    r9,r9,-14304
 1802dc0:	54 00 10 3a 	rlwinm  r0,r0,2,0,29
 1802dc4:	7c 09 02 14 	add     r0,r9,r0
 1802dc8:	81 3f 04 88 	lwz     r9,1160(r31)
 1802dcc:	7c 0b 03 78 	mr      r11,r0
 1802dd0:	91 2b 00 00 	stw     r9,0(r11)
 1802dd4:	3c 00 01 82 	lis     r0,386
 1802dd8:	7c 09 03 78 	mr      r9,r0
 1802ddc:	80 09 c7 fc 	lwz     r0,-14340(r9)
 1802de0:	31 20 00 03 	addic   r9,r0,3
 1802de4:	3c 00 01 82 	lis     r0,386
 1802de8:	7c 0b 03 78 	mr      r11,r0
 1802dec:	91 2b c7 fc 	stw     r9,-14340(r11)
 1802df0:	3c 00 01 82 	lis     r0,386
 1802df4:	7c 09 03 78 	mr      r9,r0
 1802df8:	80 09 c7 f8 	lwz     r0,-14344(r9)
 1802dfc:	2f 80 00 04 	cmpwi   cr7,r0,4
 1802e00:	40 9d 01 8c 	ble-    cr7,1802f8c <main+0x2d6c>
 1802e04:	3c 00 01 82 	lis     r0,386
 1802e08:	7c 0b 03 78 	mr      r11,r0
 1802e0c:	80 0b c7 fc 	lwz     r0,-14340(r11)
 1802e10:	30 00 00 03 	addic   r0,r0,3
 1802e14:	2f 80 00 06 	cmpwi   cr7,r0,6
 1802e18:	41 9d 01 74 	bgt-    cr7,1802f8c <main+0x2d6c>
 1802e1c:	3c 00 01 82 	lis     r0,386
 1802e20:	30 00 c8 44 	addic   r0,r0,-14268
 1802e24:	7c 0b 03 78 	mr      r11,r0
 1802e28:	81 2b 00 04 	lwz     r9,4(r11)
 1802e2c:	3c 00 01 82 	lis     r0,386
 1802e30:	30 00 c8 44 	addic   r0,r0,-14268
 1802e34:	7c 0b 03 78 	mr      r11,r0
 1802e38:	80 0b 00 08 	lwz     r0,8(r11)
 1802e3c:	7f 89 00 00 	cmpw    cr7,r9,r0
 1802e40:	40 9e 01 4c 	bne-    cr7,1802f8c <main+0x2d6c>
 1802e44:	3c 00 01 82 	lis     r0,386
 1802e48:	30 00 c8 44 	addic   r0,r0,-14268
 1802e4c:	7c 0b 03 78 	mr      r11,r0
 1802e50:	81 2b 00 04 	lwz     r9,4(r11)
 1802e54:	3c 00 01 82 	lis     r0,386
 1802e58:	30 00 c8 44 	addic   r0,r0,-14268
 1802e5c:	7c 0b 03 78 	mr      r11,r0
 1802e60:	80 0b 00 10 	lwz     r0,16(r11)
 1802e64:	7f 89 00 00 	cmpw    cr7,r9,r0
 1802e68:	40 9e 01 24 	bne-    cr7,1802f8c <main+0x2d6c>
 1802e6c:	3c 00 01 82 	lis     r0,386
 1802e70:	30 00 c8 44 	addic   r0,r0,-14268
 1802e74:	7c 09 03 78 	mr      r9,r0
 1802e78:	80 09 00 00 	lwz     r0,0(r9)
 1802e7c:	90 1f 04 84 	stw     r0,1156(r31)
 1802e80:	3c 00 01 82 	lis     r0,386
 1802e84:	30 00 c8 44 	addic   r0,r0,-14268
 1802e88:	7c 0b 03 78 	mr      r11,r0
 1802e8c:	80 0b 00 04 	lwz     r0,4(r11)
 1802e90:	90 1f 04 80 	stw     r0,1152(r31)
 1802e94:	81 3f 04 80 	lwz     r9,1152(r31)
 1802e98:	80 1f 04 84 	lwz     r0,1156(r31)
 1802e9c:	7f 89 00 00 	cmpw    cr7,r9,r0
 1802ea0:	40 9d 00 ec 	ble-    cr7,1802f8c <main+0x2d6c>
 1802ea4:	3c 00 01 82 	lis     r0,386
 1802ea8:	30 00 c8 44 	addic   r0,r0,-14268
 1802eac:	7c 0b 03 78 	mr      r11,r0
 1802eb0:	81 2b 00 0c 	lwz     r9,12(r11)
 1802eb4:	3c 00 01 82 	lis     r0,386
 1802eb8:	30 00 c8 44 	addic   r0,r0,-14268
 1802ebc:	7c 0b 03 78 	mr      r11,r0
 1802ec0:	91 2b 00 00 	stw     r9,0(r11)
 1802ec4:	3c 00 01 82 	lis     r0,386
 1802ec8:	7c 09 03 78 	mr      r9,r0
 1802ecc:	80 09 c7 f8 	lwz     r0,-14344(r9)
 1802ed0:	31 20 ff fc 	addic   r9,r0,-4
 1802ed4:	3c 00 01 82 	lis     r0,386
 1802ed8:	7c 0b 03 78 	mr      r11,r0
 1802edc:	91 2b c7 f8 	stw     r9,-14344(r11)
 1802ee0:	81 3f 04 84 	lwz     r9,1156(r31)
 1802ee4:	80 1f 04 80 	lwz     r0,1152(r31)
 1802ee8:	7c 09 02 14 	add     r0,r9,r0
 1802eec:	90 1f 04 7c 	stw     r0,1148(r31)
 1802ef0:	3c 00 01 82 	lis     r0,386
 1802ef4:	7c 09 03 78 	mr      r9,r0
 1802ef8:	80 09 c7 fc 	lwz     r0,-14340(r9)
 1802efc:	3d 20 01 82 	lis     r9,386
 1802f00:	39 29 c8 20 	addi    r9,r9,-14304
 1802f04:	54 00 10 3a 	rlwinm  r0,r0,2,0,29
 1802f08:	7c 09 02 14 	add     r0,r9,r0
 1802f0c:	81 3f 04 84 	lwz     r9,1156(r31)
 1802f10:	7c 0b 03 78 	mr      r11,r0
 1802f14:	91 2b 00 00 	stw     r9,0(r11)
 1802f18:	3c 00 01 82 	lis     r0,386
 1802f1c:	7c 09 03 78 	mr      r9,r0
 1802f20:	80 09 c7 fc 	lwz     r0,-14340(r9)
 1802f24:	30 00 00 01 	addic   r0,r0,1
 1802f28:	3d 20 01 82 	lis     r9,386
 1802f2c:	39 29 c8 20 	addi    r9,r9,-14304
 1802f30:	54 00 10 3a 	rlwinm  r0,r0,2,0,29
 1802f34:	7c 09 02 14 	add     r0,r9,r0
 1802f38:	81 3f 04 80 	lwz     r9,1152(r31)
 1802f3c:	7c 0b 03 78 	mr      r11,r0
 1802f40:	91 2b 00 00 	stw     r9,0(r11)
 1802f44:	3c 00 01 82 	lis     r0,386
 1802f48:	7c 09 03 78 	mr      r9,r0
 1802f4c:	80 09 c7 fc 	lwz     r0,-14340(r9)
 1802f50:	30 00 00 02 	addic   r0,r0,2
 1802f54:	3d 20 01 82 	lis     r9,386
 1802f58:	39 29 c8 20 	addi    r9,r9,-14304
 1802f5c:	54 00 10 3a 	rlwinm  r0,r0,2,0,29
 1802f60:	7c 09 02 14 	add     r0,r9,r0
 1802f64:	81 3f 04 7c 	lwz     r9,1148(r31)
 1802f68:	7c 0b 03 78 	mr      r11,r0
 1802f6c:	91 2b 00 00 	stw     r9,0(r11)
 1802f70:	3c 00 01 82 	lis     r0,386
 1802f74:	7c 09 03 78 	mr      r9,r0
 1802f78:	80 09 c7 fc 	lwz     r0,-14340(r9)
 1802f7c:	31 20 00 03 	addic   r9,r0,3
 1802f80:	3c 00 01 82 	lis     r0,386
 1802f84:	7c 0b 03 78 	mr      r11,r0
 1802f88:	91 2b c7 fc 	stw     r9,-14340(r11)
 1802f8c:	3c 00 01 82 	lis     r0,386
 1802f90:	7c 09 03 78 	mr      r9,r0
 1802f94:	80 09 c7 f8 	lwz     r0,-14344(r9)
 1802f98:	2f 80 00 04 	cmpwi   cr7,r0,4
 1802f9c:	40 9d 01 8c 	ble-    cr7,1803128 <main+0x2f08>
 1802fa0:	3c 00 01 82 	lis     r0,386
 1802fa4:	7c 0b 03 78 	mr      r11,r0
 1802fa8:	80 0b c7 fc 	lwz     r0,-14340(r11)
 1802fac:	30 00 00 03 	addic   r0,r0,3
 1802fb0:	2f 80 00 06 	cmpwi   cr7,r0,6
 1802fb4:	41 9d 01 74 	bgt-    cr7,1803128 <main+0x2f08>
 1802fb8:	3c 00 01 82 	lis     r0,386
 1802fbc:	30 00 c8 44 	addic   r0,r0,-14268
 1802fc0:	7c 0b 03 78 	mr      r11,r0
 1802fc4:	81 2b 00 04 	lwz     r9,4(r11)
 1802fc8:	3c 00 01 82 	lis     r0,386
 1802fcc:	30 00 c8 44 	addic   r0,r0,-14268
 1802fd0:	7c 0b 03 78 	mr      r11,r0
 1802fd4:	80 0b 00 0c 	lwz     r0,12(r11)
 1802fd8:	7f 89 00 00 	cmpw    cr7,r9,r0
 1802fdc:	40 9e 01 4c 	bne-    cr7,1803128 <main+0x2f08>
 1802fe0:	3c 00 01 82 	lis     r0,386
 1802fe4:	30 00 c8 44 	addic   r0,r0,-14268
 1802fe8:	7c 0b 03 78 	mr      r11,r0
 1802fec:	81 2b 00 04 	lwz     r9,4(r11)
 1802ff0:	3c 00 01 82 	lis     r0,386
 1802ff4:	30 00 c8 44 	addic   r0,r0,-14268
 1802ff8:	7c 0b 03 78 	mr      r11,r0
 1802ffc:	80 0b 00 10 	lwz     r0,16(r11)
 1803000:	7f 89 00 00 	cmpw    cr7,r9,r0
 1803004:	40 9e 01 24 	bne-    cr7,1803128 <main+0x2f08>
 1803008:	3c 00 01 82 	lis     r0,386
 180300c:	30 00 c8 44 	addic   r0,r0,-14268
 1803010:	7c 09 03 78 	mr      r9,r0
 1803014:	80 09 00 00 	lwz     r0,0(r9)
 1803018:	90 1f 04 78 	stw     r0,1144(r31)
 180301c:	3c 00 01 82 	lis     r0,386
 1803020:	30 00 c8 44 	addic   r0,r0,-14268
 1803024:	7c 0b 03 78 	mr      r11,r0
 1803028:	80 0b 00 04 	lwz     r0,4(r11)
 180302c:	90 1f 04 74 	stw     r0,1140(r31)
 1803030:	81 3f 04 74 	lwz     r9,1140(r31)
 1803034:	80 1f 04 78 	lwz     r0,1144(r31)
 1803038:	7f 89 00 00 	cmpw    cr7,r9,r0
 180303c:	40 9d 00 ec 	ble-    cr7,1803128 <main+0x2f08>
 1803040:	3c 00 01 82 	lis     r0,386
 1803044:	30 00 c8 44 	addic   r0,r0,-14268
 1803048:	7c 0b 03 78 	mr      r11,r0
 180304c:	81 2b 00 08 	lwz     r9,8(r11)
 1803050:	3c 00 01 82 	lis     r0,386
 1803054:	30 00 c8 44 	addic   r0,r0,-14268
 1803058:	7c 0b 03 78 	mr      r11,r0
 180305c:	91 2b 00 00 	stw     r9,0(r11)
 1803060:	3c 00 01 82 	lis     r0,386
 1803064:	7c 09 03 78 	mr      r9,r0
 1803068:	80 09 c7 f8 	lwz     r0,-14344(r9)
 180306c:	31 20 ff fc 	addic   r9,r0,-4
 1803070:	3c 00 01 82 	lis     r0,386
 1803074:	7c 0b 03 78 	mr      r11,r0
 1803078:	91 2b c7 f8 	stw     r9,-14344(r11)
 180307c:	81 3f 04 78 	lwz     r9,1144(r31)
 1803080:	80 1f 04 74 	lwz     r0,1140(r31)
 1803084:	7c 09 02 14 	add     r0,r9,r0
 1803088:	90 1f 04 70 	stw     r0,1136(r31)
 180308c:	3c 00 01 82 	lis     r0,386
 1803090:	7c 09 03 78 	mr      r9,r0
 1803094:	80 09 c7 fc 	lwz     r0,-14340(r9)
 1803098:	3d 20 01 82 	lis     r9,386
 180309c:	39 29 c8 20 	addi    r9,r9,-14304
 18030a0:	54 00 10 3a 	rlwinm  r0,r0,2,0,29
 18030a4:	7c 09 02 14 	add     r0,r9,r0
 18030a8:	81 3f 04 78 	lwz     r9,1144(r31)
 18030ac:	7c 0b 03 78 	mr      r11,r0
 18030b0:	91 2b 00 00 	stw     r9,0(r11)
 18030b4:	3c 00 01 82 	lis     r0,386
 18030b8:	7c 09 03 78 	mr      r9,r0
 18030bc:	80 09 c7 fc 	lwz     r0,-14340(r9)
 18030c0:	30 00 00 01 	addic   r0,r0,1
 18030c4:	3d 20 01 82 	lis     r9,386
 18030c8:	39 29 c8 20 	addi    r9,r9,-14304
 18030cc:	54 00 10 3a 	rlwinm  r0,r0,2,0,29
 18030d0:	7c 09 02 14 	add     r0,r9,r0
 18030d4:	81 3f 04 74 	lwz     r9,1140(r31)
 18030d8:	7c 0b 03 78 	mr      r11,r0
 18030dc:	91 2b 00 00 	stw     r9,0(r11)
 18030e0:	3c 00 01 82 	lis     r0,386
 18030e4:	7c 09 03 78 	mr      r9,r0
 18030e8:	80 09 c7 fc 	lwz     r0,-14340(r9)
 18030ec:	30 00 00 02 	addic   r0,r0,2
 18030f0:	3d 20 01 82 	lis     r9,386
 18030f4:	39 29 c8 20 	addi    r9,r9,-14304
 18030f8:	54 00 10 3a 	rlwinm  r0,r0,2,0,29
 18030fc:	7c 09 02 14 	add     r0,r9,r0
 1803100:	81 3f 04 70 	lwz     r9,1136(r31)
 1803104:	7c 0b 03 78 	mr      r11,r0
 1803108:	91 2b 00 00 	stw     r9,0(r11)
 180310c:	3c 00 01 82 	lis     r0,386
 1803110:	7c 09 03 78 	mr      r9,r0
 1803114:	80 09 c7 fc 	lwz     r0,-14340(r9)
 1803118:	31 20 00 03 	addic   r9,r0,3
 180311c:	3c 00 01 82 	lis     r0,386
 1803120:	7c 0b 03 78 	mr      r11,r0
 1803124:	91 2b c7 fc 	stw     r9,-14340(r11)
 1803128:	3c 00 01 82 	lis     r0,386
 180312c:	7c 09 03 78 	mr      r9,r0
 1803130:	80 09 c7 f8 	lwz     r0,-14344(r9)
 1803134:	2f 80 00 04 	cmpwi   cr7,r0,4
 1803138:	40 9d 01 8c 	ble-    cr7,18032c4 <main+0x30a4>
 180313c:	3c 00 01 82 	lis     r0,386
 1803140:	7c 0b 03 78 	mr      r11,r0
 1803144:	80 0b c7 fc 	lwz     r0,-14340(r11)
 1803148:	30 00 00 03 	addic   r0,r0,3
 180314c:	2f 80 00 06 	cmpwi   cr7,r0,6
 1803150:	41 9d 01 74 	bgt-    cr7,18032c4 <main+0x30a4>
 1803154:	3c 00 01 82 	lis     r0,386
 1803158:	30 00 c8 44 	addic   r0,r0,-14268
 180315c:	7c 0b 03 78 	mr      r11,r0
 1803160:	81 2b 00 04 	lwz     r9,4(r11)
 1803164:	3c 00 01 82 	lis     r0,386
 1803168:	30 00 c8 44 	addic   r0,r0,-14268
 180316c:	7c 0b 03 78 	mr      r11,r0
 1803170:	80 0b 00 10 	lwz     r0,16(r11)
 1803174:	7f 89 00 00 	cmpw    cr7,r9,r0
 1803178:	40 9e 01 4c 	bne-    cr7,18032c4 <main+0x30a4>
 180317c:	3c 00 01 82 	lis     r0,386
 1803180:	30 00 c8 44 	addic   r0,r0,-14268
 1803184:	7c 0b 03 78 	mr      r11,r0
 1803188:	81 2b 00 04 	lwz     r9,4(r11)
 180318c:	3c 00 01 82 	lis     r0,386
 1803190:	30 00 c8 44 	addic   r0,r0,-14268
 1803194:	7c 0b 03 78 	mr      r11,r0
 1803198:	80 0b 00 08 	lwz     r0,8(r11)
 180319c:	7f 89 00 00 	cmpw    cr7,r9,r0
 18031a0:	40 9e 01 24 	bne-    cr7,18032c4 <main+0x30a4>
 18031a4:	3c 00 01 82 	lis     r0,386
 18031a8:	30 00 c8 44 	addic   r0,r0,-14268
 18031ac:	7c 09 03 78 	mr      r9,r0
 18031b0:	80 09 00 00 	lwz     r0,0(r9)
 18031b4:	90 1f 04 6c 	stw     r0,1132(r31)
 18031b8:	3c 00 01 82 	lis     r0,386
 18031bc:	30 00 c8 44 	addic   r0,r0,-14268
 18031c0:	7c 0b 03 78 	mr      r11,r0
 18031c4:	80 0b 00 04 	lwz     r0,4(r11)
 18031c8:	90 1f 04 68 	stw     r0,1128(r31)
 18031cc:	81 3f 04 68 	lwz     r9,1128(r31)
 18031d0:	80 1f 04 6c 	lwz     r0,1132(r31)
 18031d4:	7f 89 00 00 	cmpw    cr7,r9,r0
 18031d8:	40 9d 00 ec 	ble-    cr7,18032c4 <main+0x30a4>
 18031dc:	3c 00 01 82 	lis     r0,386
 18031e0:	30 00 c8 44 	addic   r0,r0,-14268
 18031e4:	7c 0b 03 78 	mr      r11,r0
 18031e8:	81 2b 00 0c 	lwz     r9,12(r11)
 18031ec:	3c 00 01 82 	lis     r0,386
 18031f0:	30 00 c8 44 	addic   r0,r0,-14268
 18031f4:	7c 0b 03 78 	mr      r11,r0
 18031f8:	91 2b 00 00 	stw     r9,0(r11)
 18031fc:	3c 00 01 82 	lis     r0,386
 1803200:	7c 09 03 78 	mr      r9,r0
 1803204:	80 09 c7 f8 	lwz     r0,-14344(r9)
 1803208:	31 20 ff fc 	addic   r9,r0,-4
 180320c:	3c 00 01 82 	lis     r0,386
 1803210:	7c 0b 03 78 	mr      r11,r0
 1803214:	91 2b c7 f8 	stw     r9,-14344(r11)
 1803218:	81 3f 04 6c 	lwz     r9,1132(r31)
 180321c:	80 1f 04 68 	lwz     r0,1128(r31)
 1803220:	7c 09 02 14 	add     r0,r9,r0
 1803224:	90 1f 04 64 	stw     r0,1124(r31)
 1803228:	3c 00 01 82 	lis     r0,386
 180322c:	7c 09 03 78 	mr      r9,r0
 1803230:	80 09 c7 fc 	lwz     r0,-14340(r9)
 1803234:	3d 20 01 82 	lis     r9,386
 1803238:	39 29 c8 20 	addi    r9,r9,-14304
 180323c:	54 00 10 3a 	rlwinm  r0,r0,2,0,29
 1803240:	7c 09 02 14 	add     r0,r9,r0
 1803244:	81 3f 04 6c 	lwz     r9,1132(r31)
 1803248:	7c 0b 03 78 	mr      r11,r0
 180324c:	91 2b 00 00 	stw     r9,0(r11)
 1803250:	3c 00 01 82 	lis     r0,386
 1803254:	7c 09 03 78 	mr      r9,r0
 1803258:	80 09 c7 fc 	lwz     r0,-14340(r9)
 180325c:	30 00 00 01 	addic   r0,r0,1
 1803260:	3d 20 01 82 	lis     r9,386
 1803264:	39 29 c8 20 	addi    r9,r9,-14304
 1803268:	54 00 10 3a 	rlwinm  r0,r0,2,0,29
 180326c:	7c 09 02 14 	add     r0,r9,r0
 1803270:	81 3f 04 68 	lwz     r9,1128(r31)
 1803274:	7c 0b 03 78 	mr      r11,r0
 1803278:	91 2b 00 00 	stw     r9,0(r11)
 180327c:	3c 00 01 82 	lis     r0,386
 1803280:	7c 09 03 78 	mr      r9,r0
 1803284:	80 09 c7 fc 	lwz     r0,-14340(r9)
 1803288:	30 00 00 02 	addic   r0,r0,2
 180328c:	3d 20 01 82 	lis     r9,386
 1803290:	39 29 c8 20 	addi    r9,r9,-14304
 1803294:	54 00 10 3a 	rlwinm  r0,r0,2,0,29
 1803298:	7c 09 02 14 	add     r0,r9,r0
 180329c:	81 3f 04 64 	lwz     r9,1124(r31)
 18032a0:	7c 0b 03 78 	mr      r11,r0
 18032a4:	91 2b 00 00 	stw     r9,0(r11)
 18032a8:	3c 00 01 82 	lis     r0,386
 18032ac:	7c 09 03 78 	mr      r9,r0
 18032b0:	80 09 c7 fc 	lwz     r0,-14340(r9)
 18032b4:	31 20 00 03 	addic   r9,r0,3
 18032b8:	3c 00 01 82 	lis     r0,386
 18032bc:	7c 0b 03 78 	mr      r11,r0
 18032c0:	91 2b c7 fc 	stw     r9,-14340(r11)
 18032c4:	3c 00 01 82 	lis     r0,386
 18032c8:	7c 09 03 78 	mr      r9,r0
 18032cc:	80 09 c7 f8 	lwz     r0,-14344(r9)
 18032d0:	2f 80 00 04 	cmpwi   cr7,r0,4
 18032d4:	40 9d 01 8c 	ble-    cr7,1803460 <main+0x3240>
 18032d8:	3c 00 01 82 	lis     r0,386
 18032dc:	7c 0b 03 78 	mr      r11,r0
 18032e0:	80 0b c7 fc 	lwz     r0,-14340(r11)
 18032e4:	30 00 00 03 	addic   r0,r0,3
 18032e8:	2f 80 00 06 	cmpwi   cr7,r0,6
 18032ec:	41 9d 01 74 	bgt-    cr7,1803460 <main+0x3240>
 18032f0:	3c 00 01 82 	lis     r0,386
 18032f4:	30 00 c8 44 	addic   r0,r0,-14268
 18032f8:	7c 0b 03 78 	mr      r11,r0
 18032fc:	81 2b 00 04 	lwz     r9,4(r11)
 1803300:	3c 00 01 82 	lis     r0,386
 1803304:	30 00 c8 44 	addic   r0,r0,-14268
 1803308:	7c 0b 03 78 	mr      r11,r0
 180330c:	80 0b 00 10 	lwz     r0,16(r11)
 1803310:	7f 89 00 00 	cmpw    cr7,r9,r0
 1803314:	40 9e 01 4c 	bne-    cr7,1803460 <main+0x3240>
 1803318:	3c 00 01 82 	lis     r0,386
 180331c:	30 00 c8 44 	addic   r0,r0,-14268
 1803320:	7c 0b 03 78 	mr      r11,r0
 1803324:	81 2b 00 04 	lwz     r9,4(r11)
 1803328:	3c 00 01 82 	lis     r0,386
 180332c:	30 00 c8 44 	addic   r0,r0,-14268
 1803330:	7c 0b 03 78 	mr      r11,r0
 1803334:	80 0b 00 0c 	lwz     r0,12(r11)
 1803338:	7f 89 00 00 	cmpw    cr7,r9,r0
 180333c:	40 9e 01 24 	bne-    cr7,1803460 <main+0x3240>
 1803340:	3c 00 01 82 	lis     r0,386
 1803344:	30 00 c8 44 	addic   r0,r0,-14268
 1803348:	7c 09 03 78 	mr      r9,r0
 180334c:	80 09 00 00 	lwz     r0,0(r9)
 1803350:	90 1f 04 60 	stw     r0,1120(r31)
 1803354:	3c 00 01 82 	lis     r0,386
 1803358:	30 00 c8 44 	addic   r0,r0,-14268
 180335c:	7c 0b 03 78 	mr      r11,r0
 1803360:	80 0b 00 04 	lwz     r0,4(r11)
 1803364:	90 1f 04 5c 	stw     r0,1116(r31)
 1803368:	81 3f 04 5c 	lwz     r9,1116(r31)
 180336c:	80 1f 04 60 	lwz     r0,1120(r31)
 1803370:	7f 89 00 00 	cmpw    cr7,r9,r0
 1803374:	40 9d 00 ec 	ble-    cr7,1803460 <main+0x3240>
 1803378:	3c 00 01 82 	lis     r0,386
 180337c:	30 00 c8 44 	addic   r0,r0,-14268
 1803380:	7c 0b 03 78 	mr      r11,r0
 1803384:	81 2b 00 08 	lwz     r9,8(r11)
 1803388:	3c 00 01 82 	lis     r0,386
 180338c:	30 00 c8 44 	addic   r0,r0,-14268
 1803390:	7c 0b 03 78 	mr      r11,r0
 1803394:	91 2b 00 00 	stw     r9,0(r11)
 1803398:	3c 00 01 82 	lis     r0,386
 180339c:	7c 09 03 78 	mr      r9,r0
 18033a0:	80 09 c7 f8 	lwz     r0,-14344(r9)
 18033a4:	31 20 ff fc 	addic   r9,r0,-4
 18033a8:	3c 00 01 82 	lis     r0,386
 18033ac:	7c 0b 03 78 	mr      r11,r0
 18033b0:	91 2b c7 f8 	stw     r9,-14344(r11)
 18033b4:	81 3f 04 60 	lwz     r9,1120(r31)
 18033b8:	80 1f 04 5c 	lwz     r0,1116(r31)
 18033bc:	7c 09 02 14 	add     r0,r9,r0
 18033c0:	90 1f 04 58 	stw     r0,1112(r31)
 18033c4:	3c 00 01 82 	lis     r0,386
 18033c8:	7c 09 03 78 	mr      r9,r0
 18033cc:	80 09 c7 fc 	lwz     r0,-14340(r9)
 18033d0:	3d 20 01 82 	lis     r9,386
 18033d4:	39 29 c8 20 	addi    r9,r9,-14304
 18033d8:	54 00 10 3a 	rlwinm  r0,r0,2,0,29
 18033dc:	7c 09 02 14 	add     r0,r9,r0
 18033e0:	81 3f 04 60 	lwz     r9,1120(r31)
 18033e4:	7c 0b 03 78 	mr      r11,r0
 18033e8:	91 2b 00 00 	stw     r9,0(r11)
 18033ec:	3c 00 01 82 	lis     r0,386
 18033f0:	7c 09 03 78 	mr      r9,r0
 18033f4:	80 09 c7 fc 	lwz     r0,-14340(r9)
 18033f8:	30 00 00 01 	addic   r0,r0,1
 18033fc:	3d 20 01 82 	lis     r9,386
 1803400:	39 29 c8 20 	addi    r9,r9,-14304
 1803404:	54 00 10 3a 	rlwinm  r0,r0,2,0,29
 1803408:	7c 09 02 14 	add     r0,r9,r0
 180340c:	81 3f 04 5c 	lwz     r9,1116(r31)
 1803410:	7c 0b 03 78 	mr      r11,r0
 1803414:	91 2b 00 00 	stw     r9,0(r11)
 1803418:	3c 00 01 82 	lis     r0,386
 180341c:	7c 09 03 78 	mr      r9,r0
 1803420:	80 09 c7 fc 	lwz     r0,-14340(r9)
 1803424:	30 00 00 02 	addic   r0,r0,2
 1803428:	3d 20 01 82 	lis     r9,386
 180342c:	39 29 c8 20 	addi    r9,r9,-14304
 1803430:	54 00 10 3a 	rlwinm  r0,r0,2,0,29
 1803434:	7c 09 02 14 	add     r0,r9,r0
 1803438:	81 3f 04 58 	lwz     r9,1112(r31)
 180343c:	7c 0b 03 78 	mr      r11,r0
 1803440:	91 2b 00 00 	stw     r9,0(r11)
 1803444:	3c 00 01 82 	lis     r0,386
 1803448:	7c 09 03 78 	mr      r9,r0
 180344c:	80 09 c7 fc 	lwz     r0,-14340(r9)
 1803450:	31 20 00 03 	addic   r9,r0,3
 1803454:	3c 00 01 82 	lis     r0,386
 1803458:	7c 0b 03 78 	mr      r11,r0
 180345c:	91 2b c7 fc 	stw     r9,-14340(r11)
 1803460:	3c 00 01 82 	lis     r0,386
 1803464:	7c 09 03 78 	mr      r9,r0
 1803468:	80 09 c7 f8 	lwz     r0,-14344(r9)
 180346c:	2f 80 00 04 	cmpwi   cr7,r0,4
 1803470:	40 9d 01 8c 	ble-    cr7,18035fc <main+0x33dc>
 1803474:	3c 00 01 82 	lis     r0,386
 1803478:	7c 0b 03 78 	mr      r11,r0
 180347c:	80 0b c7 fc 	lwz     r0,-14340(r11)
 1803480:	30 00 00 03 	addic   r0,r0,3
 1803484:	2f 80 00 06 	cmpwi   cr7,r0,6
 1803488:	41 9d 01 74 	bgt-    cr7,18035fc <main+0x33dc>
 180348c:	3c 00 01 82 	lis     r0,386
 1803490:	30 00 c8 44 	addic   r0,r0,-14268
 1803494:	7c 0b 03 78 	mr      r11,r0
 1803498:	81 2b 00 08 	lwz     r9,8(r11)
 180349c:	3c 00 01 82 	lis     r0,386
 18034a0:	30 00 c8 44 	addic   r0,r0,-14268
 18034a4:	7c 0b 03 78 	mr      r11,r0
 18034a8:	80 0b 00 04 	lwz     r0,4(r11)
 18034ac:	7f 89 00 00 	cmpw    cr7,r9,r0
 18034b0:	40 9e 01 4c 	bne-    cr7,18035fc <main+0x33dc>
 18034b4:	3c 00 01 82 	lis     r0,386
 18034b8:	30 00 c8 44 	addic   r0,r0,-14268
 18034bc:	7c 0b 03 78 	mr      r11,r0
 18034c0:	81 2b 00 08 	lwz     r9,8(r11)
 18034c4:	3c 00 01 82 	lis     r0,386
 18034c8:	30 00 c8 44 	addic   r0,r0,-14268
 18034cc:	7c 0b 03 78 	mr      r11,r0
 18034d0:	80 0b 00 10 	lwz     r0,16(r11)
 18034d4:	7f 89 00 00 	cmpw    cr7,r9,r0
 18034d8:	40 9e 01 24 	bne-    cr7,18035fc <main+0x33dc>
 18034dc:	3c 00 01 82 	lis     r0,386
 18034e0:	30 00 c8 44 	addic   r0,r0,-14268
 18034e4:	7c 09 03 78 	mr      r9,r0
 18034e8:	80 09 00 00 	lwz     r0,0(r9)
 18034ec:	90 1f 04 54 	stw     r0,1108(r31)
 18034f0:	3c 00 01 82 	lis     r0,386
 18034f4:	30 00 c8 44 	addic   r0,r0,-14268
 18034f8:	7c 0b 03 78 	mr      r11,r0
 18034fc:	80 0b 00 08 	lwz     r0,8(r11)
 1803500:	90 1f 04 50 	stw     r0,1104(r31)
 1803504:	81 3f 04 50 	lwz     r9,1104(r31)
 1803508:	80 1f 04 54 	lwz     r0,1108(r31)
 180350c:	7f 89 00 00 	cmpw    cr7,r9,r0
 1803510:	40 9d 00 ec 	ble-    cr7,18035fc <main+0x33dc>
 1803514:	3c 00 01 82 	lis     r0,386
 1803518:	30 00 c8 44 	addic   r0,r0,-14268
 180351c:	7c 0b 03 78 	mr      r11,r0
 1803520:	81 2b 00 0c 	lwz     r9,12(r11)
 1803524:	3c 00 01 82 	lis     r0,386
 1803528:	30 00 c8 44 	addic   r0,r0,-14268
 180352c:	7c 0b 03 78 	mr      r11,r0
 1803530:	91 2b 00 00 	stw     r9,0(r11)
 1803534:	3c 00 01 82 	lis     r0,386
 1803538:	7c 09 03 78 	mr      r9,r0
 180353c:	80 09 c7 f8 	lwz     r0,-14344(r9)
 1803540:	31 20 ff fc 	addic   r9,r0,-4
 1803544:	3c 00 01 82 	lis     r0,386
 1803548:	7c 0b 03 78 	mr      r11,r0
 180354c:	91 2b c7 f8 	stw     r9,-14344(r11)
 1803550:	81 3f 04 54 	lwz     r9,1108(r31)
 1803554:	80 1f 04 50 	lwz     r0,1104(r31)
 1803558:	7c 09 02 14 	add     r0,r9,r0
 180355c:	90 1f 04 4c 	stw     r0,1100(r31)
 1803560:	3c 00 01 82 	lis     r0,386
 1803564:	7c 09 03 78 	mr      r9,r0
 1803568:	80 09 c7 fc 	lwz     r0,-14340(r9)
 180356c:	3d 20 01 82 	lis     r9,386
 1803570:	39 29 c8 20 	addi    r9,r9,-14304
 1803574:	54 00 10 3a 	rlwinm  r0,r0,2,0,29
 1803578:	7c 09 02 14 	add     r0,r9,r0
 180357c:	81 3f 04 54 	lwz     r9,1108(r31)
 1803580:	7c 0b 03 78 	mr      r11,r0
 1803584:	91 2b 00 00 	stw     r9,0(r11)
 1803588:	3c 00 01 82 	lis     r0,386
 180358c:	7c 09 03 78 	mr      r9,r0
 1803590:	80 09 c7 fc 	lwz     r0,-14340(r9)
 1803594:	30 00 00 01 	addic   r0,r0,1
 1803598:	3d 20 01 82 	lis     r9,386
 180359c:	39 29 c8 20 	addi    r9,r9,-14304
 18035a0:	54 00 10 3a 	rlwinm  r0,r0,2,0,29
 18035a4:	7c 09 02 14 	add     r0,r9,r0
 18035a8:	81 3f 04 50 	lwz     r9,1104(r31)
 18035ac:	7c 0b 03 78 	mr      r11,r0
 18035b0:	91 2b 00 00 	stw     r9,0(r11)
 18035b4:	3c 00 01 82 	lis     r0,386
 18035b8:	7c 09 03 78 	mr      r9,r0
 18035bc:	80 09 c7 fc 	lwz     r0,-14340(r9)
 18035c0:	30 00 00 02 	addic   r0,r0,2
 18035c4:	3d 20 01 82 	lis     r9,386
 18035c8:	39 29 c8 20 	addi    r9,r9,-14304
 18035cc:	54 00 10 3a 	rlwinm  r0,r0,2,0,29
 18035d0:	7c 09 02 14 	add     r0,r9,r0
 18035d4:	81 3f 04 4c 	lwz     r9,1100(r31)
 18035d8:	7c 0b 03 78 	mr      r11,r0
 18035dc:	91 2b 00 00 	stw     r9,0(r11)
 18035e0:	3c 00 01 82 	lis     r0,386
 18035e4:	7c 09 03 78 	mr      r9,r0
 18035e8:	80 09 c7 fc 	lwz     r0,-14340(r9)
 18035ec:	31 20 00 03 	addic   r9,r0,3
 18035f0:	3c 00 01 82 	lis     r0,386
 18035f4:	7c 0b 03 78 	mr      r11,r0
 18035f8:	91 2b c7 fc 	stw     r9,-14340(r11)
 18035fc:	3c 00 01 82 	lis     r0,386
 1803600:	7c 09 03 78 	mr      r9,r0
 1803604:	80 09 c7 f8 	lwz     r0,-14344(r9)
 1803608:	2f 80 00 04 	cmpwi   cr7,r0,4
 180360c:	40 9d 01 8c 	ble-    cr7,1803798 <main+0x3578>
 1803610:	3c 00 01 82 	lis     r0,386
 1803614:	7c 0b 03 78 	mr      r11,r0
 1803618:	80 0b c7 fc 	lwz     r0,-14340(r11)
 180361c:	30 00 00 03 	addic   r0,r0,3
 1803620:	2f 80 00 06 	cmpwi   cr7,r0,6
 1803624:	41 9d 01 74 	bgt-    cr7,1803798 <main+0x3578>
 1803628:	3c 00 01 82 	lis     r0,386
 180362c:	30 00 c8 44 	addic   r0,r0,-14268
 1803630:	7c 0b 03 78 	mr      r11,r0
 1803634:	81 2b 00 08 	lwz     r9,8(r11)
 1803638:	3c 00 01 82 	lis     r0,386
 180363c:	30 00 c8 44 	addic   r0,r0,-14268
 1803640:	7c 0b 03 78 	mr      r11,r0
 1803644:	80 0b 00 0c 	lwz     r0,12(r11)
 1803648:	7f 89 00 00 	cmpw    cr7,r9,r0
 180364c:	40 9e 01 4c 	bne-    cr7,1803798 <main+0x3578>
 1803650:	3c 00 01 82 	lis     r0,386
 1803654:	30 00 c8 44 	addic   r0,r0,-14268
 1803658:	7c 0b 03 78 	mr      r11,r0
 180365c:	81 2b 00 08 	lwz     r9,8(r11)
 1803660:	3c 00 01 82 	lis     r0,386
 1803664:	30 00 c8 44 	addic   r0,r0,-14268
 1803668:	7c 0b 03 78 	mr      r11,r0
 180366c:	80 0b 00 10 	lwz     r0,16(r11)
 1803670:	7f 89 00 00 	cmpw    cr7,r9,r0
 1803674:	40 9e 01 24 	bne-    cr7,1803798 <main+0x3578>
 1803678:	3c 00 01 82 	lis     r0,386
 180367c:	30 00 c8 44 	addic   r0,r0,-14268
 1803680:	7c 09 03 78 	mr      r9,r0
 1803684:	80 09 00 00 	lwz     r0,0(r9)
 1803688:	90 1f 04 48 	stw     r0,1096(r31)
 180368c:	3c 00 01 82 	lis     r0,386
 1803690:	30 00 c8 44 	addic   r0,r0,-14268
 1803694:	7c 0b 03 78 	mr      r11,r0
 1803698:	80 0b 00 08 	lwz     r0,8(r11)
 180369c:	90 1f 04 44 	stw     r0,1092(r31)
 18036a0:	81 3f 04 44 	lwz     r9,1092(r31)
 18036a4:	80 1f 04 48 	lwz     r0,1096(r31)
 18036a8:	7f 89 00 00 	cmpw    cr7,r9,r0
 18036ac:	40 9d 00 ec 	ble-    cr7,1803798 <main+0x3578>
 18036b0:	3c 00 01 82 	lis     r0,386
 18036b4:	30 00 c8 44 	addic   r0,r0,-14268
 18036b8:	7c 0b 03 78 	mr      r11,r0
 18036bc:	81 2b 00 04 	lwz     r9,4(r11)
 18036c0:	3c 00 01 82 	lis     r0,386
 18036c4:	30 00 c8 44 	addic   r0,r0,-14268
 18036c8:	7c 0b 03 78 	mr      r11,r0
 18036cc:	91 2b 00 00 	stw     r9,0(r11)
 18036d0:	3c 00 01 82 	lis     r0,386
 18036d4:	7c 09 03 78 	mr      r9,r0
 18036d8:	80 09 c7 f8 	lwz     r0,-14344(r9)
 18036dc:	31 20 ff fc 	addic   r9,r0,-4
 18036e0:	3c 00 01 82 	lis     r0,386
 18036e4:	7c 0b 03 78 	mr      r11,r0
 18036e8:	91 2b c7 f8 	stw     r9,-14344(r11)
 18036ec:	81 3f 04 48 	lwz     r9,1096(r31)
 18036f0:	80 1f 04 44 	lwz     r0,1092(r31)
 18036f4:	7c 09 02 14 	add     r0,r9,r0
 18036f8:	90 1f 04 40 	stw     r0,1088(r31)
 18036fc:	3c 00 01 82 	lis     r0,386
 1803700:	7c 09 03 78 	mr      r9,r0
 1803704:	80 09 c7 fc 	lwz     r0,-14340(r9)
 1803708:	3d 20 01 82 	lis     r9,386
 180370c:	39 29 c8 20 	addi    r9,r9,-14304
 1803710:	54 00 10 3a 	rlwinm  r0,r0,2,0,29
 1803714:	7c 09 02 14 	add     r0,r9,r0
 1803718:	81 3f 04 48 	lwz     r9,1096(r31)
 180371c:	7c 0b 03 78 	mr      r11,r0
 1803720:	91 2b 00 00 	stw     r9,0(r11)
 1803724:	3c 00 01 82 	lis     r0,386
 1803728:	7c 09 03 78 	mr      r9,r0
 180372c:	80 09 c7 fc 	lwz     r0,-14340(r9)
 1803730:	30 00 00 01 	addic   r0,r0,1
 1803734:	3d 20 01 82 	lis     r9,386
 1803738:	39 29 c8 20 	addi    r9,r9,-14304
 180373c:	54 00 10 3a 	rlwinm  r0,r0,2,0,29
 1803740:	7c 09 02 14 	add     r0,r9,r0
 1803744:	81 3f 04 44 	lwz     r9,1092(r31)
 1803748:	7c 0b 03 78 	mr      r11,r0
 180374c:	91 2b 00 00 	stw     r9,0(r11)
 1803750:	3c 00 01 82 	lis     r0,386
 1803754:	7c 09 03 78 	mr      r9,r0
 1803758:	80 09 c7 fc 	lwz     r0,-14340(r9)
 180375c:	30 00 00 02 	addic   r0,r0,2
 1803760:	3d 20 01 82 	lis     r9,386
 1803764:	39 29 c8 20 	addi    r9,r9,-14304
 1803768:	54 00 10 3a 	rlwinm  r0,r0,2,0,29
 180376c:	7c 09 02 14 	add     r0,r9,r0
 1803770:	81 3f 04 40 	lwz     r9,1088(r31)
 1803774:	7c 0b 03 78 	mr      r11,r0
 1803778:	91 2b 00 00 	stw     r9,0(r11)
 180377c:	3c 00 01 82 	lis     r0,386
 1803780:	7c 09 03 78 	mr      r9,r0
 1803784:	80 09 c7 fc 	lwz     r0,-14340(r9)
 1803788:	31 20 00 03 	addic   r9,r0,3
 180378c:	3c 00 01 82 	lis     r0,386
 1803790:	7c 0b 03 78 	mr      r11,r0
 1803794:	91 2b c7 fc 	stw     r9,-14340(r11)
 1803798:	3c 00 01 82 	lis     r0,386
 180379c:	7c 09 03 78 	mr      r9,r0
 18037a0:	80 09 c7 f8 	lwz     r0,-14344(r9)
 18037a4:	2f 80 00 04 	cmpwi   cr7,r0,4
 18037a8:	40 9d 01 8c 	ble-    cr7,1803934 <main+0x3714>
 18037ac:	3c 00 01 82 	lis     r0,386
 18037b0:	7c 0b 03 78 	mr      r11,r0
 18037b4:	80 0b c7 fc 	lwz     r0,-14340(r11)
 18037b8:	30 00 00 03 	addic   r0,r0,3
 18037bc:	2f 80 00 06 	cmpwi   cr7,r0,6
 18037c0:	41 9d 01 74 	bgt-    cr7,1803934 <main+0x3714>
 18037c4:	3c 00 01 82 	lis     r0,386
 18037c8:	30 00 c8 44 	addic   r0,r0,-14268
 18037cc:	7c 0b 03 78 	mr      r11,r0
 18037d0:	81 2b 00 08 	lwz     r9,8(r11)
 18037d4:	3c 00 01 82 	lis     r0,386
 18037d8:	30 00 c8 44 	addic   r0,r0,-14268
 18037dc:	7c 0b 03 78 	mr      r11,r0
 18037e0:	80 0b 00 10 	lwz     r0,16(r11)
 18037e4:	7f 89 00 00 	cmpw    cr7,r9,r0
 18037e8:	40 9e 01 4c 	bne-    cr7,1803934 <main+0x3714>
 18037ec:	3c 00 01 82 	lis     r0,386
 18037f0:	30 00 c8 44 	addic   r0,r0,-14268
 18037f4:	7c 0b 03 78 	mr      r11,r0
 18037f8:	81 2b 00 08 	lwz     r9,8(r11)
 18037fc:	3c 00 01 82 	lis     r0,386
 1803800:	30 00 c8 44 	addic   r0,r0,-14268
 1803804:	7c 0b 03 78 	mr      r11,r0
 1803808:	80 0b 00 04 	lwz     r0,4(r11)
 180380c:	7f 89 00 00 	cmpw    cr7,r9,r0
 1803810:	40 9e 01 24 	bne-    cr7,1803934 <main+0x3714>
 1803814:	3c 00 01 82 	lis     r0,386
 1803818:	30 00 c8 44 	addic   r0,r0,-14268
 180381c:	7c 09 03 78 	mr      r9,r0
 1803820:	80 09 00 00 	lwz     r0,0(r9)
 1803824:	90 1f 04 3c 	stw     r0,1084(r31)
 1803828:	3c 00 01 82 	lis     r0,386
 180382c:	30 00 c8 44 	addic   r0,r0,-14268
 1803830:	7c 0b 03 78 	mr      r11,r0
 1803834:	80 0b 00 08 	lwz     r0,8(r11)
 1803838:	90 1f 04 38 	stw     r0,1080(r31)
 180383c:	81 3f 04 38 	lwz     r9,1080(r31)
 1803840:	80 1f 04 3c 	lwz     r0,1084(r31)
 1803844:	7f 89 00 00 	cmpw    cr7,r9,r0
 1803848:	40 9d 00 ec 	ble-    cr7,1803934 <main+0x3714>
 180384c:	3c 00 01 82 	lis     r0,386
 1803850:	30 00 c8 44 	addic   r0,r0,-14268
 1803854:	7c 0b 03 78 	mr      r11,r0
 1803858:	81 2b 00 0c 	lwz     r9,12(r11)
 180385c:	3c 00 01 82 	lis     r0,386
 1803860:	30 00 c8 44 	addic   r0,r0,-14268
 1803864:	7c 0b 03 78 	mr      r11,r0
 1803868:	91 2b 00 00 	stw     r9,0(r11)
 180386c:	3c 00 01 82 	lis     r0,386
 1803870:	7c 09 03 78 	mr      r9,r0
 1803874:	80 09 c7 f8 	lwz     r0,-14344(r9)
 1803878:	31 20 ff fc 	addic   r9,r0,-4
 180387c:	3c 00 01 82 	lis     r0,386
 1803880:	7c 0b 03 78 	mr      r11,r0
 1803884:	91 2b c7 f8 	stw     r9,-14344(r11)
 1803888:	81 3f 04 3c 	lwz     r9,1084(r31)
 180388c:	80 1f 04 38 	lwz     r0,1080(r31)
 1803890:	7c 09 02 14 	add     r0,r9,r0
 1803894:	90 1f 04 34 	stw     r0,1076(r31)
 1803898:	3c 00 01 82 	lis     r0,386
 180389c:	7c 09 03 78 	mr      r9,r0
 18038a0:	80 09 c7 fc 	lwz     r0,-14340(r9)
 18038a4:	3d 20 01 82 	lis     r9,386
 18038a8:	39 29 c8 20 	addi    r9,r9,-14304
 18038ac:	54 00 10 3a 	rlwinm  r0,r0,2,0,29
 18038b0:	7c 09 02 14 	add     r0,r9,r0
 18038b4:	81 3f 04 3c 	lwz     r9,1084(r31)
 18038b8:	7c 0b 03 78 	mr      r11,r0
 18038bc:	91 2b 00 00 	stw     r9,0(r11)
 18038c0:	3c 00 01 82 	lis     r0,386
 18038c4:	7c 09 03 78 	mr      r9,r0
 18038c8:	80 09 c7 fc 	lwz     r0,-14340(r9)
 18038cc:	30 00 00 01 	addic   r0,r0,1
 18038d0:	3d 20 01 82 	lis     r9,386
 18038d4:	39 29 c8 20 	addi    r9,r9,-14304
 18038d8:	54 00 10 3a 	rlwinm  r0,r0,2,0,29
 18038dc:	7c 09 02 14 	add     r0,r9,r0
 18038e0:	81 3f 04 38 	lwz     r9,1080(r31)
 18038e4:	7c 0b 03 78 	mr      r11,r0
 18038e8:	91 2b 00 00 	stw     r9,0(r11)
 18038ec:	3c 00 01 82 	lis     r0,386
 18038f0:	7c 09 03 78 	mr      r9,r0
 18038f4:	80 09 c7 fc 	lwz     r0,-14340(r9)
 18038f8:	30 00 00 02 	addic   r0,r0,2
 18038fc:	3d 20 01 82 	lis     r9,386
 1803900:	39 29 c8 20 	addi    r9,r9,-14304
 1803904:	54 00 10 3a 	rlwinm  r0,r0,2,0,29
 1803908:	7c 09 02 14 	add     r0,r9,r0
 180390c:	81 3f 04 34 	lwz     r9,1076(r31)
 1803910:	7c 0b 03 78 	mr      r11,r0
 1803914:	91 2b 00 00 	stw     r9,0(r11)
 1803918:	3c 00 01 82 	lis     r0,386
 180391c:	7c 09 03 78 	mr      r9,r0
 1803920:	80 09 c7 fc 	lwz     r0,-14340(r9)
 1803924:	31 20 00 03 	addic   r9,r0,3
 1803928:	3c 00 01 82 	lis     r0,386
 180392c:	7c 0b 03 78 	mr      r11,r0
 1803930:	91 2b c7 fc 	stw     r9,-14340(r11)
 1803934:	3c 00 01 82 	lis     r0,386
 1803938:	7c 09 03 78 	mr      r9,r0
 180393c:	80 09 c7 f8 	lwz     r0,-14344(r9)
 1803940:	2f 80 00 04 	cmpwi   cr7,r0,4
 1803944:	40 9d 01 8c 	ble-    cr7,1803ad0 <main+0x38b0>
 1803948:	3c 00 01 82 	lis     r0,386
 180394c:	7c 0b 03 78 	mr      r11,r0
 1803950:	80 0b c7 fc 	lwz     r0,-14340(r11)
 1803954:	30 00 00 03 	addic   r0,r0,3
 1803958:	2f 80 00 06 	cmpwi   cr7,r0,6
 180395c:	41 9d 01 74 	bgt-    cr7,1803ad0 <main+0x38b0>
 1803960:	3c 00 01 82 	lis     r0,386
 1803964:	30 00 c8 44 	addic   r0,r0,-14268
 1803968:	7c 0b 03 78 	mr      r11,r0
 180396c:	81 2b 00 08 	lwz     r9,8(r11)
 1803970:	3c 00 01 82 	lis     r0,386
 1803974:	30 00 c8 44 	addic   r0,r0,-14268
 1803978:	7c 0b 03 78 	mr      r11,r0
 180397c:	80 0b 00 10 	lwz     r0,16(r11)
 1803980:	7f 89 00 00 	cmpw    cr7,r9,r0
 1803984:	40 9e 01 4c 	bne-    cr7,1803ad0 <main+0x38b0>
 1803988:	3c 00 01 82 	lis     r0,386
 180398c:	30 00 c8 44 	addic   r0,r0,-14268
 1803990:	7c 0b 03 78 	mr      r11,r0
 1803994:	81 2b 00 08 	lwz     r9,8(r11)
 1803998:	3c 00 01 82 	lis     r0,386
 180399c:	30 00 c8 44 	addic   r0,r0,-14268
 18039a0:	7c 0b 03 78 	mr      r11,r0
 18039a4:	80 0b 00 0c 	lwz     r0,12(r11)
 18039a8:	7f 89 00 00 	cmpw    cr7,r9,r0
 18039ac:	40 9e 01 24 	bne-    cr7,1803ad0 <main+0x38b0>
 18039b0:	3c 00 01 82 	lis     r0,386
 18039b4:	30 00 c8 44 	addic   r0,r0,-14268
 18039b8:	7c 09 03 78 	mr      r9,r0
 18039bc:	80 09 00 00 	lwz     r0,0(r9)
 18039c0:	90 1f 04 30 	stw     r0,1072(r31)
 18039c4:	3c 00 01 82 	lis     r0,386
 18039c8:	30 00 c8 44 	addic   r0,r0,-14268
 18039cc:	7c 0b 03 78 	mr      r11,r0
 18039d0:	80 0b 00 08 	lwz     r0,8(r11)
 18039d4:	90 1f 04 2c 	stw     r0,1068(r31)
 18039d8:	81 3f 04 2c 	lwz     r9,1068(r31)
 18039dc:	80 1f 04 30 	lwz     r0,1072(r31)
 18039e0:	7f 89 00 00 	cmpw    cr7,r9,r0
 18039e4:	40 9d 00 ec 	ble-    cr7,1803ad0 <main+0x38b0>
 18039e8:	3c 00 01 82 	lis     r0,386
 18039ec:	30 00 c8 44 	addic   r0,r0,-14268
 18039f0:	7c 0b 03 78 	mr      r11,r0
 18039f4:	81 2b 00 04 	lwz     r9,4(r11)
 18039f8:	3c 00 01 82 	lis     r0,386
 18039fc:	30 00 c8 44 	addic   r0,r0,-14268
 1803a00:	7c 0b 03 78 	mr      r11,r0
 1803a04:	91 2b 00 00 	stw     r9,0(r11)
 1803a08:	3c 00 01 82 	lis     r0,386
 1803a0c:	7c 09 03 78 	mr      r9,r0
 1803a10:	80 09 c7 f8 	lwz     r0,-14344(r9)
 1803a14:	31 20 ff fc 	addic   r9,r0,-4
 1803a18:	3c 00 01 82 	lis     r0,386
 1803a1c:	7c 0b 03 78 	mr      r11,r0
 1803a20:	91 2b c7 f8 	stw     r9,-14344(r11)
 1803a24:	81 3f 04 30 	lwz     r9,1072(r31)
 1803a28:	80 1f 04 2c 	lwz     r0,1068(r31)
 1803a2c:	7c 09 02 14 	add     r0,r9,r0
 1803a30:	90 1f 04 28 	stw     r0,1064(r31)
 1803a34:	3c 00 01 82 	lis     r0,386
 1803a38:	7c 09 03 78 	mr      r9,r0
 1803a3c:	80 09 c7 fc 	lwz     r0,-14340(r9)
 1803a40:	3d 20 01 82 	lis     r9,386
 1803a44:	39 29 c8 20 	addi    r9,r9,-14304
 1803a48:	54 00 10 3a 	rlwinm  r0,r0,2,0,29
 1803a4c:	7c 09 02 14 	add     r0,r9,r0
 1803a50:	81 3f 04 30 	lwz     r9,1072(r31)
 1803a54:	7c 0b 03 78 	mr      r11,r0
 1803a58:	91 2b 00 00 	stw     r9,0(r11)
 1803a5c:	3c 00 01 82 	lis     r0,386
 1803a60:	7c 09 03 78 	mr      r9,r0
 1803a64:	80 09 c7 fc 	lwz     r0,-14340(r9)
 1803a68:	30 00 00 01 	addic   r0,r0,1
 1803a6c:	3d 20 01 82 	lis     r9,386
 1803a70:	39 29 c8 20 	addi    r9,r9,-14304
 1803a74:	54 00 10 3a 	rlwinm  r0,r0,2,0,29
 1803a78:	7c 09 02 14 	add     r0,r9,r0
 1803a7c:	81 3f 04 2c 	lwz     r9,1068(r31)
 1803a80:	7c 0b 03 78 	mr      r11,r0
 1803a84:	91 2b 00 00 	stw     r9,0(r11)
 1803a88:	3c 00 01 82 	lis     r0,386
 1803a8c:	7c 09 03 78 	mr      r9,r0
 1803a90:	80 09 c7 fc 	lwz     r0,-14340(r9)
 1803a94:	30 00 00 02 	addic   r0,r0,2
 1803a98:	3d 20 01 82 	lis     r9,386
 1803a9c:	39 29 c8 20 	addi    r9,r9,-14304
 1803aa0:	54 00 10 3a 	rlwinm  r0,r0,2,0,29
 1803aa4:	7c 09 02 14 	add     r0,r9,r0
 1803aa8:	81 3f 04 28 	lwz     r9,1064(r31)
 1803aac:	7c 0b 03 78 	mr      r11,r0
 1803ab0:	91 2b 00 00 	stw     r9,0(r11)
 1803ab4:	3c 00 01 82 	lis     r0,386
 1803ab8:	7c 09 03 78 	mr      r9,r0
 1803abc:	80 09 c7 fc 	lwz     r0,-14340(r9)
 1803ac0:	31 20 00 03 	addic   r9,r0,3
 1803ac4:	3c 00 01 82 	lis     r0,386
 1803ac8:	7c 0b 03 78 	mr      r11,r0
 1803acc:	91 2b c7 fc 	stw     r9,-14340(r11)
 1803ad0:	3c 00 01 82 	lis     r0,386
 1803ad4:	7c 09 03 78 	mr      r9,r0
 1803ad8:	80 09 c7 f8 	lwz     r0,-14344(r9)
 1803adc:	2f 80 00 04 	cmpwi   cr7,r0,4
 1803ae0:	40 9d 01 8c 	ble-    cr7,1803c6c <main+0x3a4c>
 1803ae4:	3c 00 01 82 	lis     r0,386
 1803ae8:	7c 0b 03 78 	mr      r11,r0
 1803aec:	80 0b c7 fc 	lwz     r0,-14340(r11)
 1803af0:	30 00 00 03 	addic   r0,r0,3
 1803af4:	2f 80 00 06 	cmpwi   cr7,r0,6
 1803af8:	41 9d 01 74 	bgt-    cr7,1803c6c <main+0x3a4c>
 1803afc:	3c 00 01 82 	lis     r0,386
 1803b00:	30 00 c8 44 	addic   r0,r0,-14268
 1803b04:	7c 0b 03 78 	mr      r11,r0
 1803b08:	81 2b 00 0c 	lwz     r9,12(r11)
 1803b0c:	3c 00 01 82 	lis     r0,386
 1803b10:	30 00 c8 44 	addic   r0,r0,-14268
 1803b14:	7c 0b 03 78 	mr      r11,r0
 1803b18:	80 0b 00 04 	lwz     r0,4(r11)
 1803b1c:	7f 89 00 00 	cmpw    cr7,r9,r0
 1803b20:	40 9e 01 4c 	bne-    cr7,1803c6c <main+0x3a4c>
 1803b24:	3c 00 01 82 	lis     r0,386
 1803b28:	30 00 c8 44 	addic   r0,r0,-14268
 1803b2c:	7c 0b 03 78 	mr      r11,r0
 1803b30:	81 2b 00 0c 	lwz     r9,12(r11)
 1803b34:	3c 00 01 82 	lis     r0,386
 1803b38:	30 00 c8 44 	addic   r0,r0,-14268
 1803b3c:	7c 0b 03 78 	mr      r11,r0
 1803b40:	80 0b 00 10 	lwz     r0,16(r11)
 1803b44:	7f 89 00 00 	cmpw    cr7,r9,r0
 1803b48:	40 9e 01 24 	bne-    cr7,1803c6c <main+0x3a4c>
 1803b4c:	3c 00 01 82 	lis     r0,386
 1803b50:	30 00 c8 44 	addic   r0,r0,-14268
 1803b54:	7c 09 03 78 	mr      r9,r0
 1803b58:	80 09 00 00 	lwz     r0,0(r9)
 1803b5c:	90 1f 04 24 	stw     r0,1060(r31)
 1803b60:	3c 00 01 82 	lis     r0,386
 1803b64:	30 00 c8 44 	addic   r0,r0,-14268
 1803b68:	7c 0b 03 78 	mr      r11,r0
 1803b6c:	80 0b 00 0c 	lwz     r0,12(r11)
 1803b70:	90 1f 04 20 	stw     r0,1056(r31)
 1803b74:	81 3f 04 20 	lwz     r9,1056(r31)
 1803b78:	80 1f 04 24 	lwz     r0,1060(r31)
 1803b7c:	7f 89 00 00 	cmpw    cr7,r9,r0
 1803b80:	40 9d 00 ec 	ble-    cr7,1803c6c <main+0x3a4c>
 1803b84:	3c 00 01 82 	lis     r0,386
 1803b88:	30 00 c8 44 	addic   r0,r0,-14268
 1803b8c:	7c 0b 03 78 	mr      r11,r0
 1803b90:	81 2b 00 08 	lwz     r9,8(r11)
 1803b94:	3c 00 01 82 	lis     r0,386
 1803b98:	30 00 c8 44 	addic   r0,r0,-14268
 1803b9c:	7c 0b 03 78 	mr      r11,r0
 1803ba0:	91 2b 00 00 	stw     r9,0(r11)
 1803ba4:	3c 00 01 82 	lis     r0,386
 1803ba8:	7c 09 03 78 	mr      r9,r0
 1803bac:	80 09 c7 f8 	lwz     r0,-14344(r9)
 1803bb0:	31 20 ff fc 	addic   r9,r0,-4
 1803bb4:	3c 00 01 82 	lis     r0,386
 1803bb8:	7c 0b 03 78 	mr      r11,r0
 1803bbc:	91 2b c7 f8 	stw     r9,-14344(r11)
 1803bc0:	81 3f 04 24 	lwz     r9,1060(r31)
 1803bc4:	80 1f 04 20 	lwz     r0,1056(r31)
 1803bc8:	7c 09 02 14 	add     r0,r9,r0
 1803bcc:	90 1f 04 1c 	stw     r0,1052(r31)
 1803bd0:	3c 00 01 82 	lis     r0,386
 1803bd4:	7c 09 03 78 	mr      r9,r0
 1803bd8:	80 09 c7 fc 	lwz     r0,-14340(r9)
 1803bdc:	3d 20 01 82 	lis     r9,386
 1803be0:	39 29 c8 20 	addi    r9,r9,-14304
 1803be4:	54 00 10 3a 	rlwinm  r0,r0,2,0,29
 1803be8:	7c 09 02 14 	add     r0,r9,r0
 1803bec:	81 3f 04 24 	lwz     r9,1060(r31)
 1803bf0:	7c 0b 03 78 	mr      r11,r0
 1803bf4:	91 2b 00 00 	stw     r9,0(r11)
 1803bf8:	3c 00 01 82 	lis     r0,386
 1803bfc:	7c 09 03 78 	mr      r9,r0
 1803c00:	80 09 c7 fc 	lwz     r0,-14340(r9)
 1803c04:	30 00 00 01 	addic   r0,r0,1
 1803c08:	3d 20 01 82 	lis     r9,386
 1803c0c:	39 29 c8 20 	addi    r9,r9,-14304
 1803c10:	54 00 10 3a 	rlwinm  r0,r0,2,0,29
 1803c14:	7c 09 02 14 	add     r0,r9,r0
 1803c18:	81 3f 04 20 	lwz     r9,1056(r31)
 1803c1c:	7c 0b 03 78 	mr      r11,r0
 1803c20:	91 2b 00 00 	stw     r9,0(r11)
 1803c24:	3c 00 01 82 	lis     r0,386
 1803c28:	7c 09 03 78 	mr      r9,r0
 1803c2c:	80 09 c7 fc 	lwz     r0,-14340(r9)
 1803c30:	30 00 00 02 	addic   r0,r0,2
 1803c34:	3d 20 01 82 	lis     r9,386
 1803c38:	39 29 c8 20 	addi    r9,r9,-14304
 1803c3c:	54 00 10 3a 	rlwinm  r0,r0,2,0,29
 1803c40:	7c 09 02 14 	add     r0,r9,r0
 1803c44:	81 3f 04 1c 	lwz     r9,1052(r31)
 1803c48:	7c 0b 03 78 	mr      r11,r0
 1803c4c:	91 2b 00 00 	stw     r9,0(r11)
 1803c50:	3c 00 01 82 	lis     r0,386
 1803c54:	7c 09 03 78 	mr      r9,r0
 1803c58:	80 09 c7 fc 	lwz     r0,-14340(r9)
 1803c5c:	31 20 00 03 	addic   r9,r0,3
 1803c60:	3c 00 01 82 	lis     r0,386
 1803c64:	7c 0b 03 78 	mr      r11,r0
 1803c68:	91 2b c7 fc 	stw     r9,-14340(r11)
 1803c6c:	3c 00 01 82 	lis     r0,386
 1803c70:	7c 09 03 78 	mr      r9,r0
 1803c74:	80 09 c7 f8 	lwz     r0,-14344(r9)
 1803c78:	2f 80 00 04 	cmpwi   cr7,r0,4
 1803c7c:	40 9d 01 8c 	ble-    cr7,1803e08 <main+0x3be8>
 1803c80:	3c 00 01 82 	lis     r0,386
 1803c84:	7c 0b 03 78 	mr      r11,r0
 1803c88:	80 0b c7 fc 	lwz     r0,-14340(r11)
 1803c8c:	30 00 00 03 	addic   r0,r0,3
 1803c90:	2f 80 00 06 	cmpwi   cr7,r0,6
 1803c94:	41 9d 01 74 	bgt-    cr7,1803e08 <main+0x3be8>
 1803c98:	3c 00 01 82 	lis     r0,386
 1803c9c:	30 00 c8 44 	addic   r0,r0,-14268
 1803ca0:	7c 0b 03 78 	mr      r11,r0
 1803ca4:	81 2b 00 0c 	lwz     r9,12(r11)
 1803ca8:	3c 00 01 82 	lis     r0,386
 1803cac:	30 00 c8 44 	addic   r0,r0,-14268
 1803cb0:	7c 0b 03 78 	mr      r11,r0
 1803cb4:	80 0b 00 08 	lwz     r0,8(r11)
 1803cb8:	7f 89 00 00 	cmpw    cr7,r9,r0
 1803cbc:	40 9e 01 4c 	bne-    cr7,1803e08 <main+0x3be8>
 1803cc0:	3c 00 01 82 	lis     r0,386
 1803cc4:	30 00 c8 44 	addic   r0,r0,-14268
 1803cc8:	7c 0b 03 78 	mr      r11,r0
 1803ccc:	81 2b 00 0c 	lwz     r9,12(r11)
 1803cd0:	3c 00 01 82 	lis     r0,386
 1803cd4:	30 00 c8 44 	addic   r0,r0,-14268
 1803cd8:	7c 0b 03 78 	mr      r11,r0
 1803cdc:	80 0b 00 10 	lwz     r0,16(r11)
 1803ce0:	7f 89 00 00 	cmpw    cr7,r9,r0
 1803ce4:	40 9e 01 24 	bne-    cr7,1803e08 <main+0x3be8>
 1803ce8:	3c 00 01 82 	lis     r0,386
 1803cec:	30 00 c8 44 	addic   r0,r0,-14268
 1803cf0:	7c 09 03 78 	mr      r9,r0
 1803cf4:	80 09 00 00 	lwz     r0,0(r9)
 1803cf8:	90 1f 04 18 	stw     r0,1048(r31)
 1803cfc:	3c 00 01 82 	lis     r0,386
 1803d00:	30 00 c8 44 	addic   r0,r0,-14268
 1803d04:	7c 0b 03 78 	mr      r11,r0
 1803d08:	80 0b 00 0c 	lwz     r0,12(r11)
 1803d0c:	90 1f 04 14 	stw     r0,1044(r31)
 1803d10:	81 3f 04 14 	lwz     r9,1044(r31)
 1803d14:	80 1f 04 18 	lwz     r0,1048(r31)
 1803d18:	7f 89 00 00 	cmpw    cr7,r9,r0
 1803d1c:	40 9d 00 ec 	ble-    cr7,1803e08 <main+0x3be8>
 1803d20:	3c 00 01 82 	lis     r0,386
 1803d24:	30 00 c8 44 	addic   r0,r0,-14268
 1803d28:	7c 0b 03 78 	mr      r11,r0
 1803d2c:	81 2b 00 04 	lwz     r9,4(r11)
 1803d30:	3c 00 01 82 	lis     r0,386
 1803d34:	30 00 c8 44 	addic   r0,r0,-14268
 1803d38:	7c 0b 03 78 	mr      r11,r0
 1803d3c:	91 2b 00 00 	stw     r9,0(r11)
 1803d40:	3c 00 01 82 	lis     r0,386
 1803d44:	7c 09 03 78 	mr      r9,r0
 1803d48:	80 09 c7 f8 	lwz     r0,-14344(r9)
 1803d4c:	31 20 ff fc 	addic   r9,r0,-4
 1803d50:	3c 00 01 82 	lis     r0,386
 1803d54:	7c 0b 03 78 	mr      r11,r0
 1803d58:	91 2b c7 f8 	stw     r9,-14344(r11)
 1803d5c:	81 3f 04 18 	lwz     r9,1048(r31)
 1803d60:	80 1f 04 14 	lwz     r0,1044(r31)
 1803d64:	7c 09 02 14 	add     r0,r9,r0
 1803d68:	90 1f 04 10 	stw     r0,1040(r31)
 1803d6c:	3c 00 01 82 	lis     r0,386
 1803d70:	7c 09 03 78 	mr      r9,r0
 1803d74:	80 09 c7 fc 	lwz     r0,-14340(r9)
 1803d78:	3d 20 01 82 	lis     r9,386
 1803d7c:	39 29 c8 20 	addi    r9,r9,-14304
 1803d80:	54 00 10 3a 	rlwinm  r0,r0,2,0,29
 1803d84:	7c 09 02 14 	add     r0,r9,r0
 1803d88:	81 3f 04 18 	lwz     r9,1048(r31)
 1803d8c:	7c 0b 03 78 	mr      r11,r0
 1803d90:	91 2b 00 00 	stw     r9,0(r11)
 1803d94:	3c 00 01 82 	lis     r0,386
 1803d98:	7c 09 03 78 	mr      r9,r0
 1803d9c:	80 09 c7 fc 	lwz     r0,-14340(r9)
 1803da0:	30 00 00 01 	addic   r0,r0,1
 1803da4:	3d 20 01 82 	lis     r9,386
 1803da8:	39 29 c8 20 	addi    r9,r9,-14304
 1803dac:	54 00 10 3a 	rlwinm  r0,r0,2,0,29
 1803db0:	7c 09 02 14 	add     r0,r9,r0
 1803db4:	81 3f 04 14 	lwz     r9,1044(r31)
 1803db8:	7c 0b 03 78 	mr      r11,r0
 1803dbc:	91 2b 00 00 	stw     r9,0(r11)
 1803dc0:	3c 00 01 82 	lis     r0,386
 1803dc4:	7c 09 03 78 	mr      r9,r0
 1803dc8:	80 09 c7 fc 	lwz     r0,-14340(r9)
 1803dcc:	30 00 00 02 	addic   r0,r0,2
 1803dd0:	3d 20 01 82 	lis     r9,386
 1803dd4:	39 29 c8 20 	addi    r9,r9,-14304
 1803dd8:	54 00 10 3a 	rlwinm  r0,r0,2,0,29
 1803ddc:	7c 09 02 14 	add     r0,r9,r0
 1803de0:	81 3f 04 10 	lwz     r9,1040(r31)
 1803de4:	7c 0b 03 78 	mr      r11,r0
 1803de8:	91 2b 00 00 	stw     r9,0(r11)
 1803dec:	3c 00 01 82 	lis     r0,386
 1803df0:	7c 09 03 78 	mr      r9,r0
 1803df4:	80 09 c7 fc 	lwz     r0,-14340(r9)
 1803df8:	31 20 00 03 	addic   r9,r0,3
 1803dfc:	3c 00 01 82 	lis     r0,386
 1803e00:	7c 0b 03 78 	mr      r11,r0
 1803e04:	91 2b c7 fc 	stw     r9,-14340(r11)
 1803e08:	3c 00 01 82 	lis     r0,386
 1803e0c:	7c 09 03 78 	mr      r9,r0
 1803e10:	80 09 c7 f8 	lwz     r0,-14344(r9)
 1803e14:	2f 80 00 04 	cmpwi   cr7,r0,4
 1803e18:	40 9d 01 8c 	ble-    cr7,1803fa4 <main+0x3d84>
 1803e1c:	3c 00 01 82 	lis     r0,386
 1803e20:	7c 0b 03 78 	mr      r11,r0
 1803e24:	80 0b c7 fc 	lwz     r0,-14340(r11)
 1803e28:	30 00 00 03 	addic   r0,r0,3
 1803e2c:	2f 80 00 06 	cmpwi   cr7,r0,6
 1803e30:	41 9d 01 74 	bgt-    cr7,1803fa4 <main+0x3d84>
 1803e34:	3c 00 01 82 	lis     r0,386
 1803e38:	30 00 c8 44 	addic   r0,r0,-14268
 1803e3c:	7c 0b 03 78 	mr      r11,r0
 1803e40:	81 2b 00 0c 	lwz     r9,12(r11)
 1803e44:	3c 00 01 82 	lis     r0,386
 1803e48:	30 00 c8 44 	addic   r0,r0,-14268
 1803e4c:	7c 0b 03 78 	mr      r11,r0
 1803e50:	80 0b 00 10 	lwz     r0,16(r11)
 1803e54:	7f 89 00 00 	cmpw    cr7,r9,r0
 1803e58:	40 9e 01 4c 	bne-    cr7,1803fa4 <main+0x3d84>
 1803e5c:	3c 00 01 82 	lis     r0,386
 1803e60:	30 00 c8 44 	addic   r0,r0,-14268
 1803e64:	7c 0b 03 78 	mr      r11,r0
 1803e68:	81 2b 00 0c 	lwz     r9,12(r11)
 1803e6c:	3c 00 01 82 	lis     r0,386
 1803e70:	30 00 c8 44 	addic   r0,r0,-14268
 1803e74:	7c 0b 03 78 	mr      r11,r0
 1803e78:	80 0b 00 04 	lwz     r0,4(r11)
 1803e7c:	7f 89 00 00 	cmpw    cr7,r9,r0
 1803e80:	40 9e 01 24 	bne-    cr7,1803fa4 <main+0x3d84>
 1803e84:	3c 00 01 82 	lis     r0,386
 1803e88:	30 00 c8 44 	addic   r0,r0,-14268
 1803e8c:	7c 09 03 78 	mr      r9,r0
 1803e90:	80 09 00 00 	lwz     r0,0(r9)
 1803e94:	90 1f 04 0c 	stw     r0,1036(r31)
 1803e98:	3c 00 01 82 	lis     r0,386
 1803e9c:	30 00 c8 44 	addic   r0,r0,-14268
 1803ea0:	7c 0b 03 78 	mr      r11,r0
 1803ea4:	80 0b 00 0c 	lwz     r0,12(r11)
 1803ea8:	90 1f 04 08 	stw     r0,1032(r31)
 1803eac:	81 3f 04 08 	lwz     r9,1032(r31)
 1803eb0:	80 1f 04 0c 	lwz     r0,1036(r31)
 1803eb4:	7f 89 00 00 	cmpw    cr7,r9,r0
 1803eb8:	40 9d 00 ec 	ble-    cr7,1803fa4 <main+0x3d84>
 1803ebc:	3c 00 01 82 	lis     r0,386
 1803ec0:	30 00 c8 44 	addic   r0,r0,-14268
 1803ec4:	7c 0b 03 78 	mr      r11,r0
 1803ec8:	81 2b 00 08 	lwz     r9,8(r11)
 1803ecc:	3c 00 01 82 	lis     r0,386
 1803ed0:	30 00 c8 44 	addic   r0,r0,-14268
 1803ed4:	7c 0b 03 78 	mr      r11,r0
 1803ed8:	91 2b 00 00 	stw     r9,0(r11)
 1803edc:	3c 00 01 82 	lis     r0,386
 1803ee0:	7c 09 03 78 	mr      r9,r0
 1803ee4:	80 09 c7 f8 	lwz     r0,-14344(r9)
 1803ee8:	31 20 ff fc 	addic   r9,r0,-4
 1803eec:	3c 00 01 82 	lis     r0,386
 1803ef0:	7c 0b 03 78 	mr      r11,r0
 1803ef4:	91 2b c7 f8 	stw     r9,-14344(r11)
 1803ef8:	81 3f 04 0c 	lwz     r9,1036(r31)
 1803efc:	80 1f 04 08 	lwz     r0,1032(r31)
 1803f00:	7c 09 02 14 	add     r0,r9,r0
 1803f04:	90 1f 04 04 	stw     r0,1028(r31)
 1803f08:	3c 00 01 82 	lis     r0,386
 1803f0c:	7c 09 03 78 	mr      r9,r0
 1803f10:	80 09 c7 fc 	lwz     r0,-14340(r9)
 1803f14:	3d 20 01 82 	lis     r9,386
 1803f18:	39 29 c8 20 	addi    r9,r9,-14304
 1803f1c:	54 00 10 3a 	rlwinm  r0,r0,2,0,29
 1803f20:	7c 09 02 14 	add     r0,r9,r0
 1803f24:	81 3f 04 0c 	lwz     r9,1036(r31)
 1803f28:	7c 0b 03 78 	mr      r11,r0
 1803f2c:	91 2b 00 00 	stw     r9,0(r11)
 1803f30:	3c 00 01 82 	lis     r0,386
 1803f34:	7c 09 03 78 	mr      r9,r0
 1803f38:	80 09 c7 fc 	lwz     r0,-14340(r9)
 1803f3c:	30 00 00 01 	addic   r0,r0,1
 1803f40:	3d 20 01 82 	lis     r9,386
 1803f44:	39 29 c8 20 	addi    r9,r9,-14304
 1803f48:	54 00 10 3a 	rlwinm  r0,r0,2,0,29
 1803f4c:	7c 09 02 14 	add     r0,r9,r0
 1803f50:	81 3f 04 08 	lwz     r9,1032(r31)
 1803f54:	7c 0b 03 78 	mr      r11,r0
 1803f58:	91 2b 00 00 	stw     r9,0(r11)
 1803f5c:	3c 00 01 82 	lis     r0,386
 1803f60:	7c 09 03 78 	mr      r9,r0
 1803f64:	80 09 c7 fc 	lwz     r0,-14340(r9)
 1803f68:	30 00 00 02 	addic   r0,r0,2
 1803f6c:	3d 20 01 82 	lis     r9,386
 1803f70:	39 29 c8 20 	addi    r9,r9,-14304
 1803f74:	54 00 10 3a 	rlwinm  r0,r0,2,0,29
 1803f78:	7c 09 02 14 	add     r0,r9,r0
 1803f7c:	81 3f 04 04 	lwz     r9,1028(r31)
 1803f80:	7c 0b 03 78 	mr      r11,r0
 1803f84:	91 2b 00 00 	stw     r9,0(r11)
 1803f88:	3c 00 01 82 	lis     r0,386
 1803f8c:	7c 09 03 78 	mr      r9,r0
 1803f90:	80 09 c7 fc 	lwz     r0,-14340(r9)
 1803f94:	31 20 00 03 	addic   r9,r0,3
 1803f98:	3c 00 01 82 	lis     r0,386
 1803f9c:	7c 0b 03 78 	mr      r11,r0
 1803fa0:	91 2b c7 fc 	stw     r9,-14340(r11)
 1803fa4:	3c 00 01 82 	lis     r0,386
 1803fa8:	7c 09 03 78 	mr      r9,r0
 1803fac:	80 09 c7 f8 	lwz     r0,-14344(r9)
 1803fb0:	2f 80 00 04 	cmpwi   cr7,r0,4
 1803fb4:	40 9d 01 8c 	ble-    cr7,1804140 <main+0x3f20>
 1803fb8:	3c 00 01 82 	lis     r0,386
 1803fbc:	7c 0b 03 78 	mr      r11,r0
 1803fc0:	80 0b c7 fc 	lwz     r0,-14340(r11)
 1803fc4:	30 00 00 03 	addic   r0,r0,3
 1803fc8:	2f 80 00 06 	cmpwi   cr7,r0,6
 1803fcc:	41 9d 01 74 	bgt-    cr7,1804140 <main+0x3f20>
 1803fd0:	3c 00 01 82 	lis     r0,386
 1803fd4:	30 00 c8 44 	addic   r0,r0,-14268
 1803fd8:	7c 0b 03 78 	mr      r11,r0
 1803fdc:	81 2b 00 0c 	lwz     r9,12(r11)
 1803fe0:	3c 00 01 82 	lis     r0,386
 1803fe4:	30 00 c8 44 	addic   r0,r0,-14268
 1803fe8:	7c 0b 03 78 	mr      r11,r0
 1803fec:	80 0b 00 10 	lwz     r0,16(r11)
 1803ff0:	7f 89 00 00 	cmpw    cr7,r9,r0
 1803ff4:	40 9e 01 4c 	bne-    cr7,1804140 <main+0x3f20>
 1803ff8:	3c 00 01 82 	lis     r0,386
 1803ffc:	30 00 c8 44 	addic   r0,r0,-14268
 1804000:	7c 0b 03 78 	mr      r11,r0
 1804004:	81 2b 00 0c 	lwz     r9,12(r11)
 1804008:	3c 00 01 82 	lis     r0,386
 180400c:	30 00 c8 44 	addic   r0,r0,-14268
 1804010:	7c 0b 03 78 	mr      r11,r0
 1804014:	80 0b 00 08 	lwz     r0,8(r11)
 1804018:	7f 89 00 00 	cmpw    cr7,r9,r0
 180401c:	40 9e 01 24 	bne-    cr7,1804140 <main+0x3f20>
 1804020:	3c 00 01 82 	lis     r0,386
 1804024:	30 00 c8 44 	addic   r0,r0,-14268
 1804028:	7c 09 03 78 	mr      r9,r0
 180402c:	80 09 00 00 	lwz     r0,0(r9)
 1804030:	90 1f 04 00 	stw     r0,1024(r31)
 1804034:	3c 00 01 82 	lis     r0,386
 1804038:	30 00 c8 44 	addic   r0,r0,-14268
 180403c:	7c 0b 03 78 	mr      r11,r0
 1804040:	80 0b 00 0c 	lwz     r0,12(r11)
 1804044:	90 1f 03 fc 	stw     r0,1020(r31)
 1804048:	81 3f 03 fc 	lwz     r9,1020(r31)
 180404c:	80 1f 04 00 	lwz     r0,1024(r31)
 1804050:	7f 89 00 00 	cmpw    cr7,r9,r0
 1804054:	40 9d 00 ec 	ble-    cr7,1804140 <main+0x3f20>
 1804058:	3c 00 01 82 	lis     r0,386
 180405c:	30 00 c8 44 	addic   r0,r0,-14268
 1804060:	7c 0b 03 78 	mr      r11,r0
 1804064:	81 2b 00 04 	lwz     r9,4(r11)
 1804068:	3c 00 01 82 	lis     r0,386
 180406c:	30 00 c8 44 	addic   r0,r0,-14268
 1804070:	7c 0b 03 78 	mr      r11,r0
 1804074:	91 2b 00 00 	stw     r9,0(r11)
 1804078:	3c 00 01 82 	lis     r0,386
 180407c:	7c 09 03 78 	mr      r9,r0
 1804080:	80 09 c7 f8 	lwz     r0,-14344(r9)
 1804084:	31 20 ff fc 	addic   r9,r0,-4
 1804088:	3c 00 01 82 	lis     r0,386
 180408c:	7c 0b 03 78 	mr      r11,r0
 1804090:	91 2b c7 f8 	stw     r9,-14344(r11)
 1804094:	81 3f 04 00 	lwz     r9,1024(r31)
 1804098:	80 1f 03 fc 	lwz     r0,1020(r31)
 180409c:	7c 09 02 14 	add     r0,r9,r0
 18040a0:	90 1f 03 f8 	stw     r0,1016(r31)
 18040a4:	3c 00 01 82 	lis     r0,386
 18040a8:	7c 09 03 78 	mr      r9,r0
 18040ac:	80 09 c7 fc 	lwz     r0,-14340(r9)
 18040b0:	3d 20 01 82 	lis     r9,386
 18040b4:	39 29 c8 20 	addi    r9,r9,-14304
 18040b8:	54 00 10 3a 	rlwinm  r0,r0,2,0,29
 18040bc:	7c 09 02 14 	add     r0,r9,r0
 18040c0:	81 3f 04 00 	lwz     r9,1024(r31)
 18040c4:	7c 0b 03 78 	mr      r11,r0
 18040c8:	91 2b 00 00 	stw     r9,0(r11)
 18040cc:	3c 00 01 82 	lis     r0,386
 18040d0:	7c 09 03 78 	mr      r9,r0
 18040d4:	80 09 c7 fc 	lwz     r0,-14340(r9)
 18040d8:	30 00 00 01 	addic   r0,r0,1
 18040dc:	3d 20 01 82 	lis     r9,386
 18040e0:	39 29 c8 20 	addi    r9,r9,-14304
 18040e4:	54 00 10 3a 	rlwinm  r0,r0,2,0,29
 18040e8:	7c 09 02 14 	add     r0,r9,r0
 18040ec:	81 3f 03 fc 	lwz     r9,1020(r31)
 18040f0:	7c 0b 03 78 	mr      r11,r0
 18040f4:	91 2b 00 00 	stw     r9,0(r11)
 18040f8:	3c 00 01 82 	lis     r0,386
 18040fc:	7c 09 03 78 	mr      r9,r0
 1804100:	80 09 c7 fc 	lwz     r0,-14340(r9)
 1804104:	30 00 00 02 	addic   r0,r0,2
 1804108:	3d 20 01 82 	lis     r9,386
 180410c:	39 29 c8 20 	addi    r9,r9,-14304
 1804110:	54 00 10 3a 	rlwinm  r0,r0,2,0,29
 1804114:	7c 09 02 14 	add     r0,r9,r0
 1804118:	81 3f 03 f8 	lwz     r9,1016(r31)
 180411c:	7c 0b 03 78 	mr      r11,r0
 1804120:	91 2b 00 00 	stw     r9,0(r11)
 1804124:	3c 00 01 82 	lis     r0,386
 1804128:	7c 09 03 78 	mr      r9,r0
 180412c:	80 09 c7 fc 	lwz     r0,-14340(r9)
 1804130:	31 20 00 03 	addic   r9,r0,3
 1804134:	3c 00 01 82 	lis     r0,386
 1804138:	7c 0b 03 78 	mr      r11,r0
 180413c:	91 2b c7 fc 	stw     r9,-14340(r11)
 1804140:	3c 00 01 82 	lis     r0,386
 1804144:	7c 09 03 78 	mr      r9,r0
 1804148:	80 09 c7 f8 	lwz     r0,-14344(r9)
 180414c:	2f 80 00 04 	cmpwi   cr7,r0,4
 1804150:	40 9d 01 8c 	ble-    cr7,18042dc <main+0x40bc>
 1804154:	3c 00 01 82 	lis     r0,386
 1804158:	7c 0b 03 78 	mr      r11,r0
 180415c:	80 0b c7 fc 	lwz     r0,-14340(r11)
 1804160:	30 00 00 03 	addic   r0,r0,3
 1804164:	2f 80 00 06 	cmpwi   cr7,r0,6
 1804168:	41 9d 01 74 	bgt-    cr7,18042dc <main+0x40bc>
 180416c:	3c 00 01 82 	lis     r0,386
 1804170:	30 00 c8 44 	addic   r0,r0,-14268
 1804174:	7c 0b 03 78 	mr      r11,r0
 1804178:	81 2b 00 10 	lwz     r9,16(r11)
 180417c:	3c 00 01 82 	lis     r0,386
 1804180:	30 00 c8 44 	addic   r0,r0,-14268
 1804184:	7c 0b 03 78 	mr      r11,r0
 1804188:	80 0b 00 04 	lwz     r0,4(r11)
 180418c:	7f 89 00 00 	cmpw    cr7,r9,r0
 1804190:	40 9e 01 4c 	bne-    cr7,18042dc <main+0x40bc>
 1804194:	3c 00 01 82 	lis     r0,386
 1804198:	30 00 c8 44 	addic   r0,r0,-14268
 180419c:	7c 0b 03 78 	mr      r11,r0
 18041a0:	81 2b 00 10 	lwz     r9,16(r11)
 18041a4:	3c 00 01 82 	lis     r0,386
 18041a8:	30 00 c8 44 	addic   r0,r0,-14268
 18041ac:	7c 0b 03 78 	mr      r11,r0
 18041b0:	80 0b 00 08 	lwz     r0,8(r11)
 18041b4:	7f 89 00 00 	cmpw    cr7,r9,r0
 18041b8:	40 9e 01 24 	bne-    cr7,18042dc <main+0x40bc>
 18041bc:	3c 00 01 82 	lis     r0,386
 18041c0:	30 00 c8 44 	addic   r0,r0,-14268
 18041c4:	7c 09 03 78 	mr      r9,r0
 18041c8:	80 09 00 00 	lwz     r0,0(r9)
 18041cc:	90 1f 03 f4 	stw     r0,1012(r31)
 18041d0:	3c 00 01 82 	lis     r0,386
 18041d4:	30 00 c8 44 	addic   r0,r0,-14268
 18041d8:	7c 0b 03 78 	mr      r11,r0
 18041dc:	80 0b 00 10 	lwz     r0,16(r11)
 18041e0:	90 1f 03 f0 	stw     r0,1008(r31)
 18041e4:	81 3f 03 f0 	lwz     r9,1008(r31)
 18041e8:	80 1f 03 f4 	lwz     r0,1012(r31)
 18041ec:	7f 89 00 00 	cmpw    cr7,r9,r0
 18041f0:	40 9d 00 ec 	ble-    cr7,18042dc <main+0x40bc>
 18041f4:	3c 00 01 82 	lis     r0,386
 18041f8:	30 00 c8 44 	addic   r0,r0,-14268
 18041fc:	7c 0b 03 78 	mr      r11,r0
 1804200:	81 2b 00 0c 	lwz     r9,12(r11)
 1804204:	3c 00 01 82 	lis     r0,386
 1804208:	30 00 c8 44 	addic   r0,r0,-14268
 180420c:	7c 0b 03 78 	mr      r11,r0
 1804210:	91 2b 00 00 	stw     r9,0(r11)
 1804214:	3c 00 01 82 	lis     r0,386
 1804218:	7c 09 03 78 	mr      r9,r0
 180421c:	80 09 c7 f8 	lwz     r0,-14344(r9)
 1804220:	31 20 ff fc 	addic   r9,r0,-4
 1804224:	3c 00 01 82 	lis     r0,386
 1804228:	7c 0b 03 78 	mr      r11,r0
 180422c:	91 2b c7 f8 	stw     r9,-14344(r11)
 1804230:	81 3f 03 f4 	lwz     r9,1012(r31)
 1804234:	80 1f 03 f0 	lwz     r0,1008(r31)
 1804238:	7c 09 02 14 	add     r0,r9,r0
 180423c:	90 1f 03 ec 	stw     r0,1004(r31)
 1804240:	3c 00 01 82 	lis     r0,386
 1804244:	7c 09 03 78 	mr      r9,r0
 1804248:	80 09 c7 fc 	lwz     r0,-14340(r9)
 180424c:	3d 20 01 82 	lis     r9,386
 1804250:	39 29 c8 20 	addi    r9,r9,-14304
 1804254:	54 00 10 3a 	rlwinm  r0,r0,2,0,29
 1804258:	7c 09 02 14 	add     r0,r9,r0
 180425c:	81 3f 03 f4 	lwz     r9,1012(r31)
 1804260:	7c 0b 03 78 	mr      r11,r0
 1804264:	91 2b 00 00 	stw     r9,0(r11)
 1804268:	3c 00 01 82 	lis     r0,386
 180426c:	7c 09 03 78 	mr      r9,r0
 1804270:	80 09 c7 fc 	lwz     r0,-14340(r9)
 1804274:	30 00 00 01 	addic   r0,r0,1
 1804278:	3d 20 01 82 	lis     r9,386
 180427c:	39 29 c8 20 	addi    r9,r9,-14304
 1804280:	54 00 10 3a 	rlwinm  r0,r0,2,0,29
 1804284:	7c 09 02 14 	add     r0,r9,r0
 1804288:	81 3f 03 f0 	lwz     r9,1008(r31)
 180428c:	7c 0b 03 78 	mr      r11,r0
 1804290:	91 2b 00 00 	stw     r9,0(r11)
 1804294:	3c 00 01 82 	lis     r0,386
 1804298:	7c 09 03 78 	mr      r9,r0
 180429c:	80 09 c7 fc 	lwz     r0,-14340(r9)
 18042a0:	30 00 00 02 	addic   r0,r0,2
 18042a4:	3d 20 01 82 	lis     r9,386
 18042a8:	39 29 c8 20 	addi    r9,r9,-14304
 18042ac:	54 00 10 3a 	rlwinm  r0,r0,2,0,29
 18042b0:	7c 09 02 14 	add     r0,r9,r0
 18042b4:	81 3f 03 ec 	lwz     r9,1004(r31)
 18042b8:	7c 0b 03 78 	mr      r11,r0
 18042bc:	91 2b 00 00 	stw     r9,0(r11)
 18042c0:	3c 00 01 82 	lis     r0,386
 18042c4:	7c 09 03 78 	mr      r9,r0
 18042c8:	80 09 c7 fc 	lwz     r0,-14340(r9)
 18042cc:	31 20 00 03 	addic   r9,r0,3
 18042d0:	3c 00 01 82 	lis     r0,386
 18042d4:	7c 0b 03 78 	mr      r11,r0
 18042d8:	91 2b c7 fc 	stw     r9,-14340(r11)
 18042dc:	3c 00 01 82 	lis     r0,386
 18042e0:	7c 09 03 78 	mr      r9,r0
 18042e4:	80 09 c7 f8 	lwz     r0,-14344(r9)
 18042e8:	2f 80 00 04 	cmpwi   cr7,r0,4
 18042ec:	40 9d 01 8c 	ble-    cr7,1804478 <main+0x4258>
 18042f0:	3c 00 01 82 	lis     r0,386
 18042f4:	7c 0b 03 78 	mr      r11,r0
 18042f8:	80 0b c7 fc 	lwz     r0,-14340(r11)
 18042fc:	30 00 00 03 	addic   r0,r0,3
 1804300:	2f 80 00 06 	cmpwi   cr7,r0,6
 1804304:	41 9d 01 74 	bgt-    cr7,1804478 <main+0x4258>
 1804308:	3c 00 01 82 	lis     r0,386
 180430c:	30 00 c8 44 	addic   r0,r0,-14268
 1804310:	7c 0b 03 78 	mr      r11,r0
 1804314:	81 2b 00 10 	lwz     r9,16(r11)
 1804318:	3c 00 01 82 	lis     r0,386
 180431c:	30 00 c8 44 	addic   r0,r0,-14268
 1804320:	7c 0b 03 78 	mr      r11,r0
 1804324:	80 0b 00 04 	lwz     r0,4(r11)
 1804328:	7f 89 00 00 	cmpw    cr7,r9,r0
 180432c:	40 9e 01 4c 	bne-    cr7,1804478 <main+0x4258>
 1804330:	3c 00 01 82 	lis     r0,386
 1804334:	30 00 c8 44 	addic   r0,r0,-14268
 1804338:	7c 0b 03 78 	mr      r11,r0
 180433c:	81 2b 00 10 	lwz     r9,16(r11)
 1804340:	3c 00 01 82 	lis     r0,386
 1804344:	30 00 c8 44 	addic   r0,r0,-14268
 1804348:	7c 0b 03 78 	mr      r11,r0
 180434c:	80 0b 00 0c 	lwz     r0,12(r11)
 1804350:	7f 89 00 00 	cmpw    cr7,r9,r0
 1804354:	40 9e 01 24 	bne-    cr7,1804478 <main+0x4258>
 1804358:	3c 00 01 82 	lis     r0,386
 180435c:	30 00 c8 44 	addic   r0,r0,-14268
 1804360:	7c 09 03 78 	mr      r9,r0
 1804364:	80 09 00 00 	lwz     r0,0(r9)
 1804368:	90 1f 03 e8 	stw     r0,1000(r31)
 180436c:	3c 00 01 82 	lis     r0,386
 1804370:	30 00 c8 44 	addic   r0,r0,-14268
 1804374:	7c 0b 03 78 	mr      r11,r0
 1804378:	80 0b 00 10 	lwz     r0,16(r11)
 180437c:	90 1f 03 e4 	stw     r0,996(r31)
 1804380:	81 3f 03 e4 	lwz     r9,996(r31)
 1804384:	80 1f 03 e8 	lwz     r0,1000(r31)
 1804388:	7f 89 00 00 	cmpw    cr7,r9,r0
 180438c:	40 9d 00 ec 	ble-    cr7,1804478 <main+0x4258>
 1804390:	3c 00 01 82 	lis     r0,386
 1804394:	30 00 c8 44 	addic   r0,r0,-14268
 1804398:	7c 0b 03 78 	mr      r11,r0
 180439c:	81 2b 00 08 	lwz     r9,8(r11)
 18043a0:	3c 00 01 82 	lis     r0,386
 18043a4:	30 00 c8 44 	addic   r0,r0,-14268
 18043a8:	7c 0b 03 78 	mr      r11,r0
 18043ac:	91 2b 00 00 	stw     r9,0(r11)
 18043b0:	3c 00 01 82 	lis     r0,386
 18043b4:	7c 09 03 78 	mr      r9,r0
 18043b8:	80 09 c7 f8 	lwz     r0,-14344(r9)
 18043bc:	31 20 ff fc 	addic   r9,r0,-4
 18043c0:	3c 00 01 82 	lis     r0,386
 18043c4:	7c 0b 03 78 	mr      r11,r0
 18043c8:	91 2b c7 f8 	stw     r9,-14344(r11)
 18043cc:	81 3f 03 e8 	lwz     r9,1000(r31)
 18043d0:	80 1f 03 e4 	lwz     r0,996(r31)
 18043d4:	7c 09 02 14 	add     r0,r9,r0
 18043d8:	90 1f 03 e0 	stw     r0,992(r31)
 18043dc:	3c 00 01 82 	lis     r0,386
 18043e0:	7c 09 03 78 	mr      r9,r0
 18043e4:	80 09 c7 fc 	lwz     r0,-14340(r9)
 18043e8:	3d 20 01 82 	lis     r9,386
 18043ec:	39 29 c8 20 	addi    r9,r9,-14304
 18043f0:	54 00 10 3a 	rlwinm  r0,r0,2,0,29
 18043f4:	7c 09 02 14 	add     r0,r9,r0
 18043f8:	81 3f 03 e8 	lwz     r9,1000(r31)
 18043fc:	7c 0b 03 78 	mr      r11,r0
 1804400:	91 2b 00 00 	stw     r9,0(r11)
 1804404:	3c 00 01 82 	lis     r0,386
 1804408:	7c 09 03 78 	mr      r9,r0
 180440c:	80 09 c7 fc 	lwz     r0,-14340(r9)
 1804410:	30 00 00 01 	addic   r0,r0,1
 1804414:	3d 20 01 82 	lis     r9,386
 1804418:	39 29 c8 20 	addi    r9,r9,-14304
 180441c:	54 00 10 3a 	rlwinm  r0,r0,2,0,29
 1804420:	7c 09 02 14 	add     r0,r9,r0
 1804424:	81 3f 03 e4 	lwz     r9,996(r31)
 1804428:	7c 0b 03 78 	mr      r11,r0
 180442c:	91 2b 00 00 	stw     r9,0(r11)
 1804430:	3c 00 01 82 	lis     r0,386
 1804434:	7c 09 03 78 	mr      r9,r0
 1804438:	80 09 c7 fc 	lwz     r0,-14340(r9)
 180443c:	30 00 00 02 	addic   r0,r0,2
 1804440:	3d 20 01 82 	lis     r9,386
 1804444:	39 29 c8 20 	addi    r9,r9,-14304
 1804448:	54 00 10 3a 	rlwinm  r0,r0,2,0,29
 180444c:	7c 09 02 14 	add     r0,r9,r0
 1804450:	81 3f 03 e0 	lwz     r9,992(r31)
 1804454:	7c 0b 03 78 	mr      r11,r0
 1804458:	91 2b 00 00 	stw     r9,0(r11)
 180445c:	3c 00 01 82 	lis     r0,386
 1804460:	7c 09 03 78 	mr      r9,r0
 1804464:	80 09 c7 fc 	lwz     r0,-14340(r9)
 1804468:	31 20 00 03 	addic   r9,r0,3
 180446c:	3c 00 01 82 	lis     r0,386
 1804470:	7c 0b 03 78 	mr      r11,r0
 1804474:	91 2b c7 fc 	stw     r9,-14340(r11)
 1804478:	3c 00 01 82 	lis     r0,386
 180447c:	7c 09 03 78 	mr      r9,r0
 1804480:	80 09 c7 f8 	lwz     r0,-14344(r9)
 1804484:	2f 80 00 04 	cmpwi   cr7,r0,4
 1804488:	40 9d 01 8c 	ble-    cr7,1804614 <main+0x43f4>
 180448c:	3c 00 01 82 	lis     r0,386
 1804490:	7c 0b 03 78 	mr      r11,r0
 1804494:	80 0b c7 fc 	lwz     r0,-14340(r11)
 1804498:	30 00 00 03 	addic   r0,r0,3
 180449c:	2f 80 00 06 	cmpwi   cr7,r0,6
 18044a0:	41 9d 01 74 	bgt-    cr7,1804614 <main+0x43f4>
 18044a4:	3c 00 01 82 	lis     r0,386
 18044a8:	30 00 c8 44 	addic   r0,r0,-14268
 18044ac:	7c 0b 03 78 	mr      r11,r0
 18044b0:	81 2b 00 10 	lwz     r9,16(r11)
 18044b4:	3c 00 01 82 	lis     r0,386
 18044b8:	30 00 c8 44 	addic   r0,r0,-14268
 18044bc:	7c 0b 03 78 	mr      r11,r0
 18044c0:	80 0b 00 08 	lwz     r0,8(r11)
 18044c4:	7f 89 00 00 	cmpw    cr7,r9,r0
 18044c8:	40 9e 01 4c 	bne-    cr7,1804614 <main+0x43f4>
 18044cc:	3c 00 01 82 	lis     r0,386
 18044d0:	30 00 c8 44 	addic   r0,r0,-14268
 18044d4:	7c 0b 03 78 	mr      r11,r0
 18044d8:	81 2b 00 10 	lwz     r9,16(r11)
 18044dc:	3c 00 01 82 	lis     r0,386
 18044e0:	30 00 c8 44 	addic   r0,r0,-14268
 18044e4:	7c 0b 03 78 	mr      r11,r0
 18044e8:	80 0b 00 04 	lwz     r0,4(r11)
 18044ec:	7f 89 00 00 	cmpw    cr7,r9,r0
 18044f0:	40 9e 01 24 	bne-    cr7,1804614 <main+0x43f4>
 18044f4:	3c 00 01 82 	lis     r0,386
 18044f8:	30 00 c8 44 	addic   r0,r0,-14268
 18044fc:	7c 09 03 78 	mr      r9,r0
 1804500:	80 09 00 00 	lwz     r0,0(r9)
 1804504:	90 1f 03 dc 	stw     r0,988(r31)
 1804508:	3c 00 01 82 	lis     r0,386
 180450c:	30 00 c8 44 	addic   r0,r0,-14268
 1804510:	7c 0b 03 78 	mr      r11,r0
 1804514:	80 0b 00 10 	lwz     r0,16(r11)
 1804518:	90 1f 03 d8 	stw     r0,984(r31)
 180451c:	81 3f 03 d8 	lwz     r9,984(r31)
 1804520:	80 1f 03 dc 	lwz     r0,988(r31)
 1804524:	7f 89 00 00 	cmpw    cr7,r9,r0
 1804528:	40 9d 00 ec 	ble-    cr7,1804614 <main+0x43f4>
 180452c:	3c 00 01 82 	lis     r0,386
 1804530:	30 00 c8 44 	addic   r0,r0,-14268
 1804534:	7c 0b 03 78 	mr      r11,r0
 1804538:	81 2b 00 0c 	lwz     r9,12(r11)
 180453c:	3c 00 01 82 	lis     r0,386
 1804540:	30 00 c8 44 	addic   r0,r0,-14268
 1804544:	7c 0b 03 78 	mr      r11,r0
 1804548:	91 2b 00 00 	stw     r9,0(r11)
 180454c:	3c 00 01 82 	lis     r0,386
 1804550:	7c 09 03 78 	mr      r9,r0
 1804554:	80 09 c7 f8 	lwz     r0,-14344(r9)
 1804558:	31 20 ff fc 	addic   r9,r0,-4
 180455c:	3c 00 01 82 	lis     r0,386
 1804560:	7c 0b 03 78 	mr      r11,r0
 1804564:	91 2b c7 f8 	stw     r9,-14344(r11)
 1804568:	81 3f 03 dc 	lwz     r9,988(r31)
 180456c:	80 1f 03 d8 	lwz     r0,984(r31)
 1804570:	7c 09 02 14 	add     r0,r9,r0
 1804574:	90 1f 03 d4 	stw     r0,980(r31)
 1804578:	3c 00 01 82 	lis     r0,386
 180457c:	7c 09 03 78 	mr      r9,r0
 1804580:	80 09 c7 fc 	lwz     r0,-14340(r9)
 1804584:	3d 20 01 82 	lis     r9,386
 1804588:	39 29 c8 20 	addi    r9,r9,-14304
 180458c:	54 00 10 3a 	rlwinm  r0,r0,2,0,29
 1804590:	7c 09 02 14 	add     r0,r9,r0
 1804594:	81 3f 03 dc 	lwz     r9,988(r31)
 1804598:	7c 0b 03 78 	mr      r11,r0
 180459c:	91 2b 00 00 	stw     r9,0(r11)
 18045a0:	3c 00 01 82 	lis     r0,386
 18045a4:	7c 09 03 78 	mr      r9,r0
 18045a8:	80 09 c7 fc 	lwz     r0,-14340(r9)
 18045ac:	30 00 00 01 	addic   r0,r0,1
 18045b0:	3d 20 01 82 	lis     r9,386
 18045b4:	39 29 c8 20 	addi    r9,r9,-14304
 18045b8:	54 00 10 3a 	rlwinm  r0,r0,2,0,29
 18045bc:	7c 09 02 14 	add     r0,r9,r0
 18045c0:	81 3f 03 d8 	lwz     r9,984(r31)
 18045c4:	7c 0b 03 78 	mr      r11,r0
 18045c8:	91 2b 00 00 	stw     r9,0(r11)
 18045cc:	3c 00 01 82 	lis     r0,386
 18045d0:	7c 09 03 78 	mr      r9,r0
 18045d4:	80 09 c7 fc 	lwz     r0,-14340(r9)
 18045d8:	30 00 00 02 	addic   r0,r0,2
 18045dc:	3d 20 01 82 	lis     r9,386
 18045e0:	39 29 c8 20 	addi    r9,r9,-14304
 18045e4:	54 00 10 3a 	rlwinm  r0,r0,2,0,29
 18045e8:	7c 09 02 14 	add     r0,r9,r0
 18045ec:	81 3f 03 d4 	lwz     r9,980(r31)
 18045f0:	7c 0b 03 78 	mr      r11,r0
 18045f4:	91 2b 00 00 	stw     r9,0(r11)
 18045f8:	3c 00 01 82 	lis     r0,386
 18045fc:	7c 09 03 78 	mr      r9,r0
 1804600:	80 09 c7 fc 	lwz     r0,-14340(r9)
 1804604:	31 20 00 03 	addic   r9,r0,3
 1804608:	3c 00 01 82 	lis     r0,386
 180460c:	7c 0b 03 78 	mr      r11,r0
 1804610:	91 2b c7 fc 	stw     r9,-14340(r11)
 1804614:	3c 00 01 82 	lis     r0,386
 1804618:	7c 09 03 78 	mr      r9,r0
 180461c:	80 09 c7 f8 	lwz     r0,-14344(r9)
 1804620:	2f 80 00 04 	cmpwi   cr7,r0,4
 1804624:	40 9d 01 8c 	ble-    cr7,18047b0 <main+0x4590>
 1804628:	3c 00 01 82 	lis     r0,386
 180462c:	7c 0b 03 78 	mr      r11,r0
 1804630:	80 0b c7 fc 	lwz     r0,-14340(r11)
 1804634:	30 00 00 03 	addic   r0,r0,3
 1804638:	2f 80 00 06 	cmpwi   cr7,r0,6
 180463c:	41 9d 01 74 	bgt-    cr7,18047b0 <main+0x4590>
 1804640:	3c 00 01 82 	lis     r0,386
 1804644:	30 00 c8 44 	addic   r0,r0,-14268
 1804648:	7c 0b 03 78 	mr      r11,r0
 180464c:	81 2b 00 10 	lwz     r9,16(r11)
 1804650:	3c 00 01 82 	lis     r0,386
 1804654:	30 00 c8 44 	addic   r0,r0,-14268
 1804658:	7c 0b 03 78 	mr      r11,r0
 180465c:	80 0b 00 08 	lwz     r0,8(r11)
 1804660:	7f 89 00 00 	cmpw    cr7,r9,r0
 1804664:	40 9e 01 4c 	bne-    cr7,18047b0 <main+0x4590>
 1804668:	3c 00 01 82 	lis     r0,386
 180466c:	30 00 c8 44 	addic   r0,r0,-14268
 1804670:	7c 0b 03 78 	mr      r11,r0
 1804674:	81 2b 00 10 	lwz     r9,16(r11)
 1804678:	3c 00 01 82 	lis     r0,386
 180467c:	30 00 c8 44 	addic   r0,r0,-14268
 1804680:	7c 0b 03 78 	mr      r11,r0
 1804684:	80 0b 00 0c 	lwz     r0,12(r11)
 1804688:	7f 89 00 00 	cmpw    cr7,r9,r0
 180468c:	40 9e 01 24 	bne-    cr7,18047b0 <main+0x4590>
 1804690:	3c 00 01 82 	lis     r0,386
 1804694:	30 00 c8 44 	addic   r0,r0,-14268
 1804698:	7c 09 03 78 	mr      r9,r0
 180469c:	80 09 00 00 	lwz     r0,0(r9)
 18046a0:	90 1f 03 d0 	stw     r0,976(r31)
 18046a4:	3c 00 01 82 	lis     r0,386
 18046a8:	30 00 c8 44 	addic   r0,r0,-14268
 18046ac:	7c 0b 03 78 	mr      r11,r0
 18046b0:	80 0b 00 10 	lwz     r0,16(r11)
 18046b4:	90 1f 03 cc 	stw     r0,972(r31)
 18046b8:	81 3f 03 cc 	lwz     r9,972(r31)
 18046bc:	80 1f 03 d0 	lwz     r0,976(r31)
 18046c0:	7f 89 00 00 	cmpw    cr7,r9,r0
 18046c4:	40 9d 00 ec 	ble-    cr7,18047b0 <main+0x4590>
 18046c8:	3c 00 01 82 	lis     r0,386
 18046cc:	30 00 c8 44 	addic   r0,r0,-14268
 18046d0:	7c 0b 03 78 	mr      r11,r0
 18046d4:	81 2b 00 04 	lwz     r9,4(r11)
 18046d8:	3c 00 01 82 	lis     r0,386
 18046dc:	30 00 c8 44 	addic   r0,r0,-14268
 18046e0:	7c 0b 03 78 	mr      r11,r0
 18046e4:	91 2b 00 00 	stw     r9,0(r11)
 18046e8:	3c 00 01 82 	lis     r0,386
 18046ec:	7c 09 03 78 	mr      r9,r0
 18046f0:	80 09 c7 f8 	lwz     r0,-14344(r9)
 18046f4:	31 20 ff fc 	addic   r9,r0,-4
 18046f8:	3c 00 01 82 	lis     r0,386
 18046fc:	7c 0b 03 78 	mr      r11,r0
 1804700:	91 2b c7 f8 	stw     r9,-14344(r11)
 1804704:	81 3f 03 d0 	lwz     r9,976(r31)
 1804708:	80 1f 03 cc 	lwz     r0,972(r31)
 180470c:	7c 09 02 14 	add     r0,r9,r0
 1804710:	90 1f 03 c8 	stw     r0,968(r31)
 1804714:	3c 00 01 82 	lis     r0,386
 1804718:	7c 09 03 78 	mr      r9,r0
 180471c:	80 09 c7 fc 	lwz     r0,-14340(r9)
 1804720:	3d 20 01 82 	lis     r9,386
 1804724:	39 29 c8 20 	addi    r9,r9,-14304
 1804728:	54 00 10 3a 	rlwinm  r0,r0,2,0,29
 180472c:	7c 09 02 14 	add     r0,r9,r0
 1804730:	81 3f 03 d0 	lwz     r9,976(r31)
 1804734:	7c 0b 03 78 	mr      r11,r0
 1804738:	91 2b 00 00 	stw     r9,0(r11)
 180473c:	3c 00 01 82 	lis     r0,386
 1804740:	7c 09 03 78 	mr      r9,r0
 1804744:	80 09 c7 fc 	lwz     r0,-14340(r9)
 1804748:	30 00 00 01 	addic   r0,r0,1
 180474c:	3d 20 01 82 	lis     r9,386
 1804750:	39 29 c8 20 	addi    r9,r9,-14304
 1804754:	54 00 10 3a 	rlwinm  r0,r0,2,0,29
 1804758:	7c 09 02 14 	add     r0,r9,r0
 180475c:	81 3f 03 cc 	lwz     r9,972(r31)
 1804760:	7c 0b 03 78 	mr      r11,r0
 1804764:	91 2b 00 00 	stw     r9,0(r11)
 1804768:	3c 00 01 82 	lis     r0,386
 180476c:	7c 09 03 78 	mr      r9,r0
 1804770:	80 09 c7 fc 	lwz     r0,-14340(r9)
 1804774:	30 00 00 02 	addic   r0,r0,2
 1804778:	3d 20 01 82 	lis     r9,386
 180477c:	39 29 c8 20 	addi    r9,r9,-14304
 1804780:	54 00 10 3a 	rlwinm  r0,r0,2,0,29
 1804784:	7c 09 02 14 	add     r0,r9,r0
 1804788:	81 3f 03 c8 	lwz     r9,968(r31)
 180478c:	7c 0b 03 78 	mr      r11,r0
 1804790:	91 2b 00 00 	stw     r9,0(r11)
 1804794:	3c 00 01 82 	lis     r0,386
 1804798:	7c 09 03 78 	mr      r9,r0
 180479c:	80 09 c7 fc 	lwz     r0,-14340(r9)
 18047a0:	31 20 00 03 	addic   r9,r0,3
 18047a4:	3c 00 01 82 	lis     r0,386
 18047a8:	7c 0b 03 78 	mr      r11,r0
 18047ac:	91 2b c7 fc 	stw     r9,-14340(r11)
 18047b0:	3c 00 01 82 	lis     r0,386
 18047b4:	7c 09 03 78 	mr      r9,r0
 18047b8:	80 09 c7 f8 	lwz     r0,-14344(r9)
 18047bc:	2f 80 00 04 	cmpwi   cr7,r0,4
 18047c0:	40 9d 01 8c 	ble-    cr7,180494c <main+0x472c>
 18047c4:	3c 00 01 82 	lis     r0,386
 18047c8:	7c 0b 03 78 	mr      r11,r0
 18047cc:	80 0b c7 fc 	lwz     r0,-14340(r11)
 18047d0:	30 00 00 03 	addic   r0,r0,3
 18047d4:	2f 80 00 06 	cmpwi   cr7,r0,6
 18047d8:	41 9d 01 74 	bgt-    cr7,180494c <main+0x472c>
 18047dc:	3c 00 01 82 	lis     r0,386
 18047e0:	30 00 c8 44 	addic   r0,r0,-14268
 18047e4:	7c 0b 03 78 	mr      r11,r0
 18047e8:	81 2b 00 10 	lwz     r9,16(r11)
 18047ec:	3c 00 01 82 	lis     r0,386
 18047f0:	30 00 c8 44 	addic   r0,r0,-14268
 18047f4:	7c 0b 03 78 	mr      r11,r0
 18047f8:	80 0b 00 0c 	lwz     r0,12(r11)
 18047fc:	7f 89 00 00 	cmpw    cr7,r9,r0
 1804800:	40 9e 01 4c 	bne-    cr7,180494c <main+0x472c>
 1804804:	3c 00 01 82 	lis     r0,386
 1804808:	30 00 c8 44 	addic   r0,r0,-14268
 180480c:	7c 0b 03 78 	mr      r11,r0
 1804810:	81 2b 00 10 	lwz     r9,16(r11)
 1804814:	3c 00 01 82 	lis     r0,386
 1804818:	30 00 c8 44 	addic   r0,r0,-14268
 180481c:	7c 0b 03 78 	mr      r11,r0
 1804820:	80 0b 00 04 	lwz     r0,4(r11)
 1804824:	7f 89 00 00 	cmpw    cr7,r9,r0
 1804828:	40 9e 01 24 	bne-    cr7,180494c <main+0x472c>
 180482c:	3c 00 01 82 	lis     r0,386
 1804830:	30 00 c8 44 	addic   r0,r0,-14268
 1804834:	7c 09 03 78 	mr      r9,r0
 1804838:	80 09 00 00 	lwz     r0,0(r9)
 180483c:	90 1f 03 c4 	stw     r0,964(r31)
 1804840:	3c 00 01 82 	lis     r0,386
 1804844:	30 00 c8 44 	addic   r0,r0,-14268
 1804848:	7c 0b 03 78 	mr      r11,r0
 180484c:	80 0b 00 10 	lwz     r0,16(r11)
 1804850:	90 1f 03 c0 	stw     r0,960(r31)
 1804854:	81 3f 03 c0 	lwz     r9,960(r31)
 1804858:	80 1f 03 c4 	lwz     r0,964(r31)
 180485c:	7f 89 00 00 	cmpw    cr7,r9,r0
 1804860:	40 9d 00 ec 	ble-    cr7,180494c <main+0x472c>
 1804864:	3c 00 01 82 	lis     r0,386
 1804868:	30 00 c8 44 	addic   r0,r0,-14268
 180486c:	7c 0b 03 78 	mr      r11,r0
 1804870:	81 2b 00 08 	lwz     r9,8(r11)
 1804874:	3c 00 01 82 	lis     r0,386
 1804878:	30 00 c8 44 	addic   r0,r0,-14268
 180487c:	7c 0b 03 78 	mr      r11,r0
 1804880:	91 2b 00 00 	stw     r9,0(r11)
 1804884:	3c 00 01 82 	lis     r0,386
 1804888:	7c 09 03 78 	mr      r9,r0
 180488c:	80 09 c7 f8 	lwz     r0,-14344(r9)
 1804890:	31 20 ff fc 	addic   r9,r0,-4
 1804894:	3c 00 01 82 	lis     r0,386
 1804898:	7c 0b 03 78 	mr      r11,r0
 180489c:	91 2b c7 f8 	stw     r9,-14344(r11)
 18048a0:	81 3f 03 c4 	lwz     r9,964(r31)
 18048a4:	80 1f 03 c0 	lwz     r0,960(r31)
 18048a8:	7c 09 02 14 	add     r0,r9,r0
 18048ac:	90 1f 03 bc 	stw     r0,956(r31)
 18048b0:	3c 00 01 82 	lis     r0,386
 18048b4:	7c 09 03 78 	mr      r9,r0
 18048b8:	80 09 c7 fc 	lwz     r0,-14340(r9)
 18048bc:	3d 20 01 82 	lis     r9,386
 18048c0:	39 29 c8 20 	addi    r9,r9,-14304
 18048c4:	54 00 10 3a 	rlwinm  r0,r0,2,0,29
 18048c8:	7c 09 02 14 	add     r0,r9,r0
 18048cc:	81 3f 03 c4 	lwz     r9,964(r31)
 18048d0:	7c 0b 03 78 	mr      r11,r0
 18048d4:	91 2b 00 00 	stw     r9,0(r11)
 18048d8:	3c 00 01 82 	lis     r0,386
 18048dc:	7c 09 03 78 	mr      r9,r0
 18048e0:	80 09 c7 fc 	lwz     r0,-14340(r9)
 18048e4:	30 00 00 01 	addic   r0,r0,1
 18048e8:	3d 20 01 82 	lis     r9,386
 18048ec:	39 29 c8 20 	addi    r9,r9,-14304
 18048f0:	54 00 10 3a 	rlwinm  r0,r0,2,0,29
 18048f4:	7c 09 02 14 	add     r0,r9,r0
 18048f8:	81 3f 03 c0 	lwz     r9,960(r31)
 18048fc:	7c 0b 03 78 	mr      r11,r0
 1804900:	91 2b 00 00 	stw     r9,0(r11)
 1804904:	3c 00 01 82 	lis     r0,386
 1804908:	7c 09 03 78 	mr      r9,r0
 180490c:	80 09 c7 fc 	lwz     r0,-14340(r9)
 1804910:	30 00 00 02 	addic   r0,r0,2
 1804914:	3d 20 01 82 	lis     r9,386
 1804918:	39 29 c8 20 	addi    r9,r9,-14304
 180491c:	54 00 10 3a 	rlwinm  r0,r0,2,0,29
 1804920:	7c 09 02 14 	add     r0,r9,r0
 1804924:	81 3f 03 bc 	lwz     r9,956(r31)
 1804928:	7c 0b 03 78 	mr      r11,r0
 180492c:	91 2b 00 00 	stw     r9,0(r11)
 1804930:	3c 00 01 82 	lis     r0,386
 1804934:	7c 09 03 78 	mr      r9,r0
 1804938:	80 09 c7 fc 	lwz     r0,-14340(r9)
 180493c:	31 20 00 03 	addic   r9,r0,3
 1804940:	3c 00 01 82 	lis     r0,386
 1804944:	7c 0b 03 78 	mr      r11,r0
 1804948:	91 2b c7 fc 	stw     r9,-14340(r11)
 180494c:	3c 00 01 82 	lis     r0,386
 1804950:	7c 09 03 78 	mr      r9,r0
 1804954:	80 09 c7 f8 	lwz     r0,-14344(r9)
 1804958:	2f 80 00 04 	cmpwi   cr7,r0,4
 180495c:	40 9d 01 8c 	ble-    cr7,1804ae8 <main+0x48c8>
 1804960:	3c 00 01 82 	lis     r0,386
 1804964:	7c 0b 03 78 	mr      r11,r0
 1804968:	80 0b c7 fc 	lwz     r0,-14340(r11)
 180496c:	30 00 00 03 	addic   r0,r0,3
 1804970:	2f 80 00 06 	cmpwi   cr7,r0,6
 1804974:	41 9d 01 74 	bgt-    cr7,1804ae8 <main+0x48c8>
 1804978:	3c 00 01 82 	lis     r0,386
 180497c:	30 00 c8 44 	addic   r0,r0,-14268
 1804980:	7c 0b 03 78 	mr      r11,r0
 1804984:	81 2b 00 10 	lwz     r9,16(r11)
 1804988:	3c 00 01 82 	lis     r0,386
 180498c:	30 00 c8 44 	addic   r0,r0,-14268
 1804990:	7c 0b 03 78 	mr      r11,r0
 1804994:	80 0b 00 0c 	lwz     r0,12(r11)
 1804998:	7f 89 00 00 	cmpw    cr7,r9,r0
 180499c:	40 9e 01 4c 	bne-    cr7,1804ae8 <main+0x48c8>
 18049a0:	3c 00 01 82 	lis     r0,386
 18049a4:	30 00 c8 44 	addic   r0,r0,-14268
 18049a8:	7c 0b 03 78 	mr      r11,r0
 18049ac:	81 2b 00 10 	lwz     r9,16(r11)
 18049b0:	3c 00 01 82 	lis     r0,386
 18049b4:	30 00 c8 44 	addic   r0,r0,-14268
 18049b8:	7c 0b 03 78 	mr      r11,r0
 18049bc:	80 0b 00 08 	lwz     r0,8(r11)
 18049c0:	7f 89 00 00 	cmpw    cr7,r9,r0
 18049c4:	40 9e 01 24 	bne-    cr7,1804ae8 <main+0x48c8>
 18049c8:	3c 00 01 82 	lis     r0,386
 18049cc:	30 00 c8 44 	addic   r0,r0,-14268
 18049d0:	7c 09 03 78 	mr      r9,r0
 18049d4:	80 09 00 00 	lwz     r0,0(r9)
 18049d8:	90 1f 03 b8 	stw     r0,952(r31)
 18049dc:	3c 00 01 82 	lis     r0,386
 18049e0:	30 00 c8 44 	addic   r0,r0,-14268
 18049e4:	7c 0b 03 78 	mr      r11,r0
 18049e8:	80 0b 00 10 	lwz     r0,16(r11)
 18049ec:	90 1f 03 b4 	stw     r0,948(r31)
 18049f0:	81 3f 03 b4 	lwz     r9,948(r31)
 18049f4:	80 1f 03 b8 	lwz     r0,952(r31)
 18049f8:	7f 89 00 00 	cmpw    cr7,r9,r0
 18049fc:	40 9d 00 ec 	ble-    cr7,1804ae8 <main+0x48c8>
 1804a00:	3c 00 01 82 	lis     r0,386
 1804a04:	30 00 c8 44 	addic   r0,r0,-14268
 1804a08:	7c 0b 03 78 	mr      r11,r0
 1804a0c:	81 2b 00 04 	lwz     r9,4(r11)
 1804a10:	3c 00 01 82 	lis     r0,386
 1804a14:	30 00 c8 44 	addic   r0,r0,-14268
 1804a18:	7c 0b 03 78 	mr      r11,r0
 1804a1c:	91 2b 00 00 	stw     r9,0(r11)
 1804a20:	3c 00 01 82 	lis     r0,386
 1804a24:	7c 09 03 78 	mr      r9,r0
 1804a28:	80 09 c7 f8 	lwz     r0,-14344(r9)
 1804a2c:	31 20 ff fc 	addic   r9,r0,-4
 1804a30:	3c 00 01 82 	lis     r0,386
 1804a34:	7c 0b 03 78 	mr      r11,r0
 1804a38:	91 2b c7 f8 	stw     r9,-14344(r11)
 1804a3c:	81 3f 03 b8 	lwz     r9,952(r31)
 1804a40:	80 1f 03 b4 	lwz     r0,948(r31)
 1804a44:	7c 09 02 14 	add     r0,r9,r0
 1804a48:	90 1f 03 b0 	stw     r0,944(r31)
 1804a4c:	3c 00 01 82 	lis     r0,386
 1804a50:	7c 09 03 78 	mr      r9,r0
 1804a54:	80 09 c7 fc 	lwz     r0,-14340(r9)
 1804a58:	3d 20 01 82 	lis     r9,386
 1804a5c:	39 29 c8 20 	addi    r9,r9,-14304
 1804a60:	54 00 10 3a 	rlwinm  r0,r0,2,0,29
 1804a64:	7c 09 02 14 	add     r0,r9,r0
 1804a68:	81 3f 03 b8 	lwz     r9,952(r31)
 1804a6c:	7c 0b 03 78 	mr      r11,r0
 1804a70:	91 2b 00 00 	stw     r9,0(r11)
 1804a74:	3c 00 01 82 	lis     r0,386
 1804a78:	7c 09 03 78 	mr      r9,r0
 1804a7c:	80 09 c7 fc 	lwz     r0,-14340(r9)
 1804a80:	30 00 00 01 	addic   r0,r0,1
 1804a84:	3d 20 01 82 	lis     r9,386
 1804a88:	39 29 c8 20 	addi    r9,r9,-14304
 1804a8c:	54 00 10 3a 	rlwinm  r0,r0,2,0,29
 1804a90:	7c 09 02 14 	add     r0,r9,r0
 1804a94:	81 3f 03 b4 	lwz     r9,948(r31)
 1804a98:	7c 0b 03 78 	mr      r11,r0
 1804a9c:	91 2b 00 00 	stw     r9,0(r11)
 1804aa0:	3c 00 01 82 	lis     r0,386
 1804aa4:	7c 09 03 78 	mr      r9,r0
 1804aa8:	80 09 c7 fc 	lwz     r0,-14340(r9)
 1804aac:	30 00 00 02 	addic   r0,r0,2
 1804ab0:	3d 20 01 82 	lis     r9,386
 1804ab4:	39 29 c8 20 	addi    r9,r9,-14304
 1804ab8:	54 00 10 3a 	rlwinm  r0,r0,2,0,29
 1804abc:	7c 09 02 14 	add     r0,r9,r0
 1804ac0:	81 3f 03 b0 	lwz     r9,944(r31)
 1804ac4:	7c 0b 03 78 	mr      r11,r0
 1804ac8:	91 2b 00 00 	stw     r9,0(r11)
 1804acc:	3c 00 01 82 	lis     r0,386
 1804ad0:	7c 09 03 78 	mr      r9,r0
 1804ad4:	80 09 c7 fc 	lwz     r0,-14340(r9)
 1804ad8:	31 20 00 03 	addic   r9,r0,3
 1804adc:	3c 00 01 82 	lis     r0,386
 1804ae0:	7c 0b 03 78 	mr      r11,r0
 1804ae4:	91 2b c7 fc 	stw     r9,-14340(r11)
 1804ae8:	3c 00 01 82 	lis     r0,386
 1804aec:	7c 09 03 78 	mr      r9,r0
 1804af0:	80 09 c7 f8 	lwz     r0,-14344(r9)
 1804af4:	2f 80 00 04 	cmpwi   cr7,r0,4
 1804af8:	40 9d 01 8c 	ble-    cr7,1804c84 <main+0x4a64>
 1804afc:	3c 00 01 82 	lis     r0,386
 1804b00:	7c 0b 03 78 	mr      r11,r0
 1804b04:	80 0b c7 fc 	lwz     r0,-14340(r11)
 1804b08:	30 00 00 03 	addic   r0,r0,3
 1804b0c:	2f 80 00 06 	cmpwi   cr7,r0,6
 1804b10:	41 9d 01 74 	bgt-    cr7,1804c84 <main+0x4a64>
 1804b14:	3c 00 01 82 	lis     r0,386
 1804b18:	30 00 c8 44 	addic   r0,r0,-14268
 1804b1c:	7c 0b 03 78 	mr      r11,r0
 1804b20:	81 2b 00 00 	lwz     r9,0(r11)
 1804b24:	3c 00 01 82 	lis     r0,386
 1804b28:	30 00 c8 44 	addic   r0,r0,-14268
 1804b2c:	7c 0b 03 78 	mr      r11,r0
 1804b30:	80 0b 00 08 	lwz     r0,8(r11)
 1804b34:	7f 89 00 00 	cmpw    cr7,r9,r0
 1804b38:	40 9e 01 4c 	bne-    cr7,1804c84 <main+0x4a64>
 1804b3c:	3c 00 01 82 	lis     r0,386
 1804b40:	30 00 c8 44 	addic   r0,r0,-14268
 1804b44:	7c 0b 03 78 	mr      r11,r0
 1804b48:	81 2b 00 00 	lwz     r9,0(r11)
 1804b4c:	3c 00 01 82 	lis     r0,386
 1804b50:	30 00 c8 44 	addic   r0,r0,-14268
 1804b54:	7c 0b 03 78 	mr      r11,r0
 1804b58:	80 0b 00 10 	lwz     r0,16(r11)
 1804b5c:	7f 89 00 00 	cmpw    cr7,r9,r0
 1804b60:	40 9e 01 24 	bne-    cr7,1804c84 <main+0x4a64>
 1804b64:	3c 00 01 82 	lis     r0,386
 1804b68:	30 00 c8 44 	addic   r0,r0,-14268
 1804b6c:	7c 09 03 78 	mr      r9,r0
 1804b70:	80 09 00 04 	lwz     r0,4(r9)
 1804b74:	90 1f 03 ac 	stw     r0,940(r31)
 1804b78:	3c 00 01 82 	lis     r0,386
 1804b7c:	30 00 c8 44 	addic   r0,r0,-14268
 1804b80:	7c 0b 03 78 	mr      r11,r0
 1804b84:	80 0b 00 00 	lwz     r0,0(r11)
 1804b88:	90 1f 03 a8 	stw     r0,936(r31)
 1804b8c:	81 3f 03 a8 	lwz     r9,936(r31)
 1804b90:	80 1f 03 ac 	lwz     r0,940(r31)
 1804b94:	7f 89 00 00 	cmpw    cr7,r9,r0
 1804b98:	40 9d 00 ec 	ble-    cr7,1804c84 <main+0x4a64>
 1804b9c:	3c 00 01 82 	lis     r0,386
 1804ba0:	30 00 c8 44 	addic   r0,r0,-14268
 1804ba4:	7c 0b 03 78 	mr      r11,r0
 1804ba8:	81 2b 00 0c 	lwz     r9,12(r11)
 1804bac:	3c 00 01 82 	lis     r0,386
 1804bb0:	30 00 c8 44 	addic   r0,r0,-14268
 1804bb4:	7c 0b 03 78 	mr      r11,r0
 1804bb8:	91 2b 00 00 	stw     r9,0(r11)
 1804bbc:	3c 00 01 82 	lis     r0,386
 1804bc0:	7c 09 03 78 	mr      r9,r0
 1804bc4:	80 09 c7 f8 	lwz     r0,-14344(r9)
 1804bc8:	31 20 ff fc 	addic   r9,r0,-4
 1804bcc:	3c 00 01 82 	lis     r0,386
 1804bd0:	7c 0b 03 78 	mr      r11,r0
 1804bd4:	91 2b c7 f8 	stw     r9,-14344(r11)
 1804bd8:	81 3f 03 ac 	lwz     r9,940(r31)
 1804bdc:	80 1f 03 a8 	lwz     r0,936(r31)
 1804be0:	7c 09 02 14 	add     r0,r9,r0
 1804be4:	90 1f 03 a4 	stw     r0,932(r31)
 1804be8:	3c 00 01 82 	lis     r0,386
 1804bec:	7c 09 03 78 	mr      r9,r0
 1804bf0:	80 09 c7 fc 	lwz     r0,-14340(r9)
 1804bf4:	3d 20 01 82 	lis     r9,386
 1804bf8:	39 29 c8 20 	addi    r9,r9,-14304
 1804bfc:	54 00 10 3a 	rlwinm  r0,r0,2,0,29
 1804c00:	7c 09 02 14 	add     r0,r9,r0
 1804c04:	81 3f 03 ac 	lwz     r9,940(r31)
 1804c08:	7c 0b 03 78 	mr      r11,r0
 1804c0c:	91 2b 00 00 	stw     r9,0(r11)
 1804c10:	3c 00 01 82 	lis     r0,386
 1804c14:	7c 09 03 78 	mr      r9,r0
 1804c18:	80 09 c7 fc 	lwz     r0,-14340(r9)
 1804c1c:	30 00 00 01 	addic   r0,r0,1
 1804c20:	3d 20 01 82 	lis     r9,386
 1804c24:	39 29 c8 20 	addi    r9,r9,-14304
 1804c28:	54 00 10 3a 	rlwinm  r0,r0,2,0,29
 1804c2c:	7c 09 02 14 	add     r0,r9,r0
 1804c30:	81 3f 03 a8 	lwz     r9,936(r31)
 1804c34:	7c 0b 03 78 	mr      r11,r0
 1804c38:	91 2b 00 00 	stw     r9,0(r11)
 1804c3c:	3c 00 01 82 	lis     r0,386
 1804c40:	7c 09 03 78 	mr      r9,r0
 1804c44:	80 09 c7 fc 	lwz     r0,-14340(r9)
 1804c48:	30 00 00 02 	addic   r0,r0,2
 1804c4c:	3d 20 01 82 	lis     r9,386
 1804c50:	39 29 c8 20 	addi    r9,r9,-14304
 1804c54:	54 00 10 3a 	rlwinm  r0,r0,2,0,29
 1804c58:	7c 09 02 14 	add     r0,r9,r0
 1804c5c:	81 3f 03 a4 	lwz     r9,932(r31)
 1804c60:	7c 0b 03 78 	mr      r11,r0
 1804c64:	91 2b 00 00 	stw     r9,0(r11)
 1804c68:	3c 00 01 82 	lis     r0,386
 1804c6c:	7c 09 03 78 	mr      r9,r0
 1804c70:	80 09 c7 fc 	lwz     r0,-14340(r9)
 1804c74:	31 20 00 03 	addic   r9,r0,3
 1804c78:	3c 00 01 82 	lis     r0,386
 1804c7c:	7c 0b 03 78 	mr      r11,r0
 1804c80:	91 2b c7 fc 	stw     r9,-14340(r11)
 1804c84:	3c 00 01 82 	lis     r0,386
 1804c88:	7c 09 03 78 	mr      r9,r0
 1804c8c:	80 09 c7 f8 	lwz     r0,-14344(r9)
 1804c90:	2f 80 00 04 	cmpwi   cr7,r0,4
 1804c94:	40 9d 01 8c 	ble-    cr7,1804e20 <main+0x4c00>
 1804c98:	3c 00 01 82 	lis     r0,386
 1804c9c:	7c 0b 03 78 	mr      r11,r0
 1804ca0:	80 0b c7 fc 	lwz     r0,-14340(r11)
 1804ca4:	30 00 00 03 	addic   r0,r0,3
 1804ca8:	2f 80 00 06 	cmpwi   cr7,r0,6
 1804cac:	41 9d 01 74 	bgt-    cr7,1804e20 <main+0x4c00>
 1804cb0:	3c 00 01 82 	lis     r0,386
 1804cb4:	30 00 c8 44 	addic   r0,r0,-14268
 1804cb8:	7c 0b 03 78 	mr      r11,r0
 1804cbc:	81 2b 00 00 	lwz     r9,0(r11)
 1804cc0:	3c 00 01 82 	lis     r0,386
 1804cc4:	30 00 c8 44 	addic   r0,r0,-14268
 1804cc8:	7c 0b 03 78 	mr      r11,r0
 1804ccc:	80 0b 00 0c 	lwz     r0,12(r11)
 1804cd0:	7f 89 00 00 	cmpw    cr7,r9,r0
 1804cd4:	40 9e 01 4c 	bne-    cr7,1804e20 <main+0x4c00>
 1804cd8:	3c 00 01 82 	lis     r0,386
 1804cdc:	30 00 c8 44 	addic   r0,r0,-14268
 1804ce0:	7c 0b 03 78 	mr      r11,r0
 1804ce4:	81 2b 00 00 	lwz     r9,0(r11)
 1804ce8:	3c 00 01 82 	lis     r0,386
 1804cec:	30 00 c8 44 	addic   r0,r0,-14268
 1804cf0:	7c 0b 03 78 	mr      r11,r0
 1804cf4:	80 0b 00 10 	lwz     r0,16(r11)
 1804cf8:	7f 89 00 00 	cmpw    cr7,r9,r0
 1804cfc:	40 9e 01 24 	bne-    cr7,1804e20 <main+0x4c00>
 1804d00:	3c 00 01 82 	lis     r0,386
 1804d04:	30 00 c8 44 	addic   r0,r0,-14268
 1804d08:	7c 09 03 78 	mr      r9,r0
 1804d0c:	80 09 00 04 	lwz     r0,4(r9)
 1804d10:	90 1f 03 a0 	stw     r0,928(r31)
 1804d14:	3c 00 01 82 	lis     r0,386
 1804d18:	30 00 c8 44 	addic   r0,r0,-14268
 1804d1c:	7c 0b 03 78 	mr      r11,r0
 1804d20:	80 0b 00 00 	lwz     r0,0(r11)
 1804d24:	90 1f 03 9c 	stw     r0,924(r31)
 1804d28:	81 3f 03 9c 	lwz     r9,924(r31)
 1804d2c:	80 1f 03 a0 	lwz     r0,928(r31)
 1804d30:	7f 89 00 00 	cmpw    cr7,r9,r0
 1804d34:	40 9d 00 ec 	ble-    cr7,1804e20 <main+0x4c00>
 1804d38:	3c 00 01 82 	lis     r0,386
 1804d3c:	30 00 c8 44 	addic   r0,r0,-14268
 1804d40:	7c 0b 03 78 	mr      r11,r0
 1804d44:	81 2b 00 08 	lwz     r9,8(r11)
 1804d48:	3c 00 01 82 	lis     r0,386
 1804d4c:	30 00 c8 44 	addic   r0,r0,-14268
 1804d50:	7c 0b 03 78 	mr      r11,r0
 1804d54:	91 2b 00 00 	stw     r9,0(r11)
 1804d58:	3c 00 01 82 	lis     r0,386
 1804d5c:	7c 09 03 78 	mr      r9,r0
 1804d60:	80 09 c7 f8 	lwz     r0,-14344(r9)
 1804d64:	31 20 ff fc 	addic   r9,r0,-4
 1804d68:	3c 00 01 82 	lis     r0,386
 1804d6c:	7c 0b 03 78 	mr      r11,r0
 1804d70:	91 2b c7 f8 	stw     r9,-14344(r11)
 1804d74:	81 3f 03 a0 	lwz     r9,928(r31)
 1804d78:	80 1f 03 9c 	lwz     r0,924(r31)
 1804d7c:	7c 09 02 14 	add     r0,r9,r0
 1804d80:	90 1f 03 98 	stw     r0,920(r31)
 1804d84:	3c 00 01 82 	lis     r0,386
 1804d88:	7c 09 03 78 	mr      r9,r0
 1804d8c:	80 09 c7 fc 	lwz     r0,-14340(r9)
 1804d90:	3d 20 01 82 	lis     r9,386
 1804d94:	39 29 c8 20 	addi    r9,r9,-14304
 1804d98:	54 00 10 3a 	rlwinm  r0,r0,2,0,29
 1804d9c:	7c 09 02 14 	add     r0,r9,r0
 1804da0:	81 3f 03 a0 	lwz     r9,928(r31)
 1804da4:	7c 0b 03 78 	mr      r11,r0
 1804da8:	91 2b 00 00 	stw     r9,0(r11)
 1804dac:	3c 00 01 82 	lis     r0,386
 1804db0:	7c 09 03 78 	mr      r9,r0
 1804db4:	80 09 c7 fc 	lwz     r0,-14340(r9)
 1804db8:	30 00 00 01 	addic   r0,r0,1
 1804dbc:	3d 20 01 82 	lis     r9,386
 1804dc0:	39 29 c8 20 	addi    r9,r9,-14304
 1804dc4:	54 00 10 3a 	rlwinm  r0,r0,2,0,29
 1804dc8:	7c 09 02 14 	add     r0,r9,r0
 1804dcc:	81 3f 03 9c 	lwz     r9,924(r31)
 1804dd0:	7c 0b 03 78 	mr      r11,r0
 1804dd4:	91 2b 00 00 	stw     r9,0(r11)
 1804dd8:	3c 00 01 82 	lis     r0,386
 1804ddc:	7c 09 03 78 	mr      r9,r0
 1804de0:	80 09 c7 fc 	lwz     r0,-14340(r9)
 1804de4:	30 00 00 02 	addic   r0,r0,2
 1804de8:	3d 20 01 82 	lis     r9,386
 1804dec:	39 29 c8 20 	addi    r9,r9,-14304
 1804df0:	54 00 10 3a 	rlwinm  r0,r0,2,0,29
 1804df4:	7c 09 02 14 	add     r0,r9,r0
 1804df8:	81 3f 03 98 	lwz     r9,920(r31)
 1804dfc:	7c 0b 03 78 	mr      r11,r0
 1804e00:	91 2b 00 00 	stw     r9,0(r11)
 1804e04:	3c 00 01 82 	lis     r0,386
 1804e08:	7c 09 03 78 	mr      r9,r0
 1804e0c:	80 09 c7 fc 	lwz     r0,-14340(r9)
 1804e10:	31 20 00 03 	addic   r9,r0,3
 1804e14:	3c 00 01 82 	lis     r0,386
 1804e18:	7c 0b 03 78 	mr      r11,r0
 1804e1c:	91 2b c7 fc 	stw     r9,-14340(r11)
 1804e20:	3c 00 01 82 	lis     r0,386
 1804e24:	7c 09 03 78 	mr      r9,r0
 1804e28:	80 09 c7 f8 	lwz     r0,-14344(r9)
 1804e2c:	2f 80 00 04 	cmpwi   cr7,r0,4
 1804e30:	40 9d 01 8c 	ble-    cr7,1804fbc <main+0x4d9c>
 1804e34:	3c 00 01 82 	lis     r0,386
 1804e38:	7c 0b 03 78 	mr      r11,r0
 1804e3c:	80 0b c7 fc 	lwz     r0,-14340(r11)
 1804e40:	30 00 00 03 	addic   r0,r0,3
 1804e44:	2f 80 00 06 	cmpwi   cr7,r0,6
 1804e48:	41 9d 01 74 	bgt-    cr7,1804fbc <main+0x4d9c>
 1804e4c:	3c 00 01 82 	lis     r0,386
 1804e50:	30 00 c8 44 	addic   r0,r0,-14268
 1804e54:	7c 0b 03 78 	mr      r11,r0
 1804e58:	81 2b 00 00 	lwz     r9,0(r11)
 1804e5c:	3c 00 01 82 	lis     r0,386
 1804e60:	30 00 c8 44 	addic   r0,r0,-14268
 1804e64:	7c 0b 03 78 	mr      r11,r0
 1804e68:	80 0b 00 10 	lwz     r0,16(r11)
 1804e6c:	7f 89 00 00 	cmpw    cr7,r9,r0
 1804e70:	40 9e 01 4c 	bne-    cr7,1804fbc <main+0x4d9c>
 1804e74:	3c 00 01 82 	lis     r0,386
 1804e78:	30 00 c8 44 	addic   r0,r0,-14268
 1804e7c:	7c 0b 03 78 	mr      r11,r0
 1804e80:	81 2b 00 00 	lwz     r9,0(r11)
 1804e84:	3c 00 01 82 	lis     r0,386
 1804e88:	30 00 c8 44 	addic   r0,r0,-14268
 1804e8c:	7c 0b 03 78 	mr      r11,r0
 1804e90:	80 0b 00 08 	lwz     r0,8(r11)
 1804e94:	7f 89 00 00 	cmpw    cr7,r9,r0
 1804e98:	40 9e 01 24 	bne-    cr7,1804fbc <main+0x4d9c>
 1804e9c:	3c 00 01 82 	lis     r0,386
 1804ea0:	30 00 c8 44 	addic   r0,r0,-14268
 1804ea4:	7c 09 03 78 	mr      r9,r0
 1804ea8:	80 09 00 04 	lwz     r0,4(r9)
 1804eac:	90 1f 03 94 	stw     r0,916(r31)
 1804eb0:	3c 00 01 82 	lis     r0,386
 1804eb4:	30 00 c8 44 	addic   r0,r0,-14268
 1804eb8:	7c 0b 03 78 	mr      r11,r0
 1804ebc:	80 0b 00 00 	lwz     r0,0(r11)
 1804ec0:	90 1f 03 90 	stw     r0,912(r31)
 1804ec4:	81 3f 03 90 	lwz     r9,912(r31)
 1804ec8:	80 1f 03 94 	lwz     r0,916(r31)
 1804ecc:	7f 89 00 00 	cmpw    cr7,r9,r0
 1804ed0:	40 9d 00 ec 	ble-    cr7,1804fbc <main+0x4d9c>
 1804ed4:	3c 00 01 82 	lis     r0,386
 1804ed8:	30 00 c8 44 	addic   r0,r0,-14268
 1804edc:	7c 0b 03 78 	mr      r11,r0
 1804ee0:	81 2b 00 0c 	lwz     r9,12(r11)
 1804ee4:	3c 00 01 82 	lis     r0,386
 1804ee8:	30 00 c8 44 	addic   r0,r0,-14268
 1804eec:	7c 0b 03 78 	mr      r11,r0
 1804ef0:	91 2b 00 00 	stw     r9,0(r11)
 1804ef4:	3c 00 01 82 	lis     r0,386
 1804ef8:	7c 09 03 78 	mr      r9,r0
 1804efc:	80 09 c7 f8 	lwz     r0,-14344(r9)
 1804f00:	31 20 ff fc 	addic   r9,r0,-4
 1804f04:	3c 00 01 82 	lis     r0,386
 1804f08:	7c 0b 03 78 	mr      r11,r0
 1804f0c:	91 2b c7 f8 	stw     r9,-14344(r11)
 1804f10:	81 3f 03 94 	lwz     r9,916(r31)
 1804f14:	80 1f 03 90 	lwz     r0,912(r31)
 1804f18:	7c 09 02 14 	add     r0,r9,r0
 1804f1c:	90 1f 03 8c 	stw     r0,908(r31)
 1804f20:	3c 00 01 82 	lis     r0,386
 1804f24:	7c 09 03 78 	mr      r9,r0
 1804f28:	80 09 c7 fc 	lwz     r0,-14340(r9)
 1804f2c:	3d 20 01 82 	lis     r9,386
 1804f30:	39 29 c8 20 	addi    r9,r9,-14304
 1804f34:	54 00 10 3a 	rlwinm  r0,r0,2,0,29
 1804f38:	7c 09 02 14 	add     r0,r9,r0
 1804f3c:	81 3f 03 94 	lwz     r9,916(r31)
 1804f40:	7c 0b 03 78 	mr      r11,r0
 1804f44:	91 2b 00 00 	stw     r9,0(r11)
 1804f48:	3c 00 01 82 	lis     r0,386
 1804f4c:	7c 09 03 78 	mr      r9,r0
 1804f50:	80 09 c7 fc 	lwz     r0,-14340(r9)
 1804f54:	30 00 00 01 	addic   r0,r0,1
 1804f58:	3d 20 01 82 	lis     r9,386
 1804f5c:	39 29 c8 20 	addi    r9,r9,-14304
 1804f60:	54 00 10 3a 	rlwinm  r0,r0,2,0,29
 1804f64:	7c 09 02 14 	add     r0,r9,r0
 1804f68:	81 3f 03 90 	lwz     r9,912(r31)
 1804f6c:	7c 0b 03 78 	mr      r11,r0
 1804f70:	91 2b 00 00 	stw     r9,0(r11)
 1804f74:	3c 00 01 82 	lis     r0,386
 1804f78:	7c 09 03 78 	mr      r9,r0
 1804f7c:	80 09 c7 fc 	lwz     r0,-14340(r9)
 1804f80:	30 00 00 02 	addic   r0,r0,2
 1804f84:	3d 20 01 82 	lis     r9,386
 1804f88:	39 29 c8 20 	addi    r9,r9,-14304
 1804f8c:	54 00 10 3a 	rlwinm  r0,r0,2,0,29
 1804f90:	7c 09 02 14 	add     r0,r9,r0
 1804f94:	81 3f 03 8c 	lwz     r9,908(r31)
 1804f98:	7c 0b 03 78 	mr      r11,r0
 1804f9c:	91 2b 00 00 	stw     r9,0(r11)
 1804fa0:	3c 00 01 82 	lis     r0,386
 1804fa4:	7c 09 03 78 	mr      r9,r0
 1804fa8:	80 09 c7 fc 	lwz     r0,-14340(r9)
 1804fac:	31 20 00 03 	addic   r9,r0,3
 1804fb0:	3c 00 01 82 	lis     r0,386
 1804fb4:	7c 0b 03 78 	mr      r11,r0
 1804fb8:	91 2b c7 fc 	stw     r9,-14340(r11)
 1804fbc:	3c 00 01 82 	lis     r0,386
 1804fc0:	7c 09 03 78 	mr      r9,r0
 1804fc4:	80 09 c7 f8 	lwz     r0,-14344(r9)
 1804fc8:	2f 80 00 04 	cmpwi   cr7,r0,4
 1804fcc:	40 9d 01 8c 	ble-    cr7,1805158 <main+0x4f38>
 1804fd0:	3c 00 01 82 	lis     r0,386
 1804fd4:	7c 0b 03 78 	mr      r11,r0
 1804fd8:	80 0b c7 fc 	lwz     r0,-14340(r11)
 1804fdc:	30 00 00 03 	addic   r0,r0,3
 1804fe0:	2f 80 00 06 	cmpwi   cr7,r0,6
 1804fe4:	41 9d 01 74 	bgt-    cr7,1805158 <main+0x4f38>
 1804fe8:	3c 00 01 82 	lis     r0,386
 1804fec:	30 00 c8 44 	addic   r0,r0,-14268
 1804ff0:	7c 0b 03 78 	mr      r11,r0
 1804ff4:	81 2b 00 00 	lwz     r9,0(r11)
 1804ff8:	3c 00 01 82 	lis     r0,386
 1804ffc:	30 00 c8 44 	addic   r0,r0,-14268
 1805000:	7c 0b 03 78 	mr      r11,r0
 1805004:	80 0b 00 10 	lwz     r0,16(r11)
 1805008:	7f 89 00 00 	cmpw    cr7,r9,r0
 180500c:	40 9e 01 4c 	bne-    cr7,1805158 <main+0x4f38>
 1805010:	3c 00 01 82 	lis     r0,386
 1805014:	30 00 c8 44 	addic   r0,r0,-14268
 1805018:	7c 0b 03 78 	mr      r11,r0
 180501c:	81 2b 00 00 	lwz     r9,0(r11)
 1805020:	3c 00 01 82 	lis     r0,386
 1805024:	30 00 c8 44 	addic   r0,r0,-14268
 1805028:	7c 0b 03 78 	mr      r11,r0
 180502c:	80 0b 00 0c 	lwz     r0,12(r11)
 1805030:	7f 89 00 00 	cmpw    cr7,r9,r0
 1805034:	40 9e 01 24 	bne-    cr7,1805158 <main+0x4f38>
 1805038:	3c 00 01 82 	lis     r0,386
 180503c:	30 00 c8 44 	addic   r0,r0,-14268
 1805040:	7c 09 03 78 	mr      r9,r0
 1805044:	80 09 00 04 	lwz     r0,4(r9)
 1805048:	90 1f 03 88 	stw     r0,904(r31)
 180504c:	3c 00 01 82 	lis     r0,386
 1805050:	30 00 c8 44 	addic   r0,r0,-14268
 1805054:	7c 0b 03 78 	mr      r11,r0
 1805058:	80 0b 00 00 	lwz     r0,0(r11)
 180505c:	90 1f 03 84 	stw     r0,900(r31)
 1805060:	81 3f 03 84 	lwz     r9,900(r31)
 1805064:	80 1f 03 88 	lwz     r0,904(r31)
 1805068:	7f 89 00 00 	cmpw    cr7,r9,r0
 180506c:	40 9d 00 ec 	ble-    cr7,1805158 <main+0x4f38>
 1805070:	3c 00 01 82 	lis     r0,386
 1805074:	30 00 c8 44 	addic   r0,r0,-14268
 1805078:	7c 0b 03 78 	mr      r11,r0
 180507c:	81 2b 00 08 	lwz     r9,8(r11)
 1805080:	3c 00 01 82 	lis     r0,386
 1805084:	30 00 c8 44 	addic   r0,r0,-14268
 1805088:	7c 0b 03 78 	mr      r11,r0
 180508c:	91 2b 00 00 	stw     r9,0(r11)
 1805090:	3c 00 01 82 	lis     r0,386
 1805094:	7c 09 03 78 	mr      r9,r0
 1805098:	80 09 c7 f8 	lwz     r0,-14344(r9)
 180509c:	31 20 ff fc 	addic   r9,r0,-4
 18050a0:	3c 00 01 82 	lis     r0,386
 18050a4:	7c 0b 03 78 	mr      r11,r0
 18050a8:	91 2b c7 f8 	stw     r9,-14344(r11)
 18050ac:	81 3f 03 88 	lwz     r9,904(r31)
 18050b0:	80 1f 03 84 	lwz     r0,900(r31)
 18050b4:	7c 09 02 14 	add     r0,r9,r0
 18050b8:	90 1f 03 80 	stw     r0,896(r31)
 18050bc:	3c 00 01 82 	lis     r0,386
 18050c0:	7c 09 03 78 	mr      r9,r0
 18050c4:	80 09 c7 fc 	lwz     r0,-14340(r9)
 18050c8:	3d 20 01 82 	lis     r9,386
 18050cc:	39 29 c8 20 	addi    r9,r9,-14304
 18050d0:	54 00 10 3a 	rlwinm  r0,r0,2,0,29
 18050d4:	7c 09 02 14 	add     r0,r9,r0
 18050d8:	81 3f 03 88 	lwz     r9,904(r31)
 18050dc:	7c 0b 03 78 	mr      r11,r0
 18050e0:	91 2b 00 00 	stw     r9,0(r11)
 18050e4:	3c 00 01 82 	lis     r0,386
 18050e8:	7c 09 03 78 	mr      r9,r0
 18050ec:	80 09 c7 fc 	lwz     r0,-14340(r9)
 18050f0:	30 00 00 01 	addic   r0,r0,1
 18050f4:	3d 20 01 82 	lis     r9,386
 18050f8:	39 29 c8 20 	addi    r9,r9,-14304
 18050fc:	54 00 10 3a 	rlwinm  r0,r0,2,0,29
 1805100:	7c 09 02 14 	add     r0,r9,r0
 1805104:	81 3f 03 84 	lwz     r9,900(r31)
 1805108:	7c 0b 03 78 	mr      r11,r0
 180510c:	91 2b 00 00 	stw     r9,0(r11)
 1805110:	3c 00 01 82 	lis     r0,386
 1805114:	7c 09 03 78 	mr      r9,r0
 1805118:	80 09 c7 fc 	lwz     r0,-14340(r9)
 180511c:	30 00 00 02 	addic   r0,r0,2
 1805120:	3d 20 01 82 	lis     r9,386
 1805124:	39 29 c8 20 	addi    r9,r9,-14304
 1805128:	54 00 10 3a 	rlwinm  r0,r0,2,0,29
 180512c:	7c 09 02 14 	add     r0,r9,r0
 1805130:	81 3f 03 80 	lwz     r9,896(r31)
 1805134:	7c 0b 03 78 	mr      r11,r0
 1805138:	91 2b 00 00 	stw     r9,0(r11)
 180513c:	3c 00 01 82 	lis     r0,386
 1805140:	7c 09 03 78 	mr      r9,r0
 1805144:	80 09 c7 fc 	lwz     r0,-14340(r9)
 1805148:	31 20 00 03 	addic   r9,r0,3
 180514c:	3c 00 01 82 	lis     r0,386
 1805150:	7c 0b 03 78 	mr      r11,r0
 1805154:	91 2b c7 fc 	stw     r9,-14340(r11)
 1805158:	3c 00 01 82 	lis     r0,386
 180515c:	7c 09 03 78 	mr      r9,r0
 1805160:	80 09 c7 f8 	lwz     r0,-14344(r9)
 1805164:	2f 80 00 04 	cmpwi   cr7,r0,4
 1805168:	40 9d 01 8c 	ble-    cr7,18052f4 <main+0x50d4>
 180516c:	3c 00 01 82 	lis     r0,386
 1805170:	7c 0b 03 78 	mr      r11,r0
 1805174:	80 0b c7 fc 	lwz     r0,-14340(r11)
 1805178:	30 00 00 03 	addic   r0,r0,3
 180517c:	2f 80 00 06 	cmpwi   cr7,r0,6
 1805180:	41 9d 01 74 	bgt-    cr7,18052f4 <main+0x50d4>
 1805184:	3c 00 01 82 	lis     r0,386
 1805188:	30 00 c8 44 	addic   r0,r0,-14268
 180518c:	7c 0b 03 78 	mr      r11,r0
 1805190:	81 2b 00 08 	lwz     r9,8(r11)
 1805194:	3c 00 01 82 	lis     r0,386
 1805198:	30 00 c8 44 	addic   r0,r0,-14268
 180519c:	7c 0b 03 78 	mr      r11,r0
 18051a0:	80 0b 00 00 	lwz     r0,0(r11)
 18051a4:	7f 89 00 00 	cmpw    cr7,r9,r0
 18051a8:	40 9e 01 4c 	bne-    cr7,18052f4 <main+0x50d4>
 18051ac:	3c 00 01 82 	lis     r0,386
 18051b0:	30 00 c8 44 	addic   r0,r0,-14268
 18051b4:	7c 0b 03 78 	mr      r11,r0
 18051b8:	81 2b 00 08 	lwz     r9,8(r11)
 18051bc:	3c 00 01 82 	lis     r0,386
 18051c0:	30 00 c8 44 	addic   r0,r0,-14268
 18051c4:	7c 0b 03 78 	mr      r11,r0
 18051c8:	80 0b 00 10 	lwz     r0,16(r11)
 18051cc:	7f 89 00 00 	cmpw    cr7,r9,r0
 18051d0:	40 9e 01 24 	bne-    cr7,18052f4 <main+0x50d4>
 18051d4:	3c 00 01 82 	lis     r0,386
 18051d8:	30 00 c8 44 	addic   r0,r0,-14268
 18051dc:	7c 09 03 78 	mr      r9,r0
 18051e0:	80 09 00 04 	lwz     r0,4(r9)
 18051e4:	90 1f 03 7c 	stw     r0,892(r31)
 18051e8:	3c 00 01 82 	lis     r0,386
 18051ec:	30 00 c8 44 	addic   r0,r0,-14268
 18051f0:	7c 0b 03 78 	mr      r11,r0
 18051f4:	80 0b 00 08 	lwz     r0,8(r11)
 18051f8:	90 1f 03 78 	stw     r0,888(r31)
 18051fc:	81 3f 03 78 	lwz     r9,888(r31)
 1805200:	80 1f 03 7c 	lwz     r0,892(r31)
 1805204:	7f 89 00 00 	cmpw    cr7,r9,r0
 1805208:	40 9d 00 ec 	ble-    cr7,18052f4 <main+0x50d4>
 180520c:	3c 00 01 82 	lis     r0,386
 1805210:	30 00 c8 44 	addic   r0,r0,-14268
 1805214:	7c 0b 03 78 	mr      r11,r0
 1805218:	81 2b 00 0c 	lwz     r9,12(r11)
 180521c:	3c 00 01 82 	lis     r0,386
 1805220:	30 00 c8 44 	addic   r0,r0,-14268
 1805224:	7c 0b 03 78 	mr      r11,r0
 1805228:	91 2b 00 00 	stw     r9,0(r11)
 180522c:	3c 00 01 82 	lis     r0,386
 1805230:	7c 09 03 78 	mr      r9,r0
 1805234:	80 09 c7 f8 	lwz     r0,-14344(r9)
 1805238:	31 20 ff fc 	addic   r9,r0,-4
 180523c:	3c 00 01 82 	lis     r0,386
 1805240:	7c 0b 03 78 	mr      r11,r0
 1805244:	91 2b c7 f8 	stw     r9,-14344(r11)
 1805248:	81 3f 03 7c 	lwz     r9,892(r31)
 180524c:	80 1f 03 78 	lwz     r0,888(r31)
 1805250:	7c 09 02 14 	add     r0,r9,r0
 1805254:	90 1f 03 74 	stw     r0,884(r31)
 1805258:	3c 00 01 82 	lis     r0,386
 180525c:	7c 09 03 78 	mr      r9,r0
 1805260:	80 09 c7 fc 	lwz     r0,-14340(r9)
 1805264:	3d 20 01 82 	lis     r9,386
 1805268:	39 29 c8 20 	addi    r9,r9,-14304
 180526c:	54 00 10 3a 	rlwinm  r0,r0,2,0,29
 1805270:	7c 09 02 14 	add     r0,r9,r0
 1805274:	81 3f 03 7c 	lwz     r9,892(r31)
 1805278:	7c 0b 03 78 	mr      r11,r0
 180527c:	91 2b 00 00 	stw     r9,0(r11)
 1805280:	3c 00 01 82 	lis     r0,386
 1805284:	7c 09 03 78 	mr      r9,r0
 1805288:	80 09 c7 fc 	lwz     r0,-14340(r9)
 180528c:	30 00 00 01 	addic   r0,r0,1
 1805290:	3d 20 01 82 	lis     r9,386
 1805294:	39 29 c8 20 	addi    r9,r9,-14304
 1805298:	54 00 10 3a 	rlwinm  r0,r0,2,0,29
 180529c:	7c 09 02 14 	add     r0,r9,r0
 18052a0:	81 3f 03 78 	lwz     r9,888(r31)
 18052a4:	7c 0b 03 78 	mr      r11,r0
 18052a8:	91 2b 00 00 	stw     r9,0(r11)
 18052ac:	3c 00 01 82 	lis     r0,386
 18052b0:	7c 09 03 78 	mr      r9,r0
 18052b4:	80 09 c7 fc 	lwz     r0,-14340(r9)
 18052b8:	30 00 00 02 	addic   r0,r0,2
 18052bc:	3d 20 01 82 	lis     r9,386
 18052c0:	39 29 c8 20 	addi    r9,r9,-14304
 18052c4:	54 00 10 3a 	rlwinm  r0,r0,2,0,29
 18052c8:	7c 09 02 14 	add     r0,r9,r0
 18052cc:	81 3f 03 74 	lwz     r9,884(r31)
 18052d0:	7c 0b 03 78 	mr      r11,r0
 18052d4:	91 2b 00 00 	stw     r9,0(r11)
 18052d8:	3c 00 01 82 	lis     r0,386
 18052dc:	7c 09 03 78 	mr      r9,r0
 18052e0:	80 09 c7 fc 	lwz     r0,-14340(r9)
 18052e4:	31 20 00 03 	addic   r9,r0,3
 18052e8:	3c 00 01 82 	lis     r0,386
 18052ec:	7c 0b 03 78 	mr      r11,r0
 18052f0:	91 2b c7 fc 	stw     r9,-14340(r11)
 18052f4:	3c 00 01 82 	lis     r0,386
 18052f8:	7c 09 03 78 	mr      r9,r0
 18052fc:	80 09 c7 f8 	lwz     r0,-14344(r9)
 1805300:	2f 80 00 04 	cmpwi   cr7,r0,4
 1805304:	40 9d 01 6c 	ble-    cr7,1805470 <main+0x5250>
 1805308:	3c 00 01 82 	lis     r0,386
 180530c:	7c 0b 03 78 	mr      r11,r0
 1805310:	80 0b c7 fc 	lwz     r0,-14340(r11)
 1805314:	30 00 00 03 	addic   r0,r0,3
 1805318:	2f 80 00 06 	cmpwi   cr7,r0,6
 180531c:	41 9d 01 54 	bgt-    cr7,1805470 <main+0x5250>
 1805320:	3c 00 01 82 	lis     r0,386
 1805324:	30 00 c8 44 	addic   r0,r0,-14268
 1805328:	7c 0b 03 78 	mr      r11,r0
 180532c:	81 2b 00 08 	lwz     r9,8(r11)
 1805330:	3c 00 01 82 	lis     r0,386
 1805334:	30 00 c8 44 	addic   r0,r0,-14268
 1805338:	7c 0b 03 78 	mr      r11,r0
 180533c:	80 0b 00 0c 	lwz     r0,12(r11)
 1805340:	7f 89 00 00 	cmpw    cr7,r9,r0
 1805344:	40 9e 01 2c 	bne-    cr7,1805470 <main+0x5250>
 1805348:	3c 00 01 82 	lis     r0,386
 180534c:	30 00 c8 44 	addic   r0,r0,-14268
 1805350:	7c 0b 03 78 	mr      r11,r0
 1805354:	81 2b 00 08 	lwz     r9,8(r11)
 1805358:	3c 00 01 82 	lis     r0,386
 180535c:	30 00 c8 44 	addic   r0,r0,-14268
 1805360:	7c 0b 03 78 	mr      r11,r0
 1805364:	80 0b 00 10 	lwz     r0,16(r11)
 1805368:	7f 89 00 00 	cmpw    cr7,r9,r0
 180536c:	40 9e 01 04 	bne-    cr7,1805470 <main+0x5250>
 1805370:	3c 00 01 82 	lis     r0,386
 1805374:	30 00 c8 44 	addic   r0,r0,-14268
 1805378:	7c 09 03 78 	mr      r9,r0
 180537c:	80 09 00 04 	lwz     r0,4(r9)
 1805380:	90 1f 03 70 	stw     r0,880(r31)
 1805384:	3c 00 01 82 	lis     r0,386
 1805388:	30 00 c8 44 	addic   r0,r0,-14268
 180538c:	7c 0b 03 78 	mr      r11,r0
 1805390:	80 0b 00 08 	lwz     r0,8(r11)
 1805394:	90 1f 03 6c 	stw     r0,876(r31)
 1805398:	81 3f 03 6c 	lwz     r9,876(r31)
 180539c:	80 1f 03 70 	lwz     r0,880(r31)
 18053a0:	7f 89 00 00 	cmpw    cr7,r9,r0
 18053a4:	40 9d 00 cc 	ble-    cr7,1805470 <main+0x5250>
 18053a8:	3c 00 01 82 	lis     r0,386
 18053ac:	7c 09 03 78 	mr      r9,r0
 18053b0:	80 09 c7 f8 	lwz     r0,-14344(r9)
 18053b4:	31 20 ff fc 	addic   r9,r0,-4
 18053b8:	3c 00 01 82 	lis     r0,386
 18053bc:	7c 0b 03 78 	mr      r11,r0
 18053c0:	91 2b c7 f8 	stw     r9,-14344(r11)
 18053c4:	81 3f 03 70 	lwz     r9,880(r31)
 18053c8:	80 1f 03 6c 	lwz     r0,876(r31)
 18053cc:	7c 09 02 14 	add     r0,r9,r0
 18053d0:	90 1f 03 68 	stw     r0,872(r31)
 18053d4:	3c 00 01 82 	lis     r0,386
 18053d8:	7c 09 03 78 	mr      r9,r0
 18053dc:	80 09 c7 fc 	lwz     r0,-14340(r9)
 18053e0:	3d 20 01 82 	lis     r9,386
 18053e4:	39 29 c8 20 	addi    r9,r9,-14304
 18053e8:	54 00 10 3a 	rlwinm  r0,r0,2,0,29
 18053ec:	7c 09 02 14 	add     r0,r9,r0
 18053f0:	81 3f 03 70 	lwz     r9,880(r31)
 18053f4:	7c 0b 03 78 	mr      r11,r0
 18053f8:	91 2b 00 00 	stw     r9,0(r11)
 18053fc:	3c 00 01 82 	lis     r0,386
 1805400:	7c 09 03 78 	mr      r9,r0
 1805404:	80 09 c7 fc 	lwz     r0,-14340(r9)
 1805408:	30 00 00 01 	addic   r0,r0,1
 180540c:	3d 20 01 82 	lis     r9,386
 1805410:	39 29 c8 20 	addi    r9,r9,-14304
 1805414:	54 00 10 3a 	rlwinm  r0,r0,2,0,29
 1805418:	7c 09 02 14 	add     r0,r9,r0
 180541c:	81 3f 03 6c 	lwz     r9,876(r31)
 1805420:	7c 0b 03 78 	mr      r11,r0
 1805424:	91 2b 00 00 	stw     r9,0(r11)
 1805428:	3c 00 01 82 	lis     r0,386
 180542c:	7c 09 03 78 	mr      r9,r0
 1805430:	80 09 c7 fc 	lwz     r0,-14340(r9)
 1805434:	30 00 00 02 	addic   r0,r0,2
 1805438:	3d 20 01 82 	lis     r9,386
 180543c:	39 29 c8 20 	addi    r9,r9,-14304
 1805440:	54 00 10 3a 	rlwinm  r0,r0,2,0,29
 1805444:	7c 09 02 14 	add     r0,r9,r0
 1805448:	81 3f 03 68 	lwz     r9,872(r31)
 180544c:	7c 0b 03 78 	mr      r11,r0
 1805450:	91 2b 00 00 	stw     r9,0(r11)
 1805454:	3c 00 01 82 	lis     r0,386
 1805458:	7c 09 03 78 	mr      r9,r0
 180545c:	80 09 c7 fc 	lwz     r0,-14340(r9)
 1805460:	31 20 00 03 	addic   r9,r0,3
 1805464:	3c 00 01 82 	lis     r0,386
 1805468:	7c 0b 03 78 	mr      r11,r0
 180546c:	91 2b c7 fc 	stw     r9,-14340(r11)
 1805470:	3c 00 01 82 	lis     r0,386
 1805474:	7c 09 03 78 	mr      r9,r0
 1805478:	80 09 c7 f8 	lwz     r0,-14344(r9)
 180547c:	2f 80 00 04 	cmpwi   cr7,r0,4
 1805480:	40 9d 01 8c 	ble-    cr7,180560c <main+0x53ec>
 1805484:	3c 00 01 82 	lis     r0,386
 1805488:	7c 0b 03 78 	mr      r11,r0
 180548c:	80 0b c7 fc 	lwz     r0,-14340(r11)
 1805490:	30 00 00 03 	addic   r0,r0,3
 1805494:	2f 80 00 06 	cmpwi   cr7,r0,6
 1805498:	41 9d 01 74 	bgt-    cr7,180560c <main+0x53ec>
 180549c:	3c 00 01 82 	lis     r0,386
 18054a0:	30 00 c8 44 	addic   r0,r0,-14268
 18054a4:	7c 0b 03 78 	mr      r11,r0
 18054a8:	81 2b 00 08 	lwz     r9,8(r11)
 18054ac:	3c 00 01 82 	lis     r0,386
 18054b0:	30 00 c8 44 	addic   r0,r0,-14268
 18054b4:	7c 0b 03 78 	mr      r11,r0
 18054b8:	80 0b 00 10 	lwz     r0,16(r11)
 18054bc:	7f 89 00 00 	cmpw    cr7,r9,r0
 18054c0:	40 9e 01 4c 	bne-    cr7,180560c <main+0x53ec>
 18054c4:	3c 00 01 82 	lis     r0,386
 18054c8:	30 00 c8 44 	addic   r0,r0,-14268
 18054cc:	7c 0b 03 78 	mr      r11,r0
 18054d0:	81 2b 00 08 	lwz     r9,8(r11)
 18054d4:	3c 00 01 82 	lis     r0,386
 18054d8:	30 00 c8 44 	addic   r0,r0,-14268
 18054dc:	7c 0b 03 78 	mr      r11,r0
 18054e0:	80 0b 00 00 	lwz     r0,0(r11)
 18054e4:	7f 89 00 00 	cmpw    cr7,r9,r0
 18054e8:	40 9e 01 24 	bne-    cr7,180560c <main+0x53ec>
 18054ec:	3c 00 01 82 	lis     r0,386
 18054f0:	30 00 c8 44 	addic   r0,r0,-14268
 18054f4:	7c 09 03 78 	mr      r9,r0
 18054f8:	80 09 00 04 	lwz     r0,4(r9)
 18054fc:	90 1f 03 64 	stw     r0,868(r31)
 1805500:	3c 00 01 82 	lis     r0,386
 1805504:	30 00 c8 44 	addic   r0,r0,-14268
 1805508:	7c 0b 03 78 	mr      r11,r0
 180550c:	80 0b 00 08 	lwz     r0,8(r11)
 1805510:	90 1f 03 60 	stw     r0,864(r31)
 1805514:	81 3f 03 60 	lwz     r9,864(r31)
 1805518:	80 1f 03 64 	lwz     r0,868(r31)
 180551c:	7f 89 00 00 	cmpw    cr7,r9,r0
 1805520:	40 9d 00 ec 	ble-    cr7,180560c <main+0x53ec>
 1805524:	3c 00 01 82 	lis     r0,386
 1805528:	30 00 c8 44 	addic   r0,r0,-14268
 180552c:	7c 0b 03 78 	mr      r11,r0
 1805530:	81 2b 00 0c 	lwz     r9,12(r11)
 1805534:	3c 00 01 82 	lis     r0,386
 1805538:	30 00 c8 44 	addic   r0,r0,-14268
 180553c:	7c 0b 03 78 	mr      r11,r0
 1805540:	91 2b 00 00 	stw     r9,0(r11)
 1805544:	3c 00 01 82 	lis     r0,386
 1805548:	7c 09 03 78 	mr      r9,r0
 180554c:	80 09 c7 f8 	lwz     r0,-14344(r9)
 1805550:	31 20 ff fc 	addic   r9,r0,-4
 1805554:	3c 00 01 82 	lis     r0,386
 1805558:	7c 0b 03 78 	mr      r11,r0
 180555c:	91 2b c7 f8 	stw     r9,-14344(r11)
 1805560:	81 3f 03 64 	lwz     r9,868(r31)
 1805564:	80 1f 03 60 	lwz     r0,864(r31)
 1805568:	7c 09 02 14 	add     r0,r9,r0
 180556c:	90 1f 03 5c 	stw     r0,860(r31)
 1805570:	3c 00 01 82 	lis     r0,386
 1805574:	7c 09 03 78 	mr      r9,r0
 1805578:	80 09 c7 fc 	lwz     r0,-14340(r9)
 180557c:	3d 20 01 82 	lis     r9,386
 1805580:	39 29 c8 20 	addi    r9,r9,-14304
 1805584:	54 00 10 3a 	rlwinm  r0,r0,2,0,29
 1805588:	7c 09 02 14 	add     r0,r9,r0
 180558c:	81 3f 03 64 	lwz     r9,868(r31)
 1805590:	7c 0b 03 78 	mr      r11,r0
 1805594:	91 2b 00 00 	stw     r9,0(r11)
 1805598:	3c 00 01 82 	lis     r0,386
 180559c:	7c 09 03 78 	mr      r9,r0
 18055a0:	80 09 c7 fc 	lwz     r0,-14340(r9)
 18055a4:	30 00 00 01 	addic   r0,r0,1
 18055a8:	3d 20 01 82 	lis     r9,386
 18055ac:	39 29 c8 20 	addi    r9,r9,-14304
 18055b0:	54 00 10 3a 	rlwinm  r0,r0,2,0,29
 18055b4:	7c 09 02 14 	add     r0,r9,r0
 18055b8:	81 3f 03 60 	lwz     r9,864(r31)
 18055bc:	7c 0b 03 78 	mr      r11,r0
 18055c0:	91 2b 00 00 	stw     r9,0(r11)
 18055c4:	3c 00 01 82 	lis     r0,386
 18055c8:	7c 09 03 78 	mr      r9,r0
 18055cc:	80 09 c7 fc 	lwz     r0,-14340(r9)
 18055d0:	30 00 00 02 	addic   r0,r0,2
 18055d4:	3d 20 01 82 	lis     r9,386
 18055d8:	39 29 c8 20 	addi    r9,r9,-14304
 18055dc:	54 00 10 3a 	rlwinm  r0,r0,2,0,29
 18055e0:	7c 09 02 14 	add     r0,r9,r0
 18055e4:	81 3f 03 5c 	lwz     r9,860(r31)
 18055e8:	7c 0b 03 78 	mr      r11,r0
 18055ec:	91 2b 00 00 	stw     r9,0(r11)
 18055f0:	3c 00 01 82 	lis     r0,386
 18055f4:	7c 09 03 78 	mr      r9,r0
 18055f8:	80 09 c7 fc 	lwz     r0,-14340(r9)
 18055fc:	31 20 00 03 	addic   r9,r0,3
 1805600:	3c 00 01 82 	lis     r0,386
 1805604:	7c 0b 03 78 	mr      r11,r0
 1805608:	91 2b c7 fc 	stw     r9,-14340(r11)
 180560c:	3c 00 01 82 	lis     r0,386
 1805610:	7c 09 03 78 	mr      r9,r0
 1805614:	80 09 c7 f8 	lwz     r0,-14344(r9)
 1805618:	2f 80 00 04 	cmpwi   cr7,r0,4
 180561c:	40 9d 01 6c 	ble-    cr7,1805788 <main+0x5568>
 1805620:	3c 00 01 82 	lis     r0,386
 1805624:	7c 0b 03 78 	mr      r11,r0
 1805628:	80 0b c7 fc 	lwz     r0,-14340(r11)
 180562c:	30 00 00 03 	addic   r0,r0,3
 1805630:	2f 80 00 06 	cmpwi   cr7,r0,6
 1805634:	41 9d 01 54 	bgt-    cr7,1805788 <main+0x5568>
 1805638:	3c 00 01 82 	lis     r0,386
 180563c:	30 00 c8 44 	addic   r0,r0,-14268
 1805640:	7c 0b 03 78 	mr      r11,r0
 1805644:	81 2b 00 08 	lwz     r9,8(r11)
 1805648:	3c 00 01 82 	lis     r0,386
 180564c:	30 00 c8 44 	addic   r0,r0,-14268
 1805650:	7c 0b 03 78 	mr      r11,r0
 1805654:	80 0b 00 10 	lwz     r0,16(r11)
 1805658:	7f 89 00 00 	cmpw    cr7,r9,r0
 180565c:	40 9e 01 2c 	bne-    cr7,1805788 <main+0x5568>
 1805660:	3c 00 01 82 	lis     r0,386
 1805664:	30 00 c8 44 	addic   r0,r0,-14268
 1805668:	7c 0b 03 78 	mr      r11,r0
 180566c:	81 2b 00 08 	lwz     r9,8(r11)
 1805670:	3c 00 01 82 	lis     r0,386
 1805674:	30 00 c8 44 	addic   r0,r0,-14268
 1805678:	7c 0b 03 78 	mr      r11,r0
 180567c:	80 0b 00 0c 	lwz     r0,12(r11)
 1805680:	7f 89 00 00 	cmpw    cr7,r9,r0
 1805684:	40 9e 01 04 	bne-    cr7,1805788 <main+0x5568>
 1805688:	3c 00 01 82 	lis     r0,386
 180568c:	30 00 c8 44 	addic   r0,r0,-14268
 1805690:	7c 09 03 78 	mr      r9,r0
 1805694:	80 09 00 04 	lwz     r0,4(r9)
 1805698:	90 1f 03 58 	stw     r0,856(r31)
 180569c:	3c 00 01 82 	lis     r0,386
 18056a0:	30 00 c8 44 	addic   r0,r0,-14268
 18056a4:	7c 0b 03 78 	mr      r11,r0
 18056a8:	80 0b 00 08 	lwz     r0,8(r11)
 18056ac:	90 1f 03 54 	stw     r0,852(r31)
 18056b0:	81 3f 03 54 	lwz     r9,852(r31)
 18056b4:	80 1f 03 58 	lwz     r0,856(r31)
 18056b8:	7f 89 00 00 	cmpw    cr7,r9,r0
 18056bc:	40 9d 00 cc 	ble-    cr7,1805788 <main+0x5568>
 18056c0:	3c 00 01 82 	lis     r0,386
 18056c4:	7c 09 03 78 	mr      r9,r0
 18056c8:	80 09 c7 f8 	lwz     r0,-14344(r9)
 18056cc:	31 20 ff fc 	addic   r9,r0,-4
 18056d0:	3c 00 01 82 	lis     r0,386
 18056d4:	7c 0b 03 78 	mr      r11,r0
 18056d8:	91 2b c7 f8 	stw     r9,-14344(r11)
 18056dc:	81 3f 03 58 	lwz     r9,856(r31)
 18056e0:	80 1f 03 54 	lwz     r0,852(r31)
 18056e4:	7c 09 02 14 	add     r0,r9,r0
 18056e8:	90 1f 03 50 	stw     r0,848(r31)
 18056ec:	3c 00 01 82 	lis     r0,386
 18056f0:	7c 09 03 78 	mr      r9,r0
 18056f4:	80 09 c7 fc 	lwz     r0,-14340(r9)
 18056f8:	3d 20 01 82 	lis     r9,386
 18056fc:	39 29 c8 20 	addi    r9,r9,-14304
 1805700:	54 00 10 3a 	rlwinm  r0,r0,2,0,29
 1805704:	7c 09 02 14 	add     r0,r9,r0
 1805708:	81 3f 03 58 	lwz     r9,856(r31)
 180570c:	7c 0b 03 78 	mr      r11,r0
 1805710:	91 2b 00 00 	stw     r9,0(r11)
 1805714:	3c 00 01 82 	lis     r0,386
 1805718:	7c 09 03 78 	mr      r9,r0
 180571c:	80 09 c7 fc 	lwz     r0,-14340(r9)
 1805720:	30 00 00 01 	addic   r0,r0,1
 1805724:	3d 20 01 82 	lis     r9,386
 1805728:	39 29 c8 20 	addi    r9,r9,-14304
 180572c:	54 00 10 3a 	rlwinm  r0,r0,2,0,29
 1805730:	7c 09 02 14 	add     r0,r9,r0
 1805734:	81 3f 03 54 	lwz     r9,852(r31)
 1805738:	7c 0b 03 78 	mr      r11,r0
 180573c:	91 2b 00 00 	stw     r9,0(r11)
 1805740:	3c 00 01 82 	lis     r0,386
 1805744:	7c 09 03 78 	mr      r9,r0
 1805748:	80 09 c7 fc 	lwz     r0,-14340(r9)
 180574c:	30 00 00 02 	addic   r0,r0,2
 1805750:	3d 20 01 82 	lis     r9,386
 1805754:	39 29 c8 20 	addi    r9,r9,-14304
 1805758:	54 00 10 3a 	rlwinm  r0,r0,2,0,29
 180575c:	7c 09 02 14 	add     r0,r9,r0
 1805760:	81 3f 03 50 	lwz     r9,848(r31)
 1805764:	7c 0b 03 78 	mr      r11,r0
 1805768:	91 2b 00 00 	stw     r9,0(r11)
 180576c:	3c 00 01 82 	lis     r0,386
 1805770:	7c 09 03 78 	mr      r9,r0
 1805774:	80 09 c7 fc 	lwz     r0,-14340(r9)
 1805778:	31 20 00 03 	addic   r9,r0,3
 180577c:	3c 00 01 82 	lis     r0,386
 1805780:	7c 0b 03 78 	mr      r11,r0
 1805784:	91 2b c7 fc 	stw     r9,-14340(r11)
 1805788:	3c 00 01 82 	lis     r0,386
 180578c:	7c 09 03 78 	mr      r9,r0
 1805790:	80 09 c7 f8 	lwz     r0,-14344(r9)
 1805794:	2f 80 00 04 	cmpwi   cr7,r0,4
 1805798:	40 9d 01 8c 	ble-    cr7,1805924 <main+0x5704>
 180579c:	3c 00 01 82 	lis     r0,386
 18057a0:	7c 0b 03 78 	mr      r11,r0
 18057a4:	80 0b c7 fc 	lwz     r0,-14340(r11)
 18057a8:	30 00 00 03 	addic   r0,r0,3
 18057ac:	2f 80 00 06 	cmpwi   cr7,r0,6
 18057b0:	41 9d 01 74 	bgt-    cr7,1805924 <main+0x5704>
 18057b4:	3c 00 01 82 	lis     r0,386
 18057b8:	30 00 c8 44 	addic   r0,r0,-14268
 18057bc:	7c 0b 03 78 	mr      r11,r0
 18057c0:	81 2b 00 0c 	lwz     r9,12(r11)
 18057c4:	3c 00 01 82 	lis     r0,386
 18057c8:	30 00 c8 44 	addic   r0,r0,-14268
 18057cc:	7c 0b 03 78 	mr      r11,r0
 18057d0:	80 0b 00 00 	lwz     r0,0(r11)
 18057d4:	7f 89 00 00 	cmpw    cr7,r9,r0
 18057d8:	40 9e 01 4c 	bne-    cr7,1805924 <main+0x5704>
 18057dc:	3c 00 01 82 	lis     r0,386
 18057e0:	30 00 c8 44 	addic   r0,r0,-14268
 18057e4:	7c 0b 03 78 	mr      r11,r0
 18057e8:	81 2b 00 0c 	lwz     r9,12(r11)
 18057ec:	3c 00 01 82 	lis     r0,386
 18057f0:	30 00 c8 44 	addic   r0,r0,-14268
 18057f4:	7c 0b 03 78 	mr      r11,r0
 18057f8:	80 0b 00 10 	lwz     r0,16(r11)
 18057fc:	7f 89 00 00 	cmpw    cr7,r9,r0
 1805800:	40 9e 01 24 	bne-    cr7,1805924 <main+0x5704>
 1805804:	3c 00 01 82 	lis     r0,386
 1805808:	30 00 c8 44 	addic   r0,r0,-14268
 180580c:	7c 09 03 78 	mr      r9,r0
 1805810:	80 09 00 04 	lwz     r0,4(r9)
 1805814:	90 1f 03 4c 	stw     r0,844(r31)
 1805818:	3c 00 01 82 	lis     r0,386
 180581c:	30 00 c8 44 	addic   r0,r0,-14268
 1805820:	7c 0b 03 78 	mr      r11,r0
 1805824:	80 0b 00 0c 	lwz     r0,12(r11)
 1805828:	90 1f 03 48 	stw     r0,840(r31)
 180582c:	81 3f 03 48 	lwz     r9,840(r31)
 1805830:	80 1f 03 4c 	lwz     r0,844(r31)
 1805834:	7f 89 00 00 	cmpw    cr7,r9,r0
 1805838:	40 9d 00 ec 	ble-    cr7,1805924 <main+0x5704>
 180583c:	3c 00 01 82 	lis     r0,386
 1805840:	30 00 c8 44 	addic   r0,r0,-14268
 1805844:	7c 0b 03 78 	mr      r11,r0
 1805848:	81 2b 00 08 	lwz     r9,8(r11)
 180584c:	3c 00 01 82 	lis     r0,386
 1805850:	30 00 c8 44 	addic   r0,r0,-14268
 1805854:	7c 0b 03 78 	mr      r11,r0
 1805858:	91 2b 00 00 	stw     r9,0(r11)
 180585c:	3c 00 01 82 	lis     r0,386
 1805860:	7c 09 03 78 	mr      r9,r0
 1805864:	80 09 c7 f8 	lwz     r0,-14344(r9)
 1805868:	31 20 ff fc 	addic   r9,r0,-4
 180586c:	3c 00 01 82 	lis     r0,386
 1805870:	7c 0b 03 78 	mr      r11,r0
 1805874:	91 2b c7 f8 	stw     r9,-14344(r11)
 1805878:	81 3f 03 4c 	lwz     r9,844(r31)
 180587c:	80 1f 03 48 	lwz     r0,840(r31)
 1805880:	7c 09 02 14 	add     r0,r9,r0
 1805884:	90 1f 03 44 	stw     r0,836(r31)
 1805888:	3c 00 01 82 	lis     r0,386
 180588c:	7c 09 03 78 	mr      r9,r0
 1805890:	80 09 c7 fc 	lwz     r0,-14340(r9)
 1805894:	3d 20 01 82 	lis     r9,386
 1805898:	39 29 c8 20 	addi    r9,r9,-14304
 180589c:	54 00 10 3a 	rlwinm  r0,r0,2,0,29
 18058a0:	7c 09 02 14 	add     r0,r9,r0
 18058a4:	81 3f 03 4c 	lwz     r9,844(r31)
 18058a8:	7c 0b 03 78 	mr      r11,r0
 18058ac:	91 2b 00 00 	stw     r9,0(r11)
 18058b0:	3c 00 01 82 	lis     r0,386
 18058b4:	7c 09 03 78 	mr      r9,r0
 18058b8:	80 09 c7 fc 	lwz     r0,-14340(r9)
 18058bc:	30 00 00 01 	addic   r0,r0,1
 18058c0:	3d 20 01 82 	lis     r9,386
 18058c4:	39 29 c8 20 	addi    r9,r9,-14304
 18058c8:	54 00 10 3a 	rlwinm  r0,r0,2,0,29
 18058cc:	7c 09 02 14 	add     r0,r9,r0
 18058d0:	81 3f 03 48 	lwz     r9,840(r31)
 18058d4:	7c 0b 03 78 	mr      r11,r0
 18058d8:	91 2b 00 00 	stw     r9,0(r11)
 18058dc:	3c 00 01 82 	lis     r0,386
 18058e0:	7c 09 03 78 	mr      r9,r0
 18058e4:	80 09 c7 fc 	lwz     r0,-14340(r9)
 18058e8:	30 00 00 02 	addic   r0,r0,2
 18058ec:	3d 20 01 82 	lis     r9,386
 18058f0:	39 29 c8 20 	addi    r9,r9,-14304
 18058f4:	54 00 10 3a 	rlwinm  r0,r0,2,0,29
 18058f8:	7c 09 02 14 	add     r0,r9,r0
 18058fc:	81 3f 03 44 	lwz     r9,836(r31)
 1805900:	7c 0b 03 78 	mr      r11,r0
 1805904:	91 2b 00 00 	stw     r9,0(r11)
 1805908:	3c 00 01 82 	lis     r0,386
 180590c:	7c 09 03 78 	mr      r9,r0
 1805910:	80 09 c7 fc 	lwz     r0,-14340(r9)
 1805914:	31 20 00 03 	addic   r9,r0,3
 1805918:	3c 00 01 82 	lis     r0,386
 180591c:	7c 0b 03 78 	mr      r11,r0
 1805920:	91 2b c7 fc 	stw     r9,-14340(r11)
 1805924:	3c 00 01 82 	lis     r0,386
 1805928:	7c 09 03 78 	mr      r9,r0
 180592c:	80 09 c7 f8 	lwz     r0,-14344(r9)
 1805930:	2f 80 00 04 	cmpwi   cr7,r0,4
 1805934:	40 9d 01 6c 	ble-    cr7,1805aa0 <main+0x5880>
 1805938:	3c 00 01 82 	lis     r0,386
 180593c:	7c 0b 03 78 	mr      r11,r0
 1805940:	80 0b c7 fc 	lwz     r0,-14340(r11)
 1805944:	30 00 00 03 	addic   r0,r0,3
 1805948:	2f 80 00 06 	cmpwi   cr7,r0,6
 180594c:	41 9d 01 54 	bgt-    cr7,1805aa0 <main+0x5880>
 1805950:	3c 00 01 82 	lis     r0,386
 1805954:	30 00 c8 44 	addic   r0,r0,-14268
 1805958:	7c 0b 03 78 	mr      r11,r0
 180595c:	81 2b 00 0c 	lwz     r9,12(r11)
 1805960:	3c 00 01 82 	lis     r0,386
 1805964:	30 00 c8 44 	addic   r0,r0,-14268
 1805968:	7c 0b 03 78 	mr      r11,r0
 180596c:	80 0b 00 08 	lwz     r0,8(r11)
 1805970:	7f 89 00 00 	cmpw    cr7,r9,r0
 1805974:	40 9e 01 2c 	bne-    cr7,1805aa0 <main+0x5880>
 1805978:	3c 00 01 82 	lis     r0,386
 180597c:	30 00 c8 44 	addic   r0,r0,-14268
 1805980:	7c 0b 03 78 	mr      r11,r0
 1805984:	81 2b 00 0c 	lwz     r9,12(r11)
 1805988:	3c 00 01 82 	lis     r0,386
 180598c:	30 00 c8 44 	addic   r0,r0,-14268
 1805990:	7c 0b 03 78 	mr      r11,r0
 1805994:	80 0b 00 10 	lwz     r0,16(r11)
 1805998:	7f 89 00 00 	cmpw    cr7,r9,r0
 180599c:	40 9e 01 04 	bne-    cr7,1805aa0 <main+0x5880>
 18059a0:	3c 00 01 82 	lis     r0,386
 18059a4:	30 00 c8 44 	addic   r0,r0,-14268
 18059a8:	7c 09 03 78 	mr      r9,r0
 18059ac:	80 09 00 04 	lwz     r0,4(r9)
 18059b0:	90 1f 03 40 	stw     r0,832(r31)
 18059b4:	3c 00 01 82 	lis     r0,386
 18059b8:	30 00 c8 44 	addic   r0,r0,-14268
 18059bc:	7c 0b 03 78 	mr      r11,r0
 18059c0:	80 0b 00 0c 	lwz     r0,12(r11)
 18059c4:	90 1f 03 3c 	stw     r0,828(r31)
 18059c8:	81 3f 03 3c 	lwz     r9,828(r31)
 18059cc:	80 1f 03 40 	lwz     r0,832(r31)
 18059d0:	7f 89 00 00 	cmpw    cr7,r9,r0
 18059d4:	40 9d 00 cc 	ble-    cr7,1805aa0 <main+0x5880>
 18059d8:	3c 00 01 82 	lis     r0,386
 18059dc:	7c 09 03 78 	mr      r9,r0
 18059e0:	80 09 c7 f8 	lwz     r0,-14344(r9)
 18059e4:	31 20 ff fc 	addic   r9,r0,-4
 18059e8:	3c 00 01 82 	lis     r0,386
 18059ec:	7c 0b 03 78 	mr      r11,r0
 18059f0:	91 2b c7 f8 	stw     r9,-14344(r11)
 18059f4:	81 3f 03 40 	lwz     r9,832(r31)
 18059f8:	80 1f 03 3c 	lwz     r0,828(r31)
 18059fc:	7c 09 02 14 	add     r0,r9,r0
 1805a00:	90 1f 03 38 	stw     r0,824(r31)
 1805a04:	3c 00 01 82 	lis     r0,386
 1805a08:	7c 09 03 78 	mr      r9,r0
 1805a0c:	80 09 c7 fc 	lwz     r0,-14340(r9)
 1805a10:	3d 20 01 82 	lis     r9,386
 1805a14:	39 29 c8 20 	addi    r9,r9,-14304
 1805a18:	54 00 10 3a 	rlwinm  r0,r0,2,0,29
 1805a1c:	7c 09 02 14 	add     r0,r9,r0
 1805a20:	81 3f 03 40 	lwz     r9,832(r31)
 1805a24:	7c 0b 03 78 	mr      r11,r0
 1805a28:	91 2b 00 00 	stw     r9,0(r11)
 1805a2c:	3c 00 01 82 	lis     r0,386
 1805a30:	7c 09 03 78 	mr      r9,r0
 1805a34:	80 09 c7 fc 	lwz     r0,-14340(r9)
 1805a38:	30 00 00 01 	addic   r0,r0,1
 1805a3c:	3d 20 01 82 	lis     r9,386
 1805a40:	39 29 c8 20 	addi    r9,r9,-14304
 1805a44:	54 00 10 3a 	rlwinm  r0,r0,2,0,29
 1805a48:	7c 09 02 14 	add     r0,r9,r0
 1805a4c:	81 3f 03 3c 	lwz     r9,828(r31)
 1805a50:	7c 0b 03 78 	mr      r11,r0
 1805a54:	91 2b 00 00 	stw     r9,0(r11)
 1805a58:	3c 00 01 82 	lis     r0,386
 1805a5c:	7c 09 03 78 	mr      r9,r0
 1805a60:	80 09 c7 fc 	lwz     r0,-14340(r9)
 1805a64:	30 00 00 02 	addic   r0,r0,2
 1805a68:	3d 20 01 82 	lis     r9,386
 1805a6c:	39 29 c8 20 	addi    r9,r9,-14304
 1805a70:	54 00 10 3a 	rlwinm  r0,r0,2,0,29
 1805a74:	7c 09 02 14 	add     r0,r9,r0
 1805a78:	81 3f 03 38 	lwz     r9,824(r31)
 1805a7c:	7c 0b 03 78 	mr      r11,r0
 1805a80:	91 2b 00 00 	stw     r9,0(r11)
 1805a84:	3c 00 01 82 	lis     r0,386
 1805a88:	7c 09 03 78 	mr      r9,r0
 1805a8c:	80 09 c7 fc 	lwz     r0,-14340(r9)
 1805a90:	31 20 00 03 	addic   r9,r0,3
 1805a94:	3c 00 01 82 	lis     r0,386
 1805a98:	7c 0b 03 78 	mr      r11,r0
 1805a9c:	91 2b c7 fc 	stw     r9,-14340(r11)
 1805aa0:	3c 00 01 82 	lis     r0,386
 1805aa4:	7c 09 03 78 	mr      r9,r0
 1805aa8:	80 09 c7 f8 	lwz     r0,-14344(r9)
 1805aac:	2f 80 00 04 	cmpwi   cr7,r0,4
 1805ab0:	40 9d 01 8c 	ble-    cr7,1805c3c <main+0x5a1c>
 1805ab4:	3c 00 01 82 	lis     r0,386
 1805ab8:	7c 0b 03 78 	mr      r11,r0
 1805abc:	80 0b c7 fc 	lwz     r0,-14340(r11)
 1805ac0:	30 00 00 03 	addic   r0,r0,3
 1805ac4:	2f 80 00 06 	cmpwi   cr7,r0,6
 1805ac8:	41 9d 01 74 	bgt-    cr7,1805c3c <main+0x5a1c>
 1805acc:	3c 00 01 82 	lis     r0,386
 1805ad0:	30 00 c8 44 	addic   r0,r0,-14268
 1805ad4:	7c 0b 03 78 	mr      r11,r0
 1805ad8:	81 2b 00 0c 	lwz     r9,12(r11)
 1805adc:	3c 00 01 82 	lis     r0,386
 1805ae0:	30 00 c8 44 	addic   r0,r0,-14268
 1805ae4:	7c 0b 03 78 	mr      r11,r0
 1805ae8:	80 0b 00 10 	lwz     r0,16(r11)
 1805aec:	7f 89 00 00 	cmpw    cr7,r9,r0
 1805af0:	40 9e 01 4c 	bne-    cr7,1805c3c <main+0x5a1c>
 1805af4:	3c 00 01 82 	lis     r0,386
 1805af8:	30 00 c8 44 	addic   r0,r0,-14268
 1805afc:	7c 0b 03 78 	mr      r11,r0
 1805b00:	81 2b 00 0c 	lwz     r9,12(r11)
 1805b04:	3c 00 01 82 	lis     r0,386
 1805b08:	30 00 c8 44 	addic   r0,r0,-14268
 1805b0c:	7c 0b 03 78 	mr      r11,r0
 1805b10:	80 0b 00 00 	lwz     r0,0(r11)
 1805b14:	7f 89 00 00 	cmpw    cr7,r9,r0
 1805b18:	40 9e 01 24 	bne-    cr7,1805c3c <main+0x5a1c>
 1805b1c:	3c 00 01 82 	lis     r0,386
 1805b20:	30 00 c8 44 	addic   r0,r0,-14268
 1805b24:	7c 09 03 78 	mr      r9,r0
 1805b28:	80 09 00 04 	lwz     r0,4(r9)
 1805b2c:	90 1f 03 34 	stw     r0,820(r31)
 1805b30:	3c 00 01 82 	lis     r0,386
 1805b34:	30 00 c8 44 	addic   r0,r0,-14268
 1805b38:	7c 0b 03 78 	mr      r11,r0
 1805b3c:	80 0b 00 0c 	lwz     r0,12(r11)
 1805b40:	90 1f 03 30 	stw     r0,816(r31)
 1805b44:	81 3f 03 30 	lwz     r9,816(r31)
 1805b48:	80 1f 03 34 	lwz     r0,820(r31)
 1805b4c:	7f 89 00 00 	cmpw    cr7,r9,r0
 1805b50:	40 9d 00 ec 	ble-    cr7,1805c3c <main+0x5a1c>
 1805b54:	3c 00 01 82 	lis     r0,386
 1805b58:	30 00 c8 44 	addic   r0,r0,-14268
 1805b5c:	7c 0b 03 78 	mr      r11,r0
 1805b60:	81 2b 00 08 	lwz     r9,8(r11)
 1805b64:	3c 00 01 82 	lis     r0,386
 1805b68:	30 00 c8 44 	addic   r0,r0,-14268
 1805b6c:	7c 0b 03 78 	mr      r11,r0
 1805b70:	91 2b 00 00 	stw     r9,0(r11)
 1805b74:	3c 00 01 82 	lis     r0,386
 1805b78:	7c 09 03 78 	mr      r9,r0
 1805b7c:	80 09 c7 f8 	lwz     r0,-14344(r9)
 1805b80:	31 20 ff fc 	addic   r9,r0,-4
 1805b84:	3c 00 01 82 	lis     r0,386
 1805b88:	7c 0b 03 78 	mr      r11,r0
 1805b8c:	91 2b c7 f8 	stw     r9,-14344(r11)
 1805b90:	81 3f 03 34 	lwz     r9,820(r31)
 1805b94:	80 1f 03 30 	lwz     r0,816(r31)
 1805b98:	7c 09 02 14 	add     r0,r9,r0
 1805b9c:	90 1f 03 2c 	stw     r0,812(r31)
 1805ba0:	3c 00 01 82 	lis     r0,386
 1805ba4:	7c 09 03 78 	mr      r9,r0
 1805ba8:	80 09 c7 fc 	lwz     r0,-14340(r9)
 1805bac:	3d 20 01 82 	lis     r9,386
 1805bb0:	39 29 c8 20 	addi    r9,r9,-14304
 1805bb4:	54 00 10 3a 	rlwinm  r0,r0,2,0,29
 1805bb8:	7c 09 02 14 	add     r0,r9,r0
 1805bbc:	81 3f 03 34 	lwz     r9,820(r31)
 1805bc0:	7c 0b 03 78 	mr      r11,r0
 1805bc4:	91 2b 00 00 	stw     r9,0(r11)
 1805bc8:	3c 00 01 82 	lis     r0,386
 1805bcc:	7c 09 03 78 	mr      r9,r0
 1805bd0:	80 09 c7 fc 	lwz     r0,-14340(r9)
 1805bd4:	30 00 00 01 	addic   r0,r0,1
 1805bd8:	3d 20 01 82 	lis     r9,386
 1805bdc:	39 29 c8 20 	addi    r9,r9,-14304
 1805be0:	54 00 10 3a 	rlwinm  r0,r0,2,0,29
 1805be4:	7c 09 02 14 	add     r0,r9,r0
 1805be8:	81 3f 03 30 	lwz     r9,816(r31)
 1805bec:	7c 0b 03 78 	mr      r11,r0
 1805bf0:	91 2b 00 00 	stw     r9,0(r11)
 1805bf4:	3c 00 01 82 	lis     r0,386
 1805bf8:	7c 09 03 78 	mr      r9,r0
 1805bfc:	80 09 c7 fc 	lwz     r0,-14340(r9)
 1805c00:	30 00 00 02 	addic   r0,r0,2
 1805c04:	3d 20 01 82 	lis     r9,386
 1805c08:	39 29 c8 20 	addi    r9,r9,-14304
 1805c0c:	54 00 10 3a 	rlwinm  r0,r0,2,0,29
 1805c10:	7c 09 02 14 	add     r0,r9,r0
 1805c14:	81 3f 03 2c 	lwz     r9,812(r31)
 1805c18:	7c 0b 03 78 	mr      r11,r0
 1805c1c:	91 2b 00 00 	stw     r9,0(r11)
 1805c20:	3c 00 01 82 	lis     r0,386
 1805c24:	7c 09 03 78 	mr      r9,r0
 1805c28:	80 09 c7 fc 	lwz     r0,-14340(r9)
 1805c2c:	31 20 00 03 	addic   r9,r0,3
 1805c30:	3c 00 01 82 	lis     r0,386
 1805c34:	7c 0b 03 78 	mr      r11,r0
 1805c38:	91 2b c7 fc 	stw     r9,-14340(r11)
 1805c3c:	3c 00 01 82 	lis     r0,386
 1805c40:	7c 09 03 78 	mr      r9,r0
 1805c44:	80 09 c7 f8 	lwz     r0,-14344(r9)
 1805c48:	2f 80 00 04 	cmpwi   cr7,r0,4
 1805c4c:	40 9d 01 6c 	ble-    cr7,1805db8 <main+0x5b98>
 1805c50:	3c 00 01 82 	lis     r0,386
 1805c54:	7c 0b 03 78 	mr      r11,r0
 1805c58:	80 0b c7 fc 	lwz     r0,-14340(r11)
 1805c5c:	30 00 00 03 	addic   r0,r0,3
 1805c60:	2f 80 00 06 	cmpwi   cr7,r0,6
 1805c64:	41 9d 01 54 	bgt-    cr7,1805db8 <main+0x5b98>
 1805c68:	3c 00 01 82 	lis     r0,386
 1805c6c:	30 00 c8 44 	addic   r0,r0,-14268
 1805c70:	7c 0b 03 78 	mr      r11,r0
 1805c74:	81 2b 00 0c 	lwz     r9,12(r11)
 1805c78:	3c 00 01 82 	lis     r0,386
 1805c7c:	30 00 c8 44 	addic   r0,r0,-14268
 1805c80:	7c 0b 03 78 	mr      r11,r0
 1805c84:	80 0b 00 10 	lwz     r0,16(r11)
 1805c88:	7f 89 00 00 	cmpw    cr7,r9,r0
 1805c8c:	40 9e 01 2c 	bne-    cr7,1805db8 <main+0x5b98>
 1805c90:	3c 00 01 82 	lis     r0,386
 1805c94:	30 00 c8 44 	addic   r0,r0,-14268
 1805c98:	7c 0b 03 78 	mr      r11,r0
 1805c9c:	81 2b 00 0c 	lwz     r9,12(r11)
 1805ca0:	3c 00 01 82 	lis     r0,386
 1805ca4:	30 00 c8 44 	addic   r0,r0,-14268
 1805ca8:	7c 0b 03 78 	mr      r11,r0
 1805cac:	80 0b 00 08 	lwz     r0,8(r11)
 1805cb0:	7f 89 00 00 	cmpw    cr7,r9,r0
 1805cb4:	40 9e 01 04 	bne-    cr7,1805db8 <main+0x5b98>
 1805cb8:	3c 00 01 82 	lis     r0,386
 1805cbc:	30 00 c8 44 	addic   r0,r0,-14268
 1805cc0:	7c 09 03 78 	mr      r9,r0
 1805cc4:	80 09 00 04 	lwz     r0,4(r9)
 1805cc8:	90 1f 03 28 	stw     r0,808(r31)
 1805ccc:	3c 00 01 82 	lis     r0,386
 1805cd0:	30 00 c8 44 	addic   r0,r0,-14268
 1805cd4:	7c 0b 03 78 	mr      r11,r0
 1805cd8:	80 0b 00 0c 	lwz     r0,12(r11)
 1805cdc:	90 1f 03 24 	stw     r0,804(r31)
 1805ce0:	81 3f 03 24 	lwz     r9,804(r31)
 1805ce4:	80 1f 03 28 	lwz     r0,808(r31)
 1805ce8:	7f 89 00 00 	cmpw    cr7,r9,r0
 1805cec:	40 9d 00 cc 	ble-    cr7,1805db8 <main+0x5b98>
 1805cf0:	3c 00 01 82 	lis     r0,386
 1805cf4:	7c 09 03 78 	mr      r9,r0
 1805cf8:	80 09 c7 f8 	lwz     r0,-14344(r9)
 1805cfc:	31 20 ff fc 	addic   r9,r0,-4
 1805d00:	3c 00 01 82 	lis     r0,386
 1805d04:	7c 0b 03 78 	mr      r11,r0
 1805d08:	91 2b c7 f8 	stw     r9,-14344(r11)
 1805d0c:	81 3f 03 28 	lwz     r9,808(r31)
 1805d10:	80 1f 03 24 	lwz     r0,804(r31)
 1805d14:	7c 09 02 14 	add     r0,r9,r0
 1805d18:	90 1f 03 20 	stw     r0,800(r31)
 1805d1c:	3c 00 01 82 	lis     r0,386
 1805d20:	7c 09 03 78 	mr      r9,r0
 1805d24:	80 09 c7 fc 	lwz     r0,-14340(r9)
 1805d28:	3d 20 01 82 	lis     r9,386
 1805d2c:	39 29 c8 20 	addi    r9,r9,-14304
 1805d30:	54 00 10 3a 	rlwinm  r0,r0,2,0,29
 1805d34:	7c 09 02 14 	add     r0,r9,r0
 1805d38:	81 3f 03 28 	lwz     r9,808(r31)
 1805d3c:	7c 0b 03 78 	mr      r11,r0
 1805d40:	91 2b 00 00 	stw     r9,0(r11)
 1805d44:	3c 00 01 82 	lis     r0,386
 1805d48:	7c 09 03 78 	mr      r9,r0
 1805d4c:	80 09 c7 fc 	lwz     r0,-14340(r9)
 1805d50:	30 00 00 01 	addic   r0,r0,1
 1805d54:	3d 20 01 82 	lis     r9,386
 1805d58:	39 29 c8 20 	addi    r9,r9,-14304
 1805d5c:	54 00 10 3a 	rlwinm  r0,r0,2,0,29
 1805d60:	7c 09 02 14 	add     r0,r9,r0
 1805d64:	81 3f 03 24 	lwz     r9,804(r31)
 1805d68:	7c 0b 03 78 	mr      r11,r0
 1805d6c:	91 2b 00 00 	stw     r9,0(r11)
 1805d70:	3c 00 01 82 	lis     r0,386
 1805d74:	7c 09 03 78 	mr      r9,r0
 1805d78:	80 09 c7 fc 	lwz     r0,-14340(r9)
 1805d7c:	30 00 00 02 	addic   r0,r0,2
 1805d80:	3d 20 01 82 	lis     r9,386
 1805d84:	39 29 c8 20 	addi    r9,r9,-14304
 1805d88:	54 00 10 3a 	rlwinm  r0,r0,2,0,29
 1805d8c:	7c 09 02 14 	add     r0,r9,r0
 1805d90:	81 3f 03 20 	lwz     r9,800(r31)
 1805d94:	7c 0b 03 78 	mr      r11,r0
 1805d98:	91 2b 00 00 	stw     r9,0(r11)
 1805d9c:	3c 00 01 82 	lis     r0,386
 1805da0:	7c 09 03 78 	mr      r9,r0
 1805da4:	80 09 c7 fc 	lwz     r0,-14340(r9)
 1805da8:	31 20 00 03 	addic   r9,r0,3
 1805dac:	3c 00 01 82 	lis     r0,386
 1805db0:	7c 0b 03 78 	mr      r11,r0
 1805db4:	91 2b c7 fc 	stw     r9,-14340(r11)
 1805db8:	3c 00 01 82 	lis     r0,386
 1805dbc:	7c 09 03 78 	mr      r9,r0
 1805dc0:	80 09 c7 f8 	lwz     r0,-14344(r9)
 1805dc4:	2f 80 00 04 	cmpwi   cr7,r0,4
 1805dc8:	40 9d 01 8c 	ble-    cr7,1805f54 <main+0x5d34>
 1805dcc:	3c 00 01 82 	lis     r0,386
 1805dd0:	7c 0b 03 78 	mr      r11,r0
 1805dd4:	80 0b c7 fc 	lwz     r0,-14340(r11)
 1805dd8:	30 00 00 03 	addic   r0,r0,3
 1805ddc:	2f 80 00 06 	cmpwi   cr7,r0,6
 1805de0:	41 9d 01 74 	bgt-    cr7,1805f54 <main+0x5d34>
 1805de4:	3c 00 01 82 	lis     r0,386
 1805de8:	30 00 c8 44 	addic   r0,r0,-14268
 1805dec:	7c 0b 03 78 	mr      r11,r0
 1805df0:	81 2b 00 10 	lwz     r9,16(r11)
 1805df4:	3c 00 01 82 	lis     r0,386
 1805df8:	30 00 c8 44 	addic   r0,r0,-14268
 1805dfc:	7c 0b 03 78 	mr      r11,r0
 1805e00:	80 0b 00 00 	lwz     r0,0(r11)
 1805e04:	7f 89 00 00 	cmpw    cr7,r9,r0
 1805e08:	40 9e 01 4c 	bne-    cr7,1805f54 <main+0x5d34>
 1805e0c:	3c 00 01 82 	lis     r0,386
 1805e10:	30 00 c8 44 	addic   r0,r0,-14268
 1805e14:	7c 0b 03 78 	mr      r11,r0
 1805e18:	81 2b 00 10 	lwz     r9,16(r11)
 1805e1c:	3c 00 01 82 	lis     r0,386
 1805e20:	30 00 c8 44 	addic   r0,r0,-14268
 1805e24:	7c 0b 03 78 	mr      r11,r0
 1805e28:	80 0b 00 08 	lwz     r0,8(r11)
 1805e2c:	7f 89 00 00 	cmpw    cr7,r9,r0
 1805e30:	40 9e 01 24 	bne-    cr7,1805f54 <main+0x5d34>
 1805e34:	3c 00 01 82 	lis     r0,386
 1805e38:	30 00 c8 44 	addic   r0,r0,-14268
 1805e3c:	7c 09 03 78 	mr      r9,r0
 1805e40:	80 09 00 04 	lwz     r0,4(r9)
 1805e44:	90 1f 03 1c 	stw     r0,796(r31)
 1805e48:	3c 00 01 82 	lis     r0,386
 1805e4c:	30 00 c8 44 	addic   r0,r0,-14268
 1805e50:	7c 0b 03 78 	mr      r11,r0
 1805e54:	80 0b 00 10 	lwz     r0,16(r11)
 1805e58:	90 1f 03 18 	stw     r0,792(r31)
 1805e5c:	81 3f 03 18 	lwz     r9,792(r31)
 1805e60:	80 1f 03 1c 	lwz     r0,796(r31)
 1805e64:	7f 89 00 00 	cmpw    cr7,r9,r0
 1805e68:	40 9d 00 ec 	ble-    cr7,1805f54 <main+0x5d34>
 1805e6c:	3c 00 01 82 	lis     r0,386
 1805e70:	30 00 c8 44 	addic   r0,r0,-14268
 1805e74:	7c 0b 03 78 	mr      r11,r0
 1805e78:	81 2b 00 0c 	lwz     r9,12(r11)
 1805e7c:	3c 00 01 82 	lis     r0,386
 1805e80:	30 00 c8 44 	addic   r0,r0,-14268
 1805e84:	7c 0b 03 78 	mr      r11,r0
 1805e88:	91 2b 00 00 	stw     r9,0(r11)
