
/home/vaillant/ppc2/perf/malardalen/ppc-eabi/gcc-4.4.2/duff/duff.elf:     file format elf32-powerpc


Disassembly of section .init:

01800094 <__init>:
 1800094:	94 21 ff f0 	stwu    r1,-16(r1)
 1800098:	7c 08 02 a6 	mflr    r0
 180009c:	90 01 00 14 	stw     r0,20(r1)
 18000a0:	48 00 00 f9 	bl      1800198 <frame_dummy>
 18000a4:	48 00 05 9d 	bl      1800640 <__do_global_ctors_aux>
 18000a8:	80 01 00 14 	lwz     r0,20(r1)
 18000ac:	7c 08 03 a6 	mtlr    r0
 18000b0:	38 21 00 10 	addi    r1,r1,16
 18000b4:	4e 80 00 20 	blr

Disassembly of section .text:

018000b8 <__do_global_dtors_aux>:
 18000b8:	94 21 ff e8 	stwu    r1,-24(r1)
 18000bc:	7c 08 02 a6 	mflr    r0
 18000c0:	93 e1 00 14 	stw     r31,20(r1)
 18000c4:	3f e0 01 81 	lis     r31,385
 18000c8:	90 01 00 1c 	stw     r0,28(r1)
 18000cc:	88 1f 08 00 	lbz     r0,2048(r31)
 18000d0:	93 81 00 08 	stw     r28,8(r1)
 18000d4:	2f 80 00 00 	cmpwi   cr7,r0,0
 18000d8:	93 a1 00 0c 	stw     r29,12(r1)
 18000dc:	93 c1 00 10 	stw     r30,16(r1)
 18000e0:	40 9e 00 7c 	bne-    cr7,180015c <__do_global_dtors_aux+0xa4>
 18000e4:	3f 80 01 81 	lis     r28,385
 18000e8:	3f a0 01 81 	lis     r29,385
 18000ec:	3b 9c 07 d0 	addi    r28,r28,2000
 18000f0:	3b bd 07 d4 	addi    r29,r29,2004
 18000f4:	7f bc e8 50 	subf    r29,r28,r29
 18000f8:	3f c0 01 81 	lis     r30,385
 18000fc:	7f bd 16 70 	srawi   r29,r29,2
 1800100:	81 3e 08 04 	lwz     r9,2052(r30)
 1800104:	3b bd ff ff 	addi    r29,r29,-1
 1800108:	7f 89 e8 40 	cmplw   cr7,r9,r29
 180010c:	40 9c 00 2c 	bge-    cr7,1800138 <__do_global_dtors_aux+0x80>
 1800110:	3b de 08 04 	addi    r30,r30,2052
 1800114:	39 29 00 01 	addi    r9,r9,1
 1800118:	55 20 10 3a 	rlwinm  r0,r9,2,0,29
 180011c:	91 3e 00 00 	stw     r9,0(r30)
 1800120:	7c 1c 00 2e 	lwzx    r0,r28,r0
 1800124:	7c 09 03 a6 	mtctr   r0
 1800128:	4e 80 04 21 	bctrl
 180012c:	81 3e 00 00 	lwz     r9,0(r30)
 1800130:	7f 89 e8 40 	cmplw   cr7,r9,r29
 1800134:	41 9c ff e0 	blt+    cr7,1800114 <__do_global_dtors_aux+0x5c>
 1800138:	3d 20 00 00 	lis     r9,0
 180013c:	38 09 00 00 	addi    r0,r9,0
 1800140:	2f 80 00 00 	cmpwi   cr7,r0,0
 1800144:	41 9e 00 10 	beq-    cr7,1800154 <__do_global_dtors_aux+0x9c>
 1800148:	3c 60 01 81 	lis     r3,385
 180014c:	38 63 07 20 	addi    r3,r3,1824
 1800150:	4a 7f fe b1 	bl      0 <__init-0x1800094>
 1800154:	38 00 00 01 	li      r0,1
 1800158:	98 1f 08 00 	stb     r0,2048(r31)
 180015c:	80 01 00 1c 	lwz     r0,28(r1)
 1800160:	83 81 00 08 	lwz     r28,8(r1)
 1800164:	7c 08 03 a6 	mtlr    r0
 1800168:	83 a1 00 0c 	lwz     r29,12(r1)
 180016c:	83 c1 00 10 	lwz     r30,16(r1)
 1800170:	83 e1 00 14 	lwz     r31,20(r1)
 1800174:	38 21 00 18 	addi    r1,r1,24
 1800178:	4e 80 00 20 	blr

0180017c <call___do_global_dtors_aux>:
 180017c:	7c 08 02 a6 	mflr    r0
 1800180:	94 21 ff f8 	stwu    r1,-8(r1)
 1800184:	90 01 00 0c 	stw     r0,12(r1)
 1800188:	80 01 00 0c 	lwz     r0,12(r1)
 180018c:	38 21 00 08 	addi    r1,r1,8
 1800190:	7c 08 03 a6 	mtlr    r0
 1800194:	4e 80 00 20 	blr

01800198 <frame_dummy>:
 1800198:	7c 08 02 a6 	mflr    r0
 180019c:	94 21 ff f8 	stwu    r1,-8(r1)
 18001a0:	3d 20 00 00 	lis     r9,0
 18001a4:	90 01 00 0c 	stw     r0,12(r1)
 18001a8:	38 09 00 00 	addi    r0,r9,0
 18001ac:	2f 80 00 00 	cmpwi   cr7,r0,0
 18001b0:	41 9e 00 18 	beq-    cr7,18001c8 <frame_dummy+0x30>
 18001b4:	3c 60 01 81 	lis     r3,385
 18001b8:	3c 80 01 81 	lis     r4,385
 18001bc:	38 63 07 20 	addi    r3,r3,1824
 18001c0:	38 84 08 08 	addi    r4,r4,2056
 18001c4:	4a 7f fe 3d 	bl      0 <__init-0x1800094>
 18001c8:	3c 60 01 81 	lis     r3,385
 18001cc:	80 03 07 d8 	lwz     r0,2008(r3)
 18001d0:	38 63 07 d8 	addi    r3,r3,2008
 18001d4:	2f 80 00 00 	cmpwi   cr7,r0,0
 18001d8:	41 9e 00 1c 	beq-    cr7,18001f4 <frame_dummy+0x5c>
 18001dc:	3d 20 00 00 	lis     r9,0
 18001e0:	38 09 00 00 	addi    r0,r9,0
 18001e4:	2f 80 00 00 	cmpwi   cr7,r0,0
 18001e8:	41 9e 00 0c 	beq-    cr7,18001f4 <frame_dummy+0x5c>
 18001ec:	7c 09 03 a6 	mtctr   r0
 18001f0:	4e 80 04 21 	bctrl
 18001f4:	80 01 00 0c 	lwz     r0,12(r1)
 18001f8:	38 21 00 08 	addi    r1,r1,8
 18001fc:	7c 08 03 a6 	mtlr    r0
 1800200:	4e 80 00 20 	blr

01800204 <call_frame_dummy>:
 1800204:	7c 08 02 a6 	mflr    r0
 1800208:	94 21 ff f8 	stwu    r1,-8(r1)
 180020c:	90 01 00 0c 	stw     r0,12(r1)
 1800210:	80 01 00 0c 	lwz     r0,12(r1)
 1800214:	38 21 00 08 	addi    r1,r1,8
 1800218:	7c 08 03 a6 	mtlr    r0
 180021c:	4e 80 00 20 	blr

01800220 <duffcopy>:
 1800220:	94 21 ff d0 	stwu    r1,-48(r1)
 1800224:	93 e1 00 2c 	stw     r31,44(r1)
 1800228:	7c 3f 0b 78 	mr      r31,r1
 180022c:	90 7f 00 18 	stw     r3,24(r31)
 1800230:	90 9f 00 1c 	stw     r4,28(r31)
 1800234:	90 bf 00 20 	stw     r5,32(r31)
 1800238:	80 1f 00 20 	lwz     r0,32(r31)
 180023c:	30 00 00 07 	addic   r0,r0,7
 1800240:	7c 00 1e 70 	srawi   r0,r0,3
 1800244:	7c 00 01 94 	addze   r0,r0
 1800248:	90 1f 00 08 	stw     r0,8(r31)
 180024c:	80 1f 00 20 	lwz     r0,32(r31)
 1800250:	7c 09 1e 70 	srawi   r9,r0,3
 1800254:	7d 29 01 94 	addze   r9,r9
 1800258:	55 29 18 38 	rlwinm  r9,r9,3,0,28
 180025c:	7c 09 00 50 	subf    r0,r9,r0
 1800260:	2b 80 00 07 	cmplwi  cr7,r0,7
 1800264:	41 9d 01 e8 	bgt-    cr7,180044c <duffcopy+0x22c>
 1800268:	54 09 10 3a 	rlwinm  r9,r0,2,0,29
 180026c:	3c 00 01 80 	lis     r0,384
 1800270:	30 00 06 cc 	addic   r0,r0,1740
 1800274:	7c 09 02 14 	add     r0,r9,r0
 1800278:	7c 0b 03 78 	mr      r11,r0
 180027c:	81 2b 00 00 	lwz     r9,0(r11)
 1800280:	3c 00 01 80 	lis     r0,384
 1800284:	30 00 06 cc 	addic   r0,r0,1740
 1800288:	7c 09 02 14 	add     r0,r9,r0
 180028c:	7c 09 03 a6 	mtctr   r0
 1800290:	4e 80 04 20 	bctr
 1800294:	80 1f 00 1c 	lwz     r0,28(r31)
 1800298:	7c 09 03 78 	mr      r9,r0
 180029c:	88 09 00 00 	lbz     r0,0(r9)
 18002a0:	54 09 06 3e 	clrlwi  r9,r0,24
 18002a4:	80 1f 00 18 	lwz     r0,24(r31)
 18002a8:	7c 0b 03 78 	mr      r11,r0
 18002ac:	99 2b 00 00 	stb     r9,0(r11)
 18002b0:	80 1f 00 18 	lwz     r0,24(r31)
 18002b4:	30 00 00 01 	addic   r0,r0,1
 18002b8:	90 1f 00 18 	stw     r0,24(r31)
 18002bc:	80 1f 00 1c 	lwz     r0,28(r31)
 18002c0:	30 00 00 01 	addic   r0,r0,1
 18002c4:	90 1f 00 1c 	stw     r0,28(r31)
 18002c8:	80 1f 00 1c 	lwz     r0,28(r31)
 18002cc:	7c 09 03 78 	mr      r9,r0
 18002d0:	88 09 00 00 	lbz     r0,0(r9)
 18002d4:	54 09 06 3e 	clrlwi  r9,r0,24
 18002d8:	80 1f 00 18 	lwz     r0,24(r31)
 18002dc:	7c 0b 03 78 	mr      r11,r0
 18002e0:	99 2b 00 00 	stb     r9,0(r11)
 18002e4:	80 1f 00 18 	lwz     r0,24(r31)
 18002e8:	30 00 00 01 	addic   r0,r0,1
 18002ec:	90 1f 00 18 	stw     r0,24(r31)
 18002f0:	80 1f 00 1c 	lwz     r0,28(r31)
 18002f4:	30 00 00 01 	addic   r0,r0,1
 18002f8:	90 1f 00 1c 	stw     r0,28(r31)
 18002fc:	80 1f 00 1c 	lwz     r0,28(r31)
 1800300:	7c 09 03 78 	mr      r9,r0
 1800304:	88 09 00 00 	lbz     r0,0(r9)
 1800308:	54 09 06 3e 	clrlwi  r9,r0,24
 180030c:	80 1f 00 18 	lwz     r0,24(r31)
 1800310:	7c 0b 03 78 	mr      r11,r0
 1800314:	99 2b 00 00 	stb     r9,0(r11)
 1800318:	80 1f 00 18 	lwz     r0,24(r31)
 180031c:	30 00 00 01 	addic   r0,r0,1
 1800320:	90 1f 00 18 	stw     r0,24(r31)
 1800324:	80 1f 00 1c 	lwz     r0,28(r31)
 1800328:	30 00 00 01 	addic   r0,r0,1
 180032c:	90 1f 00 1c 	stw     r0,28(r31)
 1800330:	80 1f 00 1c 	lwz     r0,28(r31)
 1800334:	7c 09 03 78 	mr      r9,r0
 1800338:	88 09 00 00 	lbz     r0,0(r9)
 180033c:	54 09 06 3e 	clrlwi  r9,r0,24
 1800340:	80 1f 00 18 	lwz     r0,24(r31)
 1800344:	7c 0b 03 78 	mr      r11,r0
 1800348:	99 2b 00 00 	stb     r9,0(r11)
 180034c:	80 1f 00 18 	lwz     r0,24(r31)
 1800350:	30 00 00 01 	addic   r0,r0,1
 1800354:	90 1f 00 18 	stw     r0,24(r31)
 1800358:	80 1f 00 1c 	lwz     r0,28(r31)
 180035c:	30 00 00 01 	addic   r0,r0,1
 1800360:	90 1f 00 1c 	stw     r0,28(r31)
 1800364:	80 1f 00 1c 	lwz     r0,28(r31)
 1800368:	7c 09 03 78 	mr      r9,r0
 180036c:	88 09 00 00 	lbz     r0,0(r9)
 1800370:	54 09 06 3e 	clrlwi  r9,r0,24
 1800374:	80 1f 00 18 	lwz     r0,24(r31)
 1800378:	7c 0b 03 78 	mr      r11,r0
 180037c:	99 2b 00 00 	stb     r9,0(r11)
 1800380:	80 1f 00 18 	lwz     r0,24(r31)
 1800384:	30 00 00 01 	addic   r0,r0,1
 1800388:	90 1f 00 18 	stw     r0,24(r31)
 180038c:	80 1f 00 1c 	lwz     r0,28(r31)
 1800390:	30 00 00 01 	addic   r0,r0,1
 1800394:	90 1f 00 1c 	stw     r0,28(r31)
 1800398:	80 1f 00 1c 	lwz     r0,28(r31)
 180039c:	7c 09 03 78 	mr      r9,r0
 18003a0:	88 09 00 00 	lbz     r0,0(r9)
 18003a4:	54 09 06 3e 	clrlwi  r9,r0,24
 18003a8:	80 1f 00 18 	lwz     r0,24(r31)
 18003ac:	7c 0b 03 78 	mr      r11,r0
 18003b0:	99 2b 00 00 	stb     r9,0(r11)
 18003b4:	80 1f 00 18 	lwz     r0,24(r31)
 18003b8:	30 00 00 01 	addic   r0,r0,1
 18003bc:	90 1f 00 18 	stw     r0,24(r31)
 18003c0:	80 1f 00 1c 	lwz     r0,28(r31)
 18003c4:	30 00 00 01 	addic   r0,r0,1
 18003c8:	90 1f 00 1c 	stw     r0,28(r31)
 18003cc:	80 1f 00 1c 	lwz     r0,28(r31)
 18003d0:	7c 09 03 78 	mr      r9,r0
 18003d4:	88 09 00 00 	lbz     r0,0(r9)
 18003d8:	54 09 06 3e 	clrlwi  r9,r0,24
 18003dc:	80 1f 00 18 	lwz     r0,24(r31)
 18003e0:	7c 0b 03 78 	mr      r11,r0
 18003e4:	99 2b 00 00 	stb     r9,0(r11)
 18003e8:	80 1f 00 18 	lwz     r0,24(r31)
 18003ec:	30 00 00 01 	addic   r0,r0,1
 18003f0:	90 1f 00 18 	stw     r0,24(r31)
 18003f4:	80 1f 00 1c 	lwz     r0,28(r31)
 18003f8:	30 00 00 01 	addic   r0,r0,1
 18003fc:	90 1f 00 1c 	stw     r0,28(r31)
 1800400:	80 1f 00 1c 	lwz     r0,28(r31)
 1800404:	7c 09 03 78 	mr      r9,r0
 1800408:	88 09 00 00 	lbz     r0,0(r9)
 180040c:	54 09 06 3e 	clrlwi  r9,r0,24
 1800410:	80 1f 00 18 	lwz     r0,24(r31)
 1800414:	7c 0b 03 78 	mr      r11,r0
 1800418:	99 2b 00 00 	stb     r9,0(r11)
 180041c:	80 1f 00 18 	lwz     r0,24(r31)
 1800420:	30 00 00 01 	addic   r0,r0,1
 1800424:	90 1f 00 18 	stw     r0,24(r31)
 1800428:	80 1f 00 1c 	lwz     r0,28(r31)
 180042c:	30 00 00 01 	addic   r0,r0,1
 1800430:	90 1f 00 1c 	stw     r0,28(r31)
 1800434:	80 1f 00 08 	lwz     r0,8(r31)
 1800438:	30 00 ff ff 	addic   r0,r0,-1
 180043c:	90 1f 00 08 	stw     r0,8(r31)
 1800440:	80 1f 00 08 	lwz     r0,8(r31)
 1800444:	2f 80 00 00 	cmpwi   cr7,r0,0
 1800448:	41 9d fe 4c 	bgt+    cr7,1800294 <duffcopy+0x74>
 180044c:	39 7f 00 30 	addi    r11,r31,48
 1800450:	83 eb ff fc 	lwz     r31,-4(r11)
 1800454:	7d 61 5b 78 	mr      r1,r11
 1800458:	4e 80 00 20 	blr

0180045c <initialize>:
 180045c:	94 21 ff d8 	stwu    r1,-40(r1)
 1800460:	93 e1 00 24 	stw     r31,36(r1)
 1800464:	7c 3f 0b 78 	mr      r31,r1
 1800468:	90 7f 00 18 	stw     r3,24(r31)
 180046c:	90 9f 00 1c 	stw     r4,28(r31)
 1800470:	38 00 00 00 	li      r0,0
 1800474:	90 1f 00 08 	stw     r0,8(r31)
 1800478:	48 00 00 3c 	b       18004b4 <initialize+0x58>
 180047c:	80 1f 00 08 	lwz     r0,8(r31)
 1800480:	81 3f 00 18 	lwz     r9,24(r31)
 1800484:	7c 09 02 14 	add     r0,r9,r0
 1800488:	81 3f 00 1c 	lwz     r9,28(r31)
 180048c:	55 2b 06 3e 	clrlwi  r11,r9,24
 1800490:	81 3f 00 08 	lwz     r9,8(r31)
 1800494:	55 29 06 3e 	clrlwi  r9,r9,24
 1800498:	7d 29 58 50 	subf    r9,r9,r11
 180049c:	55 29 06 3e 	clrlwi  r9,r9,24
 18004a0:	7c 0b 03 78 	mr      r11,r0
 18004a4:	99 2b 00 00 	stb     r9,0(r11)
 18004a8:	80 1f 00 08 	lwz     r0,8(r31)
 18004ac:	30 00 00 01 	addic   r0,r0,1
 18004b0:	90 1f 00 08 	stw     r0,8(r31)
 18004b4:	81 3f 00 08 	lwz     r9,8(r31)
 18004b8:	80 1f 00 1c 	lwz     r0,28(r31)
 18004bc:	7f 89 00 00 	cmpw    cr7,r9,r0
 18004c0:	41 9c ff bc 	blt+    cr7,180047c <initialize+0x20>
 18004c4:	39 7f 00 28 	addi    r11,r31,40
 18004c8:	83 eb ff fc 	lwz     r31,-4(r11)
 18004cc:	7d 61 5b 78 	mr      r1,r11
 18004d0:	4e 80 00 20 	blr

018004d4 <main>:
 18004d4:	94 21 ff e0 	stwu    r1,-32(r1)
 18004d8:	7c 08 02 a6 	mflr    r0
 18004dc:	90 01 00 24 	stw     r0,36(r1)
 18004e0:	93 e1 00 1c 	stw     r31,28(r1)
 18004e4:	7c 3f 0b 78 	mr      r31,r1
 18004e8:	48 00 00 a5 	bl      180058c <__eabi>
 18004ec:	38 00 0e d8 	li      r0,3800
 18004f0:	90 1f 00 08 	stw     r0,8(r31)
 18004f4:	48 00 00 38 	b       180052c <main+0x58>
 18004f8:	3c 00 01 81 	lis     r0,385
 18004fc:	30 60 08 20 	addic   r3,r0,2080
 1800500:	38 80 00 64 	li      r4,100
 1800504:	4b ff ff 59 	bl      180045c <initialize>
 1800508:	3c 00 01 81 	lis     r0,385
 180050c:	30 60 08 20 	addic   r3,r0,2080
 1800510:	3c 00 01 81 	lis     r0,385
 1800514:	30 80 08 84 	addic   r4,r0,2180
 1800518:	38 a0 00 2b 	li      r5,43
 180051c:	4b ff fd 05 	bl      1800220 <duffcopy>
 1800520:	80 1f 00 08 	lwz     r0,8(r31)
 1800524:	30 00 ff ff 	addic   r0,r0,-1
 1800528:	90 1f 00 08 	stw     r0,8(r31)
 180052c:	80 1f 00 08 	lwz     r0,8(r31)
 1800530:	2f 80 00 00 	cmpwi   cr7,r0,0
 1800534:	40 9e ff c4 	bne+    cr7,18004f8 <main+0x24>
 1800538:	39 7f 00 20 	addi    r11,r31,32
 180053c:	80 0b 00 04 	lwz     r0,4(r11)
 1800540:	7c 08 03 a6 	mtlr    r0
 1800544:	83 eb ff fc 	lwz     r31,-4(r11)
 1800548:	7d 61 5b 78 	mr      r1,r11
 180054c:	4e 80 00 20 	blr

01800550 <_exit>:
 1800550:	94 21 ff e8 	stwu    r1,-24(r1)
 1800554:	93 e1 00 14 	stw     r31,20(r1)
 1800558:	7c 3f 0b 78 	mr      r31,r1
 180055c:	90 7f 00 08 	stw     r3,8(r31)
 1800560:	48 00 00 00 	b       1800560 <_exit+0x10>

01800564 <_start>:
 1800564:	94 21 ff f0 	stwu    r1,-16(r1)
 1800568:	7c 08 02 a6 	mflr    r0
 180056c:	90 01 00 14 	stw     r0,20(r1)
 1800570:	93 e1 00 0c 	stw     r31,12(r1)
 1800574:	7c 3f 0b 78 	mr      r31,r1
 1800578:	38 60 00 00 	li      r3,0
 180057c:	38 80 00 00 	li      r4,0
 1800580:	4b ff ff 55 	bl      18004d4 <main>
 1800584:	38 60 00 00 	li      r3,0
 1800588:	4b ff ff c9 	bl      1800550 <_exit>

0180058c <__eabi>:
 180058c:	3d 40 01 81 	lis     r10,385
 1800590:	3d 60 01 81 	lis     r11,385
 1800594:	81 2a 07 fc 	lwz     r9,2044(r10)
 1800598:	39 6b 07 dc 	addi    r11,r11,2012
 180059c:	29 09 00 00 	cmplwi  cr2,r9,0
 18005a0:	4c 8a 00 20 	bnelr   cr2
 18005a4:	90 2a 07 fc 	stw     r1,2044(r10)
 18005a8:	80 6b 00 08 	lwz     r3,8(r11)
 18005ac:	80 8b 00 0c 	lwz     r4,12(r11)
 18005b0:	7c 83 20 00 	cmpw    cr1,r3,r4
 18005b4:	41 86 00 08 	beq-    cr1,18005bc <__eabi+0x30>
 18005b8:	81 ab 00 04 	lwz     r13,4(r11)
 18005bc:	80 6b 00 14 	lwz     r3,20(r11)
 18005c0:	80 8b 00 18 	lwz     r4,24(r11)
 18005c4:	7c 83 20 00 	cmpw    cr1,r3,r4
 18005c8:	41 a6 00 08 	beq+    cr1,18005d0 <__eabi+0x44>
 18005cc:	80 4b 00 10 	lwz     r2,16(r11)
 18005d0:	4b ff fa c4 	b       1800094 <__init>

018005d4 <__eabi_convert>:
 18005d4:	7c 83 20 40 	cmplw   cr1,r3,r4
 18005d8:	7c a3 20 50 	subf    r5,r3,r4
 18005dc:	4c 84 00 20 	bgelr   cr1
 18005e0:	7c a5 16 70 	srawi   r5,r5,2
 18005e4:	38 63 ff fc 	addi    r3,r3,-4
 18005e8:	7c a9 03 a6 	mtctr   r5
 18005ec:	84 c3 00 04 	lwzu    r6,4(r3)
 18005f0:	2c 06 00 00 	cmpwi   r6,0
 18005f4:	41 82 00 0c 	beq-    1800600 <__eabi_convert+0x2c>
 18005f8:	7c c6 62 14 	add     r6,r6,r12
 18005fc:	90 c3 00 00 	stw     r6,0(r3)
 1800600:	42 00 ff ec 	bdnz+   18005ec <__eabi_convert+0x18>
 1800604:	4e 80 00 20 	blr

01800608 <__eabi_uconvert>:
 1800608:	7c 83 20 40 	cmplw   cr1,r3,r4
 180060c:	7c a3 20 50 	subf    r5,r3,r4
 1800610:	4c 84 00 20 	bgelr   cr1
 1800614:	7c a5 16 70 	srawi   r5,r5,2
 1800618:	38 63 ff fc 	addi    r3,r3,-4
 180061c:	7c a9 03 a6 	mtctr   r5
 1800620:	84 c3 00 04 	lwzu    r6,4(r3)
 1800624:	7c c6 62 14 	add     r6,r6,r12
 1800628:	80 e6 00 00 	lwz     r7,0(r6)
 180062c:	90 c3 00 00 	stw     r6,0(r3)
 1800630:	7c e7 62 14 	add     r7,r7,r12
 1800634:	90 e6 00 00 	stw     r7,0(r6)
 1800638:	42 00 ff e8 	bdnz+   1800620 <__eabi_uconvert+0x18>
 180063c:	4e 80 00 20 	blr

01800640 <__do_global_ctors_aux>:
 1800640:	7c 08 02 a6 	mflr    r0
 1800644:	94 21 ff f0 	stwu    r1,-16(r1)
 1800648:	93 e1 00 0c 	stw     r31,12(r1)
 180064c:	3f e0 01 81 	lis     r31,385
 1800650:	90 01 00 14 	stw     r0,20(r1)
 1800654:	3b ff 07 cc 	addi    r31,r31,1996
 1800658:	80 1f ff fc 	lwz     r0,-4(r31)
 180065c:	2f 80 ff ff 	cmpwi   cr7,r0,-1
 1800660:	41 9e 00 1c 	beq-    cr7,180067c <__do_global_ctors_aux+0x3c>
 1800664:	3b ff ff fc 	addi    r31,r31,-4
 1800668:	7c 09 03 a6 	mtctr   r0
 180066c:	4e 80 04 21 	bctrl
 1800670:	84 1f ff fc 	lwzu    r0,-4(r31)
 1800674:	2f 80 ff ff 	cmpwi   cr7,r0,-1
 1800678:	40 9e ff f0 	bne+    cr7,1800668 <__do_global_ctors_aux+0x28>
 180067c:	80 01 00 14 	lwz     r0,20(r1)
 1800680:	83 e1 00 0c 	lwz     r31,12(r1)
 1800684:	38 21 00 10 	addi    r1,r1,16
 1800688:	7c 08 03 a6 	mtlr    r0
 180068c:	4e 80 00 20 	blr

01800690 <call___do_global_ctors_aux>:
 1800690:	7c 08 02 a6 	mflr    r0
 1800694:	94 21 ff f8 	stwu    r1,-8(r1)
 1800698:	90 01 00 0c 	stw     r0,12(r1)
 180069c:	80 01 00 0c 	lwz     r0,12(r1)
 18006a0:	38 21 00 08 	addi    r1,r1,8
 18006a4:	7c 08 03 a6 	mtlr    r0
 18006a8:	4e 80 00 20 	blr

Disassembly of section .fini:

018006ac <__fini>:
 18006ac:	94 21 ff f0 	stwu    r1,-16(r1)
 18006b0:	7c 08 02 a6 	mflr    r0
 18006b4:	90 01 00 14 	stw     r0,20(r1)
 18006b8:	4b ff fa 01 	bl      18000b8 <__do_global_dtors_aux>
 18006bc:	80 01 00 14 	lwz     r0,20(r1)
 18006c0:	7c 08 03 a6 	mtlr    r0
 18006c4:	38 21 00 10 	addi    r1,r1,16
 18006c8:	4e 80 00 20 	blr
