
/home/vaillant/ppc2/perf/malardalen/ppc-eabi/gcc-4.4.2/adpcm/adpcm.elf:     file format elf32-powerpc


Disassembly of section .init:

01800094 <__init>:
 1800094:	94 21 ff f0 	stwu    r1,-16(r1)
 1800098:	7c 08 02 a6 	mflr    r0
 180009c:	90 01 00 14 	stw     r0,20(r1)
 18000a0:	48 00 00 f9 	bl      1800198 <frame_dummy>
 18000a4:	48 00 25 91 	bl      1802634 <__do_global_ctors_aux>
 18000a8:	80 01 00 14 	lwz     r0,20(r1)
 18000ac:	7c 08 03 a6 	mtlr    r0
 18000b0:	38 21 00 10 	addi    r1,r1,16
 18000b4:	4e 80 00 20 	blr

Disassembly of section .text:

018000b8 <__do_global_dtors_aux>:
 18000b8:	94 21 ff e8 	stwu    r1,-24(r1)
 18000bc:	7c 08 02 a6 	mflr    r0
 18000c0:	93 e1 00 14 	stw     r31,20(r1)
 18000c4:	3f e0 01 81 	lis     r31,385
 18000c8:	90 01 00 1c 	stw     r0,28(r1)
 18000cc:	88 1f 38 20 	lbz     r0,14368(r31)
 18000d0:	93 81 00 08 	stw     r28,8(r1)
 18000d4:	2f 80 00 00 	cmpwi   cr7,r0,0
 18000d8:	93 a1 00 0c 	stw     r29,12(r1)
 18000dc:	93 c1 00 10 	stw     r30,16(r1)
 18000e0:	40 9e 00 7c 	bne-    cr7,180015c <__do_global_dtors_aux+0xa4>
 18000e4:	3f 80 01 81 	lis     r28,385
 18000e8:	3f a0 01 81 	lis     r29,385
 18000ec:	3b 9c 32 3c 	addi    r28,r28,12860
 18000f0:	3b bd 32 40 	addi    r29,r29,12864
 18000f4:	7f bc e8 50 	subf    r29,r28,r29
 18000f8:	3f c0 01 81 	lis     r30,385
 18000fc:	7f bd 16 70 	srawi   r29,r29,2
 1800100:	81 3e 38 24 	lwz     r9,14372(r30)
 1800104:	3b bd ff ff 	addi    r29,r29,-1
 1800108:	7f 89 e8 40 	cmplw   cr7,r9,r29
 180010c:	40 9c 00 2c 	bge-    cr7,1800138 <__do_global_dtors_aux+0x80>
 1800110:	3b de 38 24 	addi    r30,r30,14372
 1800114:	39 29 00 01 	addi    r9,r9,1
 1800118:	55 20 10 3a 	rlwinm  r0,r9,2,0,29
 180011c:	91 3e 00 00 	stw     r9,0(r30)
 1800120:	7c 1c 00 2e 	lwzx    r0,r28,r0
 1800124:	7c 09 03 a6 	mtctr   r0
 1800128:	4e 80 04 21 	bctrl
 180012c:	81 3e 00 00 	lwz     r9,0(r30)
 1800130:	7f 89 e8 40 	cmplw   cr7,r9,r29
 1800134:	41 9c ff e0 	blt+    cr7,1800114 <__do_global_dtors_aux+0x5c>
 1800138:	3d 20 00 00 	lis     r9,0
 180013c:	38 09 00 00 	addi    r0,r9,0
 1800140:	2f 80 00 00 	cmpwi   cr7,r0,0
 1800144:	41 9e 00 10 	beq-    cr7,1800154 <__do_global_dtors_aux+0x9c>
 1800148:	3c 60 01 81 	lis     r3,385
 180014c:	38 63 30 00 	addi    r3,r3,12288
 1800150:	4a 7f fe b1 	bl      0 <__init-0x1800094>
 1800154:	38 00 00 01 	li      r0,1
 1800158:	98 1f 38 20 	stb     r0,14368(r31)
 180015c:	80 01 00 1c 	lwz     r0,28(r1)
 1800160:	83 81 00 08 	lwz     r28,8(r1)
 1800164:	7c 08 03 a6 	mtlr    r0
 1800168:	83 a1 00 0c 	lwz     r29,12(r1)
 180016c:	83 c1 00 10 	lwz     r30,16(r1)
 1800170:	83 e1 00 14 	lwz     r31,20(r1)
 1800174:	38 21 00 18 	addi    r1,r1,24
 1800178:	4e 80 00 20 	blr

0180017c <call___do_global_dtors_aux>:
 180017c:	7c 08 02 a6 	mflr    r0
 1800180:	94 21 ff f8 	stwu    r1,-8(r1)
 1800184:	90 01 00 0c 	stw     r0,12(r1)
 1800188:	80 01 00 0c 	lwz     r0,12(r1)
 180018c:	38 21 00 08 	addi    r1,r1,8
 1800190:	7c 08 03 a6 	mtlr    r0
 1800194:	4e 80 00 20 	blr

01800198 <frame_dummy>:
 1800198:	7c 08 02 a6 	mflr    r0
 180019c:	94 21 ff f8 	stwu    r1,-8(r1)
 18001a0:	3d 20 00 00 	lis     r9,0
 18001a4:	90 01 00 0c 	stw     r0,12(r1)
 18001a8:	38 09 00 00 	addi    r0,r9,0
 18001ac:	2f 80 00 00 	cmpwi   cr7,r0,0
 18001b0:	41 9e 00 18 	beq-    cr7,18001c8 <frame_dummy+0x30>
 18001b4:	3c 60 01 81 	lis     r3,385
 18001b8:	3c 80 01 81 	lis     r4,385
 18001bc:	38 63 30 00 	addi    r3,r3,12288
 18001c0:	38 84 38 28 	addi    r4,r4,14376
 18001c4:	4a 7f fe 3d 	bl      0 <__init-0x1800094>
 18001c8:	3c 60 01 81 	lis     r3,385
 18001cc:	80 03 32 44 	lwz     r0,12868(r3)
 18001d0:	38 63 32 44 	addi    r3,r3,12868
 18001d4:	2f 80 00 00 	cmpwi   cr7,r0,0
 18001d8:	41 9e 00 1c 	beq-    cr7,18001f4 <frame_dummy+0x5c>
 18001dc:	3d 20 00 00 	lis     r9,0
 18001e0:	38 09 00 00 	addi    r0,r9,0
 18001e4:	2f 80 00 00 	cmpwi   cr7,r0,0
 18001e8:	41 9e 00 0c 	beq-    cr7,18001f4 <frame_dummy+0x5c>
 18001ec:	7c 09 03 a6 	mtctr   r0
 18001f0:	4e 80 04 21 	bctrl
 18001f4:	80 01 00 0c 	lwz     r0,12(r1)
 18001f8:	38 21 00 08 	addi    r1,r1,8
 18001fc:	7c 08 03 a6 	mtlr    r0
 1800200:	4e 80 00 20 	blr

01800204 <call_frame_dummy>:
 1800204:	7c 08 02 a6 	mflr    r0
 1800208:	94 21 ff f8 	stwu    r1,-8(r1)
 180020c:	90 01 00 0c 	stw     r0,12(r1)
 1800210:	80 01 00 0c 	lwz     r0,12(r1)
 1800214:	38 21 00 08 	addi    r1,r1,8
 1800218:	7c 08 03 a6 	mtlr    r0
 180021c:	4e 80 00 20 	blr

01800220 <my_abs>:
 1800220:	94 21 ff d8 	stwu    r1,-40(r1)
 1800224:	93 e1 00 24 	stw     r31,36(r1)
 1800228:	7c 3f 0b 78 	mr      r31,r1
 180022c:	90 7f 00 18 	stw     r3,24(r31)
 1800230:	80 1f 00 18 	lwz     r0,24(r31)
 1800234:	2f 80 00 00 	cmpwi   cr7,r0,0
 1800238:	41 9c 00 10 	blt-    cr7,1800248 <my_abs+0x28>
 180023c:	80 1f 00 18 	lwz     r0,24(r31)
 1800240:	90 1f 00 08 	stw     r0,8(r31)
 1800244:	48 00 00 10 	b       1800254 <my_abs+0x34>
 1800248:	80 1f 00 18 	lwz     r0,24(r31)
 180024c:	7c 00 00 d0 	neg     r0,r0
 1800250:	90 1f 00 08 	stw     r0,8(r31)
 1800254:	80 1f 00 08 	lwz     r0,8(r31)
 1800258:	7c 03 03 78 	mr      r3,r0
 180025c:	39 7f 00 28 	addi    r11,r31,40
 1800260:	83 eb ff fc 	lwz     r31,-4(r11)
 1800264:	7d 61 5b 78 	mr      r1,r11
 1800268:	4e 80 00 20 	blr

0180026c <my_fabs>:
 180026c:	94 21 ff d8 	stwu    r1,-40(r1)
 1800270:	93 e1 00 24 	stw     r31,36(r1)
 1800274:	7c 3f 0b 78 	mr      r31,r1
 1800278:	90 7f 00 18 	stw     r3,24(r31)
 180027c:	80 1f 00 18 	lwz     r0,24(r31)
 1800280:	2f 80 00 00 	cmpwi   cr7,r0,0
 1800284:	41 9c 00 10 	blt-    cr7,1800294 <my_fabs+0x28>
 1800288:	80 1f 00 18 	lwz     r0,24(r31)
 180028c:	90 1f 00 08 	stw     r0,8(r31)
 1800290:	48 00 00 10 	b       18002a0 <my_fabs+0x34>
 1800294:	80 1f 00 18 	lwz     r0,24(r31)
 1800298:	7c 00 00 d0 	neg     r0,r0
 180029c:	90 1f 00 08 	stw     r0,8(r31)
 18002a0:	80 1f 00 08 	lwz     r0,8(r31)
 18002a4:	7c 03 03 78 	mr      r3,r0
 18002a8:	39 7f 00 28 	addi    r11,r31,40
 18002ac:	83 eb ff fc 	lwz     r31,-4(r11)
 18002b0:	7d 61 5b 78 	mr      r1,r11
 18002b4:	4e 80 00 20 	blr

018002b8 <my_sin>:
 18002b8:	94 21 ff d8 	stwu    r1,-40(r1)
 18002bc:	7c 08 02 a6 	mflr    r0
 18002c0:	90 01 00 2c 	stw     r0,44(r1)
 18002c4:	93 e1 00 24 	stw     r31,36(r1)
 18002c8:	7c 3f 0b 78 	mr      r31,r1
 18002cc:	90 7f 00 18 	stw     r3,24(r31)
 18002d0:	38 00 00 00 	li      r0,0
 18002d4:	90 1f 00 0c 	stw     r0,12(r31)
 18002d8:	38 00 00 01 	li      r0,1
 18002dc:	90 1f 00 08 	stw     r0,8(r31)
 18002e0:	48 00 00 10 	b       18002f0 <my_sin+0x38>
 18002e4:	80 1f 00 18 	lwz     r0,24(r31)
 18002e8:	30 00 e7 76 	addic   r0,r0,-6282
 18002ec:	90 1f 00 18 	stw     r0,24(r31)
 18002f0:	80 1f 00 18 	lwz     r0,24(r31)
 18002f4:	2f 80 18 8a 	cmpwi   cr7,r0,6282
 18002f8:	41 9d ff ec 	bgt+    cr7,18002e4 <my_sin+0x2c>
 18002fc:	48 00 00 10 	b       180030c <my_sin+0x54>
 1800300:	80 1f 00 18 	lwz     r0,24(r31)
 1800304:	30 00 18 8a 	addic   r0,r0,6282
 1800308:	90 1f 00 18 	stw     r0,24(r31)
 180030c:	81 3f 00 18 	lwz     r9,24(r31)
 1800310:	38 00 e7 76 	li      r0,-6282
 1800314:	7f 89 00 00 	cmpw    cr7,r9,r0
 1800318:	41 9c ff e8 	blt+    cr7,1800300 <my_sin+0x48>
 180031c:	80 1f 00 18 	lwz     r0,24(r31)
 1800320:	90 1f 00 10 	stw     r0,16(r31)
 1800324:	80 1f 00 10 	lwz     r0,16(r31)
 1800328:	90 1f 00 0c 	stw     r0,12(r31)
 180032c:	81 3f 00 18 	lwz     r9,24(r31)
 1800330:	80 1f 00 18 	lwz     r0,24(r31)
 1800334:	7c 09 01 d6 	mullw   r0,r9,r0
 1800338:	7d 20 00 d0 	neg     r9,r0
 180033c:	80 1f 00 10 	lwz     r0,16(r31)
 1800340:	7d 29 01 d6 	mullw   r9,r9,r0
 1800344:	80 1f 00 08 	lwz     r0,8(r31)
 1800348:	54 0b 08 3c 	rlwinm  r11,r0,1,0,30
 180034c:	80 1f 00 08 	lwz     r0,8(r31)
 1800350:	54 00 08 3c 	rlwinm  r0,r0,1,0,30
 1800354:	30 00 00 01 	addic   r0,r0,1
 1800358:	7c 0b 01 d6 	mullw   r0,r11,r0
 180035c:	7c 09 03 d6 	divw    r0,r9,r0
 1800360:	90 1f 00 10 	stw     r0,16(r31)
 1800364:	81 3f 00 0c 	lwz     r9,12(r31)
 1800368:	80 1f 00 10 	lwz     r0,16(r31)
 180036c:	7c 09 02 14 	add     r0,r9,r0
 1800370:	90 1f 00 0c 	stw     r0,12(r31)
 1800374:	80 1f 00 08 	lwz     r0,8(r31)
 1800378:	30 00 00 01 	addic   r0,r0,1
 180037c:	90 1f 00 08 	stw     r0,8(r31)
 1800380:	48 00 00 58 	b       18003d8 <my_sin+0x120>
 1800384:	81 3f 00 18 	lwz     r9,24(r31)
 1800388:	80 1f 00 18 	lwz     r0,24(r31)
 180038c:	7c 09 01 d6 	mullw   r0,r9,r0
 1800390:	7d 20 00 d0 	neg     r9,r0
 1800394:	80 1f 00 10 	lwz     r0,16(r31)
 1800398:	7d 29 01 d6 	mullw   r9,r9,r0
 180039c:	80 1f 00 08 	lwz     r0,8(r31)
 18003a0:	54 0b 08 3c 	rlwinm  r11,r0,1,0,30
 18003a4:	80 1f 00 08 	lwz     r0,8(r31)
 18003a8:	54 00 08 3c 	rlwinm  r0,r0,1,0,30
 18003ac:	30 00 00 01 	addic   r0,r0,1
 18003b0:	7c 0b 01 d6 	mullw   r0,r11,r0
 18003b4:	7c 09 03 d6 	divw    r0,r9,r0
 18003b8:	90 1f 00 10 	stw     r0,16(r31)
 18003bc:	81 3f 00 0c 	lwz     r9,12(r31)
 18003c0:	80 1f 00 10 	lwz     r0,16(r31)
 18003c4:	7c 09 02 14 	add     r0,r9,r0
 18003c8:	90 1f 00 0c 	stw     r0,12(r31)
 18003cc:	80 1f 00 08 	lwz     r0,8(r31)
 18003d0:	30 00 00 01 	addic   r0,r0,1
 18003d4:	90 1f 00 08 	stw     r0,8(r31)
 18003d8:	80 7f 00 10 	lwz     r3,16(r31)
 18003dc:	4b ff fe 91 	bl      180026c <my_fabs>
 18003e0:	7c 60 1b 78 	mr      r0,r3
 18003e4:	2f 80 00 00 	cmpwi   cr7,r0,0
 18003e8:	41 9d ff 9c 	bgt+    cr7,1800384 <my_sin+0xcc>
 18003ec:	80 1f 00 0c 	lwz     r0,12(r31)
 18003f0:	7c 03 03 78 	mr      r3,r0
 18003f4:	39 7f 00 28 	addi    r11,r31,40
 18003f8:	80 0b 00 04 	lwz     r0,4(r11)
 18003fc:	7c 08 03 a6 	mtlr    r0
 1800400:	83 eb ff fc 	lwz     r31,-4(r11)
 1800404:	7d 61 5b 78 	mr      r1,r11
 1800408:	4e 80 00 20 	blr

0180040c <my_cos>:
 180040c:	94 21 ff e8 	stwu    r1,-24(r1)
 1800410:	7c 08 02 a6 	mflr    r0
 1800414:	90 01 00 1c 	stw     r0,28(r1)
 1800418:	93 e1 00 14 	stw     r31,20(r1)
 180041c:	7c 3f 0b 78 	mr      r31,r1
 1800420:	90 7f 00 08 	stw     r3,8(r31)
 1800424:	80 1f 00 08 	lwz     r0,8(r31)
 1800428:	20 00 06 22 	subfic  r0,r0,1570
 180042c:	7c 03 03 78 	mr      r3,r0
 1800430:	4b ff fe 89 	bl      18002b8 <my_sin>
 1800434:	7c 60 1b 78 	mr      r0,r3
 1800438:	7c 03 03 78 	mr      r3,r0
 180043c:	39 7f 00 18 	addi    r11,r31,24
 1800440:	80 0b 00 04 	lwz     r0,4(r11)
 1800444:	7c 08 03 a6 	mtlr    r0
 1800448:	83 eb ff fc 	lwz     r31,-4(r11)
 180044c:	7d 61 5b 78 	mr      r1,r11
 1800450:	4e 80 00 20 	blr

01800454 <encode>:
 1800454:	94 21 ff c8 	stwu    r1,-56(r1)
 1800458:	7c 08 02 a6 	mflr    r0
 180045c:	90 01 00 3c 	stw     r0,60(r1)
 1800460:	93 e1 00 34 	stw     r31,52(r1)
 1800464:	7c 3f 0b 78 	mr      r31,r1
 1800468:	90 7f 00 28 	stw     r3,40(r31)
 180046c:	90 9f 00 2c 	stw     r4,44(r31)
 1800470:	3c 00 01 81 	lis     r0,385
 1800474:	30 00 32 68 	addic   r0,r0,12904
 1800478:	90 1f 00 1c 	stw     r0,28(r31)
 180047c:	3c 00 01 81 	lis     r0,385
 1800480:	30 00 39 08 	addic   r0,r0,14600
 1800484:	90 1f 00 18 	stw     r0,24(r31)
 1800488:	80 1f 00 18 	lwz     r0,24(r31)
 180048c:	7c 07 03 78 	mr      r7,r0
 1800490:	81 27 00 00 	lwz     r9,0(r7)
 1800494:	80 1f 00 1c 	lwz     r0,28(r31)
 1800498:	7c 08 03 78 	mr      r8,r0
 180049c:	80 08 00 00 	lwz     r0,0(r8)
 18004a0:	7c 09 01 d6 	mullw   r0,r9,r0
 18004a4:	90 1f 00 10 	stw     r0,16(r31)
 18004a8:	80 1f 00 18 	lwz     r0,24(r31)
 18004ac:	30 00 00 04 	addic   r0,r0,4
 18004b0:	90 1f 00 18 	stw     r0,24(r31)
 18004b4:	80 1f 00 1c 	lwz     r0,28(r31)
 18004b8:	30 00 00 04 	addic   r0,r0,4
 18004bc:	90 1f 00 1c 	stw     r0,28(r31)
 18004c0:	80 1f 00 18 	lwz     r0,24(r31)
 18004c4:	7c 0b 03 78 	mr      r11,r0
 18004c8:	81 2b 00 00 	lwz     r9,0(r11)
 18004cc:	80 1f 00 1c 	lwz     r0,28(r31)
 18004d0:	7c 07 03 78 	mr      r7,r0
 18004d4:	80 07 00 00 	lwz     r0,0(r7)
 18004d8:	7c 09 01 d6 	mullw   r0,r9,r0
 18004dc:	90 1f 00 0c 	stw     r0,12(r31)
 18004e0:	80 1f 00 18 	lwz     r0,24(r31)
 18004e4:	30 00 00 04 	addic   r0,r0,4
 18004e8:	90 1f 00 18 	stw     r0,24(r31)
 18004ec:	80 1f 00 1c 	lwz     r0,28(r31)
 18004f0:	30 00 00 04 	addic   r0,r0,4
 18004f4:	90 1f 00 1c 	stw     r0,28(r31)
 18004f8:	38 00 00 00 	li      r0,0
 18004fc:	90 1f 00 20 	stw     r0,32(r31)
 1800500:	48 00 00 90 	b       1800590 <encode+0x13c>
 1800504:	80 1f 00 18 	lwz     r0,24(r31)
 1800508:	7c 08 03 78 	mr      r8,r0
 180050c:	81 28 00 00 	lwz     r9,0(r8)
 1800510:	80 1f 00 1c 	lwz     r0,28(r31)
 1800514:	7c 0b 03 78 	mr      r11,r0
 1800518:	80 0b 00 00 	lwz     r0,0(r11)
 180051c:	7c 09 01 d6 	mullw   r0,r9,r0
 1800520:	81 3f 00 10 	lwz     r9,16(r31)
 1800524:	7c 09 02 14 	add     r0,r9,r0
 1800528:	90 1f 00 10 	stw     r0,16(r31)
 180052c:	80 1f 00 18 	lwz     r0,24(r31)
 1800530:	30 00 00 04 	addic   r0,r0,4
 1800534:	90 1f 00 18 	stw     r0,24(r31)
 1800538:	80 1f 00 1c 	lwz     r0,28(r31)
 180053c:	30 00 00 04 	addic   r0,r0,4
 1800540:	90 1f 00 1c 	stw     r0,28(r31)
 1800544:	80 1f 00 18 	lwz     r0,24(r31)
 1800548:	7c 07 03 78 	mr      r7,r0
 180054c:	81 27 00 00 	lwz     r9,0(r7)
 1800550:	80 1f 00 1c 	lwz     r0,28(r31)
 1800554:	7c 08 03 78 	mr      r8,r0
 1800558:	80 08 00 00 	lwz     r0,0(r8)
 180055c:	7c 09 01 d6 	mullw   r0,r9,r0
 1800560:	81 3f 00 0c 	lwz     r9,12(r31)
 1800564:	7c 09 02 14 	add     r0,r9,r0
 1800568:	90 1f 00 0c 	stw     r0,12(r31)
 180056c:	80 1f 00 18 	lwz     r0,24(r31)
 1800570:	30 00 00 04 	addic   r0,r0,4
 1800574:	90 1f 00 18 	stw     r0,24(r31)
 1800578:	80 1f 00 1c 	lwz     r0,28(r31)
 180057c:	30 00 00 04 	addic   r0,r0,4
 1800580:	90 1f 00 1c 	stw     r0,28(r31)
 1800584:	80 1f 00 20 	lwz     r0,32(r31)
 1800588:	30 00 00 01 	addic   r0,r0,1
 180058c:	90 1f 00 20 	stw     r0,32(r31)
 1800590:	80 1f 00 20 	lwz     r0,32(r31)
 1800594:	2f 80 00 09 	cmpwi   cr7,r0,9
 1800598:	40 9d ff 6c 	ble+    cr7,1800504 <encode+0xb0>
 180059c:	80 1f 00 18 	lwz     r0,24(r31)
 18005a0:	7c 0b 03 78 	mr      r11,r0
 18005a4:	81 2b 00 00 	lwz     r9,0(r11)
 18005a8:	80 1f 00 1c 	lwz     r0,28(r31)
 18005ac:	7c 07 03 78 	mr      r7,r0
 18005b0:	80 07 00 00 	lwz     r0,0(r7)
 18005b4:	7c 09 01 d6 	mullw   r0,r9,r0
 18005b8:	81 3f 00 10 	lwz     r9,16(r31)
 18005bc:	7c 09 02 14 	add     r0,r9,r0
 18005c0:	90 1f 00 10 	stw     r0,16(r31)
 18005c4:	80 1f 00 18 	lwz     r0,24(r31)
 18005c8:	30 00 00 04 	addic   r0,r0,4
 18005cc:	90 1f 00 18 	stw     r0,24(r31)
 18005d0:	80 1f 00 1c 	lwz     r0,28(r31)
 18005d4:	30 00 00 04 	addic   r0,r0,4
 18005d8:	90 1f 00 1c 	stw     r0,28(r31)
 18005dc:	80 1f 00 18 	lwz     r0,24(r31)
 18005e0:	7c 08 03 78 	mr      r8,r0
 18005e4:	81 28 00 00 	lwz     r9,0(r8)
 18005e8:	80 1f 00 1c 	lwz     r0,28(r31)
 18005ec:	7c 0b 03 78 	mr      r11,r0
 18005f0:	80 0b 00 00 	lwz     r0,0(r11)
 18005f4:	7c 09 01 d6 	mullw   r0,r9,r0
 18005f8:	81 3f 00 0c 	lwz     r9,12(r31)
 18005fc:	7c 09 02 14 	add     r0,r9,r0
 1800600:	90 1f 00 0c 	stw     r0,12(r31)
 1800604:	80 1f 00 1c 	lwz     r0,28(r31)
 1800608:	30 00 00 04 	addic   r0,r0,4
 180060c:	90 1f 00 1c 	stw     r0,28(r31)
 1800610:	80 1f 00 18 	lwz     r0,24(r31)
 1800614:	30 00 ff f8 	addic   r0,r0,-8
 1800618:	90 1f 00 14 	stw     r0,20(r31)
 180061c:	38 00 00 00 	li      r0,0
 1800620:	90 1f 00 20 	stw     r0,32(r31)
 1800624:	48 00 00 40 	b       1800664 <encode+0x210>
 1800628:	80 1f 00 14 	lwz     r0,20(r31)
 180062c:	7c 07 03 78 	mr      r7,r0
 1800630:	81 27 00 00 	lwz     r9,0(r7)
 1800634:	80 1f 00 18 	lwz     r0,24(r31)
 1800638:	7c 08 03 78 	mr      r8,r0
 180063c:	91 28 00 00 	stw     r9,0(r8)
 1800640:	80 1f 00 18 	lwz     r0,24(r31)
 1800644:	30 00 ff fc 	addic   r0,r0,-4
 1800648:	90 1f 00 18 	stw     r0,24(r31)
 180064c:	80 1f 00 14 	lwz     r0,20(r31)
 1800650:	30 00 ff fc 	addic   r0,r0,-4
 1800654:	90 1f 00 14 	stw     r0,20(r31)
 1800658:	80 1f 00 20 	lwz     r0,32(r31)
 180065c:	30 00 00 01 	addic   r0,r0,1
 1800660:	90 1f 00 20 	stw     r0,32(r31)
 1800664:	80 1f 00 20 	lwz     r0,32(r31)
 1800668:	2f 80 00 15 	cmpwi   cr7,r0,21
 180066c:	40 9d ff bc 	ble+    cr7,1800628 <encode+0x1d4>
 1800670:	80 1f 00 18 	lwz     r0,24(r31)
 1800674:	81 3f 00 28 	lwz     r9,40(r31)
 1800678:	7c 0b 03 78 	mr      r11,r0
 180067c:	91 2b 00 00 	stw     r9,0(r11)
 1800680:	80 1f 00 18 	lwz     r0,24(r31)
 1800684:	30 00 ff fc 	addic   r0,r0,-4
 1800688:	90 1f 00 18 	stw     r0,24(r31)
 180068c:	80 1f 00 18 	lwz     r0,24(r31)
 1800690:	81 3f 00 2c 	lwz     r9,44(r31)
 1800694:	7c 07 03 78 	mr      r7,r0
 1800698:	91 27 00 00 	stw     r9,0(r7)
 180069c:	81 3f 00 10 	lwz     r9,16(r31)
 18006a0:	80 1f 00 0c 	lwz     r0,12(r31)
 18006a4:	7c 09 02 14 	add     r0,r9,r0
 18006a8:	7c 09 7e 70 	srawi   r9,r0,15
 18006ac:	3c 00 01 81 	lis     r0,385
 18006b0:	7c 08 03 78 	mr      r8,r0
 18006b4:	91 28 38 04 	stw     r9,14340(r8)
 18006b8:	81 3f 00 10 	lwz     r9,16(r31)
 18006bc:	80 1f 00 0c 	lwz     r0,12(r31)
 18006c0:	7c 00 48 50 	subf    r0,r0,r9
 18006c4:	7c 09 7e 70 	srawi   r9,r0,15
 18006c8:	3c 00 01 81 	lis     r0,385
 18006cc:	7c 0b 03 78 	mr      r11,r0
 18006d0:	91 2b 37 7c 	stw     r9,14204(r11)
 18006d4:	3c 00 01 81 	lis     r0,385
 18006d8:	30 60 39 ac 	addic   r3,r0,14764
 18006dc:	3c 00 01 81 	lis     r0,385
 18006e0:	30 80 38 7c 	addic   r4,r0,14460
 18006e4:	48 00 14 e5 	bl      1801bc8 <filtez>
 18006e8:	7c 69 1b 78 	mr      r9,r3
 18006ec:	3c 00 01 81 	lis     r0,385
 18006f0:	7c 07 03 78 	mr      r7,r0
 18006f4:	91 27 37 58 	stw     r9,14168(r7)
 18006f8:	3c 00 01 81 	lis     r0,385
 18006fc:	7c 08 03 78 	mr      r8,r0
 1800700:	81 48 37 fc 	lwz     r10,14332(r8)
 1800704:	3c 00 01 81 	lis     r0,385
 1800708:	7c 09 03 78 	mr      r9,r0
 180070c:	81 69 38 14 	lwz     r11,14356(r9)
 1800710:	3c 00 01 81 	lis     r0,385
 1800714:	7c 07 03 78 	mr      r7,r0
 1800718:	81 27 37 8c 	lwz     r9,14220(r7)
 180071c:	3c 00 01 81 	lis     r0,385
 1800720:	7c 08 03 78 	mr      r8,r0
 1800724:	80 08 37 ec 	lwz     r0,14316(r8)
 1800728:	7d 43 53 78 	mr      r3,r10
 180072c:	7d 64 5b 78 	mr      r4,r11
 1800730:	7d 25 4b 78 	mr      r5,r9
 1800734:	7c 06 03 78 	mr      r6,r0
 1800738:	48 00 15 5d 	bl      1801c94 <filtep>
 180073c:	7c 69 1b 78 	mr      r9,r3
 1800740:	3c 00 01 81 	lis     r0,385
 1800744:	7c 0b 03 78 	mr      r11,r0
 1800748:	91 2b 37 08 	stw     r9,14088(r11)
 180074c:	3c 00 01 81 	lis     r0,385
 1800750:	7c 07 03 78 	mr      r7,r0
 1800754:	81 27 37 58 	lwz     r9,14168(r7)
 1800758:	3c 00 01 81 	lis     r0,385
 180075c:	7c 08 03 78 	mr      r8,r0
 1800760:	80 08 37 08 	lwz     r0,14088(r8)
 1800764:	7d 29 02 14 	add     r9,r9,r0
 1800768:	3c 00 01 81 	lis     r0,385
 180076c:	7c 0b 03 78 	mr      r11,r0
 1800770:	91 2b 37 4c 	stw     r9,14156(r11)
 1800774:	3c 00 01 81 	lis     r0,385
 1800778:	7c 07 03 78 	mr      r7,r0
 180077c:	81 27 38 04 	lwz     r9,14340(r7)
 1800780:	3c 00 01 81 	lis     r0,385
 1800784:	7c 08 03 78 	mr      r8,r0
 1800788:	80 08 37 4c 	lwz     r0,14156(r8)
 180078c:	7d 20 48 50 	subf    r9,r0,r9
 1800790:	3c 00 01 81 	lis     r0,385
 1800794:	7c 0b 03 78 	mr      r11,r0
 1800798:	91 2b 37 a4 	stw     r9,14244(r11)
 180079c:	3c 00 01 81 	lis     r0,385
 18007a0:	7c 07 03 78 	mr      r7,r0
 18007a4:	81 27 37 a4 	lwz     r9,14244(r7)
 18007a8:	3c 00 01 81 	lis     r0,385
 18007ac:	7c 08 03 78 	mr      r8,r0
 18007b0:	80 08 37 38 	lwz     r0,14136(r8)
 18007b4:	7d 23 4b 78 	mr      r3,r9
 18007b8:	7c 04 03 78 	mr      r4,r0
 18007bc:	48 00 15 51 	bl      1801d0c <quantl>
 18007c0:	7c 69 1b 78 	mr      r9,r3
 18007c4:	3c 00 01 81 	lis     r0,385
 18007c8:	7c 0b 03 78 	mr      r11,r0
 18007cc:	91 2b 37 9c 	stw     r9,14236(r11)
 18007d0:	3c 00 01 81 	lis     r0,385
 18007d4:	7c 07 03 78 	mr      r7,r0
 18007d8:	80 07 37 9c 	lwz     r0,14236(r7)
 18007dc:	7c 00 16 70 	srawi   r0,r0,2
 18007e0:	3d 20 01 81 	lis     r9,385
 18007e4:	39 29 32 c8 	addi    r9,r9,13000
 18007e8:	54 00 10 3a 	rlwinm  r0,r0,2,0,29
 18007ec:	7c 09 02 14 	add     r0,r9,r0
 18007f0:	7c 08 03 78 	mr      r8,r0
 18007f4:	81 28 00 00 	lwz     r9,0(r8)
 18007f8:	3c 00 01 81 	lis     r0,385
 18007fc:	7c 0b 03 78 	mr      r11,r0
 1800800:	80 0b 37 38 	lwz     r0,14136(r11)
 1800804:	7c 09 01 d6 	mullw   r0,r9,r0
 1800808:	7c 09 7e 70 	srawi   r9,r0,15
 180080c:	3c 00 01 81 	lis     r0,385
 1800810:	7c 07 03 78 	mr      r7,r0
 1800814:	91 27 37 bc 	stw     r9,14268(r7)
 1800818:	3c 00 01 81 	lis     r0,385
 180081c:	7c 08 03 78 	mr      r8,r0
 1800820:	81 28 37 9c 	lwz     r9,14236(r8)
 1800824:	3c 00 01 81 	lis     r0,385
 1800828:	7c 0b 03 78 	mr      r11,r0
 180082c:	80 0b 37 1c 	lwz     r0,14108(r11)
 1800830:	7d 23 4b 78 	mr      r3,r9
 1800834:	7c 04 03 78 	mr      r4,r0
 1800838:	48 00 15 d9 	bl      1801e10 <logscl>
 180083c:	7c 69 1b 78 	mr      r9,r3
 1800840:	3c 00 01 81 	lis     r0,385
 1800844:	7c 07 03 78 	mr      r7,r0
 1800848:	91 27 37 1c 	stw     r9,14108(r7)
 180084c:	3c 00 01 81 	lis     r0,385
 1800850:	7c 08 03 78 	mr      r8,r0
 1800854:	80 08 37 1c 	lwz     r0,14108(r8)
 1800858:	7c 03 03 78 	mr      r3,r0
 180085c:	38 80 00 08 	li      r4,8
 1800860:	48 00 16 41 	bl      1801ea0 <scalel>
 1800864:	7c 69 1b 78 	mr      r9,r3
 1800868:	3c 00 01 81 	lis     r0,385
 180086c:	7c 0b 03 78 	mr      r11,r0
 1800870:	91 2b 37 38 	stw     r9,14136(r11)
 1800874:	3c 00 01 81 	lis     r0,385
 1800878:	7c 07 03 78 	mr      r7,r0
 180087c:	81 27 37 bc 	lwz     r9,14268(r7)
 1800880:	3c 00 01 81 	lis     r0,385
 1800884:	7c 08 03 78 	mr      r8,r0
 1800888:	80 08 37 58 	lwz     r0,14168(r8)
 180088c:	7d 29 02 14 	add     r9,r9,r0
 1800890:	3c 00 01 81 	lis     r0,385
 1800894:	7c 0b 03 78 	mr      r11,r0
 1800898:	91 2b 38 08 	stw     r9,14344(r11)
 180089c:	3c 00 01 81 	lis     r0,385
 18008a0:	7c 07 03 78 	mr      r7,r0
 18008a4:	80 07 37 bc 	lwz     r0,14268(r7)
 18008a8:	7c 03 03 78 	mr      r3,r0
 18008ac:	3c 00 01 81 	lis     r0,385
 18008b0:	30 80 38 7c 	addic   r4,r0,14460
 18008b4:	3c 00 01 81 	lis     r0,385
 18008b8:	30 a0 39 ac 	addic   r5,r0,14764
 18008bc:	48 00 16 65 	bl      1801f20 <upzero>
 18008c0:	3c 00 01 81 	lis     r0,385
 18008c4:	7c 09 03 78 	mr      r9,r0
 18008c8:	81 09 38 14 	lwz     r8,14356(r9)
 18008cc:	3c 00 01 81 	lis     r0,385
 18008d0:	7c 0b 03 78 	mr      r11,r0
 18008d4:	81 4b 37 ec 	lwz     r10,14316(r11)
 18008d8:	3c 00 01 81 	lis     r0,385
 18008dc:	7c 07 03 78 	mr      r7,r0
 18008e0:	81 67 38 08 	lwz     r11,14344(r7)
 18008e4:	3c 00 01 81 	lis     r0,385
 18008e8:	7c 07 03 78 	mr      r7,r0
 18008ec:	81 27 37 e0 	lwz     r9,14304(r7)
 18008f0:	3c 00 01 81 	lis     r0,385
 18008f4:	7c 07 03 78 	mr      r7,r0
 18008f8:	80 07 37 d4 	lwz     r0,14292(r7)
 18008fc:	7d 03 43 78 	mr      r3,r8
 1800900:	7d 44 53 78 	mr      r4,r10
 1800904:	7d 65 5b 78 	mr      r5,r11
 1800908:	7d 26 4b 78 	mr      r6,r9
 180090c:	7c 07 03 78 	mr      r7,r0
 1800910:	48 00 17 c5 	bl      18020d4 <uppol2>
 1800914:	7c 69 1b 78 	mr      r9,r3
 1800918:	3c 00 01 81 	lis     r0,385
 180091c:	7c 08 03 78 	mr      r8,r0
 1800920:	91 28 37 ec 	stw     r9,14316(r8)
 1800924:	3c 00 01 81 	lis     r0,385
 1800928:	7c 09 03 78 	mr      r9,r0
 180092c:	81 49 38 14 	lwz     r10,14356(r9)
 1800930:	3c 00 01 81 	lis     r0,385
 1800934:	7c 07 03 78 	mr      r7,r0
 1800938:	81 67 37 ec 	lwz     r11,14316(r7)
 180093c:	3c 00 01 81 	lis     r0,385
 1800940:	7c 08 03 78 	mr      r8,r0
 1800944:	81 28 38 08 	lwz     r9,14344(r8)
 1800948:	3c 00 01 81 	lis     r0,385
 180094c:	7c 07 03 78 	mr      r7,r0
 1800950:	80 07 37 e0 	lwz     r0,14304(r7)
 1800954:	7d 43 53 78 	mr      r3,r10
 1800958:	7d 64 5b 78 	mr      r4,r11
 180095c:	7d 25 4b 78 	mr      r5,r9
 1800960:	7c 06 03 78 	mr      r6,r0
 1800964:	48 00 18 55 	bl      18021b8 <uppol1>
 1800968:	7c 69 1b 78 	mr      r9,r3
 180096c:	3c 00 01 81 	lis     r0,385
 1800970:	7c 08 03 78 	mr      r8,r0
 1800974:	91 28 38 14 	stw     r9,14356(r8)
 1800978:	3c 00 01 81 	lis     r0,385
 180097c:	7c 0b 03 78 	mr      r11,r0
 1800980:	81 2b 37 4c 	lwz     r9,14156(r11)
 1800984:	3c 00 01 81 	lis     r0,385
 1800988:	7c 07 03 78 	mr      r7,r0
 180098c:	80 07 37 bc 	lwz     r0,14268(r7)
 1800990:	7d 29 02 14 	add     r9,r9,r0
 1800994:	3c 00 01 81 	lis     r0,385
 1800998:	7c 08 03 78 	mr      r8,r0
 180099c:	91 28 37 48 	stw     r9,14152(r8)
 18009a0:	3c 00 01 81 	lis     r0,385
 18009a4:	7c 0b 03 78 	mr      r11,r0
 18009a8:	81 2b 37 fc 	lwz     r9,14332(r11)
 18009ac:	3c 00 01 81 	lis     r0,385
 18009b0:	7c 07 03 78 	mr      r7,r0
 18009b4:	91 27 37 8c 	stw     r9,14220(r7)
 18009b8:	3c 00 01 81 	lis     r0,385
 18009bc:	7c 08 03 78 	mr      r8,r0
 18009c0:	81 28 37 48 	lwz     r9,14152(r8)
 18009c4:	3c 00 01 81 	lis     r0,385
 18009c8:	7c 0b 03 78 	mr      r11,r0
 18009cc:	91 2b 37 fc 	stw     r9,14332(r11)
 18009d0:	3c 00 01 81 	lis     r0,385
 18009d4:	7c 07 03 78 	mr      r7,r0
 18009d8:	81 27 37 e0 	lwz     r9,14304(r7)
 18009dc:	3c 00 01 81 	lis     r0,385
 18009e0:	7c 08 03 78 	mr      r8,r0
 18009e4:	91 28 37 d4 	stw     r9,14292(r8)
 18009e8:	3c 00 01 81 	lis     r0,385
 18009ec:	7c 0b 03 78 	mr      r11,r0
 18009f0:	81 2b 38 08 	lwz     r9,14344(r11)
 18009f4:	3c 00 01 81 	lis     r0,385
 18009f8:	7c 07 03 78 	mr      r7,r0
 18009fc:	91 27 37 e0 	stw     r9,14304(r7)
 1800a00:	3c 00 01 81 	lis     r0,385
 1800a04:	30 60 39 dc 	addic   r3,r0,14812
 1800a08:	3c 00 01 81 	lis     r0,385
 1800a0c:	30 80 38 f0 	addic   r4,r0,14576
 1800a10:	48 00 11 b9 	bl      1801bc8 <filtez>
 1800a14:	7c 69 1b 78 	mr      r9,r3
 1800a18:	3c 00 01 81 	lis     r0,385
 1800a1c:	7c 08 03 78 	mr      r8,r0
 1800a20:	91 28 37 0c 	stw     r9,14092(r8)
 1800a24:	3c 00 01 81 	lis     r0,385
 1800a28:	7c 09 03 78 	mr      r9,r0
 1800a2c:	81 49 37 c8 	lwz     r10,14280(r9)
 1800a30:	3c 00 01 81 	lis     r0,385
 1800a34:	7c 07 03 78 	mr      r7,r0
 1800a38:	81 67 37 44 	lwz     r11,14148(r7)
 1800a3c:	3c 00 01 81 	lis     r0,385
 1800a40:	7c 08 03 78 	mr      r8,r0
 1800a44:	81 28 37 04 	lwz     r9,14084(r8)
 1800a48:	3c 00 01 81 	lis     r0,385
 1800a4c:	7c 07 03 78 	mr      r7,r0
 1800a50:	80 07 37 98 	lwz     r0,14232(r7)
 1800a54:	7d 43 53 78 	mr      r3,r10
 1800a58:	7d 64 5b 78 	mr      r4,r11
 1800a5c:	7d 25 4b 78 	mr      r5,r9
 1800a60:	7c 06 03 78 	mr      r6,r0
 1800a64:	48 00 12 31 	bl      1801c94 <filtep>
 1800a68:	7c 69 1b 78 	mr      r9,r3
 1800a6c:	3c 00 01 81 	lis     r0,385
 1800a70:	7c 08 03 78 	mr      r8,r0
 1800a74:	91 28 37 b8 	stw     r9,14264(r8)
 1800a78:	3c 00 01 81 	lis     r0,385
 1800a7c:	7c 0b 03 78 	mr      r11,r0
 1800a80:	81 2b 37 b8 	lwz     r9,14264(r11)
 1800a84:	3c 00 01 81 	lis     r0,385
 1800a88:	7c 07 03 78 	mr      r7,r0
 1800a8c:	80 07 37 0c 	lwz     r0,14092(r7)
 1800a90:	7d 29 02 14 	add     r9,r9,r0
 1800a94:	3c 00 01 81 	lis     r0,385
 1800a98:	7c 08 03 78 	mr      r8,r0
 1800a9c:	91 28 37 34 	stw     r9,14132(r8)
 1800aa0:	3c 00 01 81 	lis     r0,385
 1800aa4:	7c 0b 03 78 	mr      r11,r0
 1800aa8:	81 2b 37 7c 	lwz     r9,14204(r11)
 1800aac:	3c 00 01 81 	lis     r0,385
 1800ab0:	7c 07 03 78 	mr      r7,r0
 1800ab4:	80 07 37 34 	lwz     r0,14132(r7)
 1800ab8:	7d 20 48 50 	subf    r9,r0,r9
 1800abc:	3c 00 01 81 	lis     r0,385
 1800ac0:	7c 08 03 78 	mr      r8,r0
 1800ac4:	91 28 37 3c 	stw     r9,14140(r8)
 1800ac8:	3c 00 01 81 	lis     r0,385
 1800acc:	7c 09 03 78 	mr      r9,r0
 1800ad0:	80 09 37 3c 	lwz     r0,14140(r9)
 1800ad4:	2f 80 00 00 	cmpwi   cr7,r0,0
 1800ad8:	41 9c 00 18 	blt-    cr7,1800af0 <encode+0x69c>
 1800adc:	3c 00 01 81 	lis     r0,385
 1800ae0:	39 20 00 03 	li      r9,3
 1800ae4:	7c 0b 03 78 	mr      r11,r0
 1800ae8:	91 2b 37 14 	stw     r9,14100(r11)
 1800aec:	48 00 00 14 	b       1800b00 <encode+0x6ac>
 1800af0:	3c 00 01 81 	lis     r0,385
 1800af4:	39 20 00 01 	li      r9,1
 1800af8:	7c 07 03 78 	mr      r7,r0
 1800afc:	91 27 37 14 	stw     r9,14100(r7)
 1800b00:	3c 00 01 81 	lis     r0,385
 1800b04:	7c 08 03 78 	mr      r8,r0
 1800b08:	80 08 37 70 	lwz     r0,14192(r8)
 1800b0c:	1c 00 02 34 	mulli   r0,r0,564
 1800b10:	7c 00 66 70 	srawi   r0,r0,12
 1800b14:	90 1f 00 08 	stw     r0,8(r31)
 1800b18:	3c 00 01 81 	lis     r0,385
 1800b1c:	7c 09 03 78 	mr      r9,r0
 1800b20:	80 09 37 3c 	lwz     r0,14140(r9)
 1800b24:	7c 03 03 78 	mr      r3,r0
 1800b28:	4b ff f6 f9 	bl      1800220 <my_abs>
 1800b2c:	7c 69 1b 78 	mr      r9,r3
 1800b30:	80 1f 00 08 	lwz     r0,8(r31)
 1800b34:	7f 89 00 00 	cmpw    cr7,r9,r0
 1800b38:	40 9d 00 20 	ble-    cr7,1800b58 <encode+0x704>
 1800b3c:	3c 00 01 81 	lis     r0,385
 1800b40:	7c 0b 03 78 	mr      r11,r0
 1800b44:	80 0b 37 14 	lwz     r0,14100(r11)
 1800b48:	31 20 ff ff 	addic   r9,r0,-1
 1800b4c:	3c 00 01 81 	lis     r0,385
 1800b50:	7c 07 03 78 	mr      r7,r0
 1800b54:	91 27 37 14 	stw     r9,14100(r7)
 1800b58:	3c 00 01 81 	lis     r0,385
 1800b5c:	7c 08 03 78 	mr      r8,r0
 1800b60:	80 08 37 14 	lwz     r0,14100(r8)
 1800b64:	3d 20 01 81 	lis     r9,385
 1800b68:	39 29 36 d8 	addi    r9,r9,14040
 1800b6c:	54 00 10 3a 	rlwinm  r0,r0,2,0,29
 1800b70:	7c 09 02 14 	add     r0,r9,r0
 1800b74:	7c 0b 03 78 	mr      r11,r0
 1800b78:	81 2b 00 00 	lwz     r9,0(r11)
 1800b7c:	3c 00 01 81 	lis     r0,385
 1800b80:	7c 07 03 78 	mr      r7,r0
 1800b84:	80 07 37 70 	lwz     r0,14192(r7)
 1800b88:	7c 09 01 d6 	mullw   r0,r9,r0
 1800b8c:	7c 09 7e 70 	srawi   r9,r0,15
 1800b90:	3c 00 01 81 	lis     r0,385
 1800b94:	7c 08 03 78 	mr      r8,r0
 1800b98:	91 28 37 2c 	stw     r9,14124(r8)
 1800b9c:	3c 00 01 81 	lis     r0,385
 1800ba0:	7c 0b 03 78 	mr      r11,r0
 1800ba4:	81 2b 37 14 	lwz     r9,14100(r11)
 1800ba8:	3c 00 01 81 	lis     r0,385
 1800bac:	7c 07 03 78 	mr      r7,r0
 1800bb0:	80 07 37 f8 	lwz     r0,14328(r7)
 1800bb4:	7d 23 4b 78 	mr      r3,r9
 1800bb8:	7c 04 03 78 	mr      r4,r0
 1800bbc:	48 00 16 b5 	bl      1802270 <logsch>
 1800bc0:	7c 69 1b 78 	mr      r9,r3
 1800bc4:	3c 00 01 81 	lis     r0,385
 1800bc8:	7c 08 03 78 	mr      r8,r0
 1800bcc:	91 28 37 f8 	stw     r9,14328(r8)
 1800bd0:	3c 00 01 81 	lis     r0,385
 1800bd4:	7c 09 03 78 	mr      r9,r0
 1800bd8:	80 09 37 f8 	lwz     r0,14328(r9)
 1800bdc:	7c 03 03 78 	mr      r3,r0
 1800be0:	38 80 00 0a 	li      r4,10
 1800be4:	48 00 12 bd 	bl      1801ea0 <scalel>
 1800be8:	7c 69 1b 78 	mr      r9,r3
 1800bec:	3c 00 01 81 	lis     r0,385
 1800bf0:	7c 0b 03 78 	mr      r11,r0
 1800bf4:	91 2b 37 70 	stw     r9,14192(r11)
 1800bf8:	3c 00 01 81 	lis     r0,385
 1800bfc:	7c 07 03 78 	mr      r7,r0
 1800c00:	81 27 37 2c 	lwz     r9,14124(r7)
 1800c04:	3c 00 01 81 	lis     r0,385
 1800c08:	7c 08 03 78 	mr      r8,r0
 1800c0c:	80 08 37 0c 	lwz     r0,14092(r8)
 1800c10:	7d 29 02 14 	add     r9,r9,r0
 1800c14:	3c 00 01 81 	lis     r0,385
 1800c18:	7c 0b 03 78 	mr      r11,r0
 1800c1c:	91 2b 37 28 	stw     r9,14120(r11)
 1800c20:	3c 00 01 81 	lis     r0,385
 1800c24:	7c 07 03 78 	mr      r7,r0
 1800c28:	80 07 37 2c 	lwz     r0,14124(r7)
 1800c2c:	7c 03 03 78 	mr      r3,r0
 1800c30:	3c 00 01 81 	lis     r0,385
 1800c34:	30 80 38 f0 	addic   r4,r0,14576
 1800c38:	3c 00 01 81 	lis     r0,385
 1800c3c:	30 a0 39 dc 	addic   r5,r0,14812
 1800c40:	48 00 12 e1 	bl      1801f20 <upzero>
 1800c44:	3c 00 01 81 	lis     r0,385
 1800c48:	7c 09 03 78 	mr      r9,r0
 1800c4c:	81 09 37 44 	lwz     r8,14148(r9)
 1800c50:	3c 00 01 81 	lis     r0,385
 1800c54:	7c 0b 03 78 	mr      r11,r0
 1800c58:	81 4b 37 98 	lwz     r10,14232(r11)
 1800c5c:	3c 00 01 81 	lis     r0,385
 1800c60:	7c 07 03 78 	mr      r7,r0
 1800c64:	81 67 37 28 	lwz     r11,14120(r7)
 1800c68:	3c 00 01 81 	lis     r0,385
 1800c6c:	7c 07 03 78 	mr      r7,r0
 1800c70:	81 27 37 c4 	lwz     r9,14276(r7)
 1800c74:	3c 00 01 81 	lis     r0,385
 1800c78:	7c 07 03 78 	mr      r7,r0
 1800c7c:	80 07 37 90 	lwz     r0,14224(r7)
 1800c80:	7d 03 43 78 	mr      r3,r8
 1800c84:	7d 44 53 78 	mr      r4,r10
 1800c88:	7d 65 5b 78 	mr      r5,r11
 1800c8c:	7d 26 4b 78 	mr      r6,r9
 1800c90:	7c 07 03 78 	mr      r7,r0
 1800c94:	48 00 14 41 	bl      18020d4 <uppol2>
 1800c98:	7c 69 1b 78 	mr      r9,r3
 1800c9c:	3c 00 01 81 	lis     r0,385
 1800ca0:	7c 08 03 78 	mr      r8,r0
 1800ca4:	91 28 37 98 	stw     r9,14232(r8)
 1800ca8:	3c 00 01 81 	lis     r0,385
 1800cac:	7c 09 03 78 	mr      r9,r0
 1800cb0:	81 49 37 44 	lwz     r10,14148(r9)
 1800cb4:	3c 00 01 81 	lis     r0,385
 1800cb8:	7c 07 03 78 	mr      r7,r0
 1800cbc:	81 67 37 98 	lwz     r11,14232(r7)
 1800cc0:	3c 00 01 81 	lis     r0,385
 1800cc4:	7c 08 03 78 	mr      r8,r0
 1800cc8:	81 28 37 28 	lwz     r9,14120(r8)
 1800ccc:	3c 00 01 81 	lis     r0,385
 1800cd0:	7c 07 03 78 	mr      r7,r0
 1800cd4:	80 07 37 c4 	lwz     r0,14276(r7)
 1800cd8:	7d 43 53 78 	mr      r3,r10
 1800cdc:	7d 64 5b 78 	mr      r4,r11
 1800ce0:	7d 25 4b 78 	mr      r5,r9
 1800ce4:	7c 06 03 78 	mr      r6,r0
 1800ce8:	48 00 14 d1 	bl      18021b8 <uppol1>
 1800cec:	7c 69 1b 78 	mr      r9,r3
 1800cf0:	3c 00 01 81 	lis     r0,385
 1800cf4:	7c 08 03 78 	mr      r8,r0
 1800cf8:	91 28 37 44 	stw     r9,14148(r8)
 1800cfc:	3c 00 01 81 	lis     r0,385
 1800d00:	7c 0b 03 78 	mr      r11,r0
 1800d04:	81 2b 37 34 	lwz     r9,14132(r11)
 1800d08:	3c 00 01 81 	lis     r0,385
 1800d0c:	7c 07 03 78 	mr      r7,r0
 1800d10:	80 07 37 2c 	lwz     r0,14124(r7)
 1800d14:	7d 29 02 14 	add     r9,r9,r0
 1800d18:	3c 00 01 81 	lis     r0,385
 1800d1c:	7c 08 03 78 	mr      r8,r0
 1800d20:	91 28 37 40 	stw     r9,14144(r8)
 1800d24:	3c 00 01 81 	lis     r0,385
 1800d28:	7c 0b 03 78 	mr      r11,r0
 1800d2c:	81 2b 37 c8 	lwz     r9,14280(r11)
 1800d30:	3c 00 01 81 	lis     r0,385
 1800d34:	7c 07 03 78 	mr      r7,r0
 1800d38:	91 27 37 04 	stw     r9,14084(r7)
 1800d3c:	3c 00 01 81 	lis     r0,385
 1800d40:	7c 08 03 78 	mr      r8,r0
 1800d44:	81 28 37 40 	lwz     r9,14144(r8)
 1800d48:	3c 00 01 81 	lis     r0,385
 1800d4c:	7c 0b 03 78 	mr      r11,r0
 1800d50:	91 2b 37 c8 	stw     r9,14280(r11)
 1800d54:	3c 00 01 81 	lis     r0,385
 1800d58:	7c 07 03 78 	mr      r7,r0
 1800d5c:	81 27 37 c4 	lwz     r9,14276(r7)
 1800d60:	3c 00 01 81 	lis     r0,385
 1800d64:	7c 08 03 78 	mr      r8,r0
 1800d68:	91 28 37 90 	stw     r9,14224(r8)
 1800d6c:	3c 00 01 81 	lis     r0,385
 1800d70:	7c 0b 03 78 	mr      r11,r0
 1800d74:	81 2b 37 28 	lwz     r9,14120(r11)
 1800d78:	3c 00 01 81 	lis     r0,385
 1800d7c:	7c 07 03 78 	mr      r7,r0
 1800d80:	91 27 37 c4 	stw     r9,14276(r7)
 1800d84:	3c 00 01 81 	lis     r0,385
 1800d88:	7c 08 03 78 	mr      r8,r0
 1800d8c:	80 08 37 14 	lwz     r0,14100(r8)
 1800d90:	54 09 30 32 	rlwinm  r9,r0,6,0,25
 1800d94:	3c 00 01 81 	lis     r0,385
 1800d98:	7c 0b 03 78 	mr      r11,r0
 1800d9c:	80 0b 37 9c 	lwz     r0,14236(r11)
 1800da0:	7d 20 03 78 	or      r0,r9,r0
 1800da4:	7c 03 03 78 	mr      r3,r0
 1800da8:	39 7f 00 38 	addi    r11,r31,56
 1800dac:	80 0b 00 04 	lwz     r0,4(r11)
 1800db0:	7c 08 03 a6 	mtlr    r0
 1800db4:	83 eb ff fc 	lwz     r31,-4(r11)
 1800db8:	7d 61 5b 78 	mr      r1,r11
 1800dbc:	4e 80 00 20 	blr

01800dc0 <decode>:
 1800dc0:	94 21 ff c8 	stwu    r1,-56(r1)
 1800dc4:	7c 08 02 a6 	mflr    r0
 1800dc8:	90 01 00 3c 	stw     r0,60(r1)
 1800dcc:	93 e1 00 34 	stw     r31,52(r1)
 1800dd0:	7c 3f 0b 78 	mr      r31,r1
 1800dd4:	90 7f 00 28 	stw     r3,40(r31)
 1800dd8:	80 1f 00 28 	lwz     r0,40(r31)
 1800ddc:	54 09 06 be 	clrlwi  r9,r0,26
 1800de0:	3c 00 01 81 	lis     r0,385
 1800de4:	7c 07 03 78 	mr      r7,r0
 1800de8:	91 27 37 a0 	stw     r9,14240(r7)
 1800dec:	80 1f 00 28 	lwz     r0,40(r31)
 1800df0:	7c 09 36 70 	srawi   r9,r0,6
 1800df4:	3c 00 01 81 	lis     r0,385
 1800df8:	7c 08 03 78 	mr      r8,r0
 1800dfc:	91 28 37 14 	stw     r9,14100(r8)
 1800e00:	3c 00 01 81 	lis     r0,385
 1800e04:	30 60 39 c4 	addic   r3,r0,14788
 1800e08:	3c 00 01 81 	lis     r0,385
 1800e0c:	30 80 38 94 	addic   r4,r0,14484
 1800e10:	48 00 0d b9 	bl      1801bc8 <filtez>
 1800e14:	7c 69 1b 78 	mr      r9,r3
 1800e18:	3c 00 01 81 	lis     r0,385
 1800e1c:	7c 0b 03 78 	mr      r11,r0
 1800e20:	91 2b 37 64 	stw     r9,14180(r11)
 1800e24:	3c 00 01 81 	lis     r0,385
 1800e28:	7c 07 03 78 	mr      r7,r0
 1800e2c:	81 47 37 78 	lwz     r10,14200(r7)
 1800e30:	3c 00 01 81 	lis     r0,385
 1800e34:	7c 08 03 78 	mr      r8,r0
 1800e38:	81 68 38 00 	lwz     r11,14336(r8)
 1800e3c:	3c 00 01 81 	lis     r0,385
 1800e40:	7c 07 03 78 	mr      r7,r0
 1800e44:	81 27 37 74 	lwz     r9,14196(r7)
 1800e48:	3c 00 01 81 	lis     r0,385
 1800e4c:	7c 08 03 78 	mr      r8,r0
 1800e50:	80 08 37 dc 	lwz     r0,14300(r8)
 1800e54:	7d 43 53 78 	mr      r3,r10
 1800e58:	7d 64 5b 78 	mr      r4,r11
 1800e5c:	7d 25 4b 78 	mr      r5,r9
 1800e60:	7c 06 03 78 	mr      r6,r0
 1800e64:	48 00 0e 31 	bl      1801c94 <filtep>
 1800e68:	7c 69 1b 78 	mr      r9,r3
 1800e6c:	3c 00 01 81 	lis     r0,385
 1800e70:	7c 0b 03 78 	mr      r11,r0
 1800e74:	91 2b 37 a8 	stw     r9,14248(r11)
 1800e78:	3c 00 01 81 	lis     r0,385
 1800e7c:	7c 07 03 78 	mr      r7,r0
 1800e80:	81 27 37 a8 	lwz     r9,14248(r7)
 1800e84:	3c 00 01 81 	lis     r0,385
 1800e88:	7c 08 03 78 	mr      r8,r0
 1800e8c:	80 08 37 64 	lwz     r0,14180(r8)
 1800e90:	7d 29 02 14 	add     r9,r9,r0
 1800e94:	3c 00 01 81 	lis     r0,385
 1800e98:	7c 0b 03 78 	mr      r11,r0
 1800e9c:	91 2b 37 80 	stw     r9,14208(r11)
 1800ea0:	3c 00 01 81 	lis     r0,385
 1800ea4:	7c 07 03 78 	mr      r7,r0
 1800ea8:	80 07 37 a0 	lwz     r0,14240(r7)
 1800eac:	7c 00 16 70 	srawi   r0,r0,2
 1800eb0:	3d 20 01 81 	lis     r9,385
 1800eb4:	39 29 32 c8 	addi    r9,r9,13000
 1800eb8:	54 00 10 3a 	rlwinm  r0,r0,2,0,29
 1800ebc:	7c 09 02 14 	add     r0,r9,r0
 1800ec0:	7c 08 03 78 	mr      r8,r0
 1800ec4:	81 28 00 00 	lwz     r9,0(r8)
 1800ec8:	3c 00 01 81 	lis     r0,385
 1800ecc:	7c 0b 03 78 	mr      r11,r0
 1800ed0:	80 0b 37 d8 	lwz     r0,14296(r11)
 1800ed4:	7c 09 01 d6 	mullw   r0,r9,r0
 1800ed8:	7c 09 7e 70 	srawi   r9,r0,15
 1800edc:	3c 00 01 81 	lis     r0,385
 1800ee0:	7c 07 03 78 	mr      r7,r0
 1800ee4:	91 27 37 94 	stw     r9,14228(r7)
 1800ee8:	3c 00 01 81 	lis     r0,385
 1800eec:	7c 08 03 78 	mr      r8,r0
 1800ef0:	80 08 37 9c 	lwz     r0,14236(r8)
 1800ef4:	3d 20 01 81 	lis     r9,385
 1800ef8:	39 29 33 88 	addi    r9,r9,13192
 1800efc:	54 00 10 3a 	rlwinm  r0,r0,2,0,29
 1800f00:	7c 09 02 14 	add     r0,r9,r0
 1800f04:	7c 0b 03 78 	mr      r11,r0
 1800f08:	81 2b 00 00 	lwz     r9,0(r11)
 1800f0c:	3c 00 01 81 	lis     r0,385
 1800f10:	7c 07 03 78 	mr      r7,r0
 1800f14:	80 07 37 d8 	lwz     r0,14296(r7)
 1800f18:	7c 09 01 d6 	mullw   r0,r9,r0
 1800f1c:	7c 09 7e 70 	srawi   r9,r0,15
 1800f20:	3c 00 01 81 	lis     r0,385
 1800f24:	7c 08 03 78 	mr      r8,r0
 1800f28:	91 28 37 c0 	stw     r9,14272(r8)
 1800f2c:	3c 00 01 81 	lis     r0,385
 1800f30:	7c 0b 03 78 	mr      r11,r0
 1800f34:	81 2b 37 c0 	lwz     r9,14272(r11)
 1800f38:	3c 00 01 81 	lis     r0,385
 1800f3c:	7c 07 03 78 	mr      r7,r0
 1800f40:	80 07 37 80 	lwz     r0,14208(r7)
 1800f44:	7d 29 02 14 	add     r9,r9,r0
 1800f48:	3c 00 01 81 	lis     r0,385
 1800f4c:	7c 08 03 78 	mr      r8,r0
 1800f50:	91 28 36 fc 	stw     r9,14076(r8)
 1800f54:	3c 00 01 81 	lis     r0,385
 1800f58:	7c 0b 03 78 	mr      r11,r0
 1800f5c:	81 2b 37 a0 	lwz     r9,14240(r11)
 1800f60:	3c 00 01 81 	lis     r0,385
 1800f64:	7c 07 03 78 	mr      r7,r0
 1800f68:	80 07 37 b0 	lwz     r0,14256(r7)
 1800f6c:	7d 23 4b 78 	mr      r3,r9
 1800f70:	7c 04 03 78 	mr      r4,r0
 1800f74:	48 00 0e 9d 	bl      1801e10 <logscl>
 1800f78:	7c 69 1b 78 	mr      r9,r3
 1800f7c:	3c 00 01 81 	lis     r0,385
 1800f80:	7c 08 03 78 	mr      r8,r0
 1800f84:	91 28 37 b0 	stw     r9,14256(r8)
 1800f88:	3c 00 01 81 	lis     r0,385
 1800f8c:	7c 09 03 78 	mr      r9,r0
 1800f90:	80 09 37 b0 	lwz     r0,14256(r9)
 1800f94:	7c 03 03 78 	mr      r3,r0
 1800f98:	38 80 00 08 	li      r4,8
 1800f9c:	48 00 0f 05 	bl      1801ea0 <scalel>
 1800fa0:	7c 69 1b 78 	mr      r9,r3
 1800fa4:	3c 00 01 81 	lis     r0,385
 1800fa8:	7c 0b 03 78 	mr      r11,r0
 1800fac:	91 2b 37 d8 	stw     r9,14296(r11)
 1800fb0:	3c 00 01 81 	lis     r0,385
 1800fb4:	7c 07 03 78 	mr      r7,r0
 1800fb8:	81 27 37 94 	lwz     r9,14228(r7)
 1800fbc:	3c 00 01 81 	lis     r0,385
 1800fc0:	7c 08 03 78 	mr      r8,r0
 1800fc4:	80 08 37 64 	lwz     r0,14180(r8)
 1800fc8:	7d 29 02 14 	add     r9,r9,r0
 1800fcc:	3c 00 01 81 	lis     r0,385
 1800fd0:	7c 0b 03 78 	mr      r11,r0
 1800fd4:	91 2b 37 e4 	stw     r9,14308(r11)
 1800fd8:	3c 00 01 81 	lis     r0,385
 1800fdc:	7c 07 03 78 	mr      r7,r0
 1800fe0:	80 07 37 94 	lwz     r0,14228(r7)
 1800fe4:	7c 03 03 78 	mr      r3,r0
 1800fe8:	3c 00 01 81 	lis     r0,385
 1800fec:	30 80 38 94 	addic   r4,r0,14484
 1800ff0:	3c 00 01 81 	lis     r0,385
 1800ff4:	30 a0 39 c4 	addic   r5,r0,14788
 1800ff8:	48 00 0f 29 	bl      1801f20 <upzero>
 1800ffc:	3c 00 01 81 	lis     r0,385
 1801000:	7c 09 03 78 	mr      r9,r0
 1801004:	81 09 38 00 	lwz     r8,14336(r9)
 1801008:	3c 00 01 81 	lis     r0,385
 180100c:	7c 0b 03 78 	mr      r11,r0
 1801010:	81 4b 37 dc 	lwz     r10,14300(r11)
 1801014:	3c 00 01 81 	lis     r0,385
 1801018:	7c 07 03 78 	mr      r7,r0
 180101c:	81 67 37 e4 	lwz     r11,14308(r7)
 1801020:	3c 00 01 81 	lis     r0,385
 1801024:	7c 07 03 78 	mr      r7,r0
 1801028:	81 27 37 18 	lwz     r9,14104(r7)
 180102c:	3c 00 01 81 	lis     r0,385
 1801030:	7c 07 03 78 	mr      r7,r0
 1801034:	80 07 37 00 	lwz     r0,14080(r7)
 1801038:	7d 03 43 78 	mr      r3,r8
 180103c:	7d 44 53 78 	mr      r4,r10
 1801040:	7d 65 5b 78 	mr      r5,r11
 1801044:	7d 26 4b 78 	mr      r6,r9
 1801048:	7c 07 03 78 	mr      r7,r0
 180104c:	48 00 10 89 	bl      18020d4 <uppol2>
 1801050:	7c 69 1b 78 	mr      r9,r3
 1801054:	3c 00 01 81 	lis     r0,385
 1801058:	7c 08 03 78 	mr      r8,r0
 180105c:	91 28 37 dc 	stw     r9,14300(r8)
 1801060:	3c 00 01 81 	lis     r0,385
 1801064:	7c 09 03 78 	mr      r9,r0
 1801068:	81 49 38 00 	lwz     r10,14336(r9)
 180106c:	3c 00 01 81 	lis     r0,385
 1801070:	7c 07 03 78 	mr      r7,r0
 1801074:	81 67 37 dc 	lwz     r11,14300(r7)
 1801078:	3c 00 01 81 	lis     r0,385
 180107c:	7c 08 03 78 	mr      r8,r0
 1801080:	81 28 37 e4 	lwz     r9,14308(r8)
 1801084:	3c 00 01 81 	lis     r0,385
 1801088:	7c 07 03 78 	mr      r7,r0
 180108c:	80 07 37 18 	lwz     r0,14104(r7)
 1801090:	7d 43 53 78 	mr      r3,r10
 1801094:	7d 64 5b 78 	mr      r4,r11
 1801098:	7d 25 4b 78 	mr      r5,r9
 180109c:	7c 06 03 78 	mr      r6,r0
 18010a0:	48 00 11 19 	bl      18021b8 <uppol1>
 18010a4:	7c 69 1b 78 	mr      r9,r3
 18010a8:	3c 00 01 81 	lis     r0,385
 18010ac:	7c 08 03 78 	mr      r8,r0
 18010b0:	91 28 38 00 	stw     r9,14336(r8)
 18010b4:	3c 00 01 81 	lis     r0,385
 18010b8:	7c 0b 03 78 	mr      r11,r0
 18010bc:	81 2b 37 80 	lwz     r9,14208(r11)
 18010c0:	3c 00 01 81 	lis     r0,385
 18010c4:	7c 07 03 78 	mr      r7,r0
 18010c8:	80 07 37 94 	lwz     r0,14228(r7)
 18010cc:	7d 29 02 14 	add     r9,r9,r0
 18010d0:	3c 00 01 81 	lis     r0,385
 18010d4:	7c 08 03 78 	mr      r8,r0
 18010d8:	91 28 37 10 	stw     r9,14096(r8)
 18010dc:	3c 00 01 81 	lis     r0,385
 18010e0:	7c 0b 03 78 	mr      r11,r0
 18010e4:	81 2b 37 78 	lwz     r9,14200(r11)
 18010e8:	3c 00 01 81 	lis     r0,385
 18010ec:	7c 07 03 78 	mr      r7,r0
 18010f0:	91 27 37 74 	stw     r9,14196(r7)
 18010f4:	3c 00 01 81 	lis     r0,385
 18010f8:	7c 08 03 78 	mr      r8,r0
 18010fc:	81 28 37 10 	lwz     r9,14096(r8)
 1801100:	3c 00 01 81 	lis     r0,385
 1801104:	7c 0b 03 78 	mr      r11,r0
 1801108:	91 2b 37 78 	stw     r9,14200(r11)
 180110c:	3c 00 01 81 	lis     r0,385
 1801110:	7c 07 03 78 	mr      r7,r0
 1801114:	81 27 37 18 	lwz     r9,14104(r7)
 1801118:	3c 00 01 81 	lis     r0,385
 180111c:	7c 08 03 78 	mr      r8,r0
 1801120:	91 28 37 00 	stw     r9,14080(r8)
 1801124:	3c 00 01 81 	lis     r0,385
 1801128:	7c 0b 03 78 	mr      r11,r0
 180112c:	81 2b 37 e4 	lwz     r9,14308(r11)
 1801130:	3c 00 01 81 	lis     r0,385
 1801134:	7c 07 03 78 	mr      r7,r0
 1801138:	91 27 37 18 	stw     r9,14104(r7)
 180113c:	3c 00 01 81 	lis     r0,385
 1801140:	30 60 39 68 	addic   r3,r0,14696
 1801144:	3c 00 01 81 	lis     r0,385
 1801148:	30 80 38 d8 	addic   r4,r0,14552
 180114c:	48 00 0a 7d 	bl      1801bc8 <filtez>
 1801150:	7c 69 1b 78 	mr      r9,r3
 1801154:	3c 00 01 81 	lis     r0,385
 1801158:	7c 08 03 78 	mr      r8,r0
 180115c:	91 28 37 ac 	stw     r9,14252(r8)
 1801160:	3c 00 01 81 	lis     r0,385
 1801164:	7c 09 03 78 	mr      r9,r0
 1801168:	81 49 37 f0 	lwz     r10,14320(r9)
 180116c:	3c 00 01 81 	lis     r0,385
 1801170:	7c 07 03 78 	mr      r7,r0
 1801174:	81 67 37 60 	lwz     r11,14176(r7)
 1801178:	3c 00 01 81 	lis     r0,385
 180117c:	7c 08 03 78 	mr      r8,r0
 1801180:	81 28 37 e8 	lwz     r9,14312(r8)
 1801184:	3c 00 01 81 	lis     r0,385
 1801188:	7c 07 03 78 	mr      r7,r0
 180118c:	80 07 38 0c 	lwz     r0,14348(r7)
 1801190:	7d 43 53 78 	mr      r3,r10
 1801194:	7d 64 5b 78 	mr      r4,r11
 1801198:	7d 25 4b 78 	mr      r5,r9
 180119c:	7c 06 03 78 	mr      r6,r0
 18011a0:	48 00 0a f5 	bl      1801c94 <filtep>
 18011a4:	7c 69 1b 78 	mr      r9,r3
 18011a8:	3c 00 01 81 	lis     r0,385
 18011ac:	7c 08 03 78 	mr      r8,r0
 18011b0:	91 28 37 30 	stw     r9,14128(r8)
 18011b4:	3c 00 01 81 	lis     r0,385
 18011b8:	7c 0b 03 78 	mr      r11,r0
 18011bc:	81 2b 37 30 	lwz     r9,14128(r11)
 18011c0:	3c 00 01 81 	lis     r0,385
 18011c4:	7c 07 03 78 	mr      r7,r0
 18011c8:	80 07 37 ac 	lwz     r0,14252(r7)
 18011cc:	7d 29 02 14 	add     r9,r9,r0
 18011d0:	3c 00 01 81 	lis     r0,385
 18011d4:	7c 08 03 78 	mr      r8,r0
 18011d8:	91 28 37 cc 	stw     r9,14284(r8)
 18011dc:	3c 00 01 81 	lis     r0,385
 18011e0:	7c 09 03 78 	mr      r9,r0
 18011e4:	80 09 37 14 	lwz     r0,14100(r9)
 18011e8:	3d 20 01 81 	lis     r9,385
 18011ec:	39 29 36 d8 	addi    r9,r9,14040
 18011f0:	54 00 10 3a 	rlwinm  r0,r0,2,0,29
 18011f4:	7c 09 02 14 	add     r0,r9,r0
 18011f8:	7c 0b 03 78 	mr      r11,r0
 18011fc:	81 2b 00 00 	lwz     r9,0(r11)
 1801200:	3c 00 01 81 	lis     r0,385
 1801204:	7c 07 03 78 	mr      r7,r0
 1801208:	80 07 37 88 	lwz     r0,14216(r7)
 180120c:	7c 09 01 d6 	mullw   r0,r9,r0
 1801210:	7c 09 7e 70 	srawi   r9,r0,15
 1801214:	3c 00 01 81 	lis     r0,385
 1801218:	7c 08 03 78 	mr      r8,r0
 180121c:	91 28 37 68 	stw     r9,14184(r8)
 1801220:	3c 00 01 81 	lis     r0,385
 1801224:	7c 0b 03 78 	mr      r11,r0
 1801228:	81 2b 37 14 	lwz     r9,14100(r11)
 180122c:	3c 00 01 81 	lis     r0,385
 1801230:	7c 07 03 78 	mr      r7,r0
 1801234:	80 07 37 20 	lwz     r0,14112(r7)
 1801238:	7d 23 4b 78 	mr      r3,r9
 180123c:	7c 04 03 78 	mr      r4,r0
 1801240:	48 00 10 31 	bl      1802270 <logsch>
 1801244:	7c 69 1b 78 	mr      r9,r3
 1801248:	3c 00 01 81 	lis     r0,385
 180124c:	7c 08 03 78 	mr      r8,r0
 1801250:	91 28 37 20 	stw     r9,14112(r8)
 1801254:	3c 00 01 81 	lis     r0,385
 1801258:	7c 09 03 78 	mr      r9,r0
 180125c:	80 09 37 20 	lwz     r0,14112(r9)
 1801260:	7c 03 03 78 	mr      r3,r0
 1801264:	38 80 00 0a 	li      r4,10
 1801268:	48 00 0c 39 	bl      1801ea0 <scalel>
 180126c:	7c 69 1b 78 	mr      r9,r3
 1801270:	3c 00 01 81 	lis     r0,385
 1801274:	7c 0b 03 78 	mr      r11,r0
 1801278:	91 2b 37 88 	stw     r9,14216(r11)
 180127c:	3c 00 01 81 	lis     r0,385
 1801280:	7c 07 03 78 	mr      r7,r0
 1801284:	81 27 37 68 	lwz     r9,14184(r7)
 1801288:	3c 00 01 81 	lis     r0,385
 180128c:	7c 08 03 78 	mr      r8,r0
 1801290:	80 08 37 ac 	lwz     r0,14252(r8)
 1801294:	7d 29 02 14 	add     r9,r9,r0
 1801298:	3c 00 01 81 	lis     r0,385
 180129c:	7c 0b 03 78 	mr      r11,r0
 18012a0:	91 2b 37 b4 	stw     r9,14260(r11)
 18012a4:	3c 00 01 81 	lis     r0,385
 18012a8:	7c 07 03 78 	mr      r7,r0
 18012ac:	80 07 37 68 	lwz     r0,14184(r7)
 18012b0:	7c 03 03 78 	mr      r3,r0
 18012b4:	3c 00 01 81 	lis     r0,385
 18012b8:	30 80 38 d8 	addic   r4,r0,14552
 18012bc:	3c 00 01 81 	lis     r0,385
 18012c0:	30 a0 39 68 	addic   r5,r0,14696
 18012c4:	48 00 0c 5d 	bl      1801f20 <upzero>
 18012c8:	3c 00 01 81 	lis     r0,385
 18012cc:	7c 09 03 78 	mr      r9,r0
 18012d0:	81 09 37 60 	lwz     r8,14176(r9)
 18012d4:	3c 00 01 81 	lis     r0,385
 18012d8:	7c 0b 03 78 	mr      r11,r0
 18012dc:	81 4b 38 0c 	lwz     r10,14348(r11)
 18012e0:	3c 00 01 81 	lis     r0,385
 18012e4:	7c 07 03 78 	mr      r7,r0
 18012e8:	81 67 37 b4 	lwz     r11,14260(r7)
 18012ec:	3c 00 01 81 	lis     r0,385
 18012f0:	7c 07 03 78 	mr      r7,r0
 18012f4:	81 27 37 24 	lwz     r9,14116(r7)
 18012f8:	3c 00 01 81 	lis     r0,385
 18012fc:	7c 07 03 78 	mr      r7,r0
 1801300:	80 07 37 5c 	lwz     r0,14172(r7)
 1801304:	7d 03 43 78 	mr      r3,r8
 1801308:	7d 44 53 78 	mr      r4,r10
 180130c:	7d 65 5b 78 	mr      r5,r11
 1801310:	7d 26 4b 78 	mr      r6,r9
 1801314:	7c 07 03 78 	mr      r7,r0
 1801318:	48 00 0d bd 	bl      18020d4 <uppol2>
 180131c:	7c 69 1b 78 	mr      r9,r3
 1801320:	3c 00 01 81 	lis     r0,385
 1801324:	7c 08 03 78 	mr      r8,r0
 1801328:	91 28 38 0c 	stw     r9,14348(r8)
 180132c:	3c 00 01 81 	lis     r0,385
 1801330:	7c 09 03 78 	mr      r9,r0
 1801334:	81 49 37 60 	lwz     r10,14176(r9)
 1801338:	3c 00 01 81 	lis     r0,385
 180133c:	7c 07 03 78 	mr      r7,r0
 1801340:	81 67 38 0c 	lwz     r11,14348(r7)
 1801344:	3c 00 01 81 	lis     r0,385
 1801348:	7c 08 03 78 	mr      r8,r0
 180134c:	81 28 37 b4 	lwz     r9,14260(r8)
 1801350:	3c 00 01 81 	lis     r0,385
 1801354:	7c 07 03 78 	mr      r7,r0
 1801358:	80 07 37 24 	lwz     r0,14116(r7)
 180135c:	7d 43 53 78 	mr      r3,r10
 1801360:	7d 64 5b 78 	mr      r4,r11
 1801364:	7d 25 4b 78 	mr      r5,r9
 1801368:	7c 06 03 78 	mr      r6,r0
 180136c:	48 00 0e 4d 	bl      18021b8 <uppol1>
 1801370:	7c 69 1b 78 	mr      r9,r3
 1801374:	3c 00 01 81 	lis     r0,385
 1801378:	7c 08 03 78 	mr      r8,r0
 180137c:	91 28 37 60 	stw     r9,14176(r8)
 1801380:	3c 00 01 81 	lis     r0,385
 1801384:	7c 0b 03 78 	mr      r11,r0
 1801388:	81 2b 37 cc 	lwz     r9,14284(r11)
 180138c:	3c 00 01 81 	lis     r0,385
 1801390:	7c 07 03 78 	mr      r7,r0
 1801394:	80 07 37 68 	lwz     r0,14184(r7)
 1801398:	7d 29 02 14 	add     r9,r9,r0
 180139c:	3c 00 01 81 	lis     r0,385
 18013a0:	7c 08 03 78 	mr      r8,r0
 18013a4:	91 28 37 6c 	stw     r9,14188(r8)
 18013a8:	3c 00 01 81 	lis     r0,385
 18013ac:	7c 0b 03 78 	mr      r11,r0
 18013b0:	81 2b 37 f0 	lwz     r9,14320(r11)
 18013b4:	3c 00 01 81 	lis     r0,385
 18013b8:	7c 07 03 78 	mr      r7,r0
 18013bc:	91 27 37 e8 	stw     r9,14312(r7)
 18013c0:	3c 00 01 81 	lis     r0,385
 18013c4:	7c 08 03 78 	mr      r8,r0
 18013c8:	81 28 37 6c 	lwz     r9,14188(r8)
 18013cc:	3c 00 01 81 	lis     r0,385
 18013d0:	7c 0b 03 78 	mr      r11,r0
 18013d4:	91 2b 37 f0 	stw     r9,14320(r11)
 18013d8:	3c 00 01 81 	lis     r0,385
 18013dc:	7c 07 03 78 	mr      r7,r0
 18013e0:	81 27 37 24 	lwz     r9,14116(r7)
 18013e4:	3c 00 01 81 	lis     r0,385
 18013e8:	7c 08 03 78 	mr      r8,r0
 18013ec:	91 28 37 5c 	stw     r9,14172(r8)
 18013f0:	3c 00 01 81 	lis     r0,385
 18013f4:	7c 0b 03 78 	mr      r11,r0
 18013f8:	81 2b 37 b4 	lwz     r9,14260(r11)
 18013fc:	3c 00 01 81 	lis     r0,385
 1801400:	7c 07 03 78 	mr      r7,r0
 1801404:	91 27 37 24 	stw     r9,14116(r7)
 1801408:	3c 00 01 81 	lis     r0,385
 180140c:	7c 08 03 78 	mr      r8,r0
 1801410:	81 28 36 fc 	lwz     r9,14076(r8)
 1801414:	3c 00 01 81 	lis     r0,385
 1801418:	7c 0b 03 78 	mr      r11,r0
 180141c:	80 0b 37 6c 	lwz     r0,14188(r11)
 1801420:	7d 20 48 50 	subf    r9,r0,r9
 1801424:	3c 00 01 81 	lis     r0,385
 1801428:	7c 07 03 78 	mr      r7,r0
 180142c:	91 27 37 d0 	stw     r9,14288(r7)
 1801430:	3c 00 01 81 	lis     r0,385
 1801434:	7c 08 03 78 	mr      r8,r0
 1801438:	81 28 36 fc 	lwz     r9,14076(r8)
 180143c:	3c 00 01 81 	lis     r0,385
 1801440:	7c 0b 03 78 	mr      r11,r0
 1801444:	80 0b 37 6c 	lwz     r0,14188(r11)
 1801448:	7d 29 02 14 	add     r9,r9,r0
 180144c:	3c 00 01 81 	lis     r0,385
 1801450:	7c 07 03 78 	mr      r7,r0
 1801454:	91 27 38 10 	stw     r9,14352(r7)
 1801458:	3c 00 01 81 	lis     r0,385
 180145c:	30 00 32 68 	addic   r0,r0,12904
 1801460:	90 1f 00 18 	stw     r0,24(r31)
 1801464:	3c 00 01 81 	lis     r0,385
 1801468:	30 00 39 80 	addic   r0,r0,14720
 180146c:	90 1f 00 14 	stw     r0,20(r31)
 1801470:	3c 00 01 81 	lis     r0,385
 1801474:	30 00 38 ac 	addic   r0,r0,14508
 1801478:	90 1f 00 0c 	stw     r0,12(r31)
 180147c:	80 1f 00 18 	lwz     r0,24(r31)
 1801480:	7c 08 03 78 	mr      r8,r0
 1801484:	81 28 00 00 	lwz     r9,0(r8)
 1801488:	3c 00 01 81 	lis     r0,385
 180148c:	7c 0b 03 78 	mr      r11,r0
 1801490:	80 0b 37 d0 	lwz     r0,14288(r11)
 1801494:	7c 09 01 d6 	mullw   r0,r9,r0
 1801498:	90 1f 00 20 	stw     r0,32(r31)
 180149c:	80 1f 00 18 	lwz     r0,24(r31)
 18014a0:	30 00 00 04 	addic   r0,r0,4
 18014a4:	90 1f 00 18 	stw     r0,24(r31)
 18014a8:	80 1f 00 18 	lwz     r0,24(r31)
 18014ac:	7c 07 03 78 	mr      r7,r0
 18014b0:	81 27 00 00 	lwz     r9,0(r7)
 18014b4:	3c 00 01 81 	lis     r0,385
 18014b8:	7c 08 03 78 	mr      r8,r0
 18014bc:	80 08 38 10 	lwz     r0,14352(r8)
 18014c0:	7c 09 01 d6 	mullw   r0,r9,r0
 18014c4:	90 1f 00 1c 	stw     r0,28(r31)
 18014c8:	80 1f 00 18 	lwz     r0,24(r31)
 18014cc:	30 00 00 04 	addic   r0,r0,4
 18014d0:	90 1f 00 18 	stw     r0,24(r31)
 18014d4:	38 00 00 00 	li      r0,0
 18014d8:	90 1f 00 24 	stw     r0,36(r31)
 18014dc:	48 00 00 90 	b       180156c <decode+0x7ac>
 18014e0:	80 1f 00 14 	lwz     r0,20(r31)
 18014e4:	7c 0b 03 78 	mr      r11,r0
 18014e8:	81 2b 00 00 	lwz     r9,0(r11)
 18014ec:	80 1f 00 18 	lwz     r0,24(r31)
 18014f0:	7c 07 03 78 	mr      r7,r0
 18014f4:	80 07 00 00 	lwz     r0,0(r7)
 18014f8:	7c 09 01 d6 	mullw   r0,r9,r0
 18014fc:	81 3f 00 20 	lwz     r9,32(r31)
 1801500:	7c 09 02 14 	add     r0,r9,r0
 1801504:	90 1f 00 20 	stw     r0,32(r31)
 1801508:	80 1f 00 14 	lwz     r0,20(r31)
 180150c:	30 00 00 04 	addic   r0,r0,4
 1801510:	90 1f 00 14 	stw     r0,20(r31)
 1801514:	80 1f 00 18 	lwz     r0,24(r31)
 1801518:	30 00 00 04 	addic   r0,r0,4
 180151c:	90 1f 00 18 	stw     r0,24(r31)
 1801520:	80 1f 00 0c 	lwz     r0,12(r31)
 1801524:	7c 08 03 78 	mr      r8,r0
 1801528:	81 28 00 00 	lwz     r9,0(r8)
 180152c:	80 1f 00 18 	lwz     r0,24(r31)
 1801530:	7c 0b 03 78 	mr      r11,r0
 1801534:	80 0b 00 00 	lwz     r0,0(r11)
 1801538:	7c 09 01 d6 	mullw   r0,r9,r0
 180153c:	81 3f 00 1c 	lwz     r9,28(r31)
 1801540:	7c 09 02 14 	add     r0,r9,r0
 1801544:	90 1f 00 1c 	stw     r0,28(r31)
 1801548:	80 1f 00 0c 	lwz     r0,12(r31)
 180154c:	30 00 00 04 	addic   r0,r0,4
 1801550:	90 1f 00 0c 	stw     r0,12(r31)
 1801554:	80 1f 00 18 	lwz     r0,24(r31)
 1801558:	30 00 00 04 	addic   r0,r0,4
 180155c:	90 1f 00 18 	stw     r0,24(r31)
 1801560:	80 1f 00 24 	lwz     r0,36(r31)
 1801564:	30 00 00 01 	addic   r0,r0,1
 1801568:	90 1f 00 24 	stw     r0,36(r31)
 180156c:	80 1f 00 24 	lwz     r0,36(r31)
 1801570:	2f 80 00 09 	cmpwi   cr7,r0,9
 1801574:	40 9d ff 6c 	ble+    cr7,18014e0 <decode+0x720>
 1801578:	80 1f 00 14 	lwz     r0,20(r31)
 180157c:	7c 07 03 78 	mr      r7,r0
 1801580:	81 27 00 00 	lwz     r9,0(r7)
 1801584:	80 1f 00 18 	lwz     r0,24(r31)
 1801588:	7c 08 03 78 	mr      r8,r0
 180158c:	80 08 00 00 	lwz     r0,0(r8)
 1801590:	7c 09 01 d6 	mullw   r0,r9,r0
 1801594:	81 3f 00 20 	lwz     r9,32(r31)
 1801598:	7c 09 02 14 	add     r0,r9,r0
 180159c:	90 1f 00 20 	stw     r0,32(r31)
 18015a0:	80 1f 00 18 	lwz     r0,24(r31)
 18015a4:	30 00 00 04 	addic   r0,r0,4
 18015a8:	90 1f 00 18 	stw     r0,24(r31)
 18015ac:	80 1f 00 0c 	lwz     r0,12(r31)
 18015b0:	7c 0b 03 78 	mr      r11,r0
 18015b4:	81 2b 00 00 	lwz     r9,0(r11)
 18015b8:	80 1f 00 18 	lwz     r0,24(r31)
 18015bc:	7c 07 03 78 	mr      r7,r0
 18015c0:	80 07 00 00 	lwz     r0,0(r7)
 18015c4:	7c 09 01 d6 	mullw   r0,r9,r0
 18015c8:	81 3f 00 1c 	lwz     r9,28(r31)
 18015cc:	7c 09 02 14 	add     r0,r9,r0
 18015d0:	90 1f 00 1c 	stw     r0,28(r31)
 18015d4:	80 1f 00 18 	lwz     r0,24(r31)
 18015d8:	30 00 00 04 	addic   r0,r0,4
 18015dc:	90 1f 00 18 	stw     r0,24(r31)
 18015e0:	80 1f 00 20 	lwz     r0,32(r31)
 18015e4:	7c 09 76 70 	srawi   r9,r0,14
 18015e8:	3c 00 01 81 	lis     r0,385
 18015ec:	7c 08 03 78 	mr      r8,r0
 18015f0:	91 28 37 50 	stw     r9,14160(r8)
 18015f4:	80 1f 00 1c 	lwz     r0,28(r31)
 18015f8:	7c 09 76 70 	srawi   r9,r0,14
 18015fc:	3c 00 01 81 	lis     r0,385
 1801600:	7c 0b 03 78 	mr      r11,r0
 1801604:	91 2b 37 84 	stw     r9,14212(r11)
 1801608:	80 1f 00 14 	lwz     r0,20(r31)
 180160c:	30 00 ff fc 	addic   r0,r0,-4
 1801610:	90 1f 00 10 	stw     r0,16(r31)
 1801614:	80 1f 00 0c 	lwz     r0,12(r31)
 1801618:	30 00 ff fc 	addic   r0,r0,-4
 180161c:	90 1f 00 08 	stw     r0,8(r31)
 1801620:	38 00 00 00 	li      r0,0
 1801624:	90 1f 00 24 	stw     r0,36(r31)
 1801628:	48 00 00 70 	b       1801698 <decode+0x8d8>
 180162c:	80 1f 00 10 	lwz     r0,16(r31)
 1801630:	7c 07 03 78 	mr      r7,r0
 1801634:	81 27 00 00 	lwz     r9,0(r7)
 1801638:	80 1f 00 14 	lwz     r0,20(r31)
 180163c:	7c 08 03 78 	mr      r8,r0
 1801640:	91 28 00 00 	stw     r9,0(r8)
 1801644:	80 1f 00 14 	lwz     r0,20(r31)
 1801648:	30 00 ff fc 	addic   r0,r0,-4
 180164c:	90 1f 00 14 	stw     r0,20(r31)
 1801650:	80 1f 00 10 	lwz     r0,16(r31)
 1801654:	30 00 ff fc 	addic   r0,r0,-4
 1801658:	90 1f 00 10 	stw     r0,16(r31)
 180165c:	80 1f 00 08 	lwz     r0,8(r31)
 1801660:	7c 0b 03 78 	mr      r11,r0
 1801664:	81 2b 00 00 	lwz     r9,0(r11)
 1801668:	80 1f 00 0c 	lwz     r0,12(r31)
 180166c:	7c 07 03 78 	mr      r7,r0
 1801670:	91 27 00 00 	stw     r9,0(r7)
 1801674:	80 1f 00 0c 	lwz     r0,12(r31)
 1801678:	30 00 ff fc 	addic   r0,r0,-4
 180167c:	90 1f 00 0c 	stw     r0,12(r31)
 1801680:	80 1f 00 08 	lwz     r0,8(r31)
 1801684:	30 00 ff fc 	addic   r0,r0,-4
 1801688:	90 1f 00 08 	stw     r0,8(r31)
 180168c:	80 1f 00 24 	lwz     r0,36(r31)
 1801690:	30 00 00 01 	addic   r0,r0,1
 1801694:	90 1f 00 24 	stw     r0,36(r31)
 1801698:	80 1f 00 24 	lwz     r0,36(r31)
 180169c:	2f 80 00 09 	cmpwi   cr7,r0,9
 18016a0:	40 9d ff 8c 	ble+    cr7,180162c <decode+0x86c>
 18016a4:	3c 00 01 81 	lis     r0,385
 18016a8:	7c 08 03 78 	mr      r8,r0
 18016ac:	81 28 37 d0 	lwz     r9,14288(r8)
 18016b0:	80 1f 00 14 	lwz     r0,20(r31)
 18016b4:	7c 0b 03 78 	mr      r11,r0
 18016b8:	91 2b 00 00 	stw     r9,0(r11)
 18016bc:	3c 00 01 81 	lis     r0,385
 18016c0:	7c 07 03 78 	mr      r7,r0
 18016c4:	81 27 38 10 	lwz     r9,14352(r7)
 18016c8:	80 1f 00 0c 	lwz     r0,12(r31)
 18016cc:	7c 08 03 78 	mr      r8,r0
 18016d0:	91 28 00 00 	stw     r9,0(r8)
 18016d4:	39 7f 00 38 	addi    r11,r31,56
 18016d8:	80 0b 00 04 	lwz     r0,4(r11)
 18016dc:	7c 08 03 a6 	mtlr    r0
 18016e0:	83 eb ff fc 	lwz     r31,-4(r11)
 18016e4:	7d 61 5b 78 	mr      r1,r11
 18016e8:	4e 80 00 20 	blr

018016ec <reset>:
 18016ec:	94 21 ff e0 	stwu    r1,-32(r1)
 18016f0:	93 e1 00 1c 	stw     r31,28(r1)
 18016f4:	7c 3f 0b 78 	mr      r31,r1
 18016f8:	3c 00 01 81 	lis     r0,385
 18016fc:	39 20 00 20 	li      r9,32
 1801700:	7c 0b 03 78 	mr      r11,r0
 1801704:	91 2b 37 d8 	stw     r9,14296(r11)
 1801708:	3c 00 01 81 	lis     r0,385
 180170c:	7c 0b 03 78 	mr      r11,r0
 1801710:	81 2b 37 d8 	lwz     r9,14296(r11)
 1801714:	3c 00 01 81 	lis     r0,385
 1801718:	7c 0b 03 78 	mr      r11,r0
 180171c:	91 2b 37 38 	stw     r9,14136(r11)
 1801720:	3c 00 01 81 	lis     r0,385
 1801724:	39 20 00 08 	li      r9,8
 1801728:	7c 0b 03 78 	mr      r11,r0
 180172c:	91 2b 37 88 	stw     r9,14216(r11)
 1801730:	3c 00 01 81 	lis     r0,385
 1801734:	7c 0b 03 78 	mr      r11,r0
 1801738:	81 2b 37 88 	lwz     r9,14216(r11)
 180173c:	3c 00 01 81 	lis     r0,385
 1801740:	7c 0b 03 78 	mr      r11,r0
 1801744:	91 2b 37 70 	stw     r9,14192(r11)
 1801748:	3c 00 01 81 	lis     r0,385
 180174c:	39 20 00 00 	li      r9,0
 1801750:	7c 0b 03 78 	mr      r11,r0
 1801754:	91 2b 37 8c 	stw     r9,14220(r11)
 1801758:	3c 00 01 81 	lis     r0,385
 180175c:	7c 0b 03 78 	mr      r11,r0
 1801760:	81 2b 37 8c 	lwz     r9,14220(r11)
 1801764:	3c 00 01 81 	lis     r0,385
 1801768:	7c 0b 03 78 	mr      r11,r0
 180176c:	91 2b 37 fc 	stw     r9,14332(r11)
 1801770:	3c 00 01 81 	lis     r0,385
 1801774:	7c 0b 03 78 	mr      r11,r0
 1801778:	81 2b 37 fc 	lwz     r9,14332(r11)
 180177c:	3c 00 01 81 	lis     r0,385
 1801780:	7c 0b 03 78 	mr      r11,r0
 1801784:	91 2b 37 d4 	stw     r9,14292(r11)
 1801788:	3c 00 01 81 	lis     r0,385
 180178c:	7c 0b 03 78 	mr      r11,r0
 1801790:	81 2b 37 d4 	lwz     r9,14292(r11)
 1801794:	3c 00 01 81 	lis     r0,385
 1801798:	7c 0b 03 78 	mr      r11,r0
 180179c:	91 2b 37 e0 	stw     r9,14304(r11)
 18017a0:	3c 00 01 81 	lis     r0,385
 18017a4:	7c 0b 03 78 	mr      r11,r0
 18017a8:	81 2b 37 e0 	lwz     r9,14304(r11)
 18017ac:	3c 00 01 81 	lis     r0,385
 18017b0:	7c 0b 03 78 	mr      r11,r0
 18017b4:	91 2b 37 ec 	stw     r9,14316(r11)
 18017b8:	3c 00 01 81 	lis     r0,385
 18017bc:	7c 0b 03 78 	mr      r11,r0
 18017c0:	81 2b 37 ec 	lwz     r9,14316(r11)
 18017c4:	3c 00 01 81 	lis     r0,385
 18017c8:	7c 0b 03 78 	mr      r11,r0
 18017cc:	91 2b 38 14 	stw     r9,14356(r11)
 18017d0:	3c 00 01 81 	lis     r0,385
 18017d4:	7c 0b 03 78 	mr      r11,r0
 18017d8:	81 2b 38 14 	lwz     r9,14356(r11)
 18017dc:	3c 00 01 81 	lis     r0,385
 18017e0:	7c 0b 03 78 	mr      r11,r0
 18017e4:	91 2b 37 1c 	stw     r9,14108(r11)
 18017e8:	3c 00 01 81 	lis     r0,385
 18017ec:	39 20 00 00 	li      r9,0
 18017f0:	7c 0b 03 78 	mr      r11,r0
 18017f4:	91 2b 37 04 	stw     r9,14084(r11)
 18017f8:	3c 00 01 81 	lis     r0,385
 18017fc:	7c 0b 03 78 	mr      r11,r0
 1801800:	81 2b 37 04 	lwz     r9,14084(r11)
 1801804:	3c 00 01 81 	lis     r0,385
 1801808:	7c 0b 03 78 	mr      r11,r0
 180180c:	91 2b 37 c8 	stw     r9,14280(r11)
 1801810:	3c 00 01 81 	lis     r0,385
 1801814:	7c 0b 03 78 	mr      r11,r0
 1801818:	81 2b 37 c8 	lwz     r9,14280(r11)
 180181c:	3c 00 01 81 	lis     r0,385
 1801820:	7c 0b 03 78 	mr      r11,r0
 1801824:	91 2b 37 90 	stw     r9,14224(r11)
 1801828:	3c 00 01 81 	lis     r0,385
 180182c:	7c 0b 03 78 	mr      r11,r0
 1801830:	81 2b 37 90 	lwz     r9,14224(r11)
 1801834:	3c 00 01 81 	lis     r0,385
 1801838:	7c 0b 03 78 	mr      r11,r0
 180183c:	91 2b 37 c4 	stw     r9,14276(r11)
 1801840:	3c 00 01 81 	lis     r0,385
 1801844:	7c 0b 03 78 	mr      r11,r0
 1801848:	81 2b 37 c4 	lwz     r9,14276(r11)
 180184c:	3c 00 01 81 	lis     r0,385
 1801850:	7c 0b 03 78 	mr      r11,r0
 1801854:	91 2b 37 98 	stw     r9,14232(r11)
 1801858:	3c 00 01 81 	lis     r0,385
 180185c:	7c 0b 03 78 	mr      r11,r0
 1801860:	81 2b 37 98 	lwz     r9,14232(r11)
 1801864:	3c 00 01 81 	lis     r0,385
 1801868:	7c 0b 03 78 	mr      r11,r0
 180186c:	91 2b 37 44 	stw     r9,14148(r11)
 1801870:	3c 00 01 81 	lis     r0,385
 1801874:	7c 0b 03 78 	mr      r11,r0
 1801878:	81 2b 37 44 	lwz     r9,14148(r11)
 180187c:	3c 00 01 81 	lis     r0,385
 1801880:	7c 0b 03 78 	mr      r11,r0
 1801884:	91 2b 37 f8 	stw     r9,14328(r11)
 1801888:	3c 00 01 81 	lis     r0,385
 180188c:	39 20 00 00 	li      r9,0
 1801890:	7c 0b 03 78 	mr      r11,r0
 1801894:	91 2b 37 74 	stw     r9,14196(r11)
 1801898:	3c 00 01 81 	lis     r0,385
 180189c:	7c 0b 03 78 	mr      r11,r0
 18018a0:	81 2b 37 74 	lwz     r9,14196(r11)
 18018a4:	3c 00 01 81 	lis     r0,385
 18018a8:	7c 0b 03 78 	mr      r11,r0
 18018ac:	91 2b 37 78 	stw     r9,14200(r11)
 18018b0:	3c 00 01 81 	lis     r0,385
 18018b4:	7c 0b 03 78 	mr      r11,r0
 18018b8:	81 2b 37 78 	lwz     r9,14200(r11)
 18018bc:	3c 00 01 81 	lis     r0,385
 18018c0:	7c 0b 03 78 	mr      r11,r0
 18018c4:	91 2b 37 00 	stw     r9,14080(r11)
 18018c8:	3c 00 01 81 	lis     r0,385
 18018cc:	7c 0b 03 78 	mr      r11,r0
 18018d0:	81 2b 37 00 	lwz     r9,14080(r11)
 18018d4:	3c 00 01 81 	lis     r0,385
 18018d8:	7c 0b 03 78 	mr      r11,r0
 18018dc:	91 2b 37 18 	stw     r9,14104(r11)
 18018e0:	3c 00 01 81 	lis     r0,385
 18018e4:	7c 0b 03 78 	mr      r11,r0
 18018e8:	81 2b 37 18 	lwz     r9,14104(r11)
 18018ec:	3c 00 01 81 	lis     r0,385
 18018f0:	7c 0b 03 78 	mr      r11,r0
 18018f4:	91 2b 37 dc 	stw     r9,14300(r11)
 18018f8:	3c 00 01 81 	lis     r0,385
 18018fc:	7c 0b 03 78 	mr      r11,r0
 1801900:	81 2b 37 dc 	lwz     r9,14300(r11)
 1801904:	3c 00 01 81 	lis     r0,385
 1801908:	7c 0b 03 78 	mr      r11,r0
 180190c:	91 2b 38 00 	stw     r9,14336(r11)
 1801910:	3c 00 01 81 	lis     r0,385
 1801914:	7c 0b 03 78 	mr      r11,r0
 1801918:	81 2b 38 00 	lwz     r9,14336(r11)
 180191c:	3c 00 01 81 	lis     r0,385
 1801920:	7c 0b 03 78 	mr      r11,r0
 1801924:	91 2b 37 b0 	stw     r9,14256(r11)
 1801928:	3c 00 01 81 	lis     r0,385
 180192c:	39 20 00 00 	li      r9,0
 1801930:	7c 0b 03 78 	mr      r11,r0
 1801934:	91 2b 37 e8 	stw     r9,14312(r11)
 1801938:	3c 00 01 81 	lis     r0,385
 180193c:	7c 0b 03 78 	mr      r11,r0
 1801940:	81 2b 37 e8 	lwz     r9,14312(r11)
 1801944:	3c 00 01 81 	lis     r0,385
 1801948:	7c 0b 03 78 	mr      r11,r0
 180194c:	91 2b 37 f0 	stw     r9,14320(r11)
 1801950:	3c 00 01 81 	lis     r0,385
 1801954:	7c 0b 03 78 	mr      r11,r0
 1801958:	81 2b 37 f0 	lwz     r9,14320(r11)
 180195c:	3c 00 01 81 	lis     r0,385
 1801960:	7c 0b 03 78 	mr      r11,r0
 1801964:	91 2b 37 5c 	stw     r9,14172(r11)
 1801968:	3c 00 01 81 	lis     r0,385
 180196c:	7c 0b 03 78 	mr      r11,r0
 1801970:	81 2b 37 5c 	lwz     r9,14172(r11)
 1801974:	3c 00 01 81 	lis     r0,385
 1801978:	7c 0b 03 78 	mr      r11,r0
 180197c:	91 2b 37 24 	stw     r9,14116(r11)
 1801980:	3c 00 01 81 	lis     r0,385
 1801984:	7c 0b 03 78 	mr      r11,r0
 1801988:	81 2b 37 24 	lwz     r9,14116(r11)
 180198c:	3c 00 01 81 	lis     r0,385
 1801990:	7c 0b 03 78 	mr      r11,r0
 1801994:	91 2b 38 0c 	stw     r9,14348(r11)
 1801998:	3c 00 01 81 	lis     r0,385
 180199c:	7c 0b 03 78 	mr      r11,r0
 18019a0:	81 2b 38 0c 	lwz     r9,14348(r11)
 18019a4:	3c 00 01 81 	lis     r0,385
 18019a8:	7c 0b 03 78 	mr      r11,r0
 18019ac:	91 2b 37 60 	stw     r9,14176(r11)
 18019b0:	3c 00 01 81 	lis     r0,385
 18019b4:	7c 0b 03 78 	mr      r11,r0
 18019b8:	81 2b 37 60 	lwz     r9,14176(r11)
 18019bc:	3c 00 01 81 	lis     r0,385
 18019c0:	7c 0b 03 78 	mr      r11,r0
 18019c4:	91 2b 37 20 	stw     r9,14112(r11)
 18019c8:	38 00 00 00 	li      r0,0
 18019cc:	90 1f 00 08 	stw     r0,8(r31)
 18019d0:	48 00 00 90 	b       1801a60 <reset+0x374>
 18019d4:	80 1f 00 08 	lwz     r0,8(r31)
 18019d8:	3d 20 01 81 	lis     r9,385
 18019dc:	39 29 38 7c 	addi    r9,r9,14460
 18019e0:	54 00 10 3a 	rlwinm  r0,r0,2,0,29
 18019e4:	7c 09 02 14 	add     r0,r9,r0
 18019e8:	39 20 00 00 	li      r9,0
 18019ec:	7c 0b 03 78 	mr      r11,r0
 18019f0:	91 2b 00 00 	stw     r9,0(r11)
 18019f4:	80 1f 00 08 	lwz     r0,8(r31)
 18019f8:	3d 20 01 81 	lis     r9,385
 18019fc:	39 29 38 f0 	addi    r9,r9,14576
 1801a00:	54 00 10 3a 	rlwinm  r0,r0,2,0,29
 1801a04:	7c 09 02 14 	add     r0,r9,r0
 1801a08:	39 20 00 00 	li      r9,0
 1801a0c:	7c 0b 03 78 	mr      r11,r0
 1801a10:	91 2b 00 00 	stw     r9,0(r11)
 1801a14:	80 1f 00 08 	lwz     r0,8(r31)
 1801a18:	3d 20 01 81 	lis     r9,385
 1801a1c:	39 29 38 94 	addi    r9,r9,14484
 1801a20:	54 00 10 3a 	rlwinm  r0,r0,2,0,29
 1801a24:	7c 09 02 14 	add     r0,r9,r0
 1801a28:	39 20 00 00 	li      r9,0
 1801a2c:	7c 0b 03 78 	mr      r11,r0
 1801a30:	91 2b 00 00 	stw     r9,0(r11)
 1801a34:	80 1f 00 08 	lwz     r0,8(r31)
 1801a38:	3d 20 01 81 	lis     r9,385
 1801a3c:	39 29 38 d8 	addi    r9,r9,14552
 1801a40:	54 00 10 3a 	rlwinm  r0,r0,2,0,29
 1801a44:	7c 09 02 14 	add     r0,r9,r0
 1801a48:	39 20 00 00 	li      r9,0
 1801a4c:	7c 0b 03 78 	mr      r11,r0
 1801a50:	91 2b 00 00 	stw     r9,0(r11)
 1801a54:	80 1f 00 08 	lwz     r0,8(r31)
 1801a58:	30 00 00 01 	addic   r0,r0,1
 1801a5c:	90 1f 00 08 	stw     r0,8(r31)
 1801a60:	80 1f 00 08 	lwz     r0,8(r31)
 1801a64:	2f 80 00 05 	cmpwi   cr7,r0,5
 1801a68:	40 9d ff 6c 	ble+    cr7,18019d4 <reset+0x2e8>
 1801a6c:	38 00 00 00 	li      r0,0
 1801a70:	90 1f 00 08 	stw     r0,8(r31)
 1801a74:	48 00 00 90 	b       1801b04 <reset+0x418>
 1801a78:	80 1f 00 08 	lwz     r0,8(r31)
 1801a7c:	3d 20 01 81 	lis     r9,385
 1801a80:	39 29 39 ac 	addi    r9,r9,14764
 1801a84:	54 00 10 3a 	rlwinm  r0,r0,2,0,29
 1801a88:	7c 09 02 14 	add     r0,r9,r0
 1801a8c:	39 20 00 00 	li      r9,0
 1801a90:	7c 0b 03 78 	mr      r11,r0
 1801a94:	91 2b 00 00 	stw     r9,0(r11)
 1801a98:	80 1f 00 08 	lwz     r0,8(r31)
 1801a9c:	3d 20 01 81 	lis     r9,385
 1801aa0:	39 29 39 dc 	addi    r9,r9,14812
 1801aa4:	54 00 10 3a 	rlwinm  r0,r0,2,0,29
 1801aa8:	7c 09 02 14 	add     r0,r9,r0
 1801aac:	39 20 00 00 	li      r9,0
 1801ab0:	7c 0b 03 78 	mr      r11,r0
 1801ab4:	91 2b 00 00 	stw     r9,0(r11)
 1801ab8:	80 1f 00 08 	lwz     r0,8(r31)
 1801abc:	3d 20 01 81 	lis     r9,385
 1801ac0:	39 29 39 c4 	addi    r9,r9,14788
 1801ac4:	54 00 10 3a 	rlwinm  r0,r0,2,0,29
 1801ac8:	7c 09 02 14 	add     r0,r9,r0
 1801acc:	39 20 00 00 	li      r9,0
 1801ad0:	7c 0b 03 78 	mr      r11,r0
 1801ad4:	91 2b 00 00 	stw     r9,0(r11)
 1801ad8:	80 1f 00 08 	lwz     r0,8(r31)
 1801adc:	3d 20 01 81 	lis     r9,385
 1801ae0:	39 29 39 68 	addi    r9,r9,14696
 1801ae4:	54 00 10 3a 	rlwinm  r0,r0,2,0,29
 1801ae8:	7c 09 02 14 	add     r0,r9,r0
 1801aec:	39 20 00 00 	li      r9,0
 1801af0:	7c 0b 03 78 	mr      r11,r0
 1801af4:	91 2b 00 00 	stw     r9,0(r11)
 1801af8:	80 1f 00 08 	lwz     r0,8(r31)
 1801afc:	30 00 00 01 	addic   r0,r0,1
 1801b00:	90 1f 00 08 	stw     r0,8(r31)
 1801b04:	80 1f 00 08 	lwz     r0,8(r31)
 1801b08:	2f 80 00 05 	cmpwi   cr7,r0,5
 1801b0c:	40 9d ff 6c 	ble+    cr7,1801a78 <reset+0x38c>
 1801b10:	38 00 00 00 	li      r0,0
 1801b14:	90 1f 00 08 	stw     r0,8(r31)
 1801b18:	48 00 00 30 	b       1801b48 <reset+0x45c>
 1801b1c:	80 1f 00 08 	lwz     r0,8(r31)
 1801b20:	3d 20 01 81 	lis     r9,385
 1801b24:	39 29 39 08 	addi    r9,r9,14600
 1801b28:	54 00 10 3a 	rlwinm  r0,r0,2,0,29
 1801b2c:	7c 09 02 14 	add     r0,r9,r0
 1801b30:	39 20 00 00 	li      r9,0
 1801b34:	7c 0b 03 78 	mr      r11,r0
 1801b38:	91 2b 00 00 	stw     r9,0(r11)
 1801b3c:	80 1f 00 08 	lwz     r0,8(r31)
 1801b40:	30 00 00 01 	addic   r0,r0,1
 1801b44:	90 1f 00 08 	stw     r0,8(r31)
 1801b48:	80 1f 00 08 	lwz     r0,8(r31)
 1801b4c:	2f 80 00 16 	cmpwi   cr7,r0,22
 1801b50:	40 9d ff cc 	ble+    cr7,1801b1c <reset+0x430>
 1801b54:	38 00 00 00 	li      r0,0
 1801b58:	90 1f 00 08 	stw     r0,8(r31)
 1801b5c:	48 00 00 50 	b       1801bac <reset+0x4c0>
 1801b60:	80 1f 00 08 	lwz     r0,8(r31)
 1801b64:	3d 20 01 81 	lis     r9,385
 1801b68:	39 29 39 80 	addi    r9,r9,14720
 1801b6c:	54 00 10 3a 	rlwinm  r0,r0,2,0,29
 1801b70:	7c 09 02 14 	add     r0,r9,r0
 1801b74:	39 20 00 00 	li      r9,0
 1801b78:	7c 0b 03 78 	mr      r11,r0
 1801b7c:	91 2b 00 00 	stw     r9,0(r11)
 1801b80:	80 1f 00 08 	lwz     r0,8(r31)
 1801b84:	3d 20 01 81 	lis     r9,385
 1801b88:	39 29 38 ac 	addi    r9,r9,14508
 1801b8c:	54 00 10 3a 	rlwinm  r0,r0,2,0,29
 1801b90:	7c 09 02 14 	add     r0,r9,r0
 1801b94:	39 20 00 00 	li      r9,0
 1801b98:	7c 0b 03 78 	mr      r11,r0
 1801b9c:	91 2b 00 00 	stw     r9,0(r11)
 1801ba0:	80 1f 00 08 	lwz     r0,8(r31)
 1801ba4:	30 00 00 01 	addic   r0,r0,1
 1801ba8:	90 1f 00 08 	stw     r0,8(r31)
 1801bac:	80 1f 00 08 	lwz     r0,8(r31)
 1801bb0:	2f 80 00 0a 	cmpwi   cr7,r0,10
 1801bb4:	40 9d ff ac 	ble+    cr7,1801b60 <reset+0x474>
 1801bb8:	39 7f 00 20 	addi    r11,r31,32
 1801bbc:	83 eb ff fc 	lwz     r31,-4(r11)
 1801bc0:	7d 61 5b 78 	mr      r1,r11
 1801bc4:	4e 80 00 20 	blr

01801bc8 <filtez>:
 1801bc8:	94 21 ff d8 	stwu    r1,-40(r1)
 1801bcc:	93 e1 00 24 	stw     r31,36(r1)
 1801bd0:	7c 3f 0b 78 	mr      r31,r1
 1801bd4:	90 7f 00 18 	stw     r3,24(r31)
 1801bd8:	90 9f 00 1c 	stw     r4,28(r31)
 1801bdc:	80 1f 00 18 	lwz     r0,24(r31)
 1801be0:	7c 0b 03 78 	mr      r11,r0
 1801be4:	81 2b 00 00 	lwz     r9,0(r11)
 1801be8:	80 1f 00 1c 	lwz     r0,28(r31)
 1801bec:	7c 0b 03 78 	mr      r11,r0
 1801bf0:	80 0b 00 00 	lwz     r0,0(r11)
 1801bf4:	7c 09 01 d6 	mullw   r0,r9,r0
 1801bf8:	90 1f 00 08 	stw     r0,8(r31)
 1801bfc:	80 1f 00 18 	lwz     r0,24(r31)
 1801c00:	30 00 00 04 	addic   r0,r0,4
 1801c04:	90 1f 00 18 	stw     r0,24(r31)
 1801c08:	80 1f 00 1c 	lwz     r0,28(r31)
 1801c0c:	30 00 00 04 	addic   r0,r0,4
 1801c10:	90 1f 00 1c 	stw     r0,28(r31)
 1801c14:	38 00 00 01 	li      r0,1
 1801c18:	90 1f 00 0c 	stw     r0,12(r31)
 1801c1c:	48 00 00 50 	b       1801c6c <filtez+0xa4>
 1801c20:	80 1f 00 18 	lwz     r0,24(r31)
 1801c24:	7c 0b 03 78 	mr      r11,r0
 1801c28:	81 2b 00 00 	lwz     r9,0(r11)
 1801c2c:	80 1f 00 1c 	lwz     r0,28(r31)
 1801c30:	7c 0b 03 78 	mr      r11,r0
 1801c34:	80 0b 00 00 	lwz     r0,0(r11)
 1801c38:	7c 09 01 d6 	mullw   r0,r9,r0
 1801c3c:	81 3f 00 08 	lwz     r9,8(r31)
 1801c40:	7c 09 02 14 	add     r0,r9,r0
 1801c44:	90 1f 00 08 	stw     r0,8(r31)
 1801c48:	80 1f 00 18 	lwz     r0,24(r31)
 1801c4c:	30 00 00 04 	addic   r0,r0,4
 1801c50:	90 1f 00 18 	stw     r0,24(r31)
 1801c54:	80 1f 00 1c 	lwz     r0,28(r31)
 1801c58:	30 00 00 04 	addic   r0,r0,4
 1801c5c:	90 1f 00 1c 	stw     r0,28(r31)
 1801c60:	80 1f 00 0c 	lwz     r0,12(r31)
 1801c64:	30 00 00 01 	addic   r0,r0,1
 1801c68:	90 1f 00 0c 	stw     r0,12(r31)
 1801c6c:	80 1f 00 0c 	lwz     r0,12(r31)
 1801c70:	2f 80 00 05 	cmpwi   cr7,r0,5
 1801c74:	40 9d ff ac 	ble+    cr7,1801c20 <filtez+0x58>
 1801c78:	80 1f 00 08 	lwz     r0,8(r31)
 1801c7c:	7c 00 76 70 	srawi   r0,r0,14
 1801c80:	7c 03 03 78 	mr      r3,r0
 1801c84:	39 7f 00 28 	addi    r11,r31,40
 1801c88:	83 eb ff fc 	lwz     r31,-4(r11)
 1801c8c:	7d 61 5b 78 	mr      r1,r11
 1801c90:	4e 80 00 20 	blr

01801c94 <filtep>:
 1801c94:	94 21 ff d0 	stwu    r1,-48(r1)
 1801c98:	93 e1 00 2c 	stw     r31,44(r1)
 1801c9c:	7c 3f 0b 78 	mr      r31,r1
 1801ca0:	90 7f 00 18 	stw     r3,24(r31)
 1801ca4:	90 9f 00 1c 	stw     r4,28(r31)
 1801ca8:	90 bf 00 20 	stw     r5,32(r31)
 1801cac:	90 df 00 24 	stw     r6,36(r31)
 1801cb0:	80 1f 00 18 	lwz     r0,24(r31)
 1801cb4:	54 00 08 3c 	rlwinm  r0,r0,1,0,30
 1801cb8:	90 1f 00 0c 	stw     r0,12(r31)
 1801cbc:	81 3f 00 0c 	lwz     r9,12(r31)
 1801cc0:	80 1f 00 1c 	lwz     r0,28(r31)
 1801cc4:	7c 09 01 d6 	mullw   r0,r9,r0
 1801cc8:	90 1f 00 0c 	stw     r0,12(r31)
 1801ccc:	80 1f 00 20 	lwz     r0,32(r31)
 1801cd0:	54 00 08 3c 	rlwinm  r0,r0,1,0,30
 1801cd4:	90 1f 00 08 	stw     r0,8(r31)
 1801cd8:	81 3f 00 24 	lwz     r9,36(r31)
 1801cdc:	80 1f 00 08 	lwz     r0,8(r31)
 1801ce0:	7c 09 01 d6 	mullw   r0,r9,r0
 1801ce4:	81 3f 00 0c 	lwz     r9,12(r31)
 1801ce8:	7c 09 02 14 	add     r0,r9,r0
 1801cec:	90 1f 00 0c 	stw     r0,12(r31)
 1801cf0:	80 1f 00 0c 	lwz     r0,12(r31)
 1801cf4:	7c 00 7e 70 	srawi   r0,r0,15
 1801cf8:	7c 03 03 78 	mr      r3,r0
 1801cfc:	39 7f 00 30 	addi    r11,r31,48
 1801d00:	83 eb ff fc 	lwz     r31,-4(r11)
 1801d04:	7d 61 5b 78 	mr      r1,r11
 1801d08:	4e 80 00 20 	blr

01801d0c <quantl>:
 1801d0c:	94 21 ff d8 	stwu    r1,-40(r1)
 1801d10:	7c 08 02 a6 	mflr    r0
 1801d14:	90 01 00 2c 	stw     r0,44(r1)
 1801d18:	93 e1 00 24 	stw     r31,36(r1)
 1801d1c:	7c 3f 0b 78 	mr      r31,r1
 1801d20:	90 7f 00 18 	stw     r3,24(r31)
 1801d24:	90 9f 00 1c 	stw     r4,28(r31)
 1801d28:	80 7f 00 18 	lwz     r3,24(r31)
 1801d2c:	4b ff e4 f5 	bl      1800220 <my_abs>
 1801d30:	7c 60 1b 78 	mr      r0,r3
 1801d34:	90 1f 00 0c 	stw     r0,12(r31)
 1801d38:	38 00 00 00 	li      r0,0
 1801d3c:	90 1f 00 10 	stw     r0,16(r31)
 1801d40:	48 00 00 4c 	b       1801d8c <quantl+0x80>
 1801d44:	80 1f 00 10 	lwz     r0,16(r31)
 1801d48:	3d 20 01 81 	lis     r9,385
 1801d4c:	39 29 35 68 	addi    r9,r9,13672
 1801d50:	54 00 10 3a 	rlwinm  r0,r0,2,0,29
 1801d54:	7c 09 02 14 	add     r0,r9,r0
 1801d58:	7c 0b 03 78 	mr      r11,r0
 1801d5c:	81 2b 00 00 	lwz     r9,0(r11)
 1801d60:	80 1f 00 1c 	lwz     r0,28(r31)
 1801d64:	7c 09 01 d6 	mullw   r0,r9,r0
 1801d68:	7c 00 7e 70 	srawi   r0,r0,15
 1801d6c:	90 1f 00 08 	stw     r0,8(r31)
 1801d70:	81 3f 00 0c 	lwz     r9,12(r31)
 1801d74:	80 1f 00 08 	lwz     r0,8(r31)
 1801d78:	7f 89 00 00 	cmpw    cr7,r9,r0
 1801d7c:	40 9d 00 20 	ble-    cr7,1801d9c <quantl+0x90>
 1801d80:	80 1f 00 10 	lwz     r0,16(r31)
 1801d84:	30 00 00 01 	addic   r0,r0,1
 1801d88:	90 1f 00 10 	stw     r0,16(r31)
 1801d8c:	80 1f 00 10 	lwz     r0,16(r31)
 1801d90:	2f 80 00 1d 	cmpwi   cr7,r0,29
 1801d94:	40 9d ff b0 	ble+    cr7,1801d44 <quantl+0x38>
 1801d98:	48 00 00 08 	b       1801da0 <quantl+0x94>
 1801d9c:	60 00 00 00 	nop
 1801da0:	80 1f 00 18 	lwz     r0,24(r31)
 1801da4:	2f 80 00 00 	cmpwi   cr7,r0,0
 1801da8:	41 9c 00 28 	blt-    cr7,1801dd0 <quantl+0xc4>
 1801dac:	80 1f 00 10 	lwz     r0,16(r31)
 1801db0:	3d 20 01 81 	lis     r9,385
 1801db4:	39 29 35 e0 	addi    r9,r9,13792
 1801db8:	54 00 10 3a 	rlwinm  r0,r0,2,0,29
 1801dbc:	7c 09 02 14 	add     r0,r9,r0
 1801dc0:	7c 09 03 78 	mr      r9,r0
 1801dc4:	80 09 00 00 	lwz     r0,0(r9)
 1801dc8:	90 1f 00 14 	stw     r0,20(r31)
 1801dcc:	48 00 00 24 	b       1801df0 <quantl+0xe4>
 1801dd0:	80 1f 00 10 	lwz     r0,16(r31)
 1801dd4:	3d 20 01 81 	lis     r9,385
 1801dd8:	39 29 36 5c 	addi    r9,r9,13916
 1801ddc:	54 00 10 3a 	rlwinm  r0,r0,2,0,29
 1801de0:	7c 09 02 14 	add     r0,r9,r0
 1801de4:	7c 0b 03 78 	mr      r11,r0
 1801de8:	80 0b 00 00 	lwz     r0,0(r11)
 1801dec:	90 1f 00 14 	stw     r0,20(r31)
 1801df0:	80 1f 00 14 	lwz     r0,20(r31)
 1801df4:	7c 03 03 78 	mr      r3,r0
 1801df8:	39 7f 00 28 	addi    r11,r31,40
 1801dfc:	80 0b 00 04 	lwz     r0,4(r11)
 1801e00:	7c 08 03 a6 	mtlr    r0
 1801e04:	83 eb ff fc 	lwz     r31,-4(r11)
 1801e08:	7d 61 5b 78 	mr      r1,r11
 1801e0c:	4e 80 00 20 	blr

01801e10 <logscl>:
 1801e10:	94 21 ff d8 	stwu    r1,-40(r1)
 1801e14:	93 e1 00 24 	stw     r31,36(r1)
 1801e18:	7c 3f 0b 78 	mr      r31,r1
 1801e1c:	90 7f 00 18 	stw     r3,24(r31)
 1801e20:	90 9f 00 1c 	stw     r4,28(r31)
 1801e24:	80 1f 00 1c 	lwz     r0,28(r31)
 1801e28:	1c 00 00 7f 	mulli   r0,r0,127
 1801e2c:	7c 00 3e 70 	srawi   r0,r0,7
 1801e30:	90 1f 00 08 	stw     r0,8(r31)
 1801e34:	80 1f 00 18 	lwz     r0,24(r31)
 1801e38:	7c 00 16 70 	srawi   r0,r0,2
 1801e3c:	3d 20 01 81 	lis     r9,385
 1801e40:	39 29 34 88 	addi    r9,r9,13448
 1801e44:	54 00 10 3a 	rlwinm  r0,r0,2,0,29
 1801e48:	7c 09 02 14 	add     r0,r9,r0
 1801e4c:	7c 0b 03 78 	mr      r11,r0
 1801e50:	81 2b 00 00 	lwz     r9,0(r11)
 1801e54:	80 1f 00 08 	lwz     r0,8(r31)
 1801e58:	7c 09 02 14 	add     r0,r9,r0
 1801e5c:	90 1f 00 1c 	stw     r0,28(r31)
 1801e60:	80 1f 00 1c 	lwz     r0,28(r31)
 1801e64:	2f 80 00 00 	cmpwi   cr7,r0,0
 1801e68:	40 9c 00 0c 	bge-    cr7,1801e74 <logscl+0x64>
 1801e6c:	38 00 00 00 	li      r0,0
 1801e70:	90 1f 00 1c 	stw     r0,28(r31)
 1801e74:	80 1f 00 1c 	lwz     r0,28(r31)
 1801e78:	2f 80 48 00 	cmpwi   cr7,r0,18432
 1801e7c:	40 9d 00 0c 	ble-    cr7,1801e88 <logscl+0x78>
 1801e80:	38 00 48 00 	li      r0,18432
 1801e84:	90 1f 00 1c 	stw     r0,28(r31)
 1801e88:	80 1f 00 1c 	lwz     r0,28(r31)
 1801e8c:	7c 03 03 78 	mr      r3,r0
 1801e90:	39 7f 00 28 	addi    r11,r31,40
 1801e94:	83 eb ff fc 	lwz     r31,-4(r11)
 1801e98:	7d 61 5b 78 	mr      r1,r11
 1801e9c:	4e 80 00 20 	blr

01801ea0 <scalel>:
 1801ea0:	94 21 ff d8 	stwu    r1,-40(r1)
 1801ea4:	93 e1 00 24 	stw     r31,36(r1)
 1801ea8:	7c 3f 0b 78 	mr      r31,r1
 1801eac:	90 7f 00 18 	stw     r3,24(r31)
 1801eb0:	90 9f 00 1c 	stw     r4,28(r31)
 1801eb4:	80 1f 00 18 	lwz     r0,24(r31)
 1801eb8:	7c 00 36 70 	srawi   r0,r0,6
 1801ebc:	54 00 06 fe 	clrlwi  r0,r0,27
 1801ec0:	90 1f 00 10 	stw     r0,16(r31)
 1801ec4:	80 1f 00 18 	lwz     r0,24(r31)
 1801ec8:	7c 00 5e 70 	srawi   r0,r0,11
 1801ecc:	90 1f 00 0c 	stw     r0,12(r31)
 1801ed0:	80 1f 00 10 	lwz     r0,16(r31)
 1801ed4:	3d 20 01 81 	lis     r9,385
 1801ed8:	39 29 34 e8 	addi    r9,r9,13544
 1801edc:	54 00 10 3a 	rlwinm  r0,r0,2,0,29
 1801ee0:	7c 09 02 14 	add     r0,r9,r0
 1801ee4:	7c 0b 03 78 	mr      r11,r0
 1801ee8:	81 2b 00 00 	lwz     r9,0(r11)
 1801eec:	80 1f 00 1c 	lwz     r0,28(r31)
 1801ef0:	31 60 00 01 	addic   r11,r0,1
 1801ef4:	80 1f 00 0c 	lwz     r0,12(r31)
 1801ef8:	7c 00 58 50 	subf    r0,r0,r11
 1801efc:	7d 20 06 30 	sraw    r0,r9,r0
 1801f00:	90 1f 00 08 	stw     r0,8(r31)
 1801f04:	80 1f 00 08 	lwz     r0,8(r31)
 1801f08:	54 00 18 38 	rlwinm  r0,r0,3,0,28
 1801f0c:	7c 03 03 78 	mr      r3,r0
 1801f10:	39 7f 00 28 	addi    r11,r31,40
 1801f14:	83 eb ff fc 	lwz     r31,-4(r11)
 1801f18:	7d 61 5b 78 	mr      r1,r11
 1801f1c:	4e 80 00 20 	blr

01801f20 <upzero>:
 1801f20:	94 21 ff d0 	stwu    r1,-48(r1)
 1801f24:	93 e1 00 2c 	stw     r31,44(r1)
 1801f28:	7c 3f 0b 78 	mr      r31,r1
 1801f2c:	90 7f 00 18 	stw     r3,24(r31)
 1801f30:	90 9f 00 1c 	stw     r4,28(r31)
 1801f34:	90 bf 00 20 	stw     r5,32(r31)
 1801f38:	80 1f 00 18 	lwz     r0,24(r31)
 1801f3c:	2f 80 00 00 	cmpwi   cr7,r0,0
 1801f40:	40 9e 00 60 	bne-    cr7,1801fa0 <upzero+0x80>
 1801f44:	38 00 00 00 	li      r0,0
 1801f48:	90 1f 00 10 	stw     r0,16(r31)
 1801f4c:	48 00 00 44 	b       1801f90 <upzero+0x70>
 1801f50:	80 1f 00 10 	lwz     r0,16(r31)
 1801f54:	54 00 10 3a 	rlwinm  r0,r0,2,0,29
 1801f58:	81 3f 00 20 	lwz     r9,32(r31)
 1801f5c:	7c 09 02 14 	add     r0,r9,r0
 1801f60:	81 3f 00 10 	lwz     r9,16(r31)
 1801f64:	55 29 10 3a 	rlwinm  r9,r9,2,0,29
 1801f68:	81 7f 00 20 	lwz     r11,32(r31)
 1801f6c:	7d 2b 4a 14 	add     r9,r11,r9
 1801f70:	81 29 00 00 	lwz     r9,0(r9)
 1801f74:	1d 29 00 ff 	mulli   r9,r9,255
 1801f78:	7d 29 46 70 	srawi   r9,r9,8
 1801f7c:	7c 0b 03 78 	mr      r11,r0
 1801f80:	91 2b 00 00 	stw     r9,0(r11)
 1801f84:	80 1f 00 10 	lwz     r0,16(r31)
 1801f88:	30 00 00 01 	addic   r0,r0,1
 1801f8c:	90 1f 00 10 	stw     r0,16(r31)
 1801f90:	80 1f 00 10 	lwz     r0,16(r31)
 1801f94:	2f 80 00 05 	cmpwi   cr7,r0,5
 1801f98:	40 9d ff b8 	ble+    cr7,1801f50 <upzero+0x30>
 1801f9c:	48 00 00 ac 	b       1802048 <upzero+0x128>
 1801fa0:	38 00 00 00 	li      r0,0
 1801fa4:	90 1f 00 10 	stw     r0,16(r31)
 1801fa8:	48 00 00 94 	b       180203c <upzero+0x11c>
 1801fac:	80 1f 00 10 	lwz     r0,16(r31)
 1801fb0:	54 00 10 3a 	rlwinm  r0,r0,2,0,29
 1801fb4:	81 3f 00 1c 	lwz     r9,28(r31)
 1801fb8:	7c 09 02 14 	add     r0,r9,r0
 1801fbc:	7c 0b 03 78 	mr      r11,r0
 1801fc0:	81 2b 00 00 	lwz     r9,0(r11)
 1801fc4:	80 1f 00 18 	lwz     r0,24(r31)
 1801fc8:	7c 09 01 d6 	mullw   r0,r9,r0
 1801fcc:	2f 80 00 00 	cmpwi   cr7,r0,0
 1801fd0:	41 9c 00 10 	blt-    cr7,1801fe0 <upzero+0xc0>
 1801fd4:	38 00 00 80 	li      r0,128
 1801fd8:	90 1f 00 0c 	stw     r0,12(r31)
 1801fdc:	48 00 00 0c 	b       1801fe8 <upzero+0xc8>
 1801fe0:	38 00 ff 80 	li      r0,-128
 1801fe4:	90 1f 00 0c 	stw     r0,12(r31)
 1801fe8:	80 1f 00 10 	lwz     r0,16(r31)
 1801fec:	54 00 10 3a 	rlwinm  r0,r0,2,0,29
 1801ff0:	81 3f 00 20 	lwz     r9,32(r31)
 1801ff4:	7c 09 02 14 	add     r0,r9,r0
 1801ff8:	7c 09 03 78 	mr      r9,r0
 1801ffc:	80 09 00 00 	lwz     r0,0(r9)
 1802000:	1c 00 00 ff 	mulli   r0,r0,255
 1802004:	7c 00 46 70 	srawi   r0,r0,8
 1802008:	90 1f 00 08 	stw     r0,8(r31)
 180200c:	80 1f 00 10 	lwz     r0,16(r31)
 1802010:	54 00 10 3a 	rlwinm  r0,r0,2,0,29
 1802014:	81 3f 00 20 	lwz     r9,32(r31)
 1802018:	7c 09 02 14 	add     r0,r9,r0
 180201c:	81 7f 00 0c 	lwz     r11,12(r31)
 1802020:	81 3f 00 08 	lwz     r9,8(r31)
 1802024:	7d 2b 4a 14 	add     r9,r11,r9
 1802028:	7c 0b 03 78 	mr      r11,r0
 180202c:	91 2b 00 00 	stw     r9,0(r11)
 1802030:	80 1f 00 10 	lwz     r0,16(r31)
 1802034:	30 00 00 01 	addic   r0,r0,1
 1802038:	90 1f 00 10 	stw     r0,16(r31)
 180203c:	80 1f 00 10 	lwz     r0,16(r31)
 1802040:	2f 80 00 05 	cmpwi   cr7,r0,5
 1802044:	40 9d ff 68 	ble+    cr7,1801fac <upzero+0x8c>
 1802048:	80 1f 00 1c 	lwz     r0,28(r31)
 180204c:	30 00 00 14 	addic   r0,r0,20
 1802050:	81 3f 00 1c 	lwz     r9,28(r31)
 1802054:	39 29 00 10 	addi    r9,r9,16
 1802058:	81 29 00 00 	lwz     r9,0(r9)
 180205c:	7c 0b 03 78 	mr      r11,r0
 1802060:	91 2b 00 00 	stw     r9,0(r11)
 1802064:	80 1f 00 1c 	lwz     r0,28(r31)
 1802068:	30 00 00 10 	addic   r0,r0,16
 180206c:	81 3f 00 1c 	lwz     r9,28(r31)
 1802070:	39 29 00 0c 	addi    r9,r9,12
 1802074:	81 29 00 00 	lwz     r9,0(r9)
 1802078:	7c 0b 03 78 	mr      r11,r0
 180207c:	91 2b 00 00 	stw     r9,0(r11)
 1802080:	80 1f 00 1c 	lwz     r0,28(r31)
 1802084:	30 00 00 0c 	addic   r0,r0,12
 1802088:	81 3f 00 1c 	lwz     r9,28(r31)
 180208c:	39 29 00 08 	addi    r9,r9,8
 1802090:	81 29 00 00 	lwz     r9,0(r9)
 1802094:	7c 0b 03 78 	mr      r11,r0
 1802098:	91 2b 00 00 	stw     r9,0(r11)
 180209c:	80 1f 00 1c 	lwz     r0,28(r31)
 18020a0:	30 00 00 04 	addic   r0,r0,4
 18020a4:	81 3f 00 1c 	lwz     r9,28(r31)
 18020a8:	81 29 00 00 	lwz     r9,0(r9)
 18020ac:	7c 0b 03 78 	mr      r11,r0
 18020b0:	91 2b 00 00 	stw     r9,0(r11)
 18020b4:	80 1f 00 1c 	lwz     r0,28(r31)
 18020b8:	81 3f 00 18 	lwz     r9,24(r31)
 18020bc:	7c 0b 03 78 	mr      r11,r0
 18020c0:	91 2b 00 00 	stw     r9,0(r11)
 18020c4:	39 7f 00 30 	addi    r11,r31,48
 18020c8:	83 eb ff fc 	lwz     r31,-4(r11)
 18020cc:	7d 61 5b 78 	mr      r1,r11
 18020d0:	4e 80 00 20 	blr

018020d4 <uppol2>:
 18020d4:	94 21 ff c8 	stwu    r1,-56(r1)
 18020d8:	93 e1 00 34 	stw     r31,52(r1)
 18020dc:	7c 3f 0b 78 	mr      r31,r1
 18020e0:	90 7f 00 18 	stw     r3,24(r31)
 18020e4:	90 9f 00 1c 	stw     r4,28(r31)
 18020e8:	90 bf 00 20 	stw     r5,32(r31)
 18020ec:	90 df 00 24 	stw     r6,36(r31)
 18020f0:	90 ff 00 28 	stw     r7,40(r31)
 18020f4:	80 1f 00 18 	lwz     r0,24(r31)
 18020f8:	54 00 10 3a 	rlwinm  r0,r0,2,0,29
 18020fc:	90 1f 00 10 	stw     r0,16(r31)
 1802100:	81 3f 00 20 	lwz     r9,32(r31)
 1802104:	80 1f 00 24 	lwz     r0,36(r31)
 1802108:	7c 09 01 d6 	mullw   r0,r9,r0
 180210c:	2f 80 00 00 	cmpwi   cr7,r0,0
 1802110:	41 9c 00 10 	blt-    cr7,1802120 <uppol2+0x4c>
 1802114:	80 1f 00 10 	lwz     r0,16(r31)
 1802118:	7c 00 00 d0 	neg     r0,r0
 180211c:	90 1f 00 10 	stw     r0,16(r31)
 1802120:	80 1f 00 10 	lwz     r0,16(r31)
 1802124:	7c 00 3e 70 	srawi   r0,r0,7
 1802128:	90 1f 00 10 	stw     r0,16(r31)
 180212c:	81 3f 00 20 	lwz     r9,32(r31)
 1802130:	80 1f 00 28 	lwz     r0,40(r31)
 1802134:	7c 09 01 d6 	mullw   r0,r9,r0
 1802138:	2f 80 00 00 	cmpwi   cr7,r0,0
 180213c:	41 9c 00 14 	blt-    cr7,1802150 <uppol2+0x7c>
 1802140:	80 1f 00 10 	lwz     r0,16(r31)
 1802144:	30 00 00 80 	addic   r0,r0,128
 1802148:	90 1f 00 0c 	stw     r0,12(r31)
 180214c:	48 00 00 10 	b       180215c <uppol2+0x88>
 1802150:	80 1f 00 10 	lwz     r0,16(r31)
 1802154:	30 00 ff 80 	addic   r0,r0,-128
 1802158:	90 1f 00 0c 	stw     r0,12(r31)
 180215c:	80 1f 00 1c 	lwz     r0,28(r31)
 1802160:	1c 00 00 7f 	mulli   r0,r0,127
 1802164:	7c 09 3e 70 	srawi   r9,r0,7
 1802168:	80 1f 00 0c 	lwz     r0,12(r31)
 180216c:	7c 09 02 14 	add     r0,r9,r0
 1802170:	90 1f 00 08 	stw     r0,8(r31)
 1802174:	80 1f 00 08 	lwz     r0,8(r31)
 1802178:	2f 80 30 00 	cmpwi   cr7,r0,12288
 180217c:	40 9d 00 0c 	ble-    cr7,1802188 <uppol2+0xb4>
 1802180:	38 00 30 00 	li      r0,12288
 1802184:	90 1f 00 08 	stw     r0,8(r31)
 1802188:	81 3f 00 08 	lwz     r9,8(r31)
 180218c:	38 00 d0 00 	li      r0,-12288
 1802190:	7f 89 00 00 	cmpw    cr7,r9,r0
 1802194:	40 9c 00 0c 	bge-    cr7,18021a0 <uppol2+0xcc>
 1802198:	38 00 d0 00 	li      r0,-12288
 180219c:	90 1f 00 08 	stw     r0,8(r31)
 18021a0:	80 1f 00 08 	lwz     r0,8(r31)
 18021a4:	7c 03 03 78 	mr      r3,r0
 18021a8:	39 7f 00 38 	addi    r11,r31,56
 18021ac:	83 eb ff fc 	lwz     r31,-4(r11)
 18021b0:	7d 61 5b 78 	mr      r1,r11
 18021b4:	4e 80 00 20 	blr

018021b8 <uppol1>:
 18021b8:	94 21 ff d0 	stwu    r1,-48(r1)
 18021bc:	93 e1 00 2c 	stw     r31,44(r1)
 18021c0:	7c 3f 0b 78 	mr      r31,r1
 18021c4:	90 7f 00 18 	stw     r3,24(r31)
 18021c8:	90 9f 00 1c 	stw     r4,28(r31)
 18021cc:	90 bf 00 20 	stw     r5,32(r31)
 18021d0:	90 df 00 24 	stw     r6,36(r31)
 18021d4:	80 1f 00 18 	lwz     r0,24(r31)
 18021d8:	1c 00 00 ff 	mulli   r0,r0,255
 18021dc:	7c 00 46 70 	srawi   r0,r0,8
 18021e0:	90 1f 00 10 	stw     r0,16(r31)
 18021e4:	81 3f 00 20 	lwz     r9,32(r31)
 18021e8:	80 1f 00 24 	lwz     r0,36(r31)
 18021ec:	7c 09 01 d6 	mullw   r0,r9,r0
 18021f0:	2f 80 00 00 	cmpwi   cr7,r0,0
 18021f4:	41 9c 00 14 	blt-    cr7,1802208 <uppol1+0x50>
 18021f8:	80 1f 00 10 	lwz     r0,16(r31)
 18021fc:	30 00 00 c0 	addic   r0,r0,192
 1802200:	90 1f 00 08 	stw     r0,8(r31)
 1802204:	48 00 00 10 	b       1802214 <uppol1+0x5c>
 1802208:	80 1f 00 10 	lwz     r0,16(r31)
 180220c:	30 00 ff 40 	addic   r0,r0,-192
 1802210:	90 1f 00 08 	stw     r0,8(r31)
 1802214:	80 1f 00 1c 	lwz     r0,28(r31)
 1802218:	20 00 3c 00 	subfic  r0,r0,15360
 180221c:	90 1f 00 0c 	stw     r0,12(r31)
 1802220:	81 3f 00 08 	lwz     r9,8(r31)
 1802224:	80 1f 00 0c 	lwz     r0,12(r31)
 1802228:	7f 89 00 00 	cmpw    cr7,r9,r0
 180222c:	40 9d 00 0c 	ble-    cr7,1802238 <uppol1+0x80>
 1802230:	80 1f 00 0c 	lwz     r0,12(r31)
 1802234:	90 1f 00 08 	stw     r0,8(r31)
 1802238:	80 1f 00 0c 	lwz     r0,12(r31)
 180223c:	7d 20 00 d0 	neg     r9,r0
 1802240:	80 1f 00 08 	lwz     r0,8(r31)
 1802244:	7f 89 00 00 	cmpw    cr7,r9,r0
 1802248:	40 9d 00 10 	ble-    cr7,1802258 <uppol1+0xa0>
 180224c:	80 1f 00 0c 	lwz     r0,12(r31)
 1802250:	7c 00 00 d0 	neg     r0,r0
 1802254:	90 1f 00 08 	stw     r0,8(r31)
 1802258:	80 1f 00 08 	lwz     r0,8(r31)
 180225c:	7c 03 03 78 	mr      r3,r0
 1802260:	39 7f 00 30 	addi    r11,r31,48
 1802264:	83 eb ff fc 	lwz     r31,-4(r11)
 1802268:	7d 61 5b 78 	mr      r1,r11
 180226c:	4e 80 00 20 	blr

01802270 <logsch>:
 1802270:	94 21 ff d8 	stwu    r1,-40(r1)
 1802274:	93 e1 00 24 	stw     r31,36(r1)
 1802278:	7c 3f 0b 78 	mr      r31,r1
 180227c:	90 7f 00 18 	stw     r3,24(r31)
 1802280:	90 9f 00 1c 	stw     r4,28(r31)
 1802284:	80 1f 00 1c 	lwz     r0,28(r31)
 1802288:	1c 00 00 7f 	mulli   r0,r0,127
 180228c:	7c 00 3e 70 	srawi   r0,r0,7
 1802290:	90 1f 00 08 	stw     r0,8(r31)
 1802294:	80 1f 00 18 	lwz     r0,24(r31)
 1802298:	3d 20 01 81 	lis     r9,385
 180229c:	39 29 36 e8 	addi    r9,r9,14056
 18022a0:	54 00 10 3a 	rlwinm  r0,r0,2,0,29
 18022a4:	7c 09 02 14 	add     r0,r9,r0
 18022a8:	7c 0b 03 78 	mr      r11,r0
 18022ac:	81 2b 00 00 	lwz     r9,0(r11)
 18022b0:	80 1f 00 08 	lwz     r0,8(r31)
 18022b4:	7c 09 02 14 	add     r0,r9,r0
 18022b8:	90 1f 00 1c 	stw     r0,28(r31)
 18022bc:	80 1f 00 1c 	lwz     r0,28(r31)
 18022c0:	2f 80 00 00 	cmpwi   cr7,r0,0
 18022c4:	40 9c 00 0c 	bge-    cr7,18022d0 <logsch+0x60>
 18022c8:	38 00 00 00 	li      r0,0
 18022cc:	90 1f 00 1c 	stw     r0,28(r31)
 18022d0:	80 1f 00 1c 	lwz     r0,28(r31)
 18022d4:	2f 80 58 00 	cmpwi   cr7,r0,22528
 18022d8:	40 9d 00 0c 	ble-    cr7,18022e4 <logsch+0x74>
 18022dc:	38 00 58 00 	li      r0,22528
 18022e0:	90 1f 00 1c 	stw     r0,28(r31)
 18022e4:	80 1f 00 1c 	lwz     r0,28(r31)
 18022e8:	7c 03 03 78 	mr      r3,r0
 18022ec:	39 7f 00 28 	addi    r11,r31,40
 18022f0:	83 eb ff fc 	lwz     r31,-4(r11)
 18022f4:	7d 61 5b 78 	mr      r1,r11
 18022f8:	4e 80 00 20 	blr

018022fc <main>:
 18022fc:	94 21 ff e0 	stwu    r1,-32(r1)
 1802300:	7c 08 02 a6 	mflr    r0
 1802304:	90 01 00 24 	stw     r0,36(r1)
 1802308:	93 c1 00 18 	stw     r30,24(r1)
 180230c:	93 e1 00 1c 	stw     r31,28(r1)
 1802310:	7c 3f 0b 78 	mr      r31,r1
 1802314:	48 00 02 6d 	bl      1802580 <__eabi>
 1802318:	38 00 00 32 	li      r0,50
 180231c:	90 1f 00 08 	stw     r0,8(r31)
 1802320:	48 00 01 b8 	b       18024d8 <main+0x1dc>
 1802324:	4b ff f3 c9 	bl      18016ec <reset>
 1802328:	38 00 00 0a 	li      r0,10
 180232c:	90 1f 00 10 	stw     r0,16(r31)
 1802330:	38 00 07 d0 	li      r0,2000
 1802334:	90 1f 00 0c 	stw     r0,12(r31)
 1802338:	38 00 00 00 	li      r0,0
 180233c:	90 1f 00 14 	stw     r0,20(r31)
 1802340:	48 00 00 50 	b       1802390 <main+0x94>
 1802344:	83 df 00 14 	lwz     r30,20(r31)
 1802348:	80 1f 00 0c 	lwz     r0,12(r31)
 180234c:	1d 20 0c 45 	mulli   r9,r0,3141
 1802350:	80 1f 00 14 	lwz     r0,20(r31)
 1802354:	7c 09 01 d6 	mullw   r0,r9,r0
 1802358:	7c 03 03 78 	mr      r3,r0
 180235c:	4b ff e0 b1 	bl      180040c <my_cos>
 1802360:	7c 69 1b 78 	mr      r9,r3
 1802364:	80 1f 00 10 	lwz     r0,16(r31)
 1802368:	7d 29 01 d6 	mullw   r9,r9,r0
 180236c:	3c 00 01 81 	lis     r0,385
 1802370:	31 60 38 40 	addic   r11,r0,14400
 1802374:	57 c0 10 3a 	rlwinm  r0,r30,2,0,29
 1802378:	7c 0b 02 14 	add     r0,r11,r0
 180237c:	7c 0b 03 78 	mr      r11,r0
 1802380:	91 2b 00 00 	stw     r9,0(r11)
 1802384:	80 1f 00 14 	lwz     r0,20(r31)
 1802388:	30 00 00 01 	addic   r0,r0,1
 180238c:	90 1f 00 14 	stw     r0,20(r31)
 1802390:	80 1f 00 14 	lwz     r0,20(r31)
 1802394:	2f 80 00 02 	cmpwi   cr7,r0,2
 1802398:	40 9d ff ac 	ble+    cr7,1802344 <main+0x48>
 180239c:	38 00 00 00 	li      r0,0
 18023a0:	90 1f 00 14 	stw     r0,20(r31)
 18023a4:	48 00 00 80 	b       1802424 <main+0x128>
 18023a8:	80 1f 00 14 	lwz     r0,20(r31)
 18023ac:	7c 1e 0e 70 	srawi   r30,r0,1
 18023b0:	7f de 01 94 	addze   r30,r30
 18023b4:	80 1f 00 14 	lwz     r0,20(r31)
 18023b8:	3d 20 01 81 	lis     r9,385
 18023bc:	39 29 38 40 	addi    r9,r9,14400
 18023c0:	54 00 10 3a 	rlwinm  r0,r0,2,0,29
 18023c4:	7c 09 02 14 	add     r0,r9,r0
 18023c8:	7c 0b 03 78 	mr      r11,r0
 18023cc:	81 2b 00 00 	lwz     r9,0(r11)
 18023d0:	80 1f 00 14 	lwz     r0,20(r31)
 18023d4:	30 00 00 01 	addic   r0,r0,1
 18023d8:	3d 60 01 81 	lis     r11,385
 18023dc:	39 6b 38 40 	addi    r11,r11,14400
 18023e0:	54 00 10 3a 	rlwinm  r0,r0,2,0,29
 18023e4:	7c 0b 02 14 	add     r0,r11,r0
 18023e8:	7c 0b 03 78 	mr      r11,r0
 18023ec:	80 0b 00 00 	lwz     r0,0(r11)
 18023f0:	7d 23 4b 78 	mr      r3,r9
 18023f4:	7c 04 03 78 	mr      r4,r0
 18023f8:	4b ff e0 5d 	bl      1800454 <encode>
 18023fc:	7c 69 1b 78 	mr      r9,r3
 1802400:	3c 00 01 81 	lis     r0,385
 1802404:	31 60 38 58 	addic   r11,r0,14424
 1802408:	57 c0 10 3a 	rlwinm  r0,r30,2,0,29
 180240c:	7c 0b 02 14 	add     r0,r11,r0
 1802410:	7c 0b 03 78 	mr      r11,r0
 1802414:	91 2b 00 00 	stw     r9,0(r11)
 1802418:	80 1f 00 14 	lwz     r0,20(r31)
 180241c:	30 00 00 02 	addic   r0,r0,2
 1802420:	90 1f 00 14 	stw     r0,20(r31)
 1802424:	80 1f 00 14 	lwz     r0,20(r31)
 1802428:	2f 80 00 03 	cmpwi   cr7,r0,3
 180242c:	40 9d ff 7c 	ble+    cr7,18023a8 <main+0xac>
 1802430:	38 00 00 00 	li      r0,0
 1802434:	90 1f 00 14 	stw     r0,20(r31)
 1802438:	48 00 00 88 	b       18024c0 <main+0x1c4>
 180243c:	80 1f 00 14 	lwz     r0,20(r31)
 1802440:	7c 00 0e 70 	srawi   r0,r0,1
 1802444:	7c 00 01 94 	addze   r0,r0
 1802448:	3d 20 01 81 	lis     r9,385
 180244c:	39 29 38 58 	addi    r9,r9,14424
 1802450:	54 00 10 3a 	rlwinm  r0,r0,2,0,29
 1802454:	7c 09 02 14 	add     r0,r9,r0
 1802458:	7c 09 03 78 	mr      r9,r0
 180245c:	80 09 00 00 	lwz     r0,0(r9)
 1802460:	7c 03 03 78 	mr      r3,r0
 1802464:	4b ff e9 5d 	bl      1800dc0 <decode>
 1802468:	80 1f 00 14 	lwz     r0,20(r31)
 180246c:	3d 20 01 81 	lis     r9,385
 1802470:	81 29 37 50 	lwz     r9,14160(r9)
 1802474:	3d 60 01 81 	lis     r11,385
 1802478:	39 6b 38 64 	addi    r11,r11,14436
 180247c:	54 00 10 3a 	rlwinm  r0,r0,2,0,29
 1802480:	7c 0b 02 14 	add     r0,r11,r0
 1802484:	7c 0b 03 78 	mr      r11,r0
 1802488:	91 2b 00 00 	stw     r9,0(r11)
 180248c:	80 1f 00 14 	lwz     r0,20(r31)
 1802490:	30 00 00 01 	addic   r0,r0,1
 1802494:	3d 20 01 81 	lis     r9,385
 1802498:	81 29 37 84 	lwz     r9,14212(r9)
 180249c:	3d 60 01 81 	lis     r11,385
 18024a0:	39 6b 38 64 	addi    r11,r11,14436
 18024a4:	54 00 10 3a 	rlwinm  r0,r0,2,0,29
 18024a8:	7c 0b 02 14 	add     r0,r11,r0
 18024ac:	7c 0b 03 78 	mr      r11,r0
 18024b0:	91 2b 00 00 	stw     r9,0(r11)
 18024b4:	80 1f 00 14 	lwz     r0,20(r31)
 18024b8:	30 00 00 02 	addic   r0,r0,2
 18024bc:	90 1f 00 14 	stw     r0,20(r31)
 18024c0:	80 1f 00 14 	lwz     r0,20(r31)
 18024c4:	2f 80 00 03 	cmpwi   cr7,r0,3
 18024c8:	40 9d ff 74 	ble+    cr7,180243c <main+0x140>
 18024cc:	80 1f 00 08 	lwz     r0,8(r31)
 18024d0:	30 00 ff ff 	addic   r0,r0,-1
 18024d4:	90 1f 00 08 	stw     r0,8(r31)
 18024d8:	80 1f 00 08 	lwz     r0,8(r31)
 18024dc:	2f 80 00 00 	cmpwi   cr7,r0,0
 18024e0:	40 9e fe 44 	bne+    cr7,1802324 <main+0x28>
 18024e4:	80 1f 00 14 	lwz     r0,20(r31)
 18024e8:	3d 20 01 81 	lis     r9,385
 18024ec:	39 29 38 64 	addi    r9,r9,14436
 18024f0:	54 00 10 3a 	rlwinm  r0,r0,2,0,29
 18024f4:	7c 09 02 14 	add     r0,r9,r0
 18024f8:	7c 0b 03 78 	mr      r11,r0
 18024fc:	81 2b 00 00 	lwz     r9,0(r11)
 1802500:	80 1f 00 14 	lwz     r0,20(r31)
 1802504:	30 00 00 01 	addic   r0,r0,1
 1802508:	3d 60 01 81 	lis     r11,385
 180250c:	39 6b 38 64 	addi    r11,r11,14436
 1802510:	54 00 10 3a 	rlwinm  r0,r0,2,0,29
 1802514:	7c 0b 02 14 	add     r0,r11,r0
 1802518:	7c 0b 03 78 	mr      r11,r0
 180251c:	80 0b 00 00 	lwz     r0,0(r11)
 1802520:	7c 09 02 14 	add     r0,r9,r0
 1802524:	7c 03 03 78 	mr      r3,r0
 1802528:	39 7f 00 20 	addi    r11,r31,32
 180252c:	80 0b 00 04 	lwz     r0,4(r11)
 1802530:	7c 08 03 a6 	mtlr    r0
 1802534:	83 cb ff f8 	lwz     r30,-8(r11)
 1802538:	83 eb ff fc 	lwz     r31,-4(r11)
 180253c:	7d 61 5b 78 	mr      r1,r11
 1802540:	4e 80 00 20 	blr

01802544 <_exit>:
 1802544:	94 21 ff e8 	stwu    r1,-24(r1)
 1802548:	93 e1 00 14 	stw     r31,20(r1)
 180254c:	7c 3f 0b 78 	mr      r31,r1
 1802550:	90 7f 00 08 	stw     r3,8(r31)
 1802554:	48 00 00 00 	b       1802554 <_exit+0x10>

01802558 <_start>:
 1802558:	94 21 ff f0 	stwu    r1,-16(r1)
 180255c:	7c 08 02 a6 	mflr    r0
 1802560:	90 01 00 14 	stw     r0,20(r1)
 1802564:	93 e1 00 0c 	stw     r31,12(r1)
 1802568:	7c 3f 0b 78 	mr      r31,r1
 180256c:	38 60 00 00 	li      r3,0
 1802570:	38 80 00 00 	li      r4,0
 1802574:	4b ff fd 89 	bl      18022fc <main>
 1802578:	38 60 00 00 	li      r3,0
 180257c:	4b ff ff c9 	bl      1802544 <_exit>

01802580 <__eabi>:
 1802580:	3d 40 01 81 	lis     r10,385
 1802584:	3d 60 01 81 	lis     r11,385
 1802588:	81 2a 36 f8 	lwz     r9,14072(r10)
 180258c:	39 6b 32 48 	addi    r11,r11,12872
 1802590:	29 09 00 00 	cmplwi  cr2,r9,0
 1802594:	4c 8a 00 20 	bnelr   cr2
 1802598:	90 2a 36 f8 	stw     r1,14072(r10)
 180259c:	80 6b 00 08 	lwz     r3,8(r11)
 18025a0:	80 8b 00 0c 	lwz     r4,12(r11)
 18025a4:	7c 83 20 00 	cmpw    cr1,r3,r4
 18025a8:	41 86 00 08 	beq-    cr1,18025b0 <__eabi+0x30>
 18025ac:	81 ab 00 04 	lwz     r13,4(r11)
 18025b0:	80 6b 00 14 	lwz     r3,20(r11)
 18025b4:	80 8b 00 18 	lwz     r4,24(r11)
 18025b8:	7c 83 20 00 	cmpw    cr1,r3,r4
 18025bc:	41 a6 00 08 	beq+    cr1,18025c4 <__eabi+0x44>
 18025c0:	80 4b 00 10 	lwz     r2,16(r11)
 18025c4:	4b ff da d0 	b       1800094 <__init>

018025c8 <__eabi_convert>:
 18025c8:	7c 83 20 40 	cmplw   cr1,r3,r4
 18025cc:	7c a3 20 50 	subf    r5,r3,r4
 18025d0:	4c 84 00 20 	bgelr   cr1
 18025d4:	7c a5 16 70 	srawi   r5,r5,2
 18025d8:	38 63 ff fc 	addi    r3,r3,-4
 18025dc:	7c a9 03 a6 	mtctr   r5
 18025e0:	84 c3 00 04 	lwzu    r6,4(r3)
 18025e4:	2c 06 00 00 	cmpwi   r6,0
 18025e8:	41 82 00 0c 	beq-    18025f4 <__eabi_convert+0x2c>
 18025ec:	7c c6 62 14 	add     r6,r6,r12
 18025f0:	90 c3 00 00 	stw     r6,0(r3)
 18025f4:	42 00 ff ec 	bdnz+   18025e0 <__eabi_convert+0x18>
 18025f8:	4e 80 00 20 	blr

018025fc <__eabi_uconvert>:
 18025fc:	7c 83 20 40 	cmplw   cr1,r3,r4
 1802600:	7c a3 20 50 	subf    r5,r3,r4
 1802604:	4c 84 00 20 	bgelr   cr1
 1802608:	7c a5 16 70 	srawi   r5,r5,2
 180260c:	38 63 ff fc 	addi    r3,r3,-4
 1802610:	7c a9 03 a6 	mtctr   r5
 1802614:	84 c3 00 04 	lwzu    r6,4(r3)
 1802618:	7c c6 62 14 	add     r6,r6,r12
 180261c:	80 e6 00 00 	lwz     r7,0(r6)
 1802620:	90 c3 00 00 	stw     r6,0(r3)
 1802624:	7c e7 62 14 	add     r7,r7,r12
 1802628:	90 e6 00 00 	stw     r7,0(r6)
 180262c:	42 00 ff e8 	bdnz+   1802614 <__eabi_uconvert+0x18>
 1802630:	4e 80 00 20 	blr

01802634 <__do_global_ctors_aux>:
 1802634:	7c 08 02 a6 	mflr    r0
 1802638:	94 21 ff f0 	stwu    r1,-16(r1)
 180263c:	93 e1 00 0c 	stw     r31,12(r1)
 1802640:	3f e0 01 81 	lis     r31,385
 1802644:	90 01 00 14 	stw     r0,20(r1)
 1802648:	3b ff 32 38 	addi    r31,r31,12856
 180264c:	80 1f ff fc 	lwz     r0,-4(r31)
 1802650:	2f 80 ff ff 	cmpwi   cr7,r0,-1
 1802654:	41 9e 00 1c 	beq-    cr7,1802670 <__do_global_ctors_aux+0x3c>
 1802658:	3b ff ff fc 	addi    r31,r31,-4
 180265c:	7c 09 03 a6 	mtctr   r0
 1802660:	4e 80 04 21 	bctrl
 1802664:	84 1f ff fc 	lwzu    r0,-4(r31)
 1802668:	2f 80 ff ff 	cmpwi   cr7,r0,-1
 180266c:	40 9e ff f0 	bne+    cr7,180265c <__do_global_ctors_aux+0x28>
 1802670:	80 01 00 14 	lwz     r0,20(r1)
 1802674:	83 e1 00 0c 	lwz     r31,12(r1)
 1802678:	38 21 00 10 	addi    r1,r1,16
 180267c:	7c 08 03 a6 	mtlr    r0
 1802680:	4e 80 00 20 	blr

01802684 <call___do_global_ctors_aux>:
 1802684:	7c 08 02 a6 	mflr    r0
 1802688:	94 21 ff f8 	stwu    r1,-8(r1)
 180268c:	90 01 00 0c 	stw     r0,12(r1)
 1802690:	80 01 00 0c 	lwz     r0,12(r1)
 1802694:	38 21 00 08 	addi    r1,r1,8
 1802698:	7c 08 03 a6 	mtlr    r0
 180269c:	4e 80 00 20 	blr

Disassembly of section .fini:

018026a0 <__fini>:
 18026a0:	94 21 ff f0 	stwu    r1,-16(r1)
 18026a4:	7c 08 02 a6 	mflr    r0
 18026a8:	90 01 00 14 	stw     r0,20(r1)
 18026ac:	4b ff da 0d 	bl      18000b8 <__do_global_dtors_aux>
 18026b0:	80 01 00 14 	lwz     r0,20(r1)
 18026b4:	7c 08 03 a6 	mtlr    r0
 18026b8:	38 21 00 10 	addi    r1,r1,16
 18026bc:	4e 80 00 20 	blr
