
/home/vaillant/ppc2/perf/malardalen/ppc-eabi/gcc-4.4.2/compress/compress.elf:     file format elf32-powerpc


Disassembly of section .init:

01800094 <__init>:
 1800094:	94 21 ff f0 	stwu    r1,-16(r1)
 1800098:	7c 08 02 a6 	mflr    r0
 180009c:	90 01 00 14 	stw     r0,20(r1)
 18000a0:	48 00 00 f9 	bl      1800198 <frame_dummy>
 18000a4:	48 00 10 11 	bl      18010b4 <__do_global_ctors_aux>
 18000a8:	80 01 00 14 	lwz     r0,20(r1)
 18000ac:	7c 08 03 a6 	mtlr    r0
 18000b0:	38 21 00 10 	addi    r1,r1,16
 18000b4:	4e 80 00 20 	blr

Disassembly of section .text:

018000b8 <__do_global_dtors_aux>:
 18000b8:	94 21 ff e8 	stwu    r1,-24(r1)
 18000bc:	7c 08 02 a6 	mflr    r0
 18000c0:	93 e1 00 14 	stw     r31,20(r1)
 18000c4:	3f e0 01 81 	lis     r31,385
 18000c8:	90 01 00 1c 	stw     r0,28(r1)
 18000cc:	88 1f 13 bc 	lbz     r0,5052(r31)
 18000d0:	93 81 00 08 	stw     r28,8(r1)
 18000d4:	2f 80 00 00 	cmpwi   cr7,r0,0
 18000d8:	93 a1 00 0c 	stw     r29,12(r1)
 18000dc:	93 c1 00 10 	stw     r30,16(r1)
 18000e0:	40 9e 00 7c 	bne-    cr7,180015c <__do_global_dtors_aux+0xa4>
 18000e4:	3f 80 01 81 	lis     r28,385
 18000e8:	3f a0 01 81 	lis     r29,385
 18000ec:	3b 9c 13 18 	addi    r28,r28,4888
 18000f0:	3b bd 13 1c 	addi    r29,r29,4892
 18000f4:	7f bc e8 50 	subf    r29,r28,r29
 18000f8:	3f c0 01 81 	lis     r30,385
 18000fc:	7f bd 16 70 	srawi   r29,r29,2
 1800100:	81 3e 13 c0 	lwz     r9,5056(r30)
 1800104:	3b bd ff ff 	addi    r29,r29,-1
 1800108:	7f 89 e8 40 	cmplw   cr7,r9,r29
 180010c:	40 9c 00 2c 	bge-    cr7,1800138 <__do_global_dtors_aux+0x80>
 1800110:	3b de 13 c0 	addi    r30,r30,5056
 1800114:	39 29 00 01 	addi    r9,r9,1
 1800118:	55 20 10 3a 	rlwinm  r0,r9,2,0,29
 180011c:	91 3e 00 00 	stw     r9,0(r30)
 1800120:	7c 1c 00 2e 	lwzx    r0,r28,r0
 1800124:	7c 09 03 a6 	mtctr   r0
 1800128:	4e 80 04 21 	bctrl
 180012c:	81 3e 00 00 	lwz     r9,0(r30)
 1800130:	7f 89 e8 40 	cmplw   cr7,r9,r29
 1800134:	41 9c ff e0 	blt+    cr7,1800114 <__do_global_dtors_aux+0x5c>
 1800138:	3d 20 00 00 	lis     r9,0
 180013c:	38 09 00 00 	addi    r0,r9,0
 1800140:	2f 80 00 00 	cmpwi   cr7,r0,0
 1800144:	41 9e 00 10 	beq-    cr7,1800154 <__do_global_dtors_aux+0x9c>
 1800148:	3c 60 01 81 	lis     r3,385
 180014c:	38 63 11 a4 	addi    r3,r3,4516
 1800150:	4a 7f fe b1 	bl      0 <__init-0x1800094>
 1800154:	38 00 00 01 	li      r0,1
 1800158:	98 1f 13 bc 	stb     r0,5052(r31)
 180015c:	80 01 00 1c 	lwz     r0,28(r1)
 1800160:	83 81 00 08 	lwz     r28,8(r1)
 1800164:	7c 08 03 a6 	mtlr    r0
 1800168:	83 a1 00 0c 	lwz     r29,12(r1)
 180016c:	83 c1 00 10 	lwz     r30,16(r1)
 1800170:	83 e1 00 14 	lwz     r31,20(r1)
 1800174:	38 21 00 18 	addi    r1,r1,24
 1800178:	4e 80 00 20 	blr

0180017c <call___do_global_dtors_aux>:
 180017c:	7c 08 02 a6 	mflr    r0
 1800180:	94 21 ff f8 	stwu    r1,-8(r1)
 1800184:	90 01 00 0c 	stw     r0,12(r1)
 1800188:	80 01 00 0c 	lwz     r0,12(r1)
 180018c:	38 21 00 08 	addi    r1,r1,8
 1800190:	7c 08 03 a6 	mtlr    r0
 1800194:	4e 80 00 20 	blr

01800198 <frame_dummy>:
 1800198:	7c 08 02 a6 	mflr    r0
 180019c:	94 21 ff f8 	stwu    r1,-8(r1)
 18001a0:	3d 20 00 00 	lis     r9,0
 18001a4:	90 01 00 0c 	stw     r0,12(r1)
 18001a8:	38 09 00 00 	addi    r0,r9,0
 18001ac:	2f 80 00 00 	cmpwi   cr7,r0,0
 18001b0:	41 9e 00 18 	beq-    cr7,18001c8 <frame_dummy+0x30>
 18001b4:	3c 60 01 81 	lis     r3,385
 18001b8:	3c 80 01 81 	lis     r4,385
 18001bc:	38 63 11 a4 	addi    r3,r3,4516
 18001c0:	38 84 13 c4 	addi    r4,r4,5060
 18001c4:	4a 7f fe 3d 	bl      0 <__init-0x1800094>
 18001c8:	3c 60 01 81 	lis     r3,385
 18001cc:	80 03 13 20 	lwz     r0,4896(r3)
 18001d0:	38 63 13 20 	addi    r3,r3,4896
 18001d4:	2f 80 00 00 	cmpwi   cr7,r0,0
 18001d8:	41 9e 00 1c 	beq-    cr7,18001f4 <frame_dummy+0x5c>
 18001dc:	3d 20 00 00 	lis     r9,0
 18001e0:	38 09 00 00 	addi    r0,r9,0
 18001e4:	2f 80 00 00 	cmpwi   cr7,r0,0
 18001e8:	41 9e 00 0c 	beq-    cr7,18001f4 <frame_dummy+0x5c>
 18001ec:	7c 09 03 a6 	mtctr   r0
 18001f0:	4e 80 04 21 	bctrl
 18001f4:	80 01 00 0c 	lwz     r0,12(r1)
 18001f8:	38 21 00 08 	addi    r1,r1,8
 18001fc:	7c 08 03 a6 	mtlr    r0
 1800200:	4e 80 00 20 	blr

01800204 <call_frame_dummy>:
 1800204:	7c 08 02 a6 	mflr    r0
 1800208:	94 21 ff f8 	stwu    r1,-8(r1)
 180020c:	90 01 00 0c 	stw     r0,12(r1)
 1800210:	80 01 00 0c 	lwz     r0,12(r1)
 1800214:	38 21 00 08 	addi    r1,r1,8
 1800218:	7c 08 03 a6 	mtlr    r0
 180021c:	4e 80 00 20 	blr

01800220 <main>:
 1800220:	94 21 ff e0 	stwu    r1,-32(r1)
 1800224:	7c 08 02 a6 	mflr    r0
 1800228:	90 01 00 24 	stw     r0,36(r1)
 180022c:	93 e1 00 1c 	stw     r31,28(r1)
 1800230:	7c 3f 0b 78 	mr      r31,r1
 1800234:	48 00 0d cd 	bl      1801000 <__eabi>
 1800238:	38 00 00 32 	li      r0,50
 180023c:	90 1f 00 0c 	stw     r0,12(r31)
 1800240:	38 00 05 14 	li      r0,1300
 1800244:	90 1f 00 08 	stw     r0,8(r31)
 1800248:	48 00 00 98 	b       18002e0 <main+0xc0>
 180024c:	38 00 00 32 	li      r0,50
 1800250:	90 1f 00 0c 	stw     r0,12(r31)
 1800254:	48 00 00 b1 	bl      1800304 <initbuffer>
 1800258:	3c 00 01 81 	lis     r0,385
 180025c:	39 20 00 10 	li      r9,16
 1800260:	7c 0b 03 78 	mr      r11,r0
 1800264:	91 2b 13 60 	stw     r9,4960(r11)
 1800268:	3c 00 01 81 	lis     r0,385
 180026c:	7c 09 03 78 	mr      r9,r0
 1800270:	80 09 13 60 	lwz     r0,4960(r9)
 1800274:	39 20 00 01 	li      r9,1
 1800278:	7d 29 00 30 	slw     r9,r9,r0
 180027c:	3c 00 01 81 	lis     r0,385
 1800280:	7c 0b 03 78 	mr      r11,r0
 1800284:	91 2b 13 64 	stw     r9,4964(r11)
 1800288:	3c 00 01 81 	lis     r0,385
 180028c:	81 3f 00 0c 	lwz     r9,12(r31)
 1800290:	7c 0b 03 78 	mr      r11,r0
 1800294:	91 2b 13 b0 	stw     r9,5040(r11)
 1800298:	3c 00 01 81 	lis     r0,385
 180029c:	39 20 00 35 	li      r9,53
 18002a0:	7c 0b 03 78 	mr      r11,r0
 18002a4:	91 2b 13 a0 	stw     r9,5024(r11)
 18002a8:	3c 00 01 81 	lis     r0,385
 18002ac:	3d 20 01 81 	lis     r9,385
 18002b0:	39 29 13 e0 	addi    r9,r9,5088
 18002b4:	7c 0b 03 78 	mr      r11,r0
 18002b8:	91 2b 13 9c 	stw     r9,5020(r11)
 18002bc:	3c 00 01 81 	lis     r0,385
 18002c0:	3d 20 01 81 	lis     r9,385
 18002c4:	39 29 14 14 	addi    r9,r9,5140
 18002c8:	7c 0b 03 78 	mr      r11,r0
 18002cc:	91 2b 13 a4 	stw     r9,5028(r11)
 18002d0:	48 00 00 dd 	bl      18003ac <compress>
 18002d4:	80 1f 00 08 	lwz     r0,8(r31)
 18002d8:	30 00 ff ff 	addic   r0,r0,-1
 18002dc:	90 1f 00 08 	stw     r0,8(r31)
 18002e0:	80 1f 00 08 	lwz     r0,8(r31)
 18002e4:	2f 80 00 00 	cmpwi   cr7,r0,0
 18002e8:	40 9e ff 64 	bne+    cr7,180024c <main+0x2c>
 18002ec:	39 7f 00 20 	addi    r11,r31,32
 18002f0:	80 0b 00 04 	lwz     r0,4(r11)
 18002f4:	7c 08 03 a6 	mtlr    r0
 18002f8:	83 eb ff fc 	lwz     r31,-4(r11)
 18002fc:	7d 61 5b 78 	mr      r1,r11
 1800300:	4e 80 00 20 	blr

01800304 <initbuffer>:
 1800304:	94 21 ff e0 	stwu    r1,-32(r1)
 1800308:	93 e1 00 1c 	stw     r31,28(r1)
 180030c:	7c 3f 0b 78 	mr      r31,r1
 1800310:	38 00 00 01 	li      r0,1
 1800314:	90 1f 00 10 	stw     r0,16(r31)
 1800318:	38 00 00 00 	li      r0,0
 180031c:	90 1f 00 0c 	stw     r0,12(r31)
 1800320:	48 00 00 70 	b       1800390 <initbuffer+0x8c>
 1800324:	80 1f 00 0c 	lwz     r0,12(r31)
 1800328:	90 1f 00 08 	stw     r0,8(r31)
 180032c:	80 1f 00 10 	lwz     r0,16(r31)
 1800330:	1c 00 00 85 	mulli   r0,r0,133
 1800334:	30 00 00 51 	addic   r0,r0,81
 1800338:	3d 20 10 31 	lis     r9,4145
 180033c:	61 29 14 c7 	ori     r9,r9,5319
 1800340:	7d 20 48 96 	mulhw   r9,r0,r9
 1800344:	7d 2b 4e 70 	srawi   r11,r9,9
 1800348:	7c 09 fe 70 	srawi   r9,r0,31
 180034c:	7d 29 58 50 	subf    r9,r9,r11
 1800350:	1d 29 1f 9f 	mulli   r9,r9,8095
 1800354:	7c 09 00 50 	subf    r0,r9,r0
 1800358:	90 1f 00 10 	stw     r0,16(r31)
 180035c:	81 3f 00 0c 	lwz     r9,12(r31)
 1800360:	80 1f 00 10 	lwz     r0,16(r31)
 1800364:	7c 0b 46 70 	srawi   r11,r0,8
 1800368:	7d 6b 01 94 	addze   r11,r11
 180036c:	55 6b 40 2e 	rlwinm  r11,r11,8,0,23
 1800370:	7c 0b 00 50 	subf    r0,r11,r0
 1800374:	54 0b 06 3e 	clrlwi  r11,r0,24
 1800378:	3c 00 01 81 	lis     r0,385
 180037c:	30 00 13 e0 	addic   r0,r0,5088
 1800380:	7d 69 01 ae 	stbx    r11,r9,r0
 1800384:	80 1f 00 0c 	lwz     r0,12(r31)
 1800388:	30 00 00 01 	addic   r0,r0,1
 180038c:	90 1f 00 0c 	stw     r0,12(r31)
 1800390:	80 1f 00 0c 	lwz     r0,12(r31)
 1800394:	2f 80 00 31 	cmpwi   cr7,r0,49
 1800398:	40 9d ff 8c 	ble+    cr7,1800324 <initbuffer+0x20>
 180039c:	39 7f 00 20 	addi    r11,r31,32
 18003a0:	83 eb ff fc 	lwz     r31,-4(r11)
 18003a4:	7d 61 5b 78 	mr      r1,r11
 18003a8:	4e 80 00 20 	blr

018003ac <compress>:
 18003ac:	94 21 ff c8 	stwu    r1,-56(r1)
 18003b0:	7c 08 02 a6 	mflr    r0
 18003b4:	90 01 00 3c 	stw     r0,60(r1)
 18003b8:	93 21 00 1c 	stw     r25,28(r1)
 18003bc:	93 41 00 20 	stw     r26,32(r1)
 18003c0:	93 61 00 24 	stw     r27,36(r1)
 18003c4:	93 81 00 28 	stw     r28,40(r1)
 18003c8:	93 a1 00 2c 	stw     r29,44(r1)
 18003cc:	93 c1 00 30 	stw     r30,48(r1)
 18003d0:	93 e1 00 34 	stw     r31,52(r1)
 18003d4:	7c 3f 0b 78 	mr      r31,r1
 18003d8:	3b c0 00 00 	li      r30,0
 18003dc:	3c 00 01 81 	lis     r0,385
 18003e0:	39 20 00 00 	li      r9,0
 18003e4:	7c 0b 03 78 	mr      r11,r0
 18003e8:	91 2b 13 dc 	stw     r9,5084(r11)
 18003ec:	3c 00 01 81 	lis     r0,385
 18003f0:	39 20 00 03 	li      r9,3
 18003f4:	7c 0b 03 78 	mr      r11,r0
 18003f8:	91 2b 13 a8 	stw     r9,5032(r11)
 18003fc:	3c 00 01 81 	lis     r0,385
 1800400:	39 20 00 00 	li      r9,0
 1800404:	7c 0b 03 78 	mr      r11,r0
 1800408:	91 2b 13 98 	stw     r9,5016(r11)
 180040c:	3c 00 01 81 	lis     r0,385
 1800410:	39 20 00 00 	li      r9,0
 1800414:	7c 0b 03 78 	mr      r11,r0
 1800418:	91 2b 13 8c 	stw     r9,5004(r11)
 180041c:	3c 00 01 81 	lis     r0,385
 1800420:	39 20 00 00 	li      r9,0
 1800424:	7c 0b 03 78 	mr      r11,r0
 1800428:	91 2b 13 90 	stw     r9,5008(r11)
 180042c:	3c 00 01 81 	lis     r0,385
 1800430:	39 20 00 01 	li      r9,1
 1800434:	7c 0b 03 78 	mr      r11,r0
 1800438:	91 2b 13 7c 	stw     r9,4988(r11)
 180043c:	3c 00 01 81 	lis     r0,385
 1800440:	39 20 27 10 	li      r9,10000
 1800444:	7c 0b 03 78 	mr      r11,r0
 1800448:	91 2b 13 78 	stw     r9,4984(r11)
 180044c:	3c 00 01 81 	lis     r0,385
 1800450:	39 20 00 09 	li      r9,9
 1800454:	7c 0b 03 78 	mr      r11,r0
 1800458:	91 2b 13 ac 	stw     r9,5036(r11)
 180045c:	3c 00 01 81 	lis     r0,385
 1800460:	7c 09 03 78 	mr      r9,r0
 1800464:	80 09 13 ac 	lwz     r0,5036(r9)
 1800468:	39 20 00 01 	li      r9,1
 180046c:	7d 20 00 30 	slw     r0,r9,r0
 1800470:	31 20 ff ff 	addic   r9,r0,-1
 1800474:	3c 00 01 81 	lis     r0,385
 1800478:	7c 0b 03 78 	mr      r11,r0
 180047c:	91 2b 13 b4 	stw     r9,5044(r11)
 1800480:	3c 00 01 81 	lis     r0,385
 1800484:	7c 09 03 78 	mr      r9,r0
 1800488:	80 09 13 74 	lwz     r0,4980(r9)
 180048c:	2f 80 00 00 	cmpwi   cr7,r0,0
 1800490:	41 9e 00 0c 	beq-    cr7,180049c <compress+0xf0>
 1800494:	38 00 01 01 	li      r0,257
 1800498:	48 00 00 08 	b       18004a0 <compress+0xf4>
 180049c:	38 00 01 00 	li      r0,256
 18004a0:	3d 20 01 81 	lis     r9,385
 18004a4:	90 09 13 80 	stw     r0,4992(r9)
 18004a8:	48 00 05 95 	bl      1800a3c <getbyte>
 18004ac:	7c 60 1b 78 	mr      r0,r3
 18004b0:	7c 1b 03 78 	mr      r27,r0
 18004b4:	3b 80 00 00 	li      r28,0
 18004b8:	3c 00 01 81 	lis     r0,385
 18004bc:	7c 0b 03 78 	mr      r11,r0
 18004c0:	83 ab 13 68 	lwz     r29,4968(r11)
 18004c4:	48 00 00 0c 	b       18004d0 <compress+0x124>
 18004c8:	3b 9c 00 01 	addi    r28,r28,1
 18004cc:	57 bd 08 3c 	rlwinm  r29,r29,1,0,30
 18004d0:	38 00 00 00 	li      r0,0
 18004d4:	60 00 ff ff 	ori     r0,r0,65535
 18004d8:	7f 9d 00 00 	cmpw    cr7,r29,r0
 18004dc:	40 9d ff ec 	ble+    cr7,18004c8 <compress+0x11c>
 18004e0:	23 9c 00 08 	subfic  r28,r28,8
 18004e4:	3c 00 01 81 	lis     r0,385
 18004e8:	7c 09 03 78 	mr      r9,r0
 18004ec:	83 49 13 68 	lwz     r26,4968(r9)
 18004f0:	7f 43 d3 78 	mr      r3,r26
 18004f4:	48 00 04 05 	bl      18008f8 <cl_hash>
 18004f8:	48 00 02 54 	b       180074c <compress+0x3a0>
 18004fc:	38 00 00 00 	li      r0,0
 1800500:	90 1f 00 08 	stw     r0,8(r31)
 1800504:	48 00 05 39 	bl      1800a3c <getbyte>
 1800508:	7c 60 1b 78 	mr      r0,r3
 180050c:	7c 19 03 78 	mr      r25,r0
 1800510:	3c 00 01 81 	lis     r0,385
 1800514:	7c 0b 03 78 	mr      r11,r0
 1800518:	80 0b 13 7c 	lwz     r0,4988(r11)
 180051c:	31 20 00 01 	addic   r9,r0,1
 1800520:	3c 00 01 81 	lis     r0,385
 1800524:	7c 0b 03 78 	mr      r11,r0
 1800528:	91 2b 13 7c 	stw     r9,4988(r11)
 180052c:	3c 00 01 81 	lis     r0,385
 1800530:	7c 09 03 78 	mr      r9,r0
 1800534:	80 09 13 60 	lwz     r0,4960(r9)
 1800538:	7f 20 00 30 	slw     r0,r25,r0
 180053c:	7f a0 da 14 	add     r29,r0,r27
 1800540:	7f 20 e0 30 	slw     r0,r25,r28
 1800544:	7c 1e da 78 	xor     r30,r0,r27
 1800548:	7f c0 f3 78 	mr      r0,r30
 180054c:	3d 20 01 81 	lis     r9,385
 1800550:	39 29 14 4c 	addi    r9,r9,5196
 1800554:	54 00 10 3a 	rlwinm  r0,r0,2,0,29
 1800558:	7c 09 02 14 	add     r0,r9,r0
 180055c:	7c 0b 03 78 	mr      r11,r0
 1800560:	80 0b 00 00 	lwz     r0,0(r11)
 1800564:	7f 80 e8 00 	cmpw    cr7,r0,r29
 1800568:	40 9e 00 2c 	bne-    cr7,1800594 <compress+0x1e8>
 180056c:	7f c0 f3 78 	mr      r0,r30
 1800570:	3d 20 01 81 	lis     r9,385
 1800574:	39 29 18 b4 	addi    r9,r9,6324
 1800578:	54 00 08 3c 	rlwinm  r0,r0,1,0,30
 180057c:	7c 09 02 14 	add     r0,r9,r0
 1800580:	7c 09 03 78 	mr      r9,r0
 1800584:	a0 09 00 00 	lhz     r0,0(r9)
 1800588:	54 00 04 3e 	clrlwi  r0,r0,16
 180058c:	7c 1b 03 78 	mr      r27,r0
 1800590:	48 00 01 bc 	b       180074c <compress+0x3a0>
 1800594:	7f c0 f3 78 	mr      r0,r30
 1800598:	3d 20 01 81 	lis     r9,385
 180059c:	39 29 14 4c 	addi    r9,r9,5196
 18005a0:	54 00 10 3a 	rlwinm  r0,r0,2,0,29
 18005a4:	7c 09 02 14 	add     r0,r9,r0
 18005a8:	7c 0b 03 78 	mr      r11,r0
 18005ac:	80 0b 00 00 	lwz     r0,0(r11)
 18005b0:	2f 80 00 00 	cmpwi   cr7,r0,0
 18005b4:	41 9c 00 c4 	blt-    cr7,1800678 <compress+0x2cc>
 18005b8:	7f 7e d0 50 	subf    r27,r30,r26
 18005bc:	2f 9e 00 00 	cmpwi   cr7,r30,0
 18005c0:	40 9e 00 10 	bne-    cr7,18005d0 <compress+0x224>
 18005c4:	3b 60 00 01 	li      r27,1
 18005c8:	48 00 00 08 	b       18005d0 <compress+0x224>
 18005cc:	60 00 00 00 	nop
 18005d0:	7f db f0 50 	subf    r30,r27,r30
 18005d4:	2f 9e 00 00 	cmpwi   cr7,r30,0
 18005d8:	40 9c 00 08 	bge-    cr7,18005e0 <compress+0x234>
 18005dc:	7f de d2 14 	add     r30,r30,r26
 18005e0:	7f c0 f3 78 	mr      r0,r30
 18005e4:	3d 20 01 81 	lis     r9,385
 18005e8:	39 29 14 4c 	addi    r9,r9,5196
 18005ec:	54 00 10 3a 	rlwinm  r0,r0,2,0,29
 18005f0:	7c 09 02 14 	add     r0,r9,r0
 18005f4:	7c 09 03 78 	mr      r9,r0
 18005f8:	80 09 00 00 	lwz     r0,0(r9)
 18005fc:	7f 80 e8 00 	cmpw    cr7,r0,r29
 1800600:	40 9e 00 2c 	bne-    cr7,180062c <compress+0x280>
 1800604:	7f c0 f3 78 	mr      r0,r30
 1800608:	3d 20 01 81 	lis     r9,385
 180060c:	39 29 18 b4 	addi    r9,r9,6324
 1800610:	54 00 08 3c 	rlwinm  r0,r0,1,0,30
 1800614:	7c 09 02 14 	add     r0,r9,r0
 1800618:	7c 0b 03 78 	mr      r11,r0
 180061c:	a0 0b 00 00 	lhz     r0,0(r11)
 1800620:	54 00 04 3e 	clrlwi  r0,r0,16
 1800624:	7c 1b 03 78 	mr      r27,r0
 1800628:	48 00 01 24 	b       180074c <compress+0x3a0>
 180062c:	7f c0 f3 78 	mr      r0,r30
 1800630:	3d 20 01 81 	lis     r9,385
 1800634:	39 29 14 4c 	addi    r9,r9,5196
 1800638:	54 00 10 3a 	rlwinm  r0,r0,2,0,29
 180063c:	7c 09 02 14 	add     r0,r9,r0
 1800640:	7c 09 03 78 	mr      r9,r0
 1800644:	80 09 00 00 	lwz     r0,0(r9)
 1800648:	2f 80 00 00 	cmpwi   cr7,r0,0
 180064c:	40 9d 00 30 	ble-    cr7,180067c <compress+0x2d0>
 1800650:	80 1f 00 08 	lwz     r0,8(r31)
 1800654:	30 00 00 01 	addic   r0,r0,1
 1800658:	90 1f 00 08 	stw     r0,8(r31)
 180065c:	3c 00 01 81 	lis     r0,385
 1800660:	7c 0b 03 78 	mr      r11,r0
 1800664:	80 0b 13 7c 	lwz     r0,4988(r11)
 1800668:	81 3f 00 08 	lwz     r9,8(r31)
 180066c:	7f 89 00 00 	cmpw    cr7,r9,r0
 1800670:	41 9c ff 5c 	blt+    cr7,18005cc <compress+0x220>
 1800674:	48 00 00 08 	b       180067c <compress+0x2d0>
 1800678:	60 00 00 00 	nop
 180067c:	3c 00 01 81 	lis     r0,385
 1800680:	7c 09 03 78 	mr      r9,r0
 1800684:	80 09 13 98 	lwz     r0,5016(r9)
 1800688:	31 20 00 01 	addic   r9,r0,1
 180068c:	3c 00 01 81 	lis     r0,385
 1800690:	7c 0b 03 78 	mr      r11,r0
 1800694:	91 2b 13 98 	stw     r9,5016(r11)
 1800698:	7f 3b cb 78 	mr      r27,r25
 180069c:	3c 00 01 81 	lis     r0,385
 18006a0:	7c 0b 03 78 	mr      r11,r0
 18006a4:	81 2b 13 80 	lwz     r9,4992(r11)
 18006a8:	3c 00 01 81 	lis     r0,385
 18006ac:	7c 0b 03 78 	mr      r11,r0
 18006b0:	80 0b 13 64 	lwz     r0,4964(r11)
 18006b4:	7f 89 00 00 	cmpw    cr7,r9,r0
 18006b8:	40 9c 00 5c 	bge-    cr7,1800714 <compress+0x368>
 18006bc:	7f c9 f3 78 	mr      r9,r30
 18006c0:	3c 00 01 81 	lis     r0,385
 18006c4:	7c 0b 03 78 	mr      r11,r0
 18006c8:	80 0b 13 80 	lwz     r0,4992(r11)
 18006cc:	54 0b 04 3e 	clrlwi  r11,r0,16
 18006d0:	3d 40 01 81 	lis     r10,385
 18006d4:	39 4a 18 b4 	addi    r10,r10,6324
 18006d8:	55 29 08 3c 	rlwinm  r9,r9,1,0,30
 18006dc:	7d 2a 4a 14 	add     r9,r10,r9
 18006e0:	b1 69 00 00 	sth     r11,0(r9)
 18006e4:	31 20 00 01 	addic   r9,r0,1
 18006e8:	3c 00 01 81 	lis     r0,385
 18006ec:	7c 0b 03 78 	mr      r11,r0
 18006f0:	91 2b 13 80 	stw     r9,4992(r11)
 18006f4:	7f c0 f3 78 	mr      r0,r30
 18006f8:	3d 20 01 81 	lis     r9,385
 18006fc:	39 29 14 4c 	addi    r9,r9,5196
 1800700:	54 00 10 3a 	rlwinm  r0,r0,2,0,29
 1800704:	7c 09 02 14 	add     r0,r9,r0
 1800708:	7c 09 03 78 	mr      r9,r0
 180070c:	93 a9 00 00 	stw     r29,0(r9)
 1800710:	48 00 00 3c 	b       180074c <compress+0x3a0>
 1800714:	3c 00 01 81 	lis     r0,385
 1800718:	7c 0b 03 78 	mr      r11,r0
 180071c:	81 2b 13 7c 	lwz     r9,4988(r11)
 1800720:	3c 00 01 81 	lis     r0,385
 1800724:	7c 0b 03 78 	mr      r11,r0
 1800728:	80 0b 13 78 	lwz     r0,4984(r11)
 180072c:	7f 89 00 00 	cmpw    cr7,r9,r0
 1800730:	41 9c 00 1c 	blt-    cr7,180074c <compress+0x3a0>
 1800734:	3c 00 01 81 	lis     r0,385
 1800738:	7c 09 03 78 	mr      r9,r0
 180073c:	80 09 13 74 	lwz     r0,4980(r9)
 1800740:	2f 80 00 00 	cmpwi   cr7,r0,0
 1800744:	41 9e 00 08 	beq-    cr7,180074c <compress+0x3a0>
 1800748:	48 00 00 79 	bl      18007c0 <cl_block>
 180074c:	3c 00 01 81 	lis     r0,385
 1800750:	7c 0b 03 78 	mr      r11,r0
 1800754:	80 0b 13 b0 	lwz     r0,5040(r11)
 1800758:	2f 80 00 00 	cmpwi   cr7,r0,0
 180075c:	41 9d fd a0 	bgt+    cr7,18004fc <compress+0x150>
 1800760:	3c 00 01 81 	lis     r0,385
 1800764:	7c 0b 03 78 	mr      r11,r0
 1800768:	81 2b 13 a8 	lwz     r9,5032(r11)
 180076c:	3c 00 01 81 	lis     r0,385
 1800770:	7c 0b 03 78 	mr      r11,r0
 1800774:	80 0b 13 7c 	lwz     r0,4988(r11)
 1800778:	7f 89 00 00 	cmpw    cr7,r9,r0
 180077c:	40 9d 00 14 	ble-    cr7,1800790 <compress+0x3e4>
 1800780:	3c 00 01 81 	lis     r0,385
 1800784:	39 20 00 02 	li      r9,2
 1800788:	7c 0b 03 78 	mr      r11,r0
 180078c:	91 2b 13 84 	stw     r9,4996(r11)
 1800790:	39 7f 00 38 	addi    r11,r31,56
 1800794:	80 0b 00 04 	lwz     r0,4(r11)
 1800798:	7c 08 03 a6 	mtlr    r0
 180079c:	83 2b ff e4 	lwz     r25,-28(r11)
 18007a0:	83 4b ff e8 	lwz     r26,-24(r11)
 18007a4:	83 6b ff ec 	lwz     r27,-20(r11)
 18007a8:	83 8b ff f0 	lwz     r28,-16(r11)
 18007ac:	83 ab ff f4 	lwz     r29,-12(r11)
 18007b0:	83 cb ff f8 	lwz     r30,-8(r11)
 18007b4:	83 eb ff fc 	lwz     r31,-4(r11)
 18007b8:	7d 61 5b 78 	mr      r1,r11
 18007bc:	4e 80 00 20 	blr

018007c0 <cl_block>:
 18007c0:	94 21 ff f0 	stwu    r1,-16(r1)
 18007c4:	7c 08 02 a6 	mflr    r0
 18007c8:	90 01 00 14 	stw     r0,20(r1)
 18007cc:	93 c1 00 08 	stw     r30,8(r1)
 18007d0:	93 e1 00 0c 	stw     r31,12(r1)
 18007d4:	7c 3f 0b 78 	mr      r31,r1
 18007d8:	3c 00 01 81 	lis     r0,385
 18007dc:	7c 09 03 78 	mr      r9,r0
 18007e0:	80 09 13 7c 	lwz     r0,4988(r9)
 18007e4:	31 20 27 10 	addic   r9,r0,10000
 18007e8:	3c 00 01 81 	lis     r0,385
 18007ec:	7c 0b 03 78 	mr      r11,r0
 18007f0:	91 2b 13 78 	stw     r9,4984(r11)
 18007f4:	3c 00 01 81 	lis     r0,385
 18007f8:	7c 0b 03 78 	mr      r11,r0
 18007fc:	81 2b 13 7c 	lwz     r9,4988(r11)
 1800800:	3c 00 00 7f 	lis     r0,127
 1800804:	60 00 ff ff 	ori     r0,r0,65535
 1800808:	7f 89 00 00 	cmpw    cr7,r9,r0
 180080c:	40 9d 00 40 	ble-    cr7,180084c <cl_block+0x8c>
 1800810:	3c 00 01 81 	lis     r0,385
 1800814:	7c 09 03 78 	mr      r9,r0
 1800818:	80 09 13 a8 	lwz     r0,5032(r9)
 180081c:	7c 1e 46 70 	srawi   r30,r0,8
 1800820:	2f 9e 00 00 	cmpwi   cr7,r30,0
 1800824:	40 9e 00 10 	bne-    cr7,1800834 <cl_block+0x74>
 1800828:	3c 00 7f ff 	lis     r0,32767
 180082c:	60 1e ff ff 	ori     r30,r0,65535
 1800830:	48 00 00 3c 	b       180086c <cl_block+0xac>
 1800834:	3c 00 01 81 	lis     r0,385
 1800838:	7c 0b 03 78 	mr      r11,r0
 180083c:	80 0b 13 7c 	lwz     r0,4988(r11)
 1800840:	7c 00 f3 d6 	divw    r0,r0,r30
 1800844:	7c 1e 03 78 	mr      r30,r0
 1800848:	48 00 00 24 	b       180086c <cl_block+0xac>
 180084c:	3c 00 01 81 	lis     r0,385
 1800850:	7c 09 03 78 	mr      r9,r0
 1800854:	80 09 13 7c 	lwz     r0,4988(r9)
 1800858:	54 09 40 2e 	rlwinm  r9,r0,8,0,23
 180085c:	3c 00 01 81 	lis     r0,385
 1800860:	7c 0b 03 78 	mr      r11,r0
 1800864:	80 0b 13 a8 	lwz     r0,5032(r11)
 1800868:	7f c9 03 d6 	divw    r30,r9,r0
 180086c:	3c 00 01 81 	lis     r0,385
 1800870:	7c 09 03 78 	mr      r9,r0
 1800874:	80 09 13 90 	lwz     r0,5008(r9)
 1800878:	7f 9e 00 00 	cmpw    cr7,r30,r0
 180087c:	40 9d 00 14 	ble-    cr7,1800890 <cl_block+0xd0>
 1800880:	3c 00 01 81 	lis     r0,385
 1800884:	7c 0b 03 78 	mr      r11,r0
 1800888:	93 cb 13 90 	stw     r30,5008(r11)
 180088c:	48 00 00 50 	b       18008dc <cl_block+0x11c>
 1800890:	3c 00 01 81 	lis     r0,385
 1800894:	39 20 00 00 	li      r9,0
 1800898:	7c 0b 03 78 	mr      r11,r0
 180089c:	91 2b 13 90 	stw     r9,5008(r11)
 18008a0:	3c 00 01 81 	lis     r0,385
 18008a4:	7c 09 03 78 	mr      r9,r0
 18008a8:	80 09 13 68 	lwz     r0,4968(r9)
 18008ac:	7c 03 03 78 	mr      r3,r0
 18008b0:	48 00 00 49 	bl      18008f8 <cl_hash>
 18008b4:	3c 00 01 81 	lis     r0,385
 18008b8:	39 20 01 01 	li      r9,257
 18008bc:	7c 0b 03 78 	mr      r11,r0
 18008c0:	91 2b 13 80 	stw     r9,4992(r11)
 18008c4:	3c 00 01 81 	lis     r0,385
 18008c8:	39 20 00 01 	li      r9,1
 18008cc:	7c 0b 03 78 	mr      r11,r0
 18008d0:	91 2b 13 8c 	stw     r9,5004(r11)
 18008d4:	38 60 01 00 	li      r3,256
 18008d8:	48 00 02 ed 	bl      1800bc4 <output>
 18008dc:	39 7f 00 10 	addi    r11,r31,16
 18008e0:	80 0b 00 04 	lwz     r0,4(r11)
 18008e4:	7c 08 03 a6 	mtlr    r0
 18008e8:	83 cb ff f8 	lwz     r30,-8(r11)
 18008ec:	83 eb ff fc 	lwz     r31,-4(r11)
 18008f0:	7d 61 5b 78 	mr      r1,r11
 18008f4:	4e 80 00 20 	blr

018008f8 <cl_hash>:
 18008f8:	94 21 ff e0 	stwu    r1,-32(r1)
 18008fc:	93 81 00 10 	stw     r28,16(r1)
 1800900:	93 a1 00 14 	stw     r29,20(r1)
 1800904:	93 c1 00 18 	stw     r30,24(r1)
 1800908:	93 e1 00 1c 	stw     r31,28(r1)
 180090c:	7c 3f 0b 78 	mr      r31,r1
 1800910:	90 7f 00 08 	stw     r3,8(r31)
 1800914:	80 1f 00 08 	lwz     r0,8(r31)
 1800918:	54 09 10 3a 	rlwinm  r9,r0,2,0,29
 180091c:	3c 00 01 81 	lis     r0,385
 1800920:	30 00 14 4c 	addic   r0,r0,5196
 1800924:	7f c9 02 14 	add     r30,r9,r0
 1800928:	3b a0 ff ff 	li      r29,-1
 180092c:	80 1f 00 08 	lwz     r0,8(r31)
 1800930:	33 80 ff f0 	addic   r28,r0,-16
 1800934:	38 1e ff c0 	addi    r0,r30,-64
 1800938:	7c 09 03 78 	mr      r9,r0
 180093c:	93 a9 00 00 	stw     r29,0(r9)
 1800940:	38 1e ff c4 	addi    r0,r30,-60
 1800944:	7c 09 03 78 	mr      r9,r0
 1800948:	93 a9 00 00 	stw     r29,0(r9)
 180094c:	38 1e ff c8 	addi    r0,r30,-56
 1800950:	7c 09 03 78 	mr      r9,r0
 1800954:	93 a9 00 00 	stw     r29,0(r9)
 1800958:	38 1e ff cc 	addi    r0,r30,-52
 180095c:	7c 09 03 78 	mr      r9,r0
 1800960:	93 a9 00 00 	stw     r29,0(r9)
 1800964:	38 1e ff d0 	addi    r0,r30,-48
 1800968:	7c 09 03 78 	mr      r9,r0
 180096c:	93 a9 00 00 	stw     r29,0(r9)
 1800970:	38 1e ff d4 	addi    r0,r30,-44
 1800974:	7c 09 03 78 	mr      r9,r0
 1800978:	93 a9 00 00 	stw     r29,0(r9)
 180097c:	38 1e ff d8 	addi    r0,r30,-40
 1800980:	7c 09 03 78 	mr      r9,r0
 1800984:	93 a9 00 00 	stw     r29,0(r9)
 1800988:	38 1e ff dc 	addi    r0,r30,-36
 180098c:	7c 09 03 78 	mr      r9,r0
 1800990:	93 a9 00 00 	stw     r29,0(r9)
 1800994:	38 1e ff e0 	addi    r0,r30,-32
 1800998:	7c 09 03 78 	mr      r9,r0
 180099c:	93 a9 00 00 	stw     r29,0(r9)
 18009a0:	38 1e ff e4 	addi    r0,r30,-28
 18009a4:	7c 09 03 78 	mr      r9,r0
 18009a8:	93 a9 00 00 	stw     r29,0(r9)
 18009ac:	38 1e ff e8 	addi    r0,r30,-24
 18009b0:	7c 09 03 78 	mr      r9,r0
 18009b4:	93 a9 00 00 	stw     r29,0(r9)
 18009b8:	38 1e ff ec 	addi    r0,r30,-20
 18009bc:	7c 09 03 78 	mr      r9,r0
 18009c0:	93 a9 00 00 	stw     r29,0(r9)
 18009c4:	38 1e ff f0 	addi    r0,r30,-16
 18009c8:	7c 09 03 78 	mr      r9,r0
 18009cc:	93 a9 00 00 	stw     r29,0(r9)
 18009d0:	38 1e ff f4 	addi    r0,r30,-12
 18009d4:	7c 09 03 78 	mr      r9,r0
 18009d8:	93 a9 00 00 	stw     r29,0(r9)
 18009dc:	38 1e ff f8 	addi    r0,r30,-8
 18009e0:	7c 09 03 78 	mr      r9,r0
 18009e4:	93 a9 00 00 	stw     r29,0(r9)
 18009e8:	38 1e ff fc 	addi    r0,r30,-4
 18009ec:	7c 09 03 78 	mr      r9,r0
 18009f0:	93 a9 00 00 	stw     r29,0(r9)
 18009f4:	3b de ff c0 	addi    r30,r30,-64
 18009f8:	3b 9c ff f0 	addi    r28,r28,-16
 18009fc:	2f 9c 00 00 	cmpwi   cr7,r28,0
 1800a00:	40 9c ff 34 	bge+    cr7,1800934 <cl_hash+0x3c>
 1800a04:	3b 9c 00 10 	addi    r28,r28,16
 1800a08:	48 00 00 10 	b       1800a18 <cl_hash+0x120>
 1800a0c:	3b de ff fc 	addi    r30,r30,-4
 1800a10:	93 be 00 00 	stw     r29,0(r30)
 1800a14:	3b 9c ff ff 	addi    r28,r28,-1
 1800a18:	2f 9c 00 00 	cmpwi   cr7,r28,0
 1800a1c:	41 9d ff f0 	bgt+    cr7,1800a0c <cl_hash+0x114>
 1800a20:	39 7f 00 20 	addi    r11,r31,32
 1800a24:	83 8b ff f0 	lwz     r28,-16(r11)
 1800a28:	83 ab ff f4 	lwz     r29,-12(r11)
 1800a2c:	83 cb ff f8 	lwz     r30,-8(r11)
 1800a30:	83 eb ff fc 	lwz     r31,-4(r11)
 1800a34:	7d 61 5b 78 	mr      r1,r11
 1800a38:	4e 80 00 20 	blr

01800a3c <getbyte>:
 1800a3c:	94 21 ff f0 	stwu    r1,-16(r1)
 1800a40:	93 e1 00 0c 	stw     r31,12(r1)
 1800a44:	7c 3f 0b 78 	mr      r31,r1
 1800a48:	3c 00 01 81 	lis     r0,385
 1800a4c:	7c 09 03 78 	mr      r9,r0
 1800a50:	80 09 13 b0 	lwz     r0,5040(r9)
 1800a54:	2f 80 00 00 	cmpwi   cr7,r0,0
 1800a58:	40 9d 00 78 	ble-    cr7,1800ad0 <getbyte+0x94>
 1800a5c:	3c 00 01 81 	lis     r0,385
 1800a60:	7c 0a 03 78 	mr      r10,r0
 1800a64:	80 0a 13 a0 	lwz     r0,5024(r10)
 1800a68:	7c 09 fe 70 	srawi   r9,r0,31
 1800a6c:	7d 20 48 50 	subf    r9,r0,r9
 1800a70:	55 29 0f fe 	rlwinm  r9,r9,1,31,31
 1800a74:	55 29 06 3e 	clrlwi  r9,r9,24
 1800a78:	31 60 ff ff 	addic   r11,r0,-1
 1800a7c:	3c 00 01 81 	lis     r0,385
 1800a80:	7c 0a 03 78 	mr      r10,r0
 1800a84:	91 6a 13 a0 	stw     r11,5024(r10)
 1800a88:	2f 89 00 00 	cmpwi   cr7,r9,0
 1800a8c:	41 9e 00 44 	beq-    cr7,1800ad0 <getbyte+0x94>
 1800a90:	3c 00 01 81 	lis     r0,385
 1800a94:	7c 0b 03 78 	mr      r11,r0
 1800a98:	80 0b 13 b0 	lwz     r0,5040(r11)
 1800a9c:	31 20 ff ff 	addic   r9,r0,-1
 1800aa0:	3c 00 01 81 	lis     r0,385
 1800aa4:	7c 0a 03 78 	mr      r10,r0
 1800aa8:	91 2a 13 b0 	stw     r9,5040(r10)
 1800aac:	3c 00 01 81 	lis     r0,385
 1800ab0:	7c 0b 03 78 	mr      r11,r0
 1800ab4:	81 2b 13 9c 	lwz     r9,5020(r11)
 1800ab8:	88 09 00 00 	lbz     r0,0(r9)
 1800abc:	54 00 06 3e 	clrlwi  r0,r0,24
 1800ac0:	39 69 00 01 	addi    r11,r9,1
 1800ac4:	3d 20 01 81 	lis     r9,385
 1800ac8:	91 69 13 9c 	stw     r11,5020(r9)
 1800acc:	48 00 00 08 	b       1800ad4 <getbyte+0x98>
 1800ad0:	38 00 ff ff 	li      r0,-1
 1800ad4:	7c 03 03 78 	mr      r3,r0
 1800ad8:	39 7f 00 10 	addi    r11,r31,16
 1800adc:	83 eb ff fc 	lwz     r31,-4(r11)
 1800ae0:	7d 61 5b 78 	mr      r1,r11
 1800ae4:	4e 80 00 20 	blr

01800ae8 <putbyte>:
 1800ae8:	94 21 ff e8 	stwu    r1,-24(r1)
 1800aec:	93 e1 00 14 	stw     r31,20(r1)
 1800af0:	7c 3f 0b 78 	mr      r31,r1
 1800af4:	7c 60 1b 78 	mr      r0,r3
 1800af8:	98 1f 00 08 	stb     r0,8(r31)
 1800afc:	3c 00 01 81 	lis     r0,385
 1800b00:	7c 09 03 78 	mr      r9,r0
 1800b04:	80 09 13 a4 	lwz     r0,5028(r9)
 1800b08:	89 3f 00 08 	lbz     r9,8(r31)
 1800b0c:	7c 0b 03 78 	mr      r11,r0
 1800b10:	99 2b 00 00 	stb     r9,0(r11)
 1800b14:	31 20 00 01 	addic   r9,r0,1
 1800b18:	3c 00 01 81 	lis     r0,385
 1800b1c:	7c 0b 03 78 	mr      r11,r0
 1800b20:	91 2b 13 a4 	stw     r9,5028(r11)
 1800b24:	39 7f 00 18 	addi    r11,r31,24
 1800b28:	83 eb ff fc 	lwz     r31,-4(r11)
 1800b2c:	7d 61 5b 78 	mr      r1,r11
 1800b30:	4e 80 00 20 	blr

01800b34 <writebytes>:
 1800b34:	94 21 ff d8 	stwu    r1,-40(r1)
 1800b38:	93 e1 00 24 	stw     r31,36(r1)
 1800b3c:	7c 3f 0b 78 	mr      r31,r1
 1800b40:	90 7f 00 18 	stw     r3,24(r31)
 1800b44:	90 9f 00 1c 	stw     r4,28(r31)
 1800b48:	38 00 00 00 	li      r0,0
 1800b4c:	90 1f 00 08 	stw     r0,8(r31)
 1800b50:	48 00 00 48 	b       1800b98 <writebytes+0x64>
 1800b54:	3c 00 01 81 	lis     r0,385
 1800b58:	7c 09 03 78 	mr      r9,r0
 1800b5c:	80 09 13 a4 	lwz     r0,5028(r9)
 1800b60:	81 3f 00 08 	lwz     r9,8(r31)
 1800b64:	81 7f 00 18 	lwz     r11,24(r31)
 1800b68:	7d 2b 4a 14 	add     r9,r11,r9
 1800b6c:	89 29 00 00 	lbz     r9,0(r9)
 1800b70:	55 29 06 3e 	clrlwi  r9,r9,24
 1800b74:	7c 0b 03 78 	mr      r11,r0
 1800b78:	99 2b 00 00 	stb     r9,0(r11)
 1800b7c:	31 20 00 01 	addic   r9,r0,1
 1800b80:	3c 00 01 81 	lis     r0,385
 1800b84:	7c 0b 03 78 	mr      r11,r0
 1800b88:	91 2b 13 a4 	stw     r9,5028(r11)
 1800b8c:	80 1f 00 08 	lwz     r0,8(r31)
 1800b90:	30 00 00 01 	addic   r0,r0,1
 1800b94:	90 1f 00 08 	stw     r0,8(r31)
 1800b98:	81 3f 00 08 	lwz     r9,8(r31)
 1800b9c:	80 1f 00 1c 	lwz     r0,28(r31)
 1800ba0:	7f 89 00 00 	cmpw    cr7,r9,r0
 1800ba4:	40 9c 00 10 	bge-    cr7,1800bb4 <writebytes+0x80>
 1800ba8:	80 1f 00 08 	lwz     r0,8(r31)
 1800bac:	2f 80 00 0f 	cmpwi   cr7,r0,15
 1800bb0:	40 9d ff a4 	ble+    cr7,1800b54 <writebytes+0x20>
 1800bb4:	39 7f 00 28 	addi    r11,r31,40
 1800bb8:	83 eb ff fc 	lwz     r31,-4(r11)
 1800bbc:	7d 61 5b 78 	mr      r1,r11
 1800bc0:	4e 80 00 20 	blr

01800bc4 <output>:
 1800bc4:	94 21 ff e0 	stwu    r1,-32(r1)
 1800bc8:	7c 08 02 a6 	mflr    r0
 1800bcc:	90 01 00 24 	stw     r0,36(r1)
 1800bd0:	93 81 00 10 	stw     r28,16(r1)
 1800bd4:	93 a1 00 14 	stw     r29,20(r1)
 1800bd8:	93 c1 00 18 	stw     r30,24(r1)
 1800bdc:	93 e1 00 1c 	stw     r31,28(r1)
 1800be0:	7c 3f 0b 78 	mr      r31,r1
 1800be4:	90 7f 00 08 	stw     r3,8(r31)
 1800be8:	3c 00 01 81 	lis     r0,385
 1800bec:	7c 09 03 78 	mr      r9,r0
 1800bf0:	83 89 13 dc 	lwz     r28,5084(r9)
 1800bf4:	3c 00 01 81 	lis     r0,385
 1800bf8:	7c 0b 03 78 	mr      r11,r0
 1800bfc:	83 ab 13 ac 	lwz     r29,5036(r11)
 1800c00:	3c 00 01 81 	lis     r0,385
 1800c04:	33 c0 1a b8 	addic   r30,r0,6840
 1800c08:	80 1f 00 08 	lwz     r0,8(r31)
 1800c0c:	2f 80 00 00 	cmpwi   cr7,r0,0
 1800c10:	41 9c 03 08 	blt-    cr7,1800f18 <output+0x354>
 1800c14:	7f 80 1e 70 	srawi   r0,r28,3
 1800c18:	7f de 02 14 	add     r30,r30,r0
 1800c1c:	57 9c 07 7e 	clrlwi  r28,r28,29
 1800c20:	88 1e 00 00 	lbz     r0,0(r30)
 1800c24:	54 09 06 3e 	clrlwi  r9,r0,24
 1800c28:	7f 80 e3 78 	mr      r0,r28
 1800c2c:	3d 60 01 81 	lis     r11,385
 1800c30:	39 6b 13 50 	addi    r11,r11,4944
 1800c34:	7c 0b 00 ae 	lbzx    r0,r11,r0
 1800c38:	54 00 06 3e 	clrlwi  r0,r0,24
 1800c3c:	7d 20 00 38 	and     r0,r9,r0
 1800c40:	54 00 06 3e 	clrlwi  r0,r0,24
 1800c44:	7c 09 07 74 	extsb   r9,r0
 1800c48:	80 1f 00 08 	lwz     r0,8(r31)
 1800c4c:	7c 00 e0 30 	slw     r0,r0,r28
 1800c50:	7c 0b 07 74 	extsb   r11,r0
 1800c54:	7f 80 e3 78 	mr      r0,r28
 1800c58:	3d 40 01 81 	lis     r10,385
 1800c5c:	39 4a 13 44 	addi    r10,r10,4932
 1800c60:	7c 0a 00 ae 	lbzx    r0,r10,r0
 1800c64:	54 00 06 3e 	clrlwi  r0,r0,24
 1800c68:	7c 00 07 74 	extsb   r0,r0
 1800c6c:	7d 60 00 38 	and     r0,r11,r0
 1800c70:	7c 00 07 74 	extsb   r0,r0
 1800c74:	7d 20 03 78 	or      r0,r9,r0
 1800c78:	7c 00 07 74 	extsb   r0,r0
 1800c7c:	54 00 06 3e 	clrlwi  r0,r0,24
 1800c80:	98 1e 00 00 	stb     r0,0(r30)
 1800c84:	3b de 00 01 	addi    r30,r30,1
 1800c88:	38 1c ff f8 	addi    r0,r28,-8
 1800c8c:	7f bd 02 14 	add     r29,r29,r0
 1800c90:	20 1c 00 08 	subfic  r0,r28,8
 1800c94:	81 3f 00 08 	lwz     r9,8(r31)
 1800c98:	7d 20 06 30 	sraw    r0,r9,r0
 1800c9c:	90 1f 00 08 	stw     r0,8(r31)
 1800ca0:	2f 9d 00 07 	cmpwi   cr7,r29,7
 1800ca4:	40 9d 00 24 	ble-    cr7,1800cc8 <output+0x104>
 1800ca8:	80 1f 00 08 	lwz     r0,8(r31)
 1800cac:	54 00 06 3e 	clrlwi  r0,r0,24
 1800cb0:	98 1e 00 00 	stb     r0,0(r30)
 1800cb4:	3b de 00 01 	addi    r30,r30,1
 1800cb8:	80 1f 00 08 	lwz     r0,8(r31)
 1800cbc:	7c 00 46 70 	srawi   r0,r0,8
 1800cc0:	90 1f 00 08 	stw     r0,8(r31)
 1800cc4:	3b bd ff f8 	addi    r29,r29,-8
 1800cc8:	2f 9d 00 00 	cmpwi   cr7,r29,0
 1800ccc:	41 9e 00 10 	beq-    cr7,1800cdc <output+0x118>
 1800cd0:	80 1f 00 08 	lwz     r0,8(r31)
 1800cd4:	54 00 06 3e 	clrlwi  r0,r0,24
 1800cd8:	98 1e 00 00 	stb     r0,0(r30)
 1800cdc:	3c 00 01 81 	lis     r0,385
 1800ce0:	7c 0b 03 78 	mr      r11,r0
 1800ce4:	81 2b 13 dc 	lwz     r9,5084(r11)
 1800ce8:	3c 00 01 81 	lis     r0,385
 1800cec:	7c 0b 03 78 	mr      r11,r0
 1800cf0:	80 0b 13 ac 	lwz     r0,5036(r11)
 1800cf4:	7d 29 02 14 	add     r9,r9,r0
 1800cf8:	3c 00 01 81 	lis     r0,385
 1800cfc:	7c 0b 03 78 	mr      r11,r0
 1800d00:	91 2b 13 dc 	stw     r9,5084(r11)
 1800d04:	3c 00 01 81 	lis     r0,385
 1800d08:	7c 09 03 78 	mr      r9,r0
 1800d0c:	80 09 13 ac 	lwz     r0,5036(r9)
 1800d10:	54 09 18 38 	rlwinm  r9,r0,3,0,28
 1800d14:	3c 00 01 81 	lis     r0,385
 1800d18:	7c 0b 03 78 	mr      r11,r0
 1800d1c:	80 0b 13 dc 	lwz     r0,5084(r11)
 1800d20:	7f 89 00 00 	cmpw    cr7,r9,r0
 1800d24:	40 9e 00 7c 	bne-    cr7,1800da0 <output+0x1dc>
 1800d28:	3c 00 01 81 	lis     r0,385
 1800d2c:	33 c0 1a b8 	addic   r30,r0,6840
 1800d30:	3c 00 01 81 	lis     r0,385
 1800d34:	7c 09 03 78 	mr      r9,r0
 1800d38:	83 a9 13 ac 	lwz     r29,5036(r9)
 1800d3c:	3c 00 01 81 	lis     r0,385
 1800d40:	7c 0b 03 78 	mr      r11,r0
 1800d44:	80 0b 13 a8 	lwz     r0,5032(r11)
 1800d48:	7d 20 ea 14 	add     r9,r0,r29
 1800d4c:	3c 00 01 81 	lis     r0,385
 1800d50:	7c 0b 03 78 	mr      r11,r0
 1800d54:	91 2b 13 a8 	stw     r9,5032(r11)
 1800d58:	88 1e 00 00 	lbz     r0,0(r30)
 1800d5c:	54 00 06 3e 	clrlwi  r0,r0,24
 1800d60:	3b de 00 01 	addi    r30,r30,1
 1800d64:	7c 03 03 78 	mr      r3,r0
 1800d68:	4b ff fd 81 	bl      1800ae8 <putbyte>
 1800d6c:	3b bd ff ff 	addi    r29,r29,-1
 1800d70:	2f 9d 00 00 	cmpwi   cr7,r29,0
 1800d74:	41 9e 00 1c 	beq-    cr7,1800d90 <output+0x1cc>
 1800d78:	7f c9 f3 78 	mr      r9,r30
 1800d7c:	3c 00 01 81 	lis     r0,385
 1800d80:	30 00 1a b8 	addic   r0,r0,6840
 1800d84:	7c 00 48 50 	subf    r0,r0,r9
 1800d88:	2f 80 00 0f 	cmpwi   cr7,r0,15
 1800d8c:	40 9d ff cc 	ble+    cr7,1800d58 <output+0x194>
 1800d90:	3c 00 01 81 	lis     r0,385
 1800d94:	39 20 00 00 	li      r9,0
 1800d98:	7c 0b 03 78 	mr      r11,r0
 1800d9c:	91 2b 13 dc 	stw     r9,5084(r11)
 1800da0:	3c 00 01 81 	lis     r0,385
 1800da4:	7c 0b 03 78 	mr      r11,r0
 1800da8:	81 2b 13 80 	lwz     r9,4992(r11)
 1800dac:	3c 00 01 81 	lis     r0,385
 1800db0:	7c 0b 03 78 	mr      r11,r0
 1800db4:	80 0b 13 b4 	lwz     r0,5044(r11)
 1800db8:	7f 89 00 00 	cmpw    cr7,r9,r0
 1800dbc:	41 9d 00 18 	bgt-    cr7,1800dd4 <output+0x210>
 1800dc0:	3c 00 01 81 	lis     r0,385
 1800dc4:	7c 09 03 78 	mr      r9,r0
 1800dc8:	80 09 13 8c 	lwz     r0,5004(r9)
 1800dcc:	2f 80 00 00 	cmpwi   cr7,r0,0
 1800dd0:	40 9d 01 cc 	ble-    cr7,1800f9c <output+0x3d8>
 1800dd4:	3c 00 01 81 	lis     r0,385
 1800dd8:	7c 0b 03 78 	mr      r11,r0
 1800ddc:	80 0b 13 dc 	lwz     r0,5084(r11)
 1800de0:	2f 80 00 00 	cmpwi   cr7,r0,0
 1800de4:	40 9d 00 48 	ble-    cr7,1800e2c <output+0x268>
 1800de8:	3c 00 01 81 	lis     r0,385
 1800dec:	7c 09 03 78 	mr      r9,r0
 1800df0:	80 09 13 ac 	lwz     r0,5036(r9)
 1800df4:	3d 20 01 81 	lis     r9,385
 1800df8:	38 69 1a b8 	addi    r3,r9,6840
 1800dfc:	7c 04 03 78 	mr      r4,r0
 1800e00:	4b ff fd 35 	bl      1800b34 <writebytes>
 1800e04:	3c 00 01 81 	lis     r0,385
 1800e08:	7c 0b 03 78 	mr      r11,r0
 1800e0c:	81 2b 13 a8 	lwz     r9,5032(r11)
 1800e10:	3c 00 01 81 	lis     r0,385
 1800e14:	7c 0b 03 78 	mr      r11,r0
 1800e18:	80 0b 13 ac 	lwz     r0,5036(r11)
 1800e1c:	7d 29 02 14 	add     r9,r9,r0
 1800e20:	3c 00 01 81 	lis     r0,385
 1800e24:	7c 0b 03 78 	mr      r11,r0
 1800e28:	91 2b 13 a8 	stw     r9,5032(r11)
 1800e2c:	3c 00 01 81 	lis     r0,385
 1800e30:	39 20 00 00 	li      r9,0
 1800e34:	7c 0b 03 78 	mr      r11,r0
 1800e38:	91 2b 13 dc 	stw     r9,5084(r11)
 1800e3c:	3c 00 01 81 	lis     r0,385
 1800e40:	7c 09 03 78 	mr      r9,r0
 1800e44:	80 09 13 8c 	lwz     r0,5004(r9)
 1800e48:	2f 80 00 00 	cmpwi   cr7,r0,0
 1800e4c:	41 9e 00 4c 	beq-    cr7,1800e98 <output+0x2d4>
 1800e50:	3c 00 01 81 	lis     r0,385
 1800e54:	39 20 00 09 	li      r9,9
 1800e58:	7c 0b 03 78 	mr      r11,r0
 1800e5c:	91 2b 13 ac 	stw     r9,5036(r11)
 1800e60:	3c 00 01 81 	lis     r0,385
 1800e64:	7c 09 03 78 	mr      r9,r0
 1800e68:	80 09 13 ac 	lwz     r0,5036(r9)
 1800e6c:	39 20 00 01 	li      r9,1
 1800e70:	7d 20 00 30 	slw     r0,r9,r0
 1800e74:	31 20 ff ff 	addic   r9,r0,-1
 1800e78:	3c 00 01 81 	lis     r0,385
 1800e7c:	7c 0b 03 78 	mr      r11,r0
 1800e80:	91 2b 13 b4 	stw     r9,5044(r11)
 1800e84:	3c 00 01 81 	lis     r0,385
 1800e88:	39 20 00 00 	li      r9,0
 1800e8c:	7c 0b 03 78 	mr      r11,r0
 1800e90:	91 2b 13 8c 	stw     r9,5004(r11)
 1800e94:	48 00 01 0c 	b       1800fa0 <output+0x3dc>
 1800e98:	3c 00 01 81 	lis     r0,385
 1800e9c:	7c 09 03 78 	mr      r9,r0
 1800ea0:	80 09 13 ac 	lwz     r0,5036(r9)
 1800ea4:	31 20 00 01 	addic   r9,r0,1
 1800ea8:	3c 00 01 81 	lis     r0,385
 1800eac:	7c 0b 03 78 	mr      r11,r0
 1800eb0:	91 2b 13 ac 	stw     r9,5036(r11)
 1800eb4:	3c 00 01 81 	lis     r0,385
 1800eb8:	7c 0b 03 78 	mr      r11,r0
 1800ebc:	81 2b 13 ac 	lwz     r9,5036(r11)
 1800ec0:	3c 00 01 81 	lis     r0,385
 1800ec4:	7c 0b 03 78 	mr      r11,r0
 1800ec8:	80 0b 13 60 	lwz     r0,4960(r11)
 1800ecc:	7f 89 00 00 	cmpw    cr7,r9,r0
 1800ed0:	40 9e 00 20 	bne-    cr7,1800ef0 <output+0x32c>
 1800ed4:	3c 00 01 81 	lis     r0,385
 1800ed8:	7c 0b 03 78 	mr      r11,r0
 1800edc:	81 2b 13 64 	lwz     r9,4964(r11)
 1800ee0:	3c 00 01 81 	lis     r0,385
 1800ee4:	7c 0b 03 78 	mr      r11,r0
 1800ee8:	91 2b 13 b4 	stw     r9,5044(r11)
 1800eec:	48 00 00 b4 	b       1800fa0 <output+0x3dc>
 1800ef0:	3c 00 01 81 	lis     r0,385
 1800ef4:	7c 09 03 78 	mr      r9,r0
 1800ef8:	80 09 13 ac 	lwz     r0,5036(r9)
 1800efc:	39 20 00 01 	li      r9,1
 1800f00:	7d 20 00 30 	slw     r0,r9,r0
 1800f04:	31 20 ff ff 	addic   r9,r0,-1
 1800f08:	3c 00 01 81 	lis     r0,385
 1800f0c:	7c 0b 03 78 	mr      r11,r0
 1800f10:	91 2b 13 b4 	stw     r9,5044(r11)
 1800f14:	48 00 00 8c 	b       1800fa0 <output+0x3dc>
 1800f18:	3c 00 01 81 	lis     r0,385
 1800f1c:	7c 09 03 78 	mr      r9,r0
 1800f20:	80 09 13 dc 	lwz     r0,5084(r9)
 1800f24:	2f 80 00 00 	cmpwi   cr7,r0,0
 1800f28:	40 9d 00 2c 	ble-    cr7,1800f54 <output+0x390>
 1800f2c:	3c 00 01 81 	lis     r0,385
 1800f30:	7c 0b 03 78 	mr      r11,r0
 1800f34:	80 0b 13 dc 	lwz     r0,5084(r11)
 1800f38:	30 00 00 07 	addic   r0,r0,7
 1800f3c:	7c 00 1e 70 	srawi   r0,r0,3
 1800f40:	7c 00 01 94 	addze   r0,r0
 1800f44:	3d 20 01 81 	lis     r9,385
 1800f48:	38 69 1a b8 	addi    r3,r9,6840
 1800f4c:	7c 04 03 78 	mr      r4,r0
 1800f50:	4b ff fb e5 	bl      1800b34 <writebytes>
 1800f54:	3c 00 01 81 	lis     r0,385
 1800f58:	7c 09 03 78 	mr      r9,r0
 1800f5c:	80 09 13 dc 	lwz     r0,5084(r9)
 1800f60:	30 00 00 07 	addic   r0,r0,7
 1800f64:	7c 09 1e 70 	srawi   r9,r0,3
 1800f68:	7d 29 01 94 	addze   r9,r9
 1800f6c:	3c 00 01 81 	lis     r0,385
 1800f70:	7c 0b 03 78 	mr      r11,r0
 1800f74:	80 0b 13 a8 	lwz     r0,5032(r11)
 1800f78:	7d 29 02 14 	add     r9,r9,r0
 1800f7c:	3c 00 01 81 	lis     r0,385
 1800f80:	7c 0b 03 78 	mr      r11,r0
 1800f84:	91 2b 13 a8 	stw     r9,5032(r11)
 1800f88:	3c 00 01 81 	lis     r0,385
 1800f8c:	39 20 00 00 	li      r9,0
 1800f90:	7c 0b 03 78 	mr      r11,r0
 1800f94:	91 2b 13 dc 	stw     r9,5084(r11)
 1800f98:	48 00 00 08 	b       1800fa0 <output+0x3dc>
 1800f9c:	60 00 00 00 	nop
 1800fa0:	39 7f 00 20 	addi    r11,r31,32
 1800fa4:	80 0b 00 04 	lwz     r0,4(r11)
 1800fa8:	7c 08 03 a6 	mtlr    r0
 1800fac:	83 8b ff f0 	lwz     r28,-16(r11)
 1800fb0:	83 ab ff f4 	lwz     r29,-12(r11)
 1800fb4:	83 cb ff f8 	lwz     r30,-8(r11)
 1800fb8:	83 eb ff fc 	lwz     r31,-4(r11)
 1800fbc:	7d 61 5b 78 	mr      r1,r11
 1800fc0:	4e 80 00 20 	blr

01800fc4 <_exit>:
 1800fc4:	94 21 ff e8 	stwu    r1,-24(r1)
 1800fc8:	93 e1 00 14 	stw     r31,20(r1)
 1800fcc:	7c 3f 0b 78 	mr      r31,r1
 1800fd0:	90 7f 00 08 	stw     r3,8(r31)
 1800fd4:	48 00 00 00 	b       1800fd4 <_exit+0x10>

01800fd8 <_start>:
 1800fd8:	94 21 ff f0 	stwu    r1,-16(r1)
 1800fdc:	7c 08 02 a6 	mflr    r0
 1800fe0:	90 01 00 14 	stw     r0,20(r1)
 1800fe4:	93 e1 00 0c 	stw     r31,12(r1)
 1800fe8:	7c 3f 0b 78 	mr      r31,r1
 1800fec:	38 60 00 00 	li      r3,0
 1800ff0:	38 80 00 00 	li      r4,0
 1800ff4:	4b ff f2 2d 	bl      1800220 <main>
 1800ff8:	38 60 00 00 	li      r3,0
 1800ffc:	4b ff ff c9 	bl      1800fc4 <_exit>

01801000 <__eabi>:
 1801000:	3d 40 01 81 	lis     r10,385
 1801004:	3d 60 01 81 	lis     r11,385
 1801008:	81 2a 13 5c 	lwz     r9,4956(r10)
 180100c:	39 6b 13 24 	addi    r11,r11,4900
 1801010:	29 09 00 00 	cmplwi  cr2,r9,0
 1801014:	4c 8a 00 20 	bnelr   cr2
 1801018:	90 2a 13 5c 	stw     r1,4956(r10)
 180101c:	80 6b 00 08 	lwz     r3,8(r11)
 1801020:	80 8b 00 0c 	lwz     r4,12(r11)
 1801024:	7c 83 20 00 	cmpw    cr1,r3,r4
 1801028:	41 86 00 08 	beq-    cr1,1801030 <__eabi+0x30>
 180102c:	81 ab 00 04 	lwz     r13,4(r11)
 1801030:	80 6b 00 14 	lwz     r3,20(r11)
 1801034:	80 8b 00 18 	lwz     r4,24(r11)
 1801038:	7c 83 20 00 	cmpw    cr1,r3,r4
 180103c:	41 a6 00 08 	beq+    cr1,1801044 <__eabi+0x44>
 1801040:	80 4b 00 10 	lwz     r2,16(r11)
 1801044:	4b ff f0 50 	b       1800094 <__init>

01801048 <__eabi_convert>:
 1801048:	7c 83 20 40 	cmplw   cr1,r3,r4
 180104c:	7c a3 20 50 	subf    r5,r3,r4
 1801050:	4c 84 00 20 	bgelr   cr1
 1801054:	7c a5 16 70 	srawi   r5,r5,2
 1801058:	38 63 ff fc 	addi    r3,r3,-4
 180105c:	7c a9 03 a6 	mtctr   r5
 1801060:	84 c3 00 04 	lwzu    r6,4(r3)
 1801064:	2c 06 00 00 	cmpwi   r6,0
 1801068:	41 82 00 0c 	beq-    1801074 <__eabi_convert+0x2c>
 180106c:	7c c6 62 14 	add     r6,r6,r12
 1801070:	90 c3 00 00 	stw     r6,0(r3)
 1801074:	42 00 ff ec 	bdnz+   1801060 <__eabi_convert+0x18>
 1801078:	4e 80 00 20 	blr

0180107c <__eabi_uconvert>:
 180107c:	7c 83 20 40 	cmplw   cr1,r3,r4
 1801080:	7c a3 20 50 	subf    r5,r3,r4
 1801084:	4c 84 00 20 	bgelr   cr1
 1801088:	7c a5 16 70 	srawi   r5,r5,2
 180108c:	38 63 ff fc 	addi    r3,r3,-4
 1801090:	7c a9 03 a6 	mtctr   r5
 1801094:	84 c3 00 04 	lwzu    r6,4(r3)
 1801098:	7c c6 62 14 	add     r6,r6,r12
 180109c:	80 e6 00 00 	lwz     r7,0(r6)
 18010a0:	90 c3 00 00 	stw     r6,0(r3)
 18010a4:	7c e7 62 14 	add     r7,r7,r12
 18010a8:	90 e6 00 00 	stw     r7,0(r6)
 18010ac:	42 00 ff e8 	bdnz+   1801094 <__eabi_uconvert+0x18>
 18010b0:	4e 80 00 20 	blr

018010b4 <__do_global_ctors_aux>:
 18010b4:	7c 08 02 a6 	mflr    r0
 18010b8:	94 21 ff f0 	stwu    r1,-16(r1)
 18010bc:	93 e1 00 0c 	stw     r31,12(r1)
 18010c0:	3f e0 01 81 	lis     r31,385
 18010c4:	90 01 00 14 	stw     r0,20(r1)
 18010c8:	3b ff 13 14 	addi    r31,r31,4884
 18010cc:	80 1f ff fc 	lwz     r0,-4(r31)
 18010d0:	2f 80 ff ff 	cmpwi   cr7,r0,-1
 18010d4:	41 9e 00 1c 	beq-    cr7,18010f0 <__do_global_ctors_aux+0x3c>
 18010d8:	3b ff ff fc 	addi    r31,r31,-4
 18010dc:	7c 09 03 a6 	mtctr   r0
 18010e0:	4e 80 04 21 	bctrl
 18010e4:	84 1f ff fc 	lwzu    r0,-4(r31)
 18010e8:	2f 80 ff ff 	cmpwi   cr7,r0,-1
 18010ec:	40 9e ff f0 	bne+    cr7,18010dc <__do_global_ctors_aux+0x28>
 18010f0:	80 01 00 14 	lwz     r0,20(r1)
 18010f4:	83 e1 00 0c 	lwz     r31,12(r1)
 18010f8:	38 21 00 10 	addi    r1,r1,16
 18010fc:	7c 08 03 a6 	mtlr    r0
 1801100:	4e 80 00 20 	blr

01801104 <call___do_global_ctors_aux>:
 1801104:	7c 08 02 a6 	mflr    r0
 1801108:	94 21 ff f8 	stwu    r1,-8(r1)
 180110c:	90 01 00 0c 	stw     r0,12(r1)
 1801110:	80 01 00 0c 	lwz     r0,12(r1)
 1801114:	38 21 00 08 	addi    r1,r1,8
 1801118:	7c 08 03 a6 	mtlr    r0
 180111c:	4e 80 00 20 	blr

Disassembly of section .fini:

01801120 <__fini>:
 1801120:	94 21 ff f0 	stwu    r1,-16(r1)
 1801124:	7c 08 02 a6 	mflr    r0
 1801128:	90 01 00 14 	stw     r0,20(r1)
 180112c:	4b ff ef 8d 	bl      18000b8 <__do_global_dtors_aux>
 1801130:	80 01 00 14 	lwz     r0,20(r1)
 1801134:	7c 08 03 a6 	mtlr    r0
 1801138:	38 21 00 10 	addi    r1,r1,16
 180113c:	4e 80 00 20 	blr
