
/home/vaillant/ppc2/perf/malardalen/ppc-eabi/gcc-4.4.2/ndes/ndes.elf:     file format elf32-powerpc


Disassembly of section .init:

01800094 <__init>:
 1800094:	94 21 ff f0 	stwu    r1,-16(r1)
 1800098:	7c 08 02 a6 	mflr    r0
 180009c:	90 01 00 14 	stw     r0,20(r1)
 18000a0:	48 00 00 f9 	bl      1800198 <frame_dummy>
 18000a4:	48 00 12 29 	bl      18012cc <__do_global_ctors_aux>
 18000a8:	80 01 00 14 	lwz     r0,20(r1)
 18000ac:	7c 08 03 a6 	mtlr    r0
 18000b0:	38 21 00 10 	addi    r1,r1,16
 18000b4:	4e 80 00 20 	blr

Disassembly of section .text:

018000b8 <__do_global_dtors_aux>:
 18000b8:	94 21 ff e8 	stwu    r1,-24(r1)
 18000bc:	7c 08 02 a6 	mflr    r0
 18000c0:	93 e1 00 14 	stw     r31,20(r1)
 18000c4:	3f e0 01 81 	lis     r31,385
 18000c8:	90 01 00 1c 	stw     r0,28(r1)
 18000cc:	88 1f 18 68 	lbz     r0,6248(r31)
 18000d0:	93 81 00 08 	stw     r28,8(r1)
 18000d4:	2f 80 00 00 	cmpwi   cr7,r0,0
 18000d8:	93 a1 00 0c 	stw     r29,12(r1)
 18000dc:	93 c1 00 10 	stw     r30,16(r1)
 18000e0:	40 9e 00 7c 	bne-    cr7,180015c <__do_global_dtors_aux+0xa4>
 18000e4:	3f 80 01 81 	lis     r28,385
 18000e8:	3f a0 01 81 	lis     r29,385
 18000ec:	3b 9c 14 90 	addi    r28,r28,5264
 18000f0:	3b bd 14 94 	addi    r29,r29,5268
 18000f4:	7f bc e8 50 	subf    r29,r28,r29
 18000f8:	3f c0 01 81 	lis     r30,385
 18000fc:	7f bd 16 70 	srawi   r29,r29,2
 1800100:	81 3e 18 6c 	lwz     r9,6252(r30)
 1800104:	3b bd ff ff 	addi    r29,r29,-1
 1800108:	7f 89 e8 40 	cmplw   cr7,r9,r29
 180010c:	40 9c 00 2c 	bge-    cr7,1800138 <__do_global_dtors_aux+0x80>
 1800110:	3b de 18 6c 	addi    r30,r30,6252
 1800114:	39 29 00 01 	addi    r9,r9,1
 1800118:	55 20 10 3a 	rlwinm  r0,r9,2,0,29
 180011c:	91 3e 00 00 	stw     r9,0(r30)
 1800120:	7c 1c 00 2e 	lwzx    r0,r28,r0
 1800124:	7c 09 03 a6 	mtctr   r0
 1800128:	4e 80 04 21 	bctrl
 180012c:	81 3e 00 00 	lwz     r9,0(r30)
 1800130:	7f 89 e8 40 	cmplw   cr7,r9,r29
 1800134:	41 9c ff e0 	blt+    cr7,1800114 <__do_global_dtors_aux+0x5c>
 1800138:	3d 20 00 00 	lis     r9,0
 180013c:	38 09 00 00 	addi    r0,r9,0
 1800140:	2f 80 00 00 	cmpwi   cr7,r0,0
 1800144:	41 9e 00 10 	beq-    cr7,1800154 <__do_global_dtors_aux+0x9c>
 1800148:	3c 60 01 81 	lis     r3,385
 180014c:	38 63 13 9c 	addi    r3,r3,5020
 1800150:	4a 7f fe b1 	bl      0 <__init-0x1800094>
 1800154:	38 00 00 01 	li      r0,1
 1800158:	98 1f 18 68 	stb     r0,6248(r31)
 180015c:	80 01 00 1c 	lwz     r0,28(r1)
 1800160:	83 81 00 08 	lwz     r28,8(r1)
 1800164:	7c 08 03 a6 	mtlr    r0
 1800168:	83 a1 00 0c 	lwz     r29,12(r1)
 180016c:	83 c1 00 10 	lwz     r30,16(r1)
 1800170:	83 e1 00 14 	lwz     r31,20(r1)
 1800174:	38 21 00 18 	addi    r1,r1,24
 1800178:	4e 80 00 20 	blr

0180017c <call___do_global_dtors_aux>:
 180017c:	7c 08 02 a6 	mflr    r0
 1800180:	94 21 ff f8 	stwu    r1,-8(r1)
 1800184:	90 01 00 0c 	stw     r0,12(r1)
 1800188:	80 01 00 0c 	lwz     r0,12(r1)
 180018c:	38 21 00 08 	addi    r1,r1,8
 1800190:	7c 08 03 a6 	mtlr    r0
 1800194:	4e 80 00 20 	blr

01800198 <frame_dummy>:
 1800198:	7c 08 02 a6 	mflr    r0
 180019c:	94 21 ff f8 	stwu    r1,-8(r1)
 18001a0:	3d 20 00 00 	lis     r9,0
 18001a4:	90 01 00 0c 	stw     r0,12(r1)
 18001a8:	38 09 00 00 	addi    r0,r9,0
 18001ac:	2f 80 00 00 	cmpwi   cr7,r0,0
 18001b0:	41 9e 00 18 	beq-    cr7,18001c8 <frame_dummy+0x30>
 18001b4:	3c 60 01 81 	lis     r3,385
 18001b8:	3c 80 01 81 	lis     r4,385
 18001bc:	38 63 13 9c 	addi    r3,r3,5020
 18001c0:	38 84 18 70 	addi    r4,r4,6256
 18001c4:	4a 7f fe 3d 	bl      0 <__init-0x1800094>
 18001c8:	3c 60 01 81 	lis     r3,385
 18001cc:	80 03 14 98 	lwz     r0,5272(r3)
 18001d0:	38 63 14 98 	addi    r3,r3,5272
 18001d4:	2f 80 00 00 	cmpwi   cr7,r0,0
 18001d8:	41 9e 00 1c 	beq-    cr7,18001f4 <frame_dummy+0x5c>
 18001dc:	3d 20 00 00 	lis     r9,0
 18001e0:	38 09 00 00 	addi    r0,r9,0
 18001e4:	2f 80 00 00 	cmpwi   cr7,r0,0
 18001e8:	41 9e 00 0c 	beq-    cr7,18001f4 <frame_dummy+0x5c>
 18001ec:	7c 09 03 a6 	mtctr   r0
 18001f0:	4e 80 04 21 	bctrl
 18001f4:	80 01 00 0c 	lwz     r0,12(r1)
 18001f8:	38 21 00 08 	addi    r1,r1,8
 18001fc:	7c 08 03 a6 	mtlr    r0
 1800200:	4e 80 00 20 	blr

01800204 <call_frame_dummy>:
 1800204:	7c 08 02 a6 	mflr    r0
 1800208:	94 21 ff f8 	stwu    r1,-8(r1)
 180020c:	90 01 00 0c 	stw     r0,12(r1)
 1800210:	80 01 00 0c 	lwz     r0,12(r1)
 1800214:	38 21 00 08 	addi    r1,r1,8
 1800218:	7c 08 03 a6 	mtlr    r0
 180021c:	4e 80 00 20 	blr

01800220 <des>:
 1800220:	94 21 ff 90 	stwu    r1,-112(r1)
 1800224:	7c 08 02 a6 	mflr    r0
 1800228:	90 01 00 74 	stw     r0,116(r1)
 180022c:	93 81 00 60 	stw     r28,96(r1)
 1800230:	93 a1 00 64 	stw     r29,100(r1)
 1800234:	93 c1 00 68 	stw     r30,104(r1)
 1800238:	93 e1 00 6c 	stw     r31,108(r1)
 180023c:	7c 3f 0b 78 	mr      r31,r1
 1800240:	7c 7e 1b 78 	mr      r30,r3
 1800244:	7c 9d 23 78 	mr      r29,r4
 1800248:	90 bf 00 38 	stw     r5,56(r31)
 180024c:	90 df 00 3c 	stw     r6,60(r31)
 1800250:	90 ff 00 40 	stw     r7,64(r31)
 1800254:	3c 00 01 81 	lis     r0,385
 1800258:	7c 08 03 78 	mr      r8,r0
 180025c:	80 08 17 d4 	lwz     r0,6100(r8)
 1800260:	2f 80 00 00 	cmpwi   cr7,r0,0
 1800264:	41 9e 00 80 	beq-    cr7,18002e4 <des+0xc4>
 1800268:	3c 00 01 81 	lis     r0,385
 180026c:	39 20 00 00 	li      r9,0
 1800270:	7c 0a 03 78 	mr      r10,r0
 1800274:	91 2a 17 d4 	stw     r9,6100(r10)
 1800278:	38 00 00 01 	li      r0,1
 180027c:	90 1f 00 08 	stw     r0,8(r31)
 1800280:	3c 00 01 81 	lis     r0,385
 1800284:	30 00 19 5c 	addic   r0,r0,6492
 1800288:	81 3f 00 08 	lwz     r9,8(r31)
 180028c:	7c 0b 03 78 	mr      r11,r0
 1800290:	91 2b 00 04 	stw     r9,4(r11)
 1800294:	38 00 00 02 	li      r0,2
 1800298:	90 1f 00 10 	stw     r0,16(r31)
 180029c:	48 00 00 3c 	b       18002d8 <des+0xb8>
 18002a0:	80 1f 00 10 	lwz     r0,16(r31)
 18002a4:	81 3f 00 08 	lwz     r9,8(r31)
 18002a8:	55 29 08 3c 	rlwinm  r9,r9,1,0,30
 18002ac:	91 3f 00 08 	stw     r9,8(r31)
 18002b0:	3d 20 01 81 	lis     r9,385
 18002b4:	39 29 19 5c 	addi    r9,r9,6492
 18002b8:	54 00 10 3a 	rlwinm  r0,r0,2,0,29
 18002bc:	7c 09 02 14 	add     r0,r9,r0
 18002c0:	81 3f 00 08 	lwz     r9,8(r31)
 18002c4:	7c 08 03 78 	mr      r8,r0
 18002c8:	91 28 00 00 	stw     r9,0(r8)
 18002cc:	80 1f 00 10 	lwz     r0,16(r31)
 18002d0:	30 00 00 01 	addic   r0,r0,1
 18002d4:	90 1f 00 10 	stw     r0,16(r31)
 18002d8:	80 1f 00 10 	lwz     r0,16(r31)
 18002dc:	2f 80 00 20 	cmpwi   cr7,r0,32
 18002e0:	40 9d ff c0 	ble+    cr7,18002a0 <des+0x80>
 18002e4:	80 1f 00 38 	lwz     r0,56(r31)
 18002e8:	7c 09 03 78 	mr      r9,r0
 18002ec:	80 09 00 00 	lwz     r0,0(r9)
 18002f0:	2f 80 00 00 	cmpwi   cr7,r0,0
 18002f4:	41 9e 02 2c 	beq-    cr7,1800520 <des+0x300>
 18002f8:	80 1f 00 38 	lwz     r0,56(r31)
 18002fc:	39 20 00 00 	li      r9,0
 1800300:	7c 0a 03 78 	mr      r10,r0
 1800304:	91 2a 00 00 	stw     r9,0(r10)
 1800308:	3c 00 01 81 	lis     r0,385
 180030c:	30 00 18 88 	addic   r0,r0,6280
 1800310:	39 20 00 00 	li      r9,0
 1800314:	7c 0b 03 78 	mr      r11,r0
 1800318:	91 2b 00 00 	stw     r9,0(r11)
 180031c:	3c 00 01 81 	lis     r0,385
 1800320:	30 00 18 88 	addic   r0,r0,6280
 1800324:	7c 08 03 78 	mr      r8,r0
 1800328:	81 28 00 00 	lwz     r9,0(r8)
 180032c:	3c 00 01 81 	lis     r0,385
 1800330:	30 00 18 88 	addic   r0,r0,6280
 1800334:	7c 0a 03 78 	mr      r10,r0
 1800338:	91 2a 00 04 	stw     r9,4(r10)
 180033c:	38 00 00 1c 	li      r0,28
 1800340:	90 1f 00 10 	stw     r0,16(r31)
 1800344:	38 00 00 38 	li      r0,56
 1800348:	90 1f 00 0c 	stw     r0,12(r31)
 180034c:	48 00 01 24 	b       1800470 <des+0x250>
 1800350:	3c 00 01 81 	lis     r0,385
 1800354:	30 00 18 88 	addic   r0,r0,6280
 1800358:	7c 0b 03 78 	mr      r11,r0
 180035c:	80 0b 00 04 	lwz     r0,4(r11)
 1800360:	54 09 08 3c 	rlwinm  r9,r0,1,0,30
 1800364:	3c 00 01 81 	lis     r0,385
 1800368:	30 00 18 88 	addic   r0,r0,6280
 180036c:	7c 08 03 78 	mr      r8,r0
 1800370:	91 28 00 04 	stw     r9,4(r8)
 1800374:	3c 00 01 81 	lis     r0,385
 1800378:	30 00 18 88 	addic   r0,r0,6280
 180037c:	7c 09 03 78 	mr      r9,r0
 1800380:	83 89 00 04 	lwz     r28,4(r9)
 1800384:	80 1f 00 10 	lwz     r0,16(r31)
 1800388:	3d 20 01 81 	lis     r9,385
 180038c:	39 29 14 bc 	addi    r9,r9,5308
 1800390:	7c 09 00 ae 	lbzx    r0,r9,r0
 1800394:	54 00 06 3e 	clrlwi  r0,r0,24
 1800398:	81 3d 00 00 	lwz     r9,0(r29)
 180039c:	81 5d 00 04 	lwz     r10,4(r29)
 18003a0:	91 3f 00 48 	stw     r9,72(r31)
 18003a4:	91 5f 00 4c 	stw     r10,76(r31)
 18003a8:	39 3f 00 48 	addi    r9,r31,72
 18003ac:	7d 23 4b 78 	mr      r3,r9
 18003b0:	7c 04 03 78 	mr      r4,r0
 18003b4:	38 a0 00 20 	li      r5,32
 18003b8:	48 00 04 95 	bl      180084c <getbit>
 18003bc:	7c 60 1b 78 	mr      r0,r3
 18003c0:	7f 89 03 78 	or      r9,r28,r0
 18003c4:	3c 00 01 81 	lis     r0,385
 18003c8:	30 00 18 88 	addic   r0,r0,6280
 18003cc:	7c 0a 03 78 	mr      r10,r0
 18003d0:	91 2a 00 04 	stw     r9,4(r10)
 18003d4:	3c 00 01 81 	lis     r0,385
 18003d8:	30 00 18 88 	addic   r0,r0,6280
 18003dc:	7c 0b 03 78 	mr      r11,r0
 18003e0:	80 0b 00 00 	lwz     r0,0(r11)
 18003e4:	54 09 08 3c 	rlwinm  r9,r0,1,0,30
 18003e8:	3c 00 01 81 	lis     r0,385
 18003ec:	30 00 18 88 	addic   r0,r0,6280
 18003f0:	7c 08 03 78 	mr      r8,r0
 18003f4:	91 28 00 00 	stw     r9,0(r8)
 18003f8:	3c 00 01 81 	lis     r0,385
 18003fc:	30 00 18 88 	addic   r0,r0,6280
 1800400:	7c 09 03 78 	mr      r9,r0
 1800404:	83 89 00 00 	lwz     r28,0(r9)
 1800408:	80 1f 00 0c 	lwz     r0,12(r31)
 180040c:	3d 20 01 81 	lis     r9,385
 1800410:	39 29 14 bc 	addi    r9,r9,5308
 1800414:	7c 09 00 ae 	lbzx    r0,r9,r0
 1800418:	54 00 06 3e 	clrlwi  r0,r0,24
 180041c:	81 3d 00 00 	lwz     r9,0(r29)
 1800420:	81 5d 00 04 	lwz     r10,4(r29)
 1800424:	91 3f 00 48 	stw     r9,72(r31)
 1800428:	91 5f 00 4c 	stw     r10,76(r31)
 180042c:	39 3f 00 48 	addi    r9,r31,72
 1800430:	7d 23 4b 78 	mr      r3,r9
 1800434:	7c 04 03 78 	mr      r4,r0
 1800438:	38 a0 00 20 	li      r5,32
 180043c:	48 00 04 11 	bl      180084c <getbit>
 1800440:	7c 60 1b 78 	mr      r0,r3
 1800444:	7f 89 03 78 	or      r9,r28,r0
 1800448:	3c 00 01 81 	lis     r0,385
 180044c:	30 00 18 88 	addic   r0,r0,6280
 1800450:	7c 0a 03 78 	mr      r10,r0
 1800454:	91 2a 00 00 	stw     r9,0(r10)
 1800458:	80 1f 00 10 	lwz     r0,16(r31)
 180045c:	30 00 ff ff 	addic   r0,r0,-1
 1800460:	90 1f 00 10 	stw     r0,16(r31)
 1800464:	80 1f 00 0c 	lwz     r0,12(r31)
 1800468:	30 00 ff ff 	addic   r0,r0,-1
 180046c:	90 1f 00 0c 	stw     r0,12(r31)
 1800470:	80 1f 00 10 	lwz     r0,16(r31)
 1800474:	2f 80 00 00 	cmpwi   cr7,r0,0
 1800478:	41 9d fe d8 	bgt+    cr7,1800350 <des+0x130>
 180047c:	38 00 00 01 	li      r0,1
 1800480:	90 1f 00 14 	stw     r0,20(r31)
 1800484:	48 00 00 90 	b       1800514 <des+0x2f4>
 1800488:	80 1f 00 14 	lwz     r0,20(r31)
 180048c:	3d 20 01 81 	lis     r9,385
 1800490:	39 29 18 90 	addi    r9,r9,6288
 1800494:	1c 00 00 0c 	mulli   r0,r0,12
 1800498:	7c 09 02 14 	add     r0,r9,r0
 180049c:	7c 08 03 78 	mr      r8,r0
 18004a0:	81 68 00 00 	lwz     r11,0(r8)
 18004a4:	7c 0a 03 78 	mr      r10,r0
 18004a8:	81 2a 00 04 	lwz     r9,4(r10)
 18004ac:	7c 08 03 78 	mr      r8,r0
 18004b0:	80 08 00 08 	lwz     r0,8(r8)
 18004b4:	91 7f 00 28 	stw     r11,40(r31)
 18004b8:	91 3f 00 2c 	stw     r9,44(r31)
 18004bc:	90 1f 00 30 	stw     r0,48(r31)
 18004c0:	38 1f 00 28 	addi    r0,r31,40
 18004c4:	80 7f 00 14 	lwz     r3,20(r31)
 18004c8:	7c 04 03 78 	mr      r4,r0
 18004cc:	48 00 04 39 	bl      1800904 <ks>
 18004d0:	80 1f 00 14 	lwz     r0,20(r31)
 18004d4:	3d 20 01 81 	lis     r9,385
 18004d8:	39 29 18 90 	addi    r9,r9,6288
 18004dc:	1c 00 00 0c 	mulli   r0,r0,12
 18004e0:	7c 09 02 14 	add     r0,r9,r0
 18004e4:	81 5f 00 28 	lwz     r10,40(r31)
 18004e8:	81 7f 00 2c 	lwz     r11,44(r31)
 18004ec:	81 3f 00 30 	lwz     r9,48(r31)
 18004f0:	7c 08 03 78 	mr      r8,r0
 18004f4:	91 48 00 00 	stw     r10,0(r8)
 18004f8:	7c 0a 03 78 	mr      r10,r0
 18004fc:	91 6a 00 04 	stw     r11,4(r10)
 1800500:	7c 0b 03 78 	mr      r11,r0
 1800504:	91 2b 00 08 	stw     r9,8(r11)
 1800508:	80 1f 00 14 	lwz     r0,20(r31)
 180050c:	30 00 00 01 	addic   r0,r0,1
 1800510:	90 1f 00 14 	stw     r0,20(r31)
 1800514:	80 1f 00 14 	lwz     r0,20(r31)
 1800518:	2f 80 00 10 	cmpwi   cr7,r0,16
 180051c:	40 9d ff 6c 	ble+    cr7,1800488 <des+0x268>
 1800520:	38 00 00 00 	li      r0,0
 1800524:	90 1f 00 20 	stw     r0,32(r31)
 1800528:	80 1f 00 20 	lwz     r0,32(r31)
 180052c:	90 1f 00 24 	stw     r0,36(r31)
 1800530:	38 00 00 20 	li      r0,32
 1800534:	90 1f 00 10 	stw     r0,16(r31)
 1800538:	38 00 00 40 	li      r0,64
 180053c:	90 1f 00 0c 	stw     r0,12(r31)
 1800540:	48 00 00 c4 	b       1800604 <des+0x3e4>
 1800544:	80 1f 00 24 	lwz     r0,36(r31)
 1800548:	54 00 08 3c 	rlwinm  r0,r0,1,0,30
 180054c:	90 1f 00 24 	stw     r0,36(r31)
 1800550:	83 bf 00 24 	lwz     r29,36(r31)
 1800554:	80 1f 00 10 	lwz     r0,16(r31)
 1800558:	3d 20 01 81 	lis     r9,385
 180055c:	39 29 17 d8 	addi    r9,r9,6104
 1800560:	7c 09 00 ae 	lbzx    r0,r9,r0
 1800564:	54 00 06 3e 	clrlwi  r0,r0,24
 1800568:	81 3e 00 00 	lwz     r9,0(r30)
 180056c:	81 5e 00 04 	lwz     r10,4(r30)
 1800570:	91 3f 00 48 	stw     r9,72(r31)
 1800574:	91 5f 00 4c 	stw     r10,76(r31)
 1800578:	39 3f 00 48 	addi    r9,r31,72
 180057c:	7d 23 4b 78 	mr      r3,r9
 1800580:	7c 04 03 78 	mr      r4,r0
 1800584:	38 a0 00 20 	li      r5,32
 1800588:	48 00 02 c5 	bl      180084c <getbit>
 180058c:	7c 60 1b 78 	mr      r0,r3
 1800590:	7f a0 03 78 	or      r0,r29,r0
 1800594:	90 1f 00 24 	stw     r0,36(r31)
 1800598:	80 1f 00 20 	lwz     r0,32(r31)
 180059c:	54 00 08 3c 	rlwinm  r0,r0,1,0,30
 18005a0:	90 1f 00 20 	stw     r0,32(r31)
 18005a4:	83 bf 00 20 	lwz     r29,32(r31)
 18005a8:	80 1f 00 0c 	lwz     r0,12(r31)
 18005ac:	3d 20 01 81 	lis     r9,385
 18005b0:	39 29 17 d8 	addi    r9,r9,6104
 18005b4:	7c 09 00 ae 	lbzx    r0,r9,r0
 18005b8:	54 00 06 3e 	clrlwi  r0,r0,24
 18005bc:	81 3e 00 00 	lwz     r9,0(r30)
 18005c0:	81 5e 00 04 	lwz     r10,4(r30)
 18005c4:	91 3f 00 48 	stw     r9,72(r31)
 18005c8:	91 5f 00 4c 	stw     r10,76(r31)
 18005cc:	39 3f 00 48 	addi    r9,r31,72
 18005d0:	7d 23 4b 78 	mr      r3,r9
 18005d4:	7c 04 03 78 	mr      r4,r0
 18005d8:	38 a0 00 20 	li      r5,32
 18005dc:	48 00 02 71 	bl      180084c <getbit>
 18005e0:	7c 60 1b 78 	mr      r0,r3
 18005e4:	7f a0 03 78 	or      r0,r29,r0
 18005e8:	90 1f 00 20 	stw     r0,32(r31)
 18005ec:	80 1f 00 10 	lwz     r0,16(r31)
 18005f0:	30 00 ff ff 	addic   r0,r0,-1
 18005f4:	90 1f 00 10 	stw     r0,16(r31)
 18005f8:	80 1f 00 0c 	lwz     r0,12(r31)
 18005fc:	30 00 ff ff 	addic   r0,r0,-1
 1800600:	90 1f 00 0c 	stw     r0,12(r31)
 1800604:	80 1f 00 10 	lwz     r0,16(r31)
 1800608:	2f 80 00 00 	cmpwi   cr7,r0,0
 180060c:	41 9d ff 38 	bgt+    cr7,1800544 <des+0x324>
 1800610:	38 00 00 01 	li      r0,1
 1800614:	90 1f 00 14 	stw     r0,20(r31)
 1800618:	48 00 00 a4 	b       18006bc <des+0x49c>
 180061c:	80 1f 00 3c 	lwz     r0,60(r31)
 1800620:	2f 80 00 01 	cmpwi   cr7,r0,1
 1800624:	40 9e 00 10 	bne-    cr7,1800634 <des+0x414>
 1800628:	80 1f 00 14 	lwz     r0,20(r31)
 180062c:	20 00 00 11 	subfic  r0,r0,17
 1800630:	48 00 00 08 	b       1800638 <des+0x418>
 1800634:	80 1f 00 14 	lwz     r0,20(r31)
 1800638:	90 1f 00 18 	stw     r0,24(r31)
 180063c:	81 7f 00 20 	lwz     r11,32(r31)
 1800640:	80 1f 00 18 	lwz     r0,24(r31)
 1800644:	3d 20 01 81 	lis     r9,385
 1800648:	39 29 18 90 	addi    r9,r9,6288
 180064c:	1c 00 00 0c 	mulli   r0,r0,12
 1800650:	7c 09 02 14 	add     r0,r9,r0
 1800654:	7c 08 03 78 	mr      r8,r0
 1800658:	81 48 00 00 	lwz     r10,0(r8)
 180065c:	7c 08 03 78 	mr      r8,r0
 1800660:	81 28 00 04 	lwz     r9,4(r8)
 1800664:	7c 08 03 78 	mr      r8,r0
 1800668:	80 08 00 08 	lwz     r0,8(r8)
 180066c:	91 5f 00 50 	stw     r10,80(r31)
 1800670:	91 3f 00 54 	stw     r9,84(r31)
 1800674:	90 1f 00 58 	stw     r0,88(r31)
 1800678:	39 3f 00 50 	addi    r9,r31,80
 180067c:	38 1f 00 1c 	addi    r0,r31,28
 1800680:	7d 63 5b 78 	mr      r3,r11
 1800684:	7d 24 4b 78 	mr      r4,r9
 1800688:	7c 05 03 78 	mr      r5,r0
 180068c:	48 00 06 19 	bl      1800ca4 <cyfun>
 1800690:	81 3f 00 24 	lwz     r9,36(r31)
 1800694:	80 1f 00 1c 	lwz     r0,28(r31)
 1800698:	7d 20 02 78 	xor     r0,r9,r0
 180069c:	90 1f 00 1c 	stw     r0,28(r31)
 18006a0:	80 1f 00 20 	lwz     r0,32(r31)
 18006a4:	90 1f 00 24 	stw     r0,36(r31)
 18006a8:	80 1f 00 1c 	lwz     r0,28(r31)
 18006ac:	90 1f 00 20 	stw     r0,32(r31)
 18006b0:	80 1f 00 14 	lwz     r0,20(r31)
 18006b4:	30 00 00 01 	addic   r0,r0,1
 18006b8:	90 1f 00 14 	stw     r0,20(r31)
 18006bc:	80 1f 00 14 	lwz     r0,20(r31)
 18006c0:	2f 80 00 10 	cmpwi   cr7,r0,16
 18006c4:	40 9d ff 58 	ble+    cr7,180061c <des+0x3fc>
 18006c8:	80 1f 00 24 	lwz     r0,36(r31)
 18006cc:	90 1f 00 1c 	stw     r0,28(r31)
 18006d0:	80 1f 00 20 	lwz     r0,32(r31)
 18006d4:	90 1f 00 24 	stw     r0,36(r31)
 18006d8:	80 1f 00 1c 	lwz     r0,28(r31)
 18006dc:	90 1f 00 20 	stw     r0,32(r31)
 18006e0:	80 1f 00 40 	lwz     r0,64(r31)
 18006e4:	39 20 00 00 	li      r9,0
 18006e8:	7c 0a 03 78 	mr      r10,r0
 18006ec:	91 2a 00 00 	stw     r9,0(r10)
 18006f0:	80 1f 00 40 	lwz     r0,64(r31)
 18006f4:	7c 0b 03 78 	mr      r11,r0
 18006f8:	81 2b 00 00 	lwz     r9,0(r11)
 18006fc:	80 1f 00 40 	lwz     r0,64(r31)
 1800700:	7c 08 03 78 	mr      r8,r0
 1800704:	91 28 00 04 	stw     r9,4(r8)
 1800708:	38 00 00 20 	li      r0,32
 180070c:	90 1f 00 10 	stw     r0,16(r31)
 1800710:	38 00 00 40 	li      r0,64
 1800714:	90 1f 00 0c 	stw     r0,12(r31)
 1800718:	48 00 01 04 	b       180081c <des+0x5fc>
 180071c:	80 1f 00 40 	lwz     r0,64(r31)
 1800720:	7c 09 03 78 	mr      r9,r0
 1800724:	80 09 00 04 	lwz     r0,4(r9)
 1800728:	54 09 08 3c 	rlwinm  r9,r0,1,0,30
 180072c:	80 1f 00 40 	lwz     r0,64(r31)
 1800730:	7c 0a 03 78 	mr      r10,r0
 1800734:	91 2a 00 04 	stw     r9,4(r10)
 1800738:	80 1f 00 40 	lwz     r0,64(r31)
 180073c:	7c 0b 03 78 	mr      r11,r0
 1800740:	83 cb 00 04 	lwz     r30,4(r11)
 1800744:	80 1f 00 10 	lwz     r0,16(r31)
 1800748:	3d 20 01 81 	lis     r9,385
 180074c:	39 29 18 1c 	addi    r9,r9,6172
 1800750:	7c 09 00 ae 	lbzx    r0,r9,r0
 1800754:	54 00 06 3e 	clrlwi  r0,r0,24
 1800758:	81 3f 00 20 	lwz     r9,32(r31)
 180075c:	81 5f 00 24 	lwz     r10,36(r31)
 1800760:	91 3f 00 48 	stw     r9,72(r31)
 1800764:	91 5f 00 4c 	stw     r10,76(r31)
 1800768:	39 3f 00 48 	addi    r9,r31,72
 180076c:	7d 23 4b 78 	mr      r3,r9
 1800770:	7c 04 03 78 	mr      r4,r0
 1800774:	38 a0 00 20 	li      r5,32
 1800778:	48 00 00 d5 	bl      180084c <getbit>
 180077c:	7c 60 1b 78 	mr      r0,r3
 1800780:	7f c9 03 78 	or      r9,r30,r0
 1800784:	80 1f 00 40 	lwz     r0,64(r31)
 1800788:	7c 08 03 78 	mr      r8,r0
 180078c:	91 28 00 04 	stw     r9,4(r8)
 1800790:	80 1f 00 40 	lwz     r0,64(r31)
 1800794:	7c 09 03 78 	mr      r9,r0
 1800798:	80 09 00 00 	lwz     r0,0(r9)
 180079c:	54 09 08 3c 	rlwinm  r9,r0,1,0,30
 18007a0:	80 1f 00 40 	lwz     r0,64(r31)
 18007a4:	7c 0a 03 78 	mr      r10,r0
 18007a8:	91 2a 00 00 	stw     r9,0(r10)
 18007ac:	80 1f 00 40 	lwz     r0,64(r31)
 18007b0:	7c 0b 03 78 	mr      r11,r0
 18007b4:	83 cb 00 00 	lwz     r30,0(r11)
 18007b8:	80 1f 00 0c 	lwz     r0,12(r31)
 18007bc:	3d 20 01 81 	lis     r9,385
 18007c0:	39 29 18 1c 	addi    r9,r9,6172
 18007c4:	7c 09 00 ae 	lbzx    r0,r9,r0
 18007c8:	54 00 06 3e 	clrlwi  r0,r0,24
 18007cc:	81 3f 00 20 	lwz     r9,32(r31)
 18007d0:	81 5f 00 24 	lwz     r10,36(r31)
 18007d4:	91 3f 00 48 	stw     r9,72(r31)
 18007d8:	91 5f 00 4c 	stw     r10,76(r31)
 18007dc:	39 3f 00 48 	addi    r9,r31,72
 18007e0:	7d 23 4b 78 	mr      r3,r9
 18007e4:	7c 04 03 78 	mr      r4,r0
 18007e8:	38 a0 00 20 	li      r5,32
 18007ec:	48 00 00 61 	bl      180084c <getbit>
 18007f0:	7c 60 1b 78 	mr      r0,r3
 18007f4:	7f c9 03 78 	or      r9,r30,r0
 18007f8:	80 1f 00 40 	lwz     r0,64(r31)
 18007fc:	7c 08 03 78 	mr      r8,r0
 1800800:	91 28 00 00 	stw     r9,0(r8)
 1800804:	80 1f 00 10 	lwz     r0,16(r31)
 1800808:	30 00 ff ff 	addic   r0,r0,-1
 180080c:	90 1f 00 10 	stw     r0,16(r31)
 1800810:	80 1f 00 0c 	lwz     r0,12(r31)
 1800814:	30 00 ff ff 	addic   r0,r0,-1
 1800818:	90 1f 00 0c 	stw     r0,12(r31)
 180081c:	80 1f 00 10 	lwz     r0,16(r31)
 1800820:	2f 80 00 00 	cmpwi   cr7,r0,0
 1800824:	41 9d fe f8 	bgt+    cr7,180071c <des+0x4fc>
 1800828:	39 7f 00 70 	addi    r11,r31,112
 180082c:	80 0b 00 04 	lwz     r0,4(r11)
 1800830:	7c 08 03 a6 	mtlr    r0
 1800834:	83 8b ff f0 	lwz     r28,-16(r11)
 1800838:	83 ab ff f4 	lwz     r29,-12(r11)
 180083c:	83 cb ff f8 	lwz     r30,-8(r11)
 1800840:	83 eb ff fc 	lwz     r31,-4(r11)
 1800844:	7d 61 5b 78 	mr      r1,r11
 1800848:	4e 80 00 20 	blr

0180084c <getbit>:
 180084c:	94 21 ff e8 	stwu    r1,-24(r1)
 1800850:	93 e1 00 14 	stw     r31,20(r1)
 1800854:	7c 3f 0b 78 	mr      r31,r1
 1800858:	7c 60 1b 78 	mr      r0,r3
 180085c:	90 9f 00 08 	stw     r4,8(r31)
 1800860:	90 bf 00 0c 	stw     r5,12(r31)
 1800864:	81 7f 00 08 	lwz     r11,8(r31)
 1800868:	81 3f 00 0c 	lwz     r9,12(r31)
 180086c:	7f 8b 48 00 	cmpw    cr7,r11,r9
 1800870:	41 9d 00 40 	bgt-    cr7,18008b0 <getbit+0x64>
 1800874:	81 3f 00 08 	lwz     r9,8(r31)
 1800878:	3d 60 01 81 	lis     r11,385
 180087c:	39 6b 19 5c 	addi    r11,r11,6492
 1800880:	55 29 10 3a 	rlwinm  r9,r9,2,0,29
 1800884:	7d 2b 4a 14 	add     r9,r11,r9
 1800888:	81 29 00 00 	lwz     r9,0(r9)
 180088c:	7c 0b 03 78 	mr      r11,r0
 1800890:	80 0b 00 04 	lwz     r0,4(r11)
 1800894:	7d 20 00 38 	and     r0,r9,r0
 1800898:	2f 80 00 00 	cmpwi   cr7,r0,0
 180089c:	41 9e 00 0c 	beq-    cr7,18008a8 <getbit+0x5c>
 18008a0:	38 00 00 01 	li      r0,1
 18008a4:	48 00 00 08 	b       18008ac <getbit+0x60>
 18008a8:	38 00 00 00 	li      r0,0
 18008ac:	48 00 00 44 	b       18008f0 <getbit+0xa4>
 18008b0:	81 7f 00 08 	lwz     r11,8(r31)
 18008b4:	81 3f 00 0c 	lwz     r9,12(r31)
 18008b8:	7d 29 58 50 	subf    r9,r9,r11
 18008bc:	3d 60 01 81 	lis     r11,385
 18008c0:	39 6b 19 5c 	addi    r11,r11,6492
 18008c4:	55 29 10 3a 	rlwinm  r9,r9,2,0,29
 18008c8:	7d 2b 4a 14 	add     r9,r11,r9
 18008cc:	81 29 00 00 	lwz     r9,0(r9)
 18008d0:	7c 0b 03 78 	mr      r11,r0
 18008d4:	80 0b 00 00 	lwz     r0,0(r11)
 18008d8:	7d 20 00 38 	and     r0,r9,r0
 18008dc:	2f 80 00 00 	cmpwi   cr7,r0,0
 18008e0:	41 9e 00 0c 	beq-    cr7,18008ec <getbit+0xa0>
 18008e4:	38 00 00 01 	li      r0,1
 18008e8:	48 00 00 08 	b       18008f0 <getbit+0xa4>
 18008ec:	38 00 00 00 	li      r0,0
 18008f0:	7c 03 03 78 	mr      r3,r0
 18008f4:	39 7f 00 18 	addi    r11,r31,24
 18008f8:	83 eb ff fc 	lwz     r31,-4(r11)
 18008fc:	7d 61 5b 78 	mr      r1,r11
 1800900:	4e 80 00 20 	blr

01800904 <ks>:
 1800904:	94 21 ff d0 	stwu    r1,-48(r1)
 1800908:	7c 08 02 a6 	mflr    r0
 180090c:	90 01 00 34 	stw     r0,52(r1)
 1800910:	93 c1 00 28 	stw     r30,40(r1)
 1800914:	93 e1 00 2c 	stw     r31,44(r1)
 1800918:	7c 3f 0b 78 	mr      r31,r1
 180091c:	90 7f 00 18 	stw     r3,24(r31)
 1800920:	90 9f 00 1c 	stw     r4,28(r31)
 1800924:	80 1f 00 18 	lwz     r0,24(r31)
 1800928:	2f 80 00 01 	cmpwi   cr7,r0,1
 180092c:	41 9e 00 28 	beq-    cr7,1800954 <ks+0x50>
 1800930:	80 1f 00 18 	lwz     r0,24(r31)
 1800934:	2f 80 00 02 	cmpwi   cr7,r0,2
 1800938:	41 9e 00 1c 	beq-    cr7,1800954 <ks+0x50>
 180093c:	80 1f 00 18 	lwz     r0,24(r31)
 1800940:	2f 80 00 09 	cmpwi   cr7,r0,9
 1800944:	41 9e 00 10 	beq-    cr7,1800954 <ks+0x50>
 1800948:	80 1f 00 18 	lwz     r0,24(r31)
 180094c:	2f 80 00 10 	cmpwi   cr7,r0,16
 1800950:	40 9e 00 88 	bne-    cr7,18009d8 <ks+0xd4>
 1800954:	3c 00 01 81 	lis     r0,385
 1800958:	30 00 18 88 	addic   r0,r0,6280
 180095c:	7c 0b 03 78 	mr      r11,r0
 1800960:	81 2b 00 04 	lwz     r9,4(r11)
 1800964:	3c 00 01 81 	lis     r0,385
 1800968:	30 00 18 88 	addic   r0,r0,6280
 180096c:	7c 0b 03 78 	mr      r11,r0
 1800970:	80 0b 00 04 	lwz     r0,4(r11)
 1800974:	54 00 07 fe 	clrlwi  r0,r0,31
 1800978:	54 00 e0 06 	rlwinm  r0,r0,28,0,3
 180097c:	7d 20 03 78 	or      r0,r9,r0
 1800980:	54 09 f8 7e 	rlwinm  r9,r0,31,1,31
 1800984:	3c 00 01 81 	lis     r0,385
 1800988:	30 00 18 88 	addic   r0,r0,6280
 180098c:	7c 0b 03 78 	mr      r11,r0
 1800990:	91 2b 00 04 	stw     r9,4(r11)
 1800994:	3c 00 01 81 	lis     r0,385
 1800998:	30 00 18 88 	addic   r0,r0,6280
 180099c:	7c 0b 03 78 	mr      r11,r0
 18009a0:	81 2b 00 00 	lwz     r9,0(r11)
 18009a4:	3c 00 01 81 	lis     r0,385
 18009a8:	30 00 18 88 	addic   r0,r0,6280
 18009ac:	7c 0b 03 78 	mr      r11,r0
 18009b0:	80 0b 00 00 	lwz     r0,0(r11)
 18009b4:	54 00 07 fe 	clrlwi  r0,r0,31
 18009b8:	54 00 e0 06 	rlwinm  r0,r0,28,0,3
 18009bc:	7d 20 03 78 	or      r0,r9,r0
 18009c0:	54 09 f8 7e 	rlwinm  r9,r0,31,1,31
 18009c4:	3c 00 01 81 	lis     r0,385
 18009c8:	30 00 18 88 	addic   r0,r0,6280
 18009cc:	7c 0b 03 78 	mr      r11,r0
 18009d0:	91 2b 00 00 	stw     r9,0(r11)
 18009d4:	48 00 00 a8 	b       1800a7c <ks+0x178>
 18009d8:	38 00 00 01 	li      r0,1
 18009dc:	90 1f 00 14 	stw     r0,20(r31)
 18009e0:	48 00 00 90 	b       1800a70 <ks+0x16c>
 18009e4:	3c 00 01 81 	lis     r0,385
 18009e8:	30 00 18 88 	addic   r0,r0,6280
 18009ec:	7c 0b 03 78 	mr      r11,r0
 18009f0:	81 2b 00 04 	lwz     r9,4(r11)
 18009f4:	3c 00 01 81 	lis     r0,385
 18009f8:	30 00 18 88 	addic   r0,r0,6280
 18009fc:	7c 0b 03 78 	mr      r11,r0
 1800a00:	80 0b 00 04 	lwz     r0,4(r11)
 1800a04:	54 00 07 fe 	clrlwi  r0,r0,31
 1800a08:	54 00 e0 06 	rlwinm  r0,r0,28,0,3
 1800a0c:	7d 20 03 78 	or      r0,r9,r0
 1800a10:	54 09 f8 7e 	rlwinm  r9,r0,31,1,31
 1800a14:	3c 00 01 81 	lis     r0,385
 1800a18:	30 00 18 88 	addic   r0,r0,6280
 1800a1c:	7c 0b 03 78 	mr      r11,r0
 1800a20:	91 2b 00 04 	stw     r9,4(r11)
 1800a24:	3c 00 01 81 	lis     r0,385
 1800a28:	30 00 18 88 	addic   r0,r0,6280
 1800a2c:	7c 0b 03 78 	mr      r11,r0
 1800a30:	81 2b 00 00 	lwz     r9,0(r11)
 1800a34:	3c 00 01 81 	lis     r0,385
 1800a38:	30 00 18 88 	addic   r0,r0,6280
 1800a3c:	7c 0b 03 78 	mr      r11,r0
 1800a40:	80 0b 00 00 	lwz     r0,0(r11)
 1800a44:	54 00 07 fe 	clrlwi  r0,r0,31
 1800a48:	54 00 e0 06 	rlwinm  r0,r0,28,0,3
 1800a4c:	7d 20 03 78 	or      r0,r9,r0
 1800a50:	54 09 f8 7e 	rlwinm  r9,r0,31,1,31
 1800a54:	3c 00 01 81 	lis     r0,385
 1800a58:	30 00 18 88 	addic   r0,r0,6280
 1800a5c:	7c 0b 03 78 	mr      r11,r0
 1800a60:	91 2b 00 00 	stw     r9,0(r11)
 1800a64:	80 1f 00 14 	lwz     r0,20(r31)
 1800a68:	30 00 00 01 	addic   r0,r0,1
 1800a6c:	90 1f 00 14 	stw     r0,20(r31)
 1800a70:	80 1f 00 14 	lwz     r0,20(r31)
 1800a74:	2f 80 00 02 	cmpwi   cr7,r0,2
 1800a78:	40 9d ff 6c 	ble+    cr7,18009e4 <ks+0xe0>
 1800a7c:	80 1f 00 1c 	lwz     r0,28(r31)
 1800a80:	39 20 00 00 	li      r9,0
 1800a84:	7c 0b 03 78 	mr      r11,r0
 1800a88:	91 2b 00 00 	stw     r9,0(r11)
 1800a8c:	80 1f 00 1c 	lwz     r0,28(r31)
 1800a90:	7c 0b 03 78 	mr      r11,r0
 1800a94:	81 2b 00 00 	lwz     r9,0(r11)
 1800a98:	80 1f 00 1c 	lwz     r0,28(r31)
 1800a9c:	7c 0b 03 78 	mr      r11,r0
 1800aa0:	91 2b 00 04 	stw     r9,4(r11)
 1800aa4:	80 1f 00 1c 	lwz     r0,28(r31)
 1800aa8:	7c 0b 03 78 	mr      r11,r0
 1800aac:	81 2b 00 04 	lwz     r9,4(r11)
 1800ab0:	80 1f 00 1c 	lwz     r0,28(r31)
 1800ab4:	7c 0b 03 78 	mr      r11,r0
 1800ab8:	91 2b 00 08 	stw     r9,8(r11)
 1800abc:	38 00 00 10 	li      r0,16
 1800ac0:	90 1f 00 10 	stw     r0,16(r31)
 1800ac4:	38 00 00 20 	li      r0,32
 1800ac8:	90 1f 00 0c 	stw     r0,12(r31)
 1800acc:	38 00 00 30 	li      r0,48
 1800ad0:	90 1f 00 08 	stw     r0,8(r31)
 1800ad4:	48 00 01 a8 	b       1800c7c <ks+0x378>
 1800ad8:	80 1f 00 1c 	lwz     r0,28(r31)
 1800adc:	7c 09 03 78 	mr      r9,r0
 1800ae0:	80 09 00 08 	lwz     r0,8(r9)
 1800ae4:	54 09 08 3c 	rlwinm  r9,r0,1,0,30
 1800ae8:	80 1f 00 1c 	lwz     r0,28(r31)
 1800aec:	7c 0b 03 78 	mr      r11,r0
 1800af0:	91 2b 00 08 	stw     r9,8(r11)
 1800af4:	80 1f 00 1c 	lwz     r0,28(r31)
 1800af8:	7c 09 03 78 	mr      r9,r0
 1800afc:	83 c9 00 08 	lwz     r30,8(r9)
 1800b00:	80 1f 00 10 	lwz     r0,16(r31)
 1800b04:	3d 20 01 81 	lis     r9,385
 1800b08:	39 29 14 f8 	addi    r9,r9,5368
 1800b0c:	7c 09 00 ae 	lbzx    r0,r9,r0
 1800b10:	54 00 06 3e 	clrlwi  r0,r0,24
 1800b14:	3d 20 01 81 	lis     r9,385
 1800b18:	39 29 18 88 	addi    r9,r9,6280
 1800b1c:	81 49 00 04 	lwz     r10,4(r9)
 1800b20:	81 29 00 00 	lwz     r9,0(r9)
 1800b24:	91 3f 00 20 	stw     r9,32(r31)
 1800b28:	91 5f 00 24 	stw     r10,36(r31)
 1800b2c:	39 3f 00 20 	addi    r9,r31,32
 1800b30:	7d 23 4b 78 	mr      r3,r9
 1800b34:	7c 04 03 78 	mr      r4,r0
 1800b38:	38 a0 00 1c 	li      r5,28
 1800b3c:	4b ff fd 11 	bl      180084c <getbit>
 1800b40:	7c 60 1b 78 	mr      r0,r3
 1800b44:	54 00 04 3e 	clrlwi  r0,r0,16
 1800b48:	7f c9 03 78 	or      r9,r30,r0
 1800b4c:	80 1f 00 1c 	lwz     r0,28(r31)
 1800b50:	7c 0b 03 78 	mr      r11,r0
 1800b54:	91 2b 00 08 	stw     r9,8(r11)
 1800b58:	80 1f 00 1c 	lwz     r0,28(r31)
 1800b5c:	7c 09 03 78 	mr      r9,r0
 1800b60:	80 09 00 04 	lwz     r0,4(r9)
 1800b64:	54 09 08 3c 	rlwinm  r9,r0,1,0,30
 1800b68:	80 1f 00 1c 	lwz     r0,28(r31)
 1800b6c:	7c 0b 03 78 	mr      r11,r0
 1800b70:	91 2b 00 04 	stw     r9,4(r11)
 1800b74:	80 1f 00 1c 	lwz     r0,28(r31)
 1800b78:	7c 09 03 78 	mr      r9,r0
 1800b7c:	83 c9 00 04 	lwz     r30,4(r9)
 1800b80:	80 1f 00 0c 	lwz     r0,12(r31)
 1800b84:	3d 20 01 81 	lis     r9,385
 1800b88:	39 29 14 f8 	addi    r9,r9,5368
 1800b8c:	7c 09 00 ae 	lbzx    r0,r9,r0
 1800b90:	54 00 06 3e 	clrlwi  r0,r0,24
 1800b94:	3d 20 01 81 	lis     r9,385
 1800b98:	39 29 18 88 	addi    r9,r9,6280
 1800b9c:	81 49 00 04 	lwz     r10,4(r9)
 1800ba0:	81 29 00 00 	lwz     r9,0(r9)
 1800ba4:	91 3f 00 20 	stw     r9,32(r31)
 1800ba8:	91 5f 00 24 	stw     r10,36(r31)
 1800bac:	39 3f 00 20 	addi    r9,r31,32
 1800bb0:	7d 23 4b 78 	mr      r3,r9
 1800bb4:	7c 04 03 78 	mr      r4,r0
 1800bb8:	38 a0 00 1c 	li      r5,28
 1800bbc:	4b ff fc 91 	bl      180084c <getbit>
 1800bc0:	7c 60 1b 78 	mr      r0,r3
 1800bc4:	54 00 04 3e 	clrlwi  r0,r0,16
 1800bc8:	7f c9 03 78 	or      r9,r30,r0
 1800bcc:	80 1f 00 1c 	lwz     r0,28(r31)
 1800bd0:	7c 0b 03 78 	mr      r11,r0
 1800bd4:	91 2b 00 04 	stw     r9,4(r11)
 1800bd8:	80 1f 00 1c 	lwz     r0,28(r31)
 1800bdc:	7c 09 03 78 	mr      r9,r0
 1800be0:	80 09 00 00 	lwz     r0,0(r9)
 1800be4:	54 09 08 3c 	rlwinm  r9,r0,1,0,30
 1800be8:	80 1f 00 1c 	lwz     r0,28(r31)
 1800bec:	7c 0b 03 78 	mr      r11,r0
 1800bf0:	91 2b 00 00 	stw     r9,0(r11)
 1800bf4:	80 1f 00 1c 	lwz     r0,28(r31)
 1800bf8:	7c 09 03 78 	mr      r9,r0
 1800bfc:	83 c9 00 00 	lwz     r30,0(r9)
 1800c00:	80 1f 00 08 	lwz     r0,8(r31)
 1800c04:	3d 20 01 81 	lis     r9,385
 1800c08:	39 29 14 f8 	addi    r9,r9,5368
 1800c0c:	7c 09 00 ae 	lbzx    r0,r9,r0
 1800c10:	54 00 06 3e 	clrlwi  r0,r0,24
 1800c14:	3d 20 01 81 	lis     r9,385
 1800c18:	39 29 18 88 	addi    r9,r9,6280
 1800c1c:	81 49 00 04 	lwz     r10,4(r9)
 1800c20:	81 29 00 00 	lwz     r9,0(r9)
 1800c24:	91 3f 00 20 	stw     r9,32(r31)
 1800c28:	91 5f 00 24 	stw     r10,36(r31)
 1800c2c:	39 3f 00 20 	addi    r9,r31,32
 1800c30:	7d 23 4b 78 	mr      r3,r9
 1800c34:	7c 04 03 78 	mr      r4,r0
 1800c38:	38 a0 00 1c 	li      r5,28
 1800c3c:	4b ff fc 11 	bl      180084c <getbit>
 1800c40:	7c 60 1b 78 	mr      r0,r3
 1800c44:	54 00 04 3e 	clrlwi  r0,r0,16
 1800c48:	7f c9 03 78 	or      r9,r30,r0
 1800c4c:	80 1f 00 1c 	lwz     r0,28(r31)
 1800c50:	7c 0b 03 78 	mr      r11,r0
 1800c54:	91 2b 00 00 	stw     r9,0(r11)
 1800c58:	80 1f 00 10 	lwz     r0,16(r31)
 1800c5c:	30 00 ff ff 	addic   r0,r0,-1
 1800c60:	90 1f 00 10 	stw     r0,16(r31)
 1800c64:	80 1f 00 0c 	lwz     r0,12(r31)
 1800c68:	30 00 ff ff 	addic   r0,r0,-1
 1800c6c:	90 1f 00 0c 	stw     r0,12(r31)
 1800c70:	80 1f 00 08 	lwz     r0,8(r31)
 1800c74:	30 00 ff ff 	addic   r0,r0,-1
 1800c78:	90 1f 00 08 	stw     r0,8(r31)
 1800c7c:	80 1f 00 10 	lwz     r0,16(r31)
 1800c80:	2f 80 00 00 	cmpwi   cr7,r0,0
 1800c84:	41 9d fe 54 	bgt+    cr7,1800ad8 <ks+0x1d4>
 1800c88:	39 7f 00 30 	addi    r11,r31,48
 1800c8c:	80 0b 00 04 	lwz     r0,4(r11)
 1800c90:	7c 08 03 a6 	mtlr    r0
 1800c94:	83 cb ff f8 	lwz     r30,-8(r11)
 1800c98:	83 eb ff fc 	lwz     r31,-4(r11)
 1800c9c:	7d 61 5b 78 	mr      r1,r11
 1800ca0:	4e 80 00 20 	blr

01800ca4 <cyfun>:
 1800ca4:	94 21 ff 98 	stwu    r1,-104(r1)
 1800ca8:	93 e1 00 64 	stw     r31,100(r1)
 1800cac:	7c 3f 0b 78 	mr      r31,r1
 1800cb0:	90 7f 00 58 	stw     r3,88(r31)
 1800cb4:	7c 89 23 78 	mr      r9,r4
 1800cb8:	90 bf 00 5c 	stw     r5,92(r31)
 1800cbc:	3c 00 01 81 	lis     r0,385
 1800cc0:	30 00 19 5c 	addic   r0,r0,6492
 1800cc4:	90 1f 00 08 	stw     r0,8(r31)
 1800cc8:	38 00 00 00 	li      r0,0
 1800ccc:	90 1f 00 34 	stw     r0,52(r31)
 1800cd0:	80 1f 00 34 	lwz     r0,52(r31)
 1800cd4:	90 1f 00 38 	stw     r0,56(r31)
 1800cd8:	80 1f 00 38 	lwz     r0,56(r31)
 1800cdc:	90 1f 00 3c 	stw     r0,60(r31)
 1800ce0:	38 00 00 10 	li      r0,16
 1800ce4:	90 1f 00 14 	stw     r0,20(r31)
 1800ce8:	38 00 00 20 	li      r0,32
 1800cec:	90 1f 00 10 	stw     r0,16(r31)
 1800cf0:	38 00 00 30 	li      r0,48
 1800cf4:	90 1f 00 0c 	stw     r0,12(r31)
 1800cf8:	48 00 01 3c 	b       1800e34 <cyfun+0x190>
 1800cfc:	80 1f 00 3c 	lwz     r0,60(r31)
 1800d00:	54 00 08 3c 	rlwinm  r0,r0,1,0,30
 1800d04:	90 1f 00 3c 	stw     r0,60(r31)
 1800d08:	81 7f 00 3c 	lwz     r11,60(r31)
 1800d0c:	80 1f 00 14 	lwz     r0,20(r31)
 1800d10:	3d 40 01 81 	lis     r10,385
 1800d14:	39 4a 15 2c 	addi    r10,r10,5420
 1800d18:	7c 0a 00 ae 	lbzx    r0,r10,r0
 1800d1c:	54 00 06 3e 	clrlwi  r0,r0,24
 1800d20:	54 00 10 3a 	rlwinm  r0,r0,2,0,29
 1800d24:	81 5f 00 08 	lwz     r10,8(r31)
 1800d28:	7c 0a 02 14 	add     r0,r10,r0
 1800d2c:	7c 08 03 78 	mr      r8,r0
 1800d30:	81 48 00 00 	lwz     r10,0(r8)
 1800d34:	80 1f 00 58 	lwz     r0,88(r31)
 1800d38:	7d 40 00 38 	and     r0,r10,r0
 1800d3c:	7c 0a fe 70 	srawi   r10,r0,31
 1800d40:	7d 40 02 78 	xor     r0,r10,r0
 1800d44:	7c 0a 00 50 	subf    r0,r10,r0
 1800d48:	7c 00 00 d0 	neg     r0,r0
 1800d4c:	54 00 0f fe 	rlwinm  r0,r0,1,31,31
 1800d50:	7d 60 03 78 	or      r0,r11,r0
 1800d54:	90 1f 00 3c 	stw     r0,60(r31)
 1800d58:	80 1f 00 38 	lwz     r0,56(r31)
 1800d5c:	54 00 08 3c 	rlwinm  r0,r0,1,0,30
 1800d60:	90 1f 00 38 	stw     r0,56(r31)
 1800d64:	81 7f 00 38 	lwz     r11,56(r31)
 1800d68:	80 1f 00 10 	lwz     r0,16(r31)
 1800d6c:	3d 40 01 81 	lis     r10,385
 1800d70:	39 4a 15 2c 	addi    r10,r10,5420
 1800d74:	7c 0a 00 ae 	lbzx    r0,r10,r0
 1800d78:	54 00 06 3e 	clrlwi  r0,r0,24
 1800d7c:	54 00 10 3a 	rlwinm  r0,r0,2,0,29
 1800d80:	81 5f 00 08 	lwz     r10,8(r31)
 1800d84:	7c 0a 02 14 	add     r0,r10,r0
 1800d88:	7c 08 03 78 	mr      r8,r0
 1800d8c:	81 48 00 00 	lwz     r10,0(r8)
 1800d90:	80 1f 00 58 	lwz     r0,88(r31)
 1800d94:	7d 40 00 38 	and     r0,r10,r0
 1800d98:	7c 0a fe 70 	srawi   r10,r0,31
 1800d9c:	7d 40 02 78 	xor     r0,r10,r0
 1800da0:	7c 0a 00 50 	subf    r0,r10,r0
 1800da4:	7c 00 00 d0 	neg     r0,r0
 1800da8:	54 00 0f fe 	rlwinm  r0,r0,1,31,31
 1800dac:	7d 60 03 78 	or      r0,r11,r0
 1800db0:	90 1f 00 38 	stw     r0,56(r31)
 1800db4:	80 1f 00 34 	lwz     r0,52(r31)
 1800db8:	54 00 08 3c 	rlwinm  r0,r0,1,0,30
 1800dbc:	90 1f 00 34 	stw     r0,52(r31)
 1800dc0:	81 7f 00 34 	lwz     r11,52(r31)
 1800dc4:	80 1f 00 0c 	lwz     r0,12(r31)
 1800dc8:	3d 40 01 81 	lis     r10,385
 1800dcc:	39 4a 15 2c 	addi    r10,r10,5420
 1800dd0:	7c 0a 00 ae 	lbzx    r0,r10,r0
 1800dd4:	54 00 06 3e 	clrlwi  r0,r0,24
 1800dd8:	54 00 10 3a 	rlwinm  r0,r0,2,0,29
 1800ddc:	81 5f 00 08 	lwz     r10,8(r31)
 1800de0:	7c 0a 02 14 	add     r0,r10,r0
 1800de4:	7c 08 03 78 	mr      r8,r0
 1800de8:	81 48 00 00 	lwz     r10,0(r8)
 1800dec:	80 1f 00 58 	lwz     r0,88(r31)
 1800df0:	7d 40 00 38 	and     r0,r10,r0
 1800df4:	7c 0a fe 70 	srawi   r10,r0,31
 1800df8:	7d 40 02 78 	xor     r0,r10,r0
 1800dfc:	7c 0a 00 50 	subf    r0,r10,r0
 1800e00:	7c 00 00 d0 	neg     r0,r0
 1800e04:	54 00 0f fe 	rlwinm  r0,r0,1,31,31
 1800e08:	7d 60 03 78 	or      r0,r11,r0
 1800e0c:	90 1f 00 34 	stw     r0,52(r31)
 1800e10:	80 1f 00 14 	lwz     r0,20(r31)
 1800e14:	30 00 ff ff 	addic   r0,r0,-1
 1800e18:	90 1f 00 14 	stw     r0,20(r31)
 1800e1c:	80 1f 00 10 	lwz     r0,16(r31)
 1800e20:	30 00 ff ff 	addic   r0,r0,-1
 1800e24:	90 1f 00 10 	stw     r0,16(r31)
 1800e28:	80 1f 00 0c 	lwz     r0,12(r31)
 1800e2c:	30 00 ff ff 	addic   r0,r0,-1
 1800e30:	90 1f 00 0c 	stw     r0,12(r31)
 1800e34:	80 1f 00 14 	lwz     r0,20(r31)
 1800e38:	2f 80 00 00 	cmpwi   cr7,r0,0
 1800e3c:	41 9d fe c0 	bgt+    cr7,1800cfc <cyfun+0x58>
 1800e40:	81 7f 00 3c 	lwz     r11,60(r31)
 1800e44:	80 09 00 08 	lwz     r0,8(r9)
 1800e48:	7d 60 02 78 	xor     r0,r11,r0
 1800e4c:	90 1f 00 3c 	stw     r0,60(r31)
 1800e50:	81 7f 00 38 	lwz     r11,56(r31)
 1800e54:	80 09 00 04 	lwz     r0,4(r9)
 1800e58:	7d 60 02 78 	xor     r0,r11,r0
 1800e5c:	90 1f 00 38 	stw     r0,56(r31)
 1800e60:	81 7f 00 34 	lwz     r11,52(r31)
 1800e64:	80 09 00 00 	lwz     r0,0(r9)
 1800e68:	7d 60 02 78 	xor     r0,r11,r0
 1800e6c:	90 1f 00 34 	stw     r0,52(r31)
 1800e70:	80 1f 00 38 	lwz     r0,56(r31)
 1800e74:	54 09 80 1e 	rlwinm  r9,r0,16,0,15
 1800e78:	80 1f 00 3c 	lwz     r0,60(r31)
 1800e7c:	7c 09 02 14 	add     r0,r9,r0
 1800e80:	90 1f 00 2c 	stw     r0,44(r31)
 1800e84:	80 1f 00 34 	lwz     r0,52(r31)
 1800e88:	54 09 40 2e 	rlwinm  r9,r0,8,0,23
 1800e8c:	80 1f 00 38 	lwz     r0,56(r31)
 1800e90:	54 00 c2 3e 	rlwinm  r0,r0,24,8,31
 1800e94:	7c 09 02 14 	add     r0,r9,r0
 1800e98:	90 1f 00 28 	stw     r0,40(r31)
 1800e9c:	38 00 00 01 	li      r0,1
 1800ea0:	90 1f 00 14 	stw     r0,20(r31)
 1800ea4:	38 00 00 05 	li      r0,5
 1800ea8:	90 1f 00 0c 	stw     r0,12(r31)
 1800eac:	48 00 00 6c 	b       1800f18 <cyfun+0x274>
 1800eb0:	81 3f 00 14 	lwz     r9,20(r31)
 1800eb4:	80 1f 00 2c 	lwz     r0,44(r31)
 1800eb8:	54 00 06 3e 	clrlwi  r0,r0,24
 1800ebc:	54 00 06 be 	clrlwi  r0,r0,26
 1800ec0:	39 7f 00 08 	addi    r11,r31,8
 1800ec4:	7d 2b 4a 14 	add     r9,r11,r9
 1800ec8:	98 09 00 38 	stb     r0,56(r9)
 1800ecc:	81 3f 00 0c 	lwz     r9,12(r31)
 1800ed0:	80 1f 00 28 	lwz     r0,40(r31)
 1800ed4:	54 00 06 3e 	clrlwi  r0,r0,24
 1800ed8:	54 00 06 be 	clrlwi  r0,r0,26
 1800edc:	39 7f 00 08 	addi    r11,r31,8
 1800ee0:	7d 2b 4a 14 	add     r9,r11,r9
 1800ee4:	98 09 00 38 	stb     r0,56(r9)
 1800ee8:	80 1f 00 2c 	lwz     r0,44(r31)
 1800eec:	54 00 d1 be 	rlwinm  r0,r0,26,6,31
 1800ef0:	90 1f 00 2c 	stw     r0,44(r31)
 1800ef4:	80 1f 00 28 	lwz     r0,40(r31)
 1800ef8:	54 00 d1 be 	rlwinm  r0,r0,26,6,31
 1800efc:	90 1f 00 28 	stw     r0,40(r31)
 1800f00:	80 1f 00 14 	lwz     r0,20(r31)
 1800f04:	30 00 00 01 	addic   r0,r0,1
 1800f08:	90 1f 00 14 	stw     r0,20(r31)
 1800f0c:	80 1f 00 0c 	lwz     r0,12(r31)
 1800f10:	30 00 00 01 	addic   r0,r0,1
 1800f14:	90 1f 00 0c 	stw     r0,12(r31)
 1800f18:	80 1f 00 14 	lwz     r0,20(r31)
 1800f1c:	2f 80 00 04 	cmpwi   cr7,r0,4
 1800f20:	40 9d ff 90 	ble+    cr7,1800eb0 <cyfun+0x20c>
 1800f24:	38 00 00 00 	li      r0,0
 1800f28:	90 1f 00 30 	stw     r0,48(r31)
 1800f2c:	38 00 00 08 	li      r0,8
 1800f30:	90 1f 00 24 	stw     r0,36(r31)
 1800f34:	48 00 00 ec 	b       1801020 <cyfun+0x37c>
 1800f38:	80 1f 00 24 	lwz     r0,36(r31)
 1800f3c:	39 3f 00 08 	addi    r9,r31,8
 1800f40:	7c 09 02 14 	add     r0,r9,r0
 1800f44:	7c 0b 03 78 	mr      r11,r0
 1800f48:	88 0b 00 38 	lbz     r0,56(r11)
 1800f4c:	54 00 06 3e 	clrlwi  r0,r0,24
 1800f50:	90 1f 00 14 	stw     r0,20(r31)
 1800f54:	80 1f 00 14 	lwz     r0,20(r31)
 1800f58:	54 00 07 fe 	clrlwi  r0,r0,31
 1800f5c:	54 09 08 3c 	rlwinm  r9,r0,1,0,30
 1800f60:	80 1f 00 14 	lwz     r0,20(r31)
 1800f64:	54 00 06 b4 	rlwinm  r0,r0,0,26,26
 1800f68:	7c 00 2e 70 	srawi   r0,r0,5
 1800f6c:	7c 09 02 14 	add     r0,r9,r0
 1800f70:	90 1f 00 20 	stw     r0,32(r31)
 1800f74:	80 1f 00 14 	lwz     r0,20(r31)
 1800f78:	54 00 07 bc 	rlwinm  r0,r0,0,30,30
 1800f7c:	54 09 10 3a 	rlwinm  r9,r0,2,0,29
 1800f80:	80 1f 00 14 	lwz     r0,20(r31)
 1800f84:	54 00 07 7a 	rlwinm  r0,r0,0,29,29
 1800f88:	7d 29 02 14 	add     r9,r9,r0
 1800f8c:	80 1f 00 14 	lwz     r0,20(r31)
 1800f90:	54 00 07 38 	rlwinm  r0,r0,0,28,28
 1800f94:	7c 00 16 70 	srawi   r0,r0,2
 1800f98:	7d 29 02 14 	add     r9,r9,r0
 1800f9c:	80 1f 00 14 	lwz     r0,20(r31)
 1800fa0:	54 00 06 f6 	rlwinm  r0,r0,0,27,27
 1800fa4:	7c 00 26 70 	srawi   r0,r0,4
 1800fa8:	7c 09 02 14 	add     r0,r9,r0
 1800fac:	90 1f 00 1c 	stw     r0,28(r31)
 1800fb0:	81 3f 00 1c 	lwz     r9,28(r31)
 1800fb4:	81 5f 00 20 	lwz     r10,32(r31)
 1800fb8:	80 1f 00 24 	lwz     r0,36(r31)
 1800fbc:	3d 60 01 81 	lis     r11,385
 1800fc0:	39 6b 15 5d 	addi    r11,r11,5469
 1800fc4:	1d 4a 00 09 	mulli   r10,r10,9
 1800fc8:	1d 29 00 24 	mulli   r9,r9,36
 1800fcc:	7d 2a 4a 14 	add     r9,r10,r9
 1800fd0:	7d 2b 4a 14 	add     r9,r11,r9
 1800fd4:	7c 09 02 14 	add     r0,r9,r0
 1800fd8:	7c 08 03 78 	mr      r8,r0
 1800fdc:	88 08 00 00 	lbz     r0,0(r8)
 1800fe0:	54 00 06 3e 	clrlwi  r0,r0,24
 1800fe4:	90 1f 00 18 	stw     r0,24(r31)
 1800fe8:	80 1f 00 30 	lwz     r0,48(r31)
 1800fec:	54 00 20 36 	rlwinm  r0,r0,4,0,27
 1800ff0:	90 1f 00 30 	stw     r0,48(r31)
 1800ff4:	80 1f 00 18 	lwz     r0,24(r31)
 1800ff8:	3d 20 01 81 	lis     r9,385
 1800ffc:	39 29 17 a0 	addi    r9,r9,6048
 1801000:	7c 09 00 ae 	lbzx    r0,r9,r0
 1801004:	54 00 06 3e 	clrlwi  r0,r0,24
 1801008:	81 3f 00 30 	lwz     r9,48(r31)
 180100c:	7d 20 03 78 	or      r0,r9,r0
 1801010:	90 1f 00 30 	stw     r0,48(r31)
 1801014:	80 1f 00 24 	lwz     r0,36(r31)
 1801018:	30 00 ff ff 	addic   r0,r0,-1
 180101c:	90 1f 00 24 	stw     r0,36(r31)
 1801020:	80 1f 00 24 	lwz     r0,36(r31)
 1801024:	2f 80 00 00 	cmpwi   cr7,r0,0
 1801028:	41 9d ff 10 	bgt+    cr7,1800f38 <cyfun+0x294>
 180102c:	80 1f 00 5c 	lwz     r0,92(r31)
 1801030:	39 20 00 00 	li      r9,0
 1801034:	7c 0a 03 78 	mr      r10,r0
 1801038:	91 2a 00 00 	stw     r9,0(r10)
 180103c:	3c 00 01 81 	lis     r0,385
 1801040:	30 00 19 5c 	addic   r0,r0,6492
 1801044:	90 1f 00 08 	stw     r0,8(r31)
 1801048:	38 00 00 20 	li      r0,32
 180104c:	90 1f 00 14 	stw     r0,20(r31)
 1801050:	48 00 00 8c 	b       18010dc <cyfun+0x438>
 1801054:	80 1f 00 5c 	lwz     r0,92(r31)
 1801058:	7c 0b 03 78 	mr      r11,r0
 180105c:	80 0b 00 00 	lwz     r0,0(r11)
 1801060:	54 09 08 3c 	rlwinm  r9,r0,1,0,30
 1801064:	80 1f 00 5c 	lwz     r0,92(r31)
 1801068:	7c 08 03 78 	mr      r8,r0
 180106c:	91 28 00 00 	stw     r9,0(r8)
 1801070:	80 1f 00 5c 	lwz     r0,92(r31)
 1801074:	7c 0a 03 78 	mr      r10,r0
 1801078:	81 2a 00 00 	lwz     r9,0(r10)
 180107c:	80 1f 00 14 	lwz     r0,20(r31)
 1801080:	3d 60 01 81 	lis     r11,385
 1801084:	39 6b 17 b0 	addi    r11,r11,6064
 1801088:	7c 0b 00 ae 	lbzx    r0,r11,r0
 180108c:	54 00 06 3e 	clrlwi  r0,r0,24
 1801090:	54 00 10 3a 	rlwinm  r0,r0,2,0,29
 1801094:	81 7f 00 08 	lwz     r11,8(r31)
 1801098:	7c 0b 02 14 	add     r0,r11,r0
 180109c:	7c 08 03 78 	mr      r8,r0
 18010a0:	81 68 00 00 	lwz     r11,0(r8)
 18010a4:	80 1f 00 30 	lwz     r0,48(r31)
 18010a8:	7d 60 00 38 	and     r0,r11,r0
 18010ac:	7c 0a fe 70 	srawi   r10,r0,31
 18010b0:	7d 40 02 78 	xor     r0,r10,r0
 18010b4:	7c 0a 00 50 	subf    r0,r10,r0
 18010b8:	7c 00 00 d0 	neg     r0,r0
 18010bc:	54 00 0f fe 	rlwinm  r0,r0,1,31,31
 18010c0:	7d 29 03 78 	or      r9,r9,r0
 18010c4:	80 1f 00 5c 	lwz     r0,92(r31)
 18010c8:	7c 0b 03 78 	mr      r11,r0
 18010cc:	91 2b 00 00 	stw     r9,0(r11)
 18010d0:	80 1f 00 14 	lwz     r0,20(r31)
 18010d4:	30 00 ff ff 	addic   r0,r0,-1
 18010d8:	90 1f 00 14 	stw     r0,20(r31)
 18010dc:	80 1f 00 14 	lwz     r0,20(r31)
 18010e0:	2f 80 00 00 	cmpwi   cr7,r0,0
 18010e4:	41 9d ff 70 	bgt+    cr7,1801054 <cyfun+0x3b0>
 18010e8:	39 7f 00 68 	addi    r11,r31,104
 18010ec:	83 eb ff fc 	lwz     r31,-4(r11)
 18010f0:	7d 61 5b 78 	mr      r1,r11
 18010f4:	4e 80 00 20 	blr

018010f8 <main>:
 18010f8:	94 21 ff b0 	stwu    r1,-80(r1)
 18010fc:	7c 08 02 a6 	mflr    r0
 1801100:	90 01 00 54 	stw     r0,84(r1)
 1801104:	93 e1 00 4c 	stw     r31,76(r1)
 1801108:	7c 3f 0b 78 	mr      r31,r1
 180110c:	48 00 01 0d 	bl      1801218 <__eabi>
 1801110:	38 00 00 50 	li      r0,80
 1801114:	90 1f 00 08 	stw     r0,8(r31)
 1801118:	48 00 00 98 	b       18011b0 <main+0xb8>
 180111c:	38 00 00 23 	li      r0,35
 1801120:	90 1f 00 10 	stw     r0,16(r31)
 1801124:	38 00 00 1a 	li      r0,26
 1801128:	90 1f 00 14 	stw     r0,20(r31)
 180112c:	38 00 00 02 	li      r0,2
 1801130:	90 1f 00 18 	stw     r0,24(r31)
 1801134:	38 00 00 10 	li      r0,16
 1801138:	90 1f 00 1c 	stw     r0,28(r31)
 180113c:	3c 00 01 81 	lis     r0,385
 1801140:	7c 09 03 78 	mr      r9,r0
 1801144:	80 09 18 64 	lwz     r0,6244(r9)
 1801148:	90 1f 00 28 	stw     r0,40(r31)
 180114c:	3c 00 01 81 	lis     r0,385
 1801150:	7c 09 03 78 	mr      r9,r0
 1801154:	80 09 18 64 	lwz     r0,6244(r9)
 1801158:	90 1f 00 0c 	stw     r0,12(r31)
 180115c:	81 3f 00 10 	lwz     r9,16(r31)
 1801160:	81 5f 00 14 	lwz     r10,20(r31)
 1801164:	91 3f 00 38 	stw     r9,56(r31)
 1801168:	91 5f 00 3c 	stw     r10,60(r31)
 180116c:	81 3f 00 18 	lwz     r9,24(r31)
 1801170:	81 5f 00 1c 	lwz     r10,28(r31)
 1801174:	91 3f 00 40 	stw     r9,64(r31)
 1801178:	91 5f 00 44 	stw     r10,68(r31)
 180117c:	39 5f 00 38 	addi    r10,r31,56
 1801180:	39 7f 00 40 	addi    r11,r31,64
 1801184:	39 3f 00 28 	addi    r9,r31,40
 1801188:	38 1f 00 20 	addi    r0,r31,32
 180118c:	7d 43 53 78 	mr      r3,r10
 1801190:	7d 64 5b 78 	mr      r4,r11
 1801194:	7d 25 4b 78 	mr      r5,r9
 1801198:	80 df 00 0c 	lwz     r6,12(r31)
 180119c:	7c 07 03 78 	mr      r7,r0
 18011a0:	4b ff f0 81 	bl      1800220 <des>
 18011a4:	80 1f 00 08 	lwz     r0,8(r31)
 18011a8:	30 00 ff ff 	addic   r0,r0,-1
 18011ac:	90 1f 00 08 	stw     r0,8(r31)
 18011b0:	80 1f 00 08 	lwz     r0,8(r31)
 18011b4:	2f 80 00 00 	cmpwi   cr7,r0,0
 18011b8:	40 9e ff 64 	bne+    cr7,180111c <main+0x24>
 18011bc:	38 00 00 00 	li      r0,0
 18011c0:	7c 03 03 78 	mr      r3,r0
 18011c4:	39 7f 00 50 	addi    r11,r31,80
 18011c8:	80 0b 00 04 	lwz     r0,4(r11)
 18011cc:	7c 08 03 a6 	mtlr    r0
 18011d0:	83 eb ff fc 	lwz     r31,-4(r11)
 18011d4:	7d 61 5b 78 	mr      r1,r11
 18011d8:	4e 80 00 20 	blr

018011dc <_exit>:
 18011dc:	94 21 ff e8 	stwu    r1,-24(r1)
 18011e0:	93 e1 00 14 	stw     r31,20(r1)
 18011e4:	7c 3f 0b 78 	mr      r31,r1
 18011e8:	90 7f 00 08 	stw     r3,8(r31)
 18011ec:	48 00 00 00 	b       18011ec <_exit+0x10>

018011f0 <_start>:
 18011f0:	94 21 ff f0 	stwu    r1,-16(r1)
 18011f4:	7c 08 02 a6 	mflr    r0
 18011f8:	90 01 00 14 	stw     r0,20(r1)
 18011fc:	93 e1 00 0c 	stw     r31,12(r1)
 1801200:	7c 3f 0b 78 	mr      r31,r1
 1801204:	38 60 00 00 	li      r3,0
 1801208:	38 80 00 00 	li      r4,0
 180120c:	4b ff fe ed 	bl      18010f8 <main>
 1801210:	38 60 00 00 	li      r3,0
 1801214:	4b ff ff c9 	bl      18011dc <_exit>

01801218 <__eabi>:
 1801218:	3d 40 01 81 	lis     r10,385
 180121c:	3d 60 01 81 	lis     r11,385
 1801220:	81 2a 18 60 	lwz     r9,6240(r10)
 1801224:	39 6b 14 9c 	addi    r11,r11,5276
 1801228:	29 09 00 00 	cmplwi  cr2,r9,0
 180122c:	4c 8a 00 20 	bnelr   cr2
 1801230:	90 2a 18 60 	stw     r1,6240(r10)
 1801234:	80 6b 00 08 	lwz     r3,8(r11)
 1801238:	80 8b 00 0c 	lwz     r4,12(r11)
 180123c:	7c 83 20 00 	cmpw    cr1,r3,r4
 1801240:	41 86 00 08 	beq-    cr1,1801248 <__eabi+0x30>
 1801244:	81 ab 00 04 	lwz     r13,4(r11)
 1801248:	80 6b 00 14 	lwz     r3,20(r11)
 180124c:	80 8b 00 18 	lwz     r4,24(r11)
 1801250:	7c 83 20 00 	cmpw    cr1,r3,r4
 1801254:	41 a6 00 08 	beq+    cr1,180125c <__eabi+0x44>
 1801258:	80 4b 00 10 	lwz     r2,16(r11)
 180125c:	4b ff ee 38 	b       1800094 <__init>

01801260 <__eabi_convert>:
 1801260:	7c 83 20 40 	cmplw   cr1,r3,r4
 1801264:	7c a3 20 50 	subf    r5,r3,r4
 1801268:	4c 84 00 20 	bgelr   cr1
 180126c:	7c a5 16 70 	srawi   r5,r5,2
 1801270:	38 63 ff fc 	addi    r3,r3,-4
 1801274:	7c a9 03 a6 	mtctr   r5
 1801278:	84 c3 00 04 	lwzu    r6,4(r3)
 180127c:	2c 06 00 00 	cmpwi   r6,0
 1801280:	41 82 00 0c 	beq-    180128c <__eabi_convert+0x2c>
 1801284:	7c c6 62 14 	add     r6,r6,r12
 1801288:	90 c3 00 00 	stw     r6,0(r3)
 180128c:	42 00 ff ec 	bdnz+   1801278 <__eabi_convert+0x18>
 1801290:	4e 80 00 20 	blr

01801294 <__eabi_uconvert>:
 1801294:	7c 83 20 40 	cmplw   cr1,r3,r4
 1801298:	7c a3 20 50 	subf    r5,r3,r4
 180129c:	4c 84 00 20 	bgelr   cr1
 18012a0:	7c a5 16 70 	srawi   r5,r5,2
 18012a4:	38 63 ff fc 	addi    r3,r3,-4
 18012a8:	7c a9 03 a6 	mtctr   r5
 18012ac:	84 c3 00 04 	lwzu    r6,4(r3)
 18012b0:	7c c6 62 14 	add     r6,r6,r12
 18012b4:	80 e6 00 00 	lwz     r7,0(r6)
 18012b8:	90 c3 00 00 	stw     r6,0(r3)
 18012bc:	7c e7 62 14 	add     r7,r7,r12
 18012c0:	90 e6 00 00 	stw     r7,0(r6)
 18012c4:	42 00 ff e8 	bdnz+   18012ac <__eabi_uconvert+0x18>
 18012c8:	4e 80 00 20 	blr

018012cc <__do_global_ctors_aux>:
 18012cc:	7c 08 02 a6 	mflr    r0
 18012d0:	94 21 ff f0 	stwu    r1,-16(r1)
 18012d4:	93 e1 00 0c 	stw     r31,12(r1)
 18012d8:	3f e0 01 81 	lis     r31,385
 18012dc:	90 01 00 14 	stw     r0,20(r1)
 18012e0:	3b ff 14 8c 	addi    r31,r31,5260
 18012e4:	80 1f ff fc 	lwz     r0,-4(r31)
 18012e8:	2f 80 ff ff 	cmpwi   cr7,r0,-1
 18012ec:	41 9e 00 1c 	beq-    cr7,1801308 <__do_global_ctors_aux+0x3c>
 18012f0:	3b ff ff fc 	addi    r31,r31,-4
 18012f4:	7c 09 03 a6 	mtctr   r0
 18012f8:	4e 80 04 21 	bctrl
 18012fc:	84 1f ff fc 	lwzu    r0,-4(r31)
 1801300:	2f 80 ff ff 	cmpwi   cr7,r0,-1
 1801304:	40 9e ff f0 	bne+    cr7,18012f4 <__do_global_ctors_aux+0x28>
 1801308:	80 01 00 14 	lwz     r0,20(r1)
 180130c:	83 e1 00 0c 	lwz     r31,12(r1)
 1801310:	38 21 00 10 	addi    r1,r1,16
 1801314:	7c 08 03 a6 	mtlr    r0
 1801318:	4e 80 00 20 	blr

0180131c <call___do_global_ctors_aux>:
 180131c:	7c 08 02 a6 	mflr    r0
 1801320:	94 21 ff f8 	stwu    r1,-8(r1)
 1801324:	90 01 00 0c 	stw     r0,12(r1)
 1801328:	80 01 00 0c 	lwz     r0,12(r1)
 180132c:	38 21 00 08 	addi    r1,r1,8
 1801330:	7c 08 03 a6 	mtlr    r0
 1801334:	4e 80 00 20 	blr

Disassembly of section .fini:

01801338 <__fini>:
 1801338:	94 21 ff f0 	stwu    r1,-16(r1)
 180133c:	7c 08 02 a6 	mflr    r0
 1801340:	90 01 00 14 	stw     r0,20(r1)
 1801344:	4b ff ed 75 	bl      18000b8 <__do_global_dtors_aux>
 1801348:	80 01 00 14 	lwz     r0,20(r1)
 180134c:	7c 08 03 a6 	mtlr    r0
 1801350:	38 21 00 10 	addi    r1,r1,16
 1801354:	4e 80 00 20 	blr
