
/home/vaillant/ppc2/perf/malardalen/ppc-eabi/gcc-4.4.2/insertsort/insertsort.elf:     file format elf32-powerpc


Disassembly of section .init:

01800094 <__init>:
 1800094:	94 21 ff f0 	stwu    r1,-16(r1)
 1800098:	7c 08 02 a6 	mflr    r0
 180009c:	90 01 00 14 	stw     r0,20(r1)
 18000a0:	48 00 00 f9 	bl      1800198 <frame_dummy>
 18000a4:	48 00 04 a1 	bl      1800544 <__do_global_ctors_aux>
 18000a8:	80 01 00 14 	lwz     r0,20(r1)
 18000ac:	7c 08 03 a6 	mtlr    r0
 18000b0:	38 21 00 10 	addi    r1,r1,16
 18000b4:	4e 80 00 20 	blr

Disassembly of section .text:

018000b8 <__do_global_dtors_aux>:
 18000b8:	94 21 ff e8 	stwu    r1,-24(r1)
 18000bc:	7c 08 02 a6 	mflr    r0
 18000c0:	93 e1 00 14 	stw     r31,20(r1)
 18000c4:	3f e0 01 81 	lis     r31,385
 18000c8:	90 01 00 1c 	stw     r0,28(r1)
 18000cc:	88 1f 06 9c 	lbz     r0,1692(r31)
 18000d0:	93 81 00 08 	stw     r28,8(r1)
 18000d4:	2f 80 00 00 	cmpwi   cr7,r0,0
 18000d8:	93 a1 00 0c 	stw     r29,12(r1)
 18000dc:	93 c1 00 10 	stw     r30,16(r1)
 18000e0:	40 9e 00 7c 	bne-    cr7,180015c <__do_global_dtors_aux+0xa4>
 18000e4:	3f 80 01 81 	lis     r28,385
 18000e8:	3f a0 01 81 	lis     r29,385
 18000ec:	3b 9c 06 6c 	addi    r28,r28,1644
 18000f0:	3b bd 06 70 	addi    r29,r29,1648
 18000f4:	7f bc e8 50 	subf    r29,r28,r29
 18000f8:	3f c0 01 81 	lis     r30,385
 18000fc:	7f bd 16 70 	srawi   r29,r29,2
 1800100:	81 3e 06 a0 	lwz     r9,1696(r30)
 1800104:	3b bd ff ff 	addi    r29,r29,-1
 1800108:	7f 89 e8 40 	cmplw   cr7,r9,r29
 180010c:	40 9c 00 2c 	bge-    cr7,1800138 <__do_global_dtors_aux+0x80>
 1800110:	3b de 06 a0 	addi    r30,r30,1696
 1800114:	39 29 00 01 	addi    r9,r9,1
 1800118:	55 20 10 3a 	rlwinm  r0,r9,2,0,29
 180011c:	91 3e 00 00 	stw     r9,0(r30)
 1800120:	7c 1c 00 2e 	lwzx    r0,r28,r0
 1800124:	7c 09 03 a6 	mtctr   r0
 1800128:	4e 80 04 21 	bctrl
 180012c:	81 3e 00 00 	lwz     r9,0(r30)
 1800130:	7f 89 e8 40 	cmplw   cr7,r9,r29
 1800134:	41 9c ff e0 	blt+    cr7,1800114 <__do_global_dtors_aux+0x5c>
 1800138:	3d 20 00 00 	lis     r9,0
 180013c:	38 09 00 00 	addi    r0,r9,0
 1800140:	2f 80 00 00 	cmpwi   cr7,r0,0
 1800144:	41 9e 00 10 	beq-    cr7,1800154 <__do_global_dtors_aux+0x9c>
 1800148:	3c 60 01 81 	lis     r3,385
 180014c:	38 63 05 f4 	addi    r3,r3,1524
 1800150:	4a 7f fe b1 	bl      0 <__init-0x1800094>
 1800154:	38 00 00 01 	li      r0,1
 1800158:	98 1f 06 9c 	stb     r0,1692(r31)
 180015c:	80 01 00 1c 	lwz     r0,28(r1)
 1800160:	83 81 00 08 	lwz     r28,8(r1)
 1800164:	7c 08 03 a6 	mtlr    r0
 1800168:	83 a1 00 0c 	lwz     r29,12(r1)
 180016c:	83 c1 00 10 	lwz     r30,16(r1)
 1800170:	83 e1 00 14 	lwz     r31,20(r1)
 1800174:	38 21 00 18 	addi    r1,r1,24
 1800178:	4e 80 00 20 	blr

0180017c <call___do_global_dtors_aux>:
 180017c:	7c 08 02 a6 	mflr    r0
 1800180:	94 21 ff f8 	stwu    r1,-8(r1)
 1800184:	90 01 00 0c 	stw     r0,12(r1)
 1800188:	80 01 00 0c 	lwz     r0,12(r1)
 180018c:	38 21 00 08 	addi    r1,r1,8
 1800190:	7c 08 03 a6 	mtlr    r0
 1800194:	4e 80 00 20 	blr

01800198 <frame_dummy>:
 1800198:	7c 08 02 a6 	mflr    r0
 180019c:	94 21 ff f8 	stwu    r1,-8(r1)
 18001a0:	3d 20 00 00 	lis     r9,0
 18001a4:	90 01 00 0c 	stw     r0,12(r1)
 18001a8:	38 09 00 00 	addi    r0,r9,0
 18001ac:	2f 80 00 00 	cmpwi   cr7,r0,0
 18001b0:	41 9e 00 18 	beq-    cr7,18001c8 <frame_dummy+0x30>
 18001b4:	3c 60 01 81 	lis     r3,385
 18001b8:	3c 80 01 81 	lis     r4,385
 18001bc:	38 63 05 f4 	addi    r3,r3,1524
 18001c0:	38 84 06 a4 	addi    r4,r4,1700
 18001c4:	4a 7f fe 3d 	bl      0 <__init-0x1800094>
 18001c8:	3c 60 01 81 	lis     r3,385
 18001cc:	80 03 06 74 	lwz     r0,1652(r3)
 18001d0:	38 63 06 74 	addi    r3,r3,1652
 18001d4:	2f 80 00 00 	cmpwi   cr7,r0,0
 18001d8:	41 9e 00 1c 	beq-    cr7,18001f4 <frame_dummy+0x5c>
 18001dc:	3d 20 00 00 	lis     r9,0
 18001e0:	38 09 00 00 	addi    r0,r9,0
 18001e4:	2f 80 00 00 	cmpwi   cr7,r0,0
 18001e8:	41 9e 00 0c 	beq-    cr7,18001f4 <frame_dummy+0x5c>
 18001ec:	7c 09 03 a6 	mtctr   r0
 18001f0:	4e 80 04 21 	bctrl
 18001f4:	80 01 00 0c 	lwz     r0,12(r1)
 18001f8:	38 21 00 08 	addi    r1,r1,8
 18001fc:	7c 08 03 a6 	mtlr    r0
 1800200:	4e 80 00 20 	blr

01800204 <call_frame_dummy>:
 1800204:	7c 08 02 a6 	mflr    r0
 1800208:	94 21 ff f8 	stwu    r1,-8(r1)
 180020c:	90 01 00 0c 	stw     r0,12(r1)
 1800210:	80 01 00 0c 	lwz     r0,12(r1)
 1800214:	38 21 00 08 	addi    r1,r1,8
 1800218:	7c 08 03 a6 	mtlr    r0
 180021c:	4e 80 00 20 	blr

01800220 <main>:
 1800220:	94 21 ff e0 	stwu    r1,-32(r1)
 1800224:	7c 08 02 a6 	mflr    r0
 1800228:	90 01 00 24 	stw     r0,36(r1)
 180022c:	93 e1 00 1c 	stw     r31,28(r1)
 1800230:	7c 3f 0b 78 	mr      r31,r1
 1800234:	48 00 02 5d 	bl      1800490 <__eabi>
 1800238:	38 00 0f a0 	li      r0,4000
 180023c:	90 1f 00 08 	stw     r0,8(r31)
 1800240:	48 00 01 e8 	b       1800428 <main+0x208>
 1800244:	3c 00 01 81 	lis     r0,385
 1800248:	30 00 06 bc 	addic   r0,r0,1724
 180024c:	39 20 00 00 	li      r9,0
 1800250:	7c 0b 03 78 	mr      r11,r0
 1800254:	91 2b 00 00 	stw     r9,0(r11)
 1800258:	3c 00 01 81 	lis     r0,385
 180025c:	30 00 06 bc 	addic   r0,r0,1724
 1800260:	39 20 00 0b 	li      r9,11
 1800264:	7c 0b 03 78 	mr      r11,r0
 1800268:	91 2b 00 04 	stw     r9,4(r11)
 180026c:	3c 00 01 81 	lis     r0,385
 1800270:	30 00 06 bc 	addic   r0,r0,1724
 1800274:	39 20 00 0a 	li      r9,10
 1800278:	7c 0b 03 78 	mr      r11,r0
 180027c:	91 2b 00 08 	stw     r9,8(r11)
 1800280:	3c 00 01 81 	lis     r0,385
 1800284:	30 00 06 bc 	addic   r0,r0,1724
 1800288:	39 20 00 09 	li      r9,9
 180028c:	7c 0b 03 78 	mr      r11,r0
 1800290:	91 2b 00 0c 	stw     r9,12(r11)
 1800294:	3c 00 01 81 	lis     r0,385
 1800298:	30 00 06 bc 	addic   r0,r0,1724
 180029c:	39 20 00 08 	li      r9,8
 18002a0:	7c 0b 03 78 	mr      r11,r0
 18002a4:	91 2b 00 10 	stw     r9,16(r11)
 18002a8:	3c 00 01 81 	lis     r0,385
 18002ac:	30 00 06 bc 	addic   r0,r0,1724
 18002b0:	39 20 00 07 	li      r9,7
 18002b4:	7c 0b 03 78 	mr      r11,r0
 18002b8:	91 2b 00 14 	stw     r9,20(r11)
 18002bc:	3c 00 01 81 	lis     r0,385
 18002c0:	30 00 06 bc 	addic   r0,r0,1724
 18002c4:	39 20 00 06 	li      r9,6
 18002c8:	7c 0b 03 78 	mr      r11,r0
 18002cc:	91 2b 00 18 	stw     r9,24(r11)
 18002d0:	3c 00 01 81 	lis     r0,385
 18002d4:	30 00 06 bc 	addic   r0,r0,1724
 18002d8:	39 20 00 05 	li      r9,5
 18002dc:	7c 0b 03 78 	mr      r11,r0
 18002e0:	91 2b 00 1c 	stw     r9,28(r11)
 18002e4:	3c 00 01 81 	lis     r0,385
 18002e8:	30 00 06 bc 	addic   r0,r0,1724
 18002ec:	39 20 00 04 	li      r9,4
 18002f0:	7c 0b 03 78 	mr      r11,r0
 18002f4:	91 2b 00 20 	stw     r9,32(r11)
 18002f8:	3c 00 01 81 	lis     r0,385
 18002fc:	30 00 06 bc 	addic   r0,r0,1724
 1800300:	39 20 00 03 	li      r9,3
 1800304:	7c 0b 03 78 	mr      r11,r0
 1800308:	91 2b 00 24 	stw     r9,36(r11)
 180030c:	3c 00 01 81 	lis     r0,385
 1800310:	30 00 06 bc 	addic   r0,r0,1724
 1800314:	39 20 00 02 	li      r9,2
 1800318:	7c 0b 03 78 	mr      r11,r0
 180031c:	91 2b 00 28 	stw     r9,40(r11)
 1800320:	38 00 00 02 	li      r0,2
 1800324:	90 1f 00 14 	stw     r0,20(r31)
 1800328:	48 00 00 e8 	b       1800410 <main+0x1f0>
 180032c:	80 1f 00 14 	lwz     r0,20(r31)
 1800330:	90 1f 00 10 	stw     r0,16(r31)
 1800334:	48 00 00 8c 	b       18003c0 <main+0x1a0>
 1800338:	80 1f 00 10 	lwz     r0,16(r31)
 180033c:	3d 20 01 81 	lis     r9,385
 1800340:	39 29 06 bc 	addi    r9,r9,1724
 1800344:	54 00 10 3a 	rlwinm  r0,r0,2,0,29
 1800348:	7c 09 02 14 	add     r0,r9,r0
 180034c:	7c 09 03 78 	mr      r9,r0
 1800350:	80 09 00 00 	lwz     r0,0(r9)
 1800354:	90 1f 00 0c 	stw     r0,12(r31)
 1800358:	80 1f 00 10 	lwz     r0,16(r31)
 180035c:	81 3f 00 10 	lwz     r9,16(r31)
 1800360:	39 29 ff ff 	addi    r9,r9,-1
 1800364:	3d 60 01 81 	lis     r11,385
 1800368:	39 6b 06 bc 	addi    r11,r11,1724
 180036c:	55 29 10 3a 	rlwinm  r9,r9,2,0,29
 1800370:	7d 2b 4a 14 	add     r9,r11,r9
 1800374:	81 29 00 00 	lwz     r9,0(r9)
 1800378:	3d 60 01 81 	lis     r11,385
 180037c:	39 6b 06 bc 	addi    r11,r11,1724
 1800380:	54 00 10 3a 	rlwinm  r0,r0,2,0,29
 1800384:	7c 0b 02 14 	add     r0,r11,r0
 1800388:	7c 0b 03 78 	mr      r11,r0
 180038c:	91 2b 00 00 	stw     r9,0(r11)
 1800390:	80 1f 00 10 	lwz     r0,16(r31)
 1800394:	30 00 ff ff 	addic   r0,r0,-1
 1800398:	81 3f 00 0c 	lwz     r9,12(r31)
 180039c:	3d 60 01 81 	lis     r11,385
 18003a0:	39 6b 06 bc 	addi    r11,r11,1724
 18003a4:	54 00 10 3a 	rlwinm  r0,r0,2,0,29
 18003a8:	7c 0b 02 14 	add     r0,r11,r0
 18003ac:	7c 0b 03 78 	mr      r11,r0
 18003b0:	91 2b 00 00 	stw     r9,0(r11)
 18003b4:	80 1f 00 10 	lwz     r0,16(r31)
 18003b8:	30 00 ff ff 	addic   r0,r0,-1
 18003bc:	90 1f 00 10 	stw     r0,16(r31)
 18003c0:	80 1f 00 10 	lwz     r0,16(r31)
 18003c4:	3d 20 01 81 	lis     r9,385
 18003c8:	39 29 06 bc 	addi    r9,r9,1724
 18003cc:	54 00 10 3a 	rlwinm  r0,r0,2,0,29
 18003d0:	7c 09 02 14 	add     r0,r9,r0
 18003d4:	7c 0b 03 78 	mr      r11,r0
 18003d8:	81 2b 00 00 	lwz     r9,0(r11)
 18003dc:	80 1f 00 10 	lwz     r0,16(r31)
 18003e0:	30 00 ff ff 	addic   r0,r0,-1
 18003e4:	3d 60 01 81 	lis     r11,385
 18003e8:	39 6b 06 bc 	addi    r11,r11,1724
 18003ec:	54 00 10 3a 	rlwinm  r0,r0,2,0,29
 18003f0:	7c 0b 02 14 	add     r0,r11,r0
 18003f4:	7c 0b 03 78 	mr      r11,r0
 18003f8:	80 0b 00 00 	lwz     r0,0(r11)
 18003fc:	7f 89 00 40 	cmplw   cr7,r9,r0
 1800400:	41 9c ff 38 	blt+    cr7,1800338 <main+0x118>
 1800404:	80 1f 00 14 	lwz     r0,20(r31)
 1800408:	30 00 00 01 	addic   r0,r0,1
 180040c:	90 1f 00 14 	stw     r0,20(r31)
 1800410:	80 1f 00 14 	lwz     r0,20(r31)
 1800414:	2f 80 00 0a 	cmpwi   cr7,r0,10
 1800418:	40 9d ff 14 	ble+    cr7,180032c <main+0x10c>
 180041c:	80 1f 00 08 	lwz     r0,8(r31)
 1800420:	30 00 ff ff 	addic   r0,r0,-1
 1800424:	90 1f 00 08 	stw     r0,8(r31)
 1800428:	80 1f 00 08 	lwz     r0,8(r31)
 180042c:	2f 80 00 00 	cmpwi   cr7,r0,0
 1800430:	40 9e fe 14 	bne+    cr7,1800244 <main+0x24>
 1800434:	38 00 00 01 	li      r0,1
 1800438:	7c 03 03 78 	mr      r3,r0
 180043c:	39 7f 00 20 	addi    r11,r31,32
 1800440:	80 0b 00 04 	lwz     r0,4(r11)
 1800444:	7c 08 03 a6 	mtlr    r0
 1800448:	83 eb ff fc 	lwz     r31,-4(r11)
 180044c:	7d 61 5b 78 	mr      r1,r11
 1800450:	4e 80 00 20 	blr

01800454 <_exit>:
 1800454:	94 21 ff e8 	stwu    r1,-24(r1)
 1800458:	93 e1 00 14 	stw     r31,20(r1)
 180045c:	7c 3f 0b 78 	mr      r31,r1
 1800460:	90 7f 00 08 	stw     r3,8(r31)
 1800464:	48 00 00 00 	b       1800464 <_exit+0x10>

01800468 <_start>:
 1800468:	94 21 ff f0 	stwu    r1,-16(r1)
 180046c:	7c 08 02 a6 	mflr    r0
 1800470:	90 01 00 14 	stw     r0,20(r1)
 1800474:	93 e1 00 0c 	stw     r31,12(r1)
 1800478:	7c 3f 0b 78 	mr      r31,r1
 180047c:	38 60 00 00 	li      r3,0
 1800480:	38 80 00 00 	li      r4,0
 1800484:	4b ff fd 9d 	bl      1800220 <main>
 1800488:	38 60 00 00 	li      r3,0
 180048c:	4b ff ff c9 	bl      1800454 <_exit>

01800490 <__eabi>:
 1800490:	3d 40 01 81 	lis     r10,385
 1800494:	3d 60 01 81 	lis     r11,385
 1800498:	81 2a 06 98 	lwz     r9,1688(r10)
 180049c:	39 6b 06 78 	addi    r11,r11,1656
 18004a0:	29 09 00 00 	cmplwi  cr2,r9,0
 18004a4:	4c 8a 00 20 	bnelr   cr2
 18004a8:	90 2a 06 98 	stw     r1,1688(r10)
 18004ac:	80 6b 00 08 	lwz     r3,8(r11)
 18004b0:	80 8b 00 0c 	lwz     r4,12(r11)
 18004b4:	7c 83 20 00 	cmpw    cr1,r3,r4
 18004b8:	41 86 00 08 	beq-    cr1,18004c0 <__eabi+0x30>
 18004bc:	81 ab 00 04 	lwz     r13,4(r11)
 18004c0:	80 6b 00 14 	lwz     r3,20(r11)
 18004c4:	80 8b 00 18 	lwz     r4,24(r11)
 18004c8:	7c 83 20 00 	cmpw    cr1,r3,r4
 18004cc:	41 a6 00 08 	beq+    cr1,18004d4 <__eabi+0x44>
 18004d0:	80 4b 00 10 	lwz     r2,16(r11)
 18004d4:	4b ff fb c0 	b       1800094 <__init>

018004d8 <__eabi_convert>:
 18004d8:	7c 83 20 40 	cmplw   cr1,r3,r4
 18004dc:	7c a3 20 50 	subf    r5,r3,r4
 18004e0:	4c 84 00 20 	bgelr   cr1
 18004e4:	7c a5 16 70 	srawi   r5,r5,2
 18004e8:	38 63 ff fc 	addi    r3,r3,-4
 18004ec:	7c a9 03 a6 	mtctr   r5
 18004f0:	84 c3 00 04 	lwzu    r6,4(r3)
 18004f4:	2c 06 00 00 	cmpwi   r6,0
 18004f8:	41 82 00 0c 	beq-    1800504 <__eabi_convert+0x2c>
 18004fc:	7c c6 62 14 	add     r6,r6,r12
 1800500:	90 c3 00 00 	stw     r6,0(r3)
 1800504:	42 00 ff ec 	bdnz+   18004f0 <__eabi_convert+0x18>
 1800508:	4e 80 00 20 	blr

0180050c <__eabi_uconvert>:
 180050c:	7c 83 20 40 	cmplw   cr1,r3,r4
 1800510:	7c a3 20 50 	subf    r5,r3,r4
 1800514:	4c 84 00 20 	bgelr   cr1
 1800518:	7c a5 16 70 	srawi   r5,r5,2
 180051c:	38 63 ff fc 	addi    r3,r3,-4
 1800520:	7c a9 03 a6 	mtctr   r5
 1800524:	84 c3 00 04 	lwzu    r6,4(r3)
 1800528:	7c c6 62 14 	add     r6,r6,r12
 180052c:	80 e6 00 00 	lwz     r7,0(r6)
 1800530:	90 c3 00 00 	stw     r6,0(r3)
 1800534:	7c e7 62 14 	add     r7,r7,r12
 1800538:	90 e6 00 00 	stw     r7,0(r6)
 180053c:	42 00 ff e8 	bdnz+   1800524 <__eabi_uconvert+0x18>
 1800540:	4e 80 00 20 	blr

01800544 <__do_global_ctors_aux>:
 1800544:	7c 08 02 a6 	mflr    r0
 1800548:	94 21 ff f0 	stwu    r1,-16(r1)
 180054c:	93 e1 00 0c 	stw     r31,12(r1)
 1800550:	3f e0 01 81 	lis     r31,385
 1800554:	90 01 00 14 	stw     r0,20(r1)
 1800558:	3b ff 06 68 	addi    r31,r31,1640
 180055c:	80 1f ff fc 	lwz     r0,-4(r31)
 1800560:	2f 80 ff ff 	cmpwi   cr7,r0,-1
 1800564:	41 9e 00 1c 	beq-    cr7,1800580 <__do_global_ctors_aux+0x3c>
 1800568:	3b ff ff fc 	addi    r31,r31,-4
 180056c:	7c 09 03 a6 	mtctr   r0
 1800570:	4e 80 04 21 	bctrl
 1800574:	84 1f ff fc 	lwzu    r0,-4(r31)
 1800578:	2f 80 ff ff 	cmpwi   cr7,r0,-1
 180057c:	40 9e ff f0 	bne+    cr7,180056c <__do_global_ctors_aux+0x28>
 1800580:	80 01 00 14 	lwz     r0,20(r1)
 1800584:	83 e1 00 0c 	lwz     r31,12(r1)
 1800588:	38 21 00 10 	addi    r1,r1,16
 180058c:	7c 08 03 a6 	mtlr    r0
 1800590:	4e 80 00 20 	blr

01800594 <call___do_global_ctors_aux>:
 1800594:	7c 08 02 a6 	mflr    r0
 1800598:	94 21 ff f8 	stwu    r1,-8(r1)
 180059c:	90 01 00 0c 	stw     r0,12(r1)
 18005a0:	80 01 00 0c 	lwz     r0,12(r1)
 18005a4:	38 21 00 08 	addi    r1,r1,8
 18005a8:	7c 08 03 a6 	mtlr    r0
 18005ac:	4e 80 00 20 	blr

Disassembly of section .fini:

018005b0 <__fini>:
 18005b0:	94 21 ff f0 	stwu    r1,-16(r1)
 18005b4:	7c 08 02 a6 	mflr    r0
 18005b8:	90 01 00 14 	stw     r0,20(r1)
 18005bc:	4b ff fa fd 	bl      18000b8 <__do_global_dtors_aux>
 18005c0:	80 01 00 14 	lwz     r0,20(r1)
 18005c4:	7c 08 03 a6 	mtlr    r0
 18005c8:	38 21 00 10 	addi    r1,r1,16
 18005cc:	4e 80 00 20 	blr
