
/home/vaillant/ppc2/perf/malardalen/ppc-eabi/gcc-4.4.2/bsort100/bsort100.elf:     file format elf32-powerpc


Disassembly of section .init:

01800094 <__init>:
 1800094:	94 21 ff f0 	stwu    r1,-16(r1)
 1800098:	7c 08 02 a6 	mflr    r0
 180009c:	90 01 00 14 	stw     r0,20(r1)
 18000a0:	48 00 00 f9 	bl      1800198 <frame_dummy>
 18000a4:	48 00 05 49 	bl      18005ec <__do_global_ctors_aux>
 18000a8:	80 01 00 14 	lwz     r0,20(r1)
 18000ac:	7c 08 03 a6 	mtlr    r0
 18000b0:	38 21 00 10 	addi    r1,r1,16
 18000b4:	4e 80 00 20 	blr

Disassembly of section .text:

018000b8 <__do_global_dtors_aux>:
 18000b8:	94 21 ff e8 	stwu    r1,-24(r1)
 18000bc:	7c 08 02 a6 	mflr    r0
 18000c0:	93 e1 00 14 	stw     r31,20(r1)
 18000c4:	3f e0 01 81 	lis     r31,385
 18000c8:	90 01 00 1c 	stw     r0,28(r1)
 18000cc:	88 1f 07 d0 	lbz     r0,2000(r31)
 18000d0:	93 81 00 08 	stw     r28,8(r1)
 18000d4:	2f 80 00 00 	cmpwi   cr7,r0,0
 18000d8:	93 a1 00 0c 	stw     r29,12(r1)
 18000dc:	93 c1 00 10 	stw     r30,16(r1)
 18000e0:	40 9e 00 7c 	bne-    cr7,180015c <__do_global_dtors_aux+0xa4>
 18000e4:	3f 80 01 81 	lis     r28,385
 18000e8:	3f a0 01 81 	lis     r29,385
 18000ec:	3b 9c 07 98 	addi    r28,r28,1944
 18000f0:	3b bd 07 9c 	addi    r29,r29,1948
 18000f4:	7f bc e8 50 	subf    r29,r28,r29
 18000f8:	3f c0 01 81 	lis     r30,385
 18000fc:	7f bd 16 70 	srawi   r29,r29,2
 1800100:	81 3e 07 d4 	lwz     r9,2004(r30)
 1800104:	3b bd ff ff 	addi    r29,r29,-1
 1800108:	7f 89 e8 40 	cmplw   cr7,r9,r29
 180010c:	40 9c 00 2c 	bge-    cr7,1800138 <__do_global_dtors_aux+0x80>
 1800110:	3b de 07 d4 	addi    r30,r30,2004
 1800114:	39 29 00 01 	addi    r9,r9,1
 1800118:	55 20 10 3a 	rlwinm  r0,r9,2,0,29
 180011c:	91 3e 00 00 	stw     r9,0(r30)
 1800120:	7c 1c 00 2e 	lwzx    r0,r28,r0
 1800124:	7c 09 03 a6 	mtctr   r0
 1800128:	4e 80 04 21 	bctrl
 180012c:	81 3e 00 00 	lwz     r9,0(r30)
 1800130:	7f 89 e8 40 	cmplw   cr7,r9,r29
 1800134:	41 9c ff e0 	blt+    cr7,1800114 <__do_global_dtors_aux+0x5c>
 1800138:	3d 20 00 00 	lis     r9,0
 180013c:	38 09 00 00 	addi    r0,r9,0
 1800140:	2f 80 00 00 	cmpwi   cr7,r0,0
 1800144:	41 9e 00 10 	beq-    cr7,1800154 <__do_global_dtors_aux+0x9c>
 1800148:	3c 60 01 81 	lis     r3,385
 180014c:	38 63 06 cc 	addi    r3,r3,1740
 1800150:	4a 7f fe b1 	bl      0 <__init-0x1800094>
 1800154:	38 00 00 01 	li      r0,1
 1800158:	98 1f 07 d0 	stb     r0,2000(r31)
 180015c:	80 01 00 1c 	lwz     r0,28(r1)
 1800160:	83 81 00 08 	lwz     r28,8(r1)
 1800164:	7c 08 03 a6 	mtlr    r0
 1800168:	83 a1 00 0c 	lwz     r29,12(r1)
 180016c:	83 c1 00 10 	lwz     r30,16(r1)
 1800170:	83 e1 00 14 	lwz     r31,20(r1)
 1800174:	38 21 00 18 	addi    r1,r1,24
 1800178:	4e 80 00 20 	blr

0180017c <call___do_global_dtors_aux>:
 180017c:	7c 08 02 a6 	mflr    r0
 1800180:	94 21 ff f8 	stwu    r1,-8(r1)
 1800184:	90 01 00 0c 	stw     r0,12(r1)
 1800188:	80 01 00 0c 	lwz     r0,12(r1)
 180018c:	38 21 00 08 	addi    r1,r1,8
 1800190:	7c 08 03 a6 	mtlr    r0
 1800194:	4e 80 00 20 	blr

01800198 <frame_dummy>:
 1800198:	7c 08 02 a6 	mflr    r0
 180019c:	94 21 ff f8 	stwu    r1,-8(r1)
 18001a0:	3d 20 00 00 	lis     r9,0
 18001a4:	90 01 00 0c 	stw     r0,12(r1)
 18001a8:	38 09 00 00 	addi    r0,r9,0
 18001ac:	2f 80 00 00 	cmpwi   cr7,r0,0
 18001b0:	41 9e 00 18 	beq-    cr7,18001c8 <frame_dummy+0x30>
 18001b4:	3c 60 01 81 	lis     r3,385
 18001b8:	3c 80 01 81 	lis     r4,385
 18001bc:	38 63 06 cc 	addi    r3,r3,1740
 18001c0:	38 84 07 d8 	addi    r4,r4,2008
 18001c4:	4a 7f fe 3d 	bl      0 <__init-0x1800094>
 18001c8:	3c 60 01 81 	lis     r3,385
 18001cc:	80 03 07 a0 	lwz     r0,1952(r3)
 18001d0:	38 63 07 a0 	addi    r3,r3,1952
 18001d4:	2f 80 00 00 	cmpwi   cr7,r0,0
 18001d8:	41 9e 00 1c 	beq-    cr7,18001f4 <frame_dummy+0x5c>
 18001dc:	3d 20 00 00 	lis     r9,0
 18001e0:	38 09 00 00 	addi    r0,r9,0
 18001e4:	2f 80 00 00 	cmpwi   cr7,r0,0
 18001e8:	41 9e 00 0c 	beq-    cr7,18001f4 <frame_dummy+0x5c>
 18001ec:	7c 09 03 a6 	mtctr   r0
 18001f0:	4e 80 04 21 	bctrl
 18001f4:	80 01 00 0c 	lwz     r0,12(r1)
 18001f8:	38 21 00 08 	addi    r1,r1,8
 18001fc:	7c 08 03 a6 	mtlr    r0
 1800200:	4e 80 00 20 	blr

01800204 <call_frame_dummy>:
 1800204:	7c 08 02 a6 	mflr    r0
 1800208:	94 21 ff f8 	stwu    r1,-8(r1)
 180020c:	90 01 00 0c 	stw     r0,12(r1)
 1800210:	80 01 00 0c 	lwz     r0,12(r1)
 1800214:	38 21 00 08 	addi    r1,r1,8
 1800218:	7c 08 03 a6 	mtlr    r0
 180021c:	4e 80 00 20 	blr

01800220 <main>:
 1800220:	94 21 ff e0 	stwu    r1,-32(r1)
 1800224:	7c 08 02 a6 	mflr    r0
 1800228:	90 01 00 24 	stw     r0,36(r1)
 180022c:	93 e1 00 1c 	stw     r31,28(r1)
 1800230:	7c 3f 0b 78 	mr      r31,r1
 1800234:	48 00 03 05 	bl      1800538 <__eabi>
 1800238:	38 00 07 d0 	li      r0,2000
 180023c:	90 1f 00 08 	stw     r0,8(r31)
 1800240:	48 00 00 30 	b       1800270 <main+0x50>
 1800244:	3c 00 01 81 	lis     r0,385
 1800248:	30 60 07 f0 	addic   r3,r0,2032
 180024c:	4c c6 31 82 	crclr   4*cr1+eq
 1800250:	48 00 00 b9 	bl      1800308 <Initialize>
 1800254:	3c 00 01 81 	lis     r0,385
 1800258:	30 60 07 f0 	addic   r3,r0,2032
 180025c:	4c c6 31 82 	crclr   4*cr1+eq
 1800260:	48 00 01 45 	bl      18003a4 <BubbleSort>
 1800264:	80 1f 00 08 	lwz     r0,8(r31)
 1800268:	30 00 ff ff 	addic   r0,r0,-1
 180026c:	90 1f 00 08 	stw     r0,8(r31)
 1800270:	80 1f 00 08 	lwz     r0,8(r31)
 1800274:	2f 80 00 00 	cmpwi   cr7,r0,0
 1800278:	40 9e ff cc 	bne+    cr7,1800244 <main+0x24>
 180027c:	39 7f 00 20 	addi    r11,r31,32
 1800280:	80 0b 00 04 	lwz     r0,4(r11)
 1800284:	7c 08 03 a6 	mtlr    r0
 1800288:	83 eb ff fc 	lwz     r31,-4(r11)
 180028c:	7d 61 5b 78 	mr      r1,r11
 1800290:	4e 80 00 20 	blr

01800294 <ttime>:
 1800294:	94 21 ff c0 	stwu    r1,-64(r1)
 1800298:	93 e1 00 3c 	stw     r31,60(r1)
 180029c:	7c 3f 0b 78 	mr      r31,r1
 18002a0:	81 3f 00 0c 	lwz     r9,12(r31)
 18002a4:	3c 00 43 30 	lis     r0,17200
 18002a8:	3d 60 01 80 	lis     r11,384
 18002ac:	c8 0b 06 78 	lfd     f0,1656(r11)
 18002b0:	91 3f 00 2c 	stw     r9,44(r31)
 18002b4:	90 1f 00 28 	stw     r0,40(r31)
 18002b8:	c9 bf 00 28 	lfd     f13,40(r31)
 18002bc:	fd ad 00 28 	fsub    f13,f13,f0
 18002c0:	3c 00 01 80 	lis     r0,384
 18002c4:	7c 09 03 78 	mr      r9,r0
 18002c8:	c8 09 06 80 	lfd     f0,1664(r9)
 18002cc:	fd ad 00 24 	fdiv    f13,f13,f0
 18002d0:	3c 00 01 80 	lis     r0,384
 18002d4:	7c 09 03 78 	mr      r9,r0
 18002d8:	c8 09 06 88 	lfd     f0,1672(r9)
 18002dc:	fc 0d 00 32 	fmul    f0,f13,f0
 18002e0:	fc 00 00 1e 	fctiwz  f0,f0
 18002e4:	d8 1f 00 30 	stfd    f0,48(r31)
 18002e8:	80 1f 00 34 	lwz     r0,52(r31)
 18002ec:	90 1f 00 08 	stw     r0,8(r31)
 18002f0:	80 1f 00 08 	lwz     r0,8(r31)
 18002f4:	7c 03 03 78 	mr      r3,r0
 18002f8:	39 7f 00 40 	addi    r11,r31,64
 18002fc:	83 eb ff fc 	lwz     r31,-4(r11)
 1800300:	7d 61 5b 78 	mr      r1,r11
 1800304:	4e 80 00 20 	blr

01800308 <Initialize>:
 1800308:	94 21 ff d8 	stwu    r1,-40(r1)
 180030c:	93 e1 00 24 	stw     r31,36(r1)
 1800310:	7c 3f 0b 78 	mr      r31,r1
 1800314:	90 7f 00 18 	stw     r3,24(r31)
 1800318:	3c 00 01 81 	lis     r0,385
 180031c:	39 20 ff ff 	li      r9,-1
 1800320:	7c 0b 03 78 	mr      r11,r0
 1800324:	91 2b 07 cc 	stw     r9,1996(r11)
 1800328:	3c 00 01 81 	lis     r0,385
 180032c:	7c 09 03 78 	mr      r9,r0
 1800330:	80 09 07 cc 	lwz     r0,1996(r9)
 1800334:	90 1f 00 08 	stw     r0,8(r31)
 1800338:	38 00 00 01 	li      r0,1
 180033c:	90 1f 00 0c 	stw     r0,12(r31)
 1800340:	48 00 00 48 	b       1800388 <Initialize+0x80>
 1800344:	80 1f 00 0c 	lwz     r0,12(r31)
 1800348:	54 00 10 3a 	rlwinm  r0,r0,2,0,29
 180034c:	81 3f 00 18 	lwz     r9,24(r31)
 1800350:	7c 09 02 14 	add     r0,r9,r0
 1800354:	81 7f 00 0c 	lwz     r11,12(r31)
 1800358:	81 3f 00 08 	lwz     r9,8(r31)
 180035c:	7d 6b 49 d6 	mullw   r11,r11,r9
 1800360:	3d 20 80 20 	lis     r9,-32736
 1800364:	61 29 00 01 	ori     r9,r9,1
 1800368:	89 29 00 00 	lbz     r9,0(r9)
 180036c:	55 29 06 3e 	clrlwi  r9,r9,24
 1800370:	7d 2b 49 d6 	mullw   r9,r11,r9
 1800374:	7c 0b 03 78 	mr      r11,r0
 1800378:	91 2b 00 00 	stw     r9,0(r11)
 180037c:	80 1f 00 0c 	lwz     r0,12(r31)
 1800380:	30 00 00 01 	addic   r0,r0,1
 1800384:	90 1f 00 0c 	stw     r0,12(r31)
 1800388:	80 1f 00 0c 	lwz     r0,12(r31)
 180038c:	2f 80 00 64 	cmpwi   cr7,r0,100
 1800390:	40 9d ff b4 	ble+    cr7,1800344 <Initialize+0x3c>
 1800394:	39 7f 00 28 	addi    r11,r31,40
 1800398:	83 eb ff fc 	lwz     r31,-4(r11)
 180039c:	7d 61 5b 78 	mr      r1,r11
 18003a0:	4e 80 00 20 	blr

018003a4 <BubbleSort>:
 18003a4:	94 21 ff c8 	stwu    r1,-56(r1)
 18003a8:	93 e1 00 34 	stw     r31,52(r1)
 18003ac:	7c 3f 0b 78 	mr      r31,r1
 18003b0:	90 7f 00 28 	stw     r3,40(r31)
 18003b4:	38 00 00 00 	li      r0,0
 18003b8:	90 1f 00 18 	stw     r0,24(r31)
 18003bc:	38 00 00 01 	li      r0,1
 18003c0:	90 1f 00 08 	stw     r0,8(r31)
 18003c4:	48 00 01 14 	b       18004d8 <BubbleSort+0x134>
 18003c8:	38 00 00 01 	li      r0,1
 18003cc:	90 1f 00 18 	stw     r0,24(r31)
 18003d0:	38 00 00 01 	li      r0,1
 18003d4:	90 1f 00 0c 	stw     r0,12(r31)
 18003d8:	48 00 00 d4 	b       18004ac <BubbleSort+0x108>
 18003dc:	80 1f 00 08 	lwz     r0,8(r31)
 18003e0:	21 20 00 64 	subfic  r9,r0,100
 18003e4:	80 1f 00 0c 	lwz     r0,12(r31)
 18003e8:	7f 89 00 00 	cmpw    cr7,r9,r0
 18003ec:	41 9c 00 d0 	blt-    cr7,18004bc <BubbleSort+0x118>
 18003f0:	80 1f 00 0c 	lwz     r0,12(r31)
 18003f4:	54 00 10 3a 	rlwinm  r0,r0,2,0,29
 18003f8:	81 3f 00 28 	lwz     r9,40(r31)
 18003fc:	7c 09 02 14 	add     r0,r9,r0
 1800400:	7c 0b 03 78 	mr      r11,r0
 1800404:	81 2b 00 00 	lwz     r9,0(r11)
 1800408:	80 1f 00 0c 	lwz     r0,12(r31)
 180040c:	30 00 00 01 	addic   r0,r0,1
 1800410:	54 00 10 3a 	rlwinm  r0,r0,2,0,29
 1800414:	81 7f 00 28 	lwz     r11,40(r31)
 1800418:	7c 0b 02 14 	add     r0,r11,r0
 180041c:	7c 0b 03 78 	mr      r11,r0
 1800420:	80 0b 00 00 	lwz     r0,0(r11)
 1800424:	7f 89 00 00 	cmpw    cr7,r9,r0
 1800428:	40 9d 00 78 	ble-    cr7,18004a0 <BubbleSort+0xfc>
 180042c:	80 1f 00 0c 	lwz     r0,12(r31)
 1800430:	54 00 10 3a 	rlwinm  r0,r0,2,0,29
 1800434:	81 3f 00 28 	lwz     r9,40(r31)
 1800438:	7c 09 02 14 	add     r0,r9,r0
 180043c:	7c 09 03 78 	mr      r9,r0
 1800440:	80 09 00 00 	lwz     r0,0(r9)
 1800444:	90 1f 00 14 	stw     r0,20(r31)
 1800448:	80 1f 00 0c 	lwz     r0,12(r31)
 180044c:	54 00 10 3a 	rlwinm  r0,r0,2,0,29
 1800450:	81 3f 00 28 	lwz     r9,40(r31)
 1800454:	7c 09 02 14 	add     r0,r9,r0
 1800458:	81 3f 00 0c 	lwz     r9,12(r31)
 180045c:	39 29 00 01 	addi    r9,r9,1
 1800460:	55 29 10 3a 	rlwinm  r9,r9,2,0,29
 1800464:	81 7f 00 28 	lwz     r11,40(r31)
 1800468:	7d 2b 4a 14 	add     r9,r11,r9
 180046c:	81 29 00 00 	lwz     r9,0(r9)
 1800470:	7c 0b 03 78 	mr      r11,r0
 1800474:	91 2b 00 00 	stw     r9,0(r11)
 1800478:	80 1f 00 0c 	lwz     r0,12(r31)
 180047c:	30 00 00 01 	addic   r0,r0,1
 1800480:	54 00 10 3a 	rlwinm  r0,r0,2,0,29
 1800484:	81 3f 00 28 	lwz     r9,40(r31)
 1800488:	7c 09 02 14 	add     r0,r9,r0
 180048c:	81 3f 00 14 	lwz     r9,20(r31)
 1800490:	7c 0b 03 78 	mr      r11,r0
 1800494:	91 2b 00 00 	stw     r9,0(r11)
 1800498:	38 00 00 00 	li      r0,0
 180049c:	90 1f 00 18 	stw     r0,24(r31)
 18004a0:	80 1f 00 0c 	lwz     r0,12(r31)
 18004a4:	30 00 00 01 	addic   r0,r0,1
 18004a8:	90 1f 00 0c 	stw     r0,12(r31)
 18004ac:	80 1f 00 0c 	lwz     r0,12(r31)
 18004b0:	2f 80 00 63 	cmpwi   cr7,r0,99
 18004b4:	40 9d ff 28 	ble+    cr7,18003dc <BubbleSort+0x38>
 18004b8:	48 00 00 08 	b       18004c0 <BubbleSort+0x11c>
 18004bc:	60 00 00 00 	nop
 18004c0:	80 1f 00 18 	lwz     r0,24(r31)
 18004c4:	2f 80 00 00 	cmpwi   cr7,r0,0
 18004c8:	40 9e 00 20 	bne-    cr7,18004e8 <BubbleSort+0x144>
 18004cc:	80 1f 00 08 	lwz     r0,8(r31)
 18004d0:	30 00 00 01 	addic   r0,r0,1
 18004d4:	90 1f 00 08 	stw     r0,8(r31)
 18004d8:	80 1f 00 08 	lwz     r0,8(r31)
 18004dc:	2f 80 00 63 	cmpwi   cr7,r0,99
 18004e0:	40 9d fe e8 	ble+    cr7,18003c8 <BubbleSort+0x24>
 18004e4:	48 00 00 08 	b       18004ec <BubbleSort+0x148>
 18004e8:	60 00 00 00 	nop
 18004ec:	39 7f 00 38 	addi    r11,r31,56
 18004f0:	83 eb ff fc 	lwz     r31,-4(r11)
 18004f4:	7d 61 5b 78 	mr      r1,r11
 18004f8:	4e 80 00 20 	blr

018004fc <_exit>:
 18004fc:	94 21 ff e8 	stwu    r1,-24(r1)
 1800500:	93 e1 00 14 	stw     r31,20(r1)
 1800504:	7c 3f 0b 78 	mr      r31,r1
 1800508:	90 7f 00 08 	stw     r3,8(r31)
 180050c:	48 00 00 00 	b       180050c <_exit+0x10>

01800510 <_start>:
 1800510:	94 21 ff f0 	stwu    r1,-16(r1)
 1800514:	7c 08 02 a6 	mflr    r0
 1800518:	90 01 00 14 	stw     r0,20(r1)
 180051c:	93 e1 00 0c 	stw     r31,12(r1)
 1800520:	7c 3f 0b 78 	mr      r31,r1
 1800524:	38 60 00 00 	li      r3,0
 1800528:	38 80 00 00 	li      r4,0
 180052c:	4b ff fc f5 	bl      1800220 <main>
 1800530:	38 60 00 00 	li      r3,0
 1800534:	4b ff ff c9 	bl      18004fc <_exit>

01800538 <__eabi>:
 1800538:	3d 40 01 81 	lis     r10,385
 180053c:	3d 60 01 81 	lis     r11,385
 1800540:	81 2a 07 c4 	lwz     r9,1988(r10)
 1800544:	39 6b 07 a4 	addi    r11,r11,1956
 1800548:	29 09 00 00 	cmplwi  cr2,r9,0
 180054c:	4c 8a 00 20 	bnelr   cr2
 1800550:	90 2a 07 c4 	stw     r1,1988(r10)
 1800554:	80 6b 00 08 	lwz     r3,8(r11)
 1800558:	80 8b 00 0c 	lwz     r4,12(r11)
 180055c:	7c 83 20 00 	cmpw    cr1,r3,r4
 1800560:	41 86 00 08 	beq-    cr1,1800568 <__eabi+0x30>
 1800564:	81 ab 00 04 	lwz     r13,4(r11)
 1800568:	80 6b 00 14 	lwz     r3,20(r11)
 180056c:	80 8b 00 18 	lwz     r4,24(r11)
 1800570:	7c 83 20 00 	cmpw    cr1,r3,r4
 1800574:	41 a6 00 08 	beq+    cr1,180057c <__eabi+0x44>
 1800578:	80 4b 00 10 	lwz     r2,16(r11)
 180057c:	4b ff fb 18 	b       1800094 <__init>

01800580 <__eabi_convert>:
 1800580:	7c 83 20 40 	cmplw   cr1,r3,r4
 1800584:	7c a3 20 50 	subf    r5,r3,r4
 1800588:	4c 84 00 20 	bgelr   cr1
 180058c:	7c a5 16 70 	srawi   r5,r5,2
 1800590:	38 63 ff fc 	addi    r3,r3,-4
 1800594:	7c a9 03 a6 	mtctr   r5
 1800598:	84 c3 00 04 	lwzu    r6,4(r3)
 180059c:	2c 06 00 00 	cmpwi   r6,0
 18005a0:	41 82 00 0c 	beq-    18005ac <__eabi_convert+0x2c>
 18005a4:	7c c6 62 14 	add     r6,r6,r12
 18005a8:	90 c3 00 00 	stw     r6,0(r3)
 18005ac:	42 00 ff ec 	bdnz+   1800598 <__eabi_convert+0x18>
 18005b0:	4e 80 00 20 	blr

018005b4 <__eabi_uconvert>:
 18005b4:	7c 83 20 40 	cmplw   cr1,r3,r4
 18005b8:	7c a3 20 50 	subf    r5,r3,r4
 18005bc:	4c 84 00 20 	bgelr   cr1
 18005c0:	7c a5 16 70 	srawi   r5,r5,2
 18005c4:	38 63 ff fc 	addi    r3,r3,-4
 18005c8:	7c a9 03 a6 	mtctr   r5
 18005cc:	84 c3 00 04 	lwzu    r6,4(r3)
 18005d0:	7c c6 62 14 	add     r6,r6,r12
 18005d4:	80 e6 00 00 	lwz     r7,0(r6)
 18005d8:	90 c3 00 00 	stw     r6,0(r3)
 18005dc:	7c e7 62 14 	add     r7,r7,r12
 18005e0:	90 e6 00 00 	stw     r7,0(r6)
 18005e4:	42 00 ff e8 	bdnz+   18005cc <__eabi_uconvert+0x18>
 18005e8:	4e 80 00 20 	blr

018005ec <__do_global_ctors_aux>:
 18005ec:	7c 08 02 a6 	mflr    r0
 18005f0:	94 21 ff f0 	stwu    r1,-16(r1)
 18005f4:	93 e1 00 0c 	stw     r31,12(r1)
 18005f8:	3f e0 01 81 	lis     r31,385
 18005fc:	90 01 00 14 	stw     r0,20(r1)
 1800600:	3b ff 07 94 	addi    r31,r31,1940
 1800604:	80 1f ff fc 	lwz     r0,-4(r31)
 1800608:	2f 80 ff ff 	cmpwi   cr7,r0,-1
 180060c:	41 9e 00 1c 	beq-    cr7,1800628 <__do_global_ctors_aux+0x3c>
 1800610:	3b ff ff fc 	addi    r31,r31,-4
 1800614:	7c 09 03 a6 	mtctr   r0
 1800618:	4e 80 04 21 	bctrl
 180061c:	84 1f ff fc 	lwzu    r0,-4(r31)
 1800620:	2f 80 ff ff 	cmpwi   cr7,r0,-1
 1800624:	40 9e ff f0 	bne+    cr7,1800614 <__do_global_ctors_aux+0x28>
 1800628:	80 01 00 14 	lwz     r0,20(r1)
 180062c:	83 e1 00 0c 	lwz     r31,12(r1)
 1800630:	38 21 00 10 	addi    r1,r1,16
 1800634:	7c 08 03 a6 	mtlr    r0
 1800638:	4e 80 00 20 	blr

0180063c <call___do_global_ctors_aux>:
 180063c:	7c 08 02 a6 	mflr    r0
 1800640:	94 21 ff f8 	stwu    r1,-8(r1)
 1800644:	90 01 00 0c 	stw     r0,12(r1)
 1800648:	80 01 00 0c 	lwz     r0,12(r1)
 180064c:	38 21 00 08 	addi    r1,r1,8
 1800650:	7c 08 03 a6 	mtlr    r0
 1800654:	4e 80 00 20 	blr

Disassembly of section .fini:

01800658 <__fini>:
 1800658:	94 21 ff f0 	stwu    r1,-16(r1)
 180065c:	7c 08 02 a6 	mflr    r0
 1800660:	90 01 00 14 	stw     r0,20(r1)
 1800664:	4b ff fa 55 	bl      18000b8 <__do_global_dtors_aux>
 1800668:	80 01 00 14 	lwz     r0,20(r1)
 180066c:	7c 08 03 a6 	mtlr    r0
 1800670:	38 21 00 10 	addi    r1,r1,16
 1800674:	4e 80 00 20 	blr
