
/home/vaillant/ppc2/perf/malardalen/ppc-eabi/gcc-4.4.2/matmult/matmult.elf:     file format elf32-powerpc


Disassembly of section .init:

01800094 <__init>:
 1800094:	94 21 ff f0 	stwu    r1,-16(r1)
 1800098:	7c 08 02 a6 	mflr    r0
 180009c:	90 01 00 14 	stw     r0,20(r1)
 18000a0:	48 00 00 f9 	bl      1800198 <frame_dummy>
 18000a4:	48 00 05 b1 	bl      1800654 <__do_global_ctors_aux>
 18000a8:	80 01 00 14 	lwz     r0,20(r1)
 18000ac:	7c 08 03 a6 	mtlr    r0
 18000b0:	38 21 00 10 	addi    r1,r1,16
 18000b4:	4e 80 00 20 	blr

Disassembly of section .text:

018000b8 <__do_global_dtors_aux>:
 18000b8:	94 21 ff e8 	stwu    r1,-24(r1)
 18000bc:	7c 08 02 a6 	mflr    r0
 18000c0:	93 e1 00 14 	stw     r31,20(r1)
 18000c4:	3f e0 01 81 	lis     r31,385
 18000c8:	90 01 00 1c 	stw     r0,28(r1)
 18000cc:	88 1f 08 6c 	lbz     r0,2156(r31)
 18000d0:	93 81 00 08 	stw     r28,8(r1)
 18000d4:	2f 80 00 00 	cmpwi   cr7,r0,0
 18000d8:	93 a1 00 0c 	stw     r29,12(r1)
 18000dc:	93 c1 00 10 	stw     r30,16(r1)
 18000e0:	40 9e 00 7c 	bne-    cr7,180015c <__do_global_dtors_aux+0xa4>
 18000e4:	3f 80 01 81 	lis     r28,385
 18000e8:	3f a0 01 81 	lis     r29,385
 18000ec:	3b 9c 08 38 	addi    r28,r28,2104
 18000f0:	3b bd 08 3c 	addi    r29,r29,2108
 18000f4:	7f bc e8 50 	subf    r29,r28,r29
 18000f8:	3f c0 01 81 	lis     r30,385
 18000fc:	7f bd 16 70 	srawi   r29,r29,2
 1800100:	81 3e 08 70 	lwz     r9,2160(r30)
 1800104:	3b bd ff ff 	addi    r29,r29,-1
 1800108:	7f 89 e8 40 	cmplw   cr7,r9,r29
 180010c:	40 9c 00 2c 	bge-    cr7,1800138 <__do_global_dtors_aux+0x80>
 1800110:	3b de 08 70 	addi    r30,r30,2160
 1800114:	39 29 00 01 	addi    r9,r9,1
 1800118:	55 20 10 3a 	rlwinm  r0,r9,2,0,29
 180011c:	91 3e 00 00 	stw     r9,0(r30)
 1800120:	7c 1c 00 2e 	lwzx    r0,r28,r0
 1800124:	7c 09 03 a6 	mtctr   r0
 1800128:	4e 80 04 21 	bctrl
 180012c:	81 3e 00 00 	lwz     r9,0(r30)
 1800130:	7f 89 e8 40 	cmplw   cr7,r9,r29
 1800134:	41 9c ff e0 	blt+    cr7,1800114 <__do_global_dtors_aux+0x5c>
 1800138:	3d 20 00 00 	lis     r9,0
 180013c:	38 09 00 00 	addi    r0,r9,0
 1800140:	2f 80 00 00 	cmpwi   cr7,r0,0
 1800144:	41 9e 00 10 	beq-    cr7,1800154 <__do_global_dtors_aux+0x9c>
 1800148:	3c 60 01 81 	lis     r3,385
 180014c:	38 63 07 2c 	addi    r3,r3,1836
 1800150:	4a 7f fe b1 	bl      0 <__init-0x1800094>
 1800154:	38 00 00 01 	li      r0,1
 1800158:	98 1f 08 6c 	stb     r0,2156(r31)
 180015c:	80 01 00 1c 	lwz     r0,28(r1)
 1800160:	83 81 00 08 	lwz     r28,8(r1)
 1800164:	7c 08 03 a6 	mtlr    r0
 1800168:	83 a1 00 0c 	lwz     r29,12(r1)
 180016c:	83 c1 00 10 	lwz     r30,16(r1)
 1800170:	83 e1 00 14 	lwz     r31,20(r1)
 1800174:	38 21 00 18 	addi    r1,r1,24
 1800178:	4e 80 00 20 	blr

0180017c <call___do_global_dtors_aux>:
 180017c:	7c 08 02 a6 	mflr    r0
 1800180:	94 21 ff f8 	stwu    r1,-8(r1)
 1800184:	90 01 00 0c 	stw     r0,12(r1)
 1800188:	80 01 00 0c 	lwz     r0,12(r1)
 180018c:	38 21 00 08 	addi    r1,r1,8
 1800190:	7c 08 03 a6 	mtlr    r0
 1800194:	4e 80 00 20 	blr

01800198 <frame_dummy>:
 1800198:	7c 08 02 a6 	mflr    r0
 180019c:	94 21 ff f8 	stwu    r1,-8(r1)
 18001a0:	3d 20 00 00 	lis     r9,0
 18001a4:	90 01 00 0c 	stw     r0,12(r1)
 18001a8:	38 09 00 00 	addi    r0,r9,0
 18001ac:	2f 80 00 00 	cmpwi   cr7,r0,0
 18001b0:	41 9e 00 18 	beq-    cr7,18001c8 <frame_dummy+0x30>
 18001b4:	3c 60 01 81 	lis     r3,385
 18001b8:	3c 80 01 81 	lis     r4,385
 18001bc:	38 63 07 2c 	addi    r3,r3,1836
 18001c0:	38 84 08 74 	addi    r4,r4,2164
 18001c4:	4a 7f fe 3d 	bl      0 <__init-0x1800094>
 18001c8:	3c 60 01 81 	lis     r3,385
 18001cc:	80 03 08 40 	lwz     r0,2112(r3)
 18001d0:	38 63 08 40 	addi    r3,r3,2112
 18001d4:	2f 80 00 00 	cmpwi   cr7,r0,0
 18001d8:	41 9e 00 1c 	beq-    cr7,18001f4 <frame_dummy+0x5c>
 18001dc:	3d 20 00 00 	lis     r9,0
 18001e0:	38 09 00 00 	addi    r0,r9,0
 18001e4:	2f 80 00 00 	cmpwi   cr7,r0,0
 18001e8:	41 9e 00 0c 	beq-    cr7,18001f4 <frame_dummy+0x5c>
 18001ec:	7c 09 03 a6 	mtctr   r0
 18001f0:	4e 80 04 21 	bctrl
 18001f4:	80 01 00 0c 	lwz     r0,12(r1)
 18001f8:	38 21 00 08 	addi    r1,r1,8
 18001fc:	7c 08 03 a6 	mtlr    r0
 1800200:	4e 80 00 20 	blr

01800204 <call_frame_dummy>:
 1800204:	7c 08 02 a6 	mflr    r0
 1800208:	94 21 ff f8 	stwu    r1,-8(r1)
 180020c:	90 01 00 0c 	stw     r0,12(r1)
 1800210:	80 01 00 0c 	lwz     r0,12(r1)
 1800214:	38 21 00 08 	addi    r1,r1,8
 1800218:	7c 08 03 a6 	mtlr    r0
 180021c:	4e 80 00 20 	blr

01800220 <main>:
 1800220:	94 21 ff e0 	stwu    r1,-32(r1)
 1800224:	7c 08 02 a6 	mflr    r0
 1800228:	90 01 00 24 	stw     r0,36(r1)
 180022c:	93 e1 00 1c 	stw     r31,28(r1)
 1800230:	7c 3f 0b 78 	mr      r31,r1
 1800234:	48 00 03 6d 	bl      18005a0 <__eabi>
 1800238:	38 00 00 23 	li      r0,35
 180023c:	90 1f 00 08 	stw     r0,8(r31)
 1800240:	48 00 00 30 	b       1800270 <main+0x50>
 1800244:	48 00 00 51 	bl      1800294 <InitSeed>
 1800248:	3c 00 01 81 	lis     r0,385
 180024c:	30 60 15 0c 	addic   r3,r0,5388
 1800250:	3c 00 01 81 	lis     r0,385
 1800254:	30 80 0e cc 	addic   r4,r0,3788
 1800258:	3c 00 01 81 	lis     r0,385
 180025c:	30 a0 08 8c 	addic   r5,r0,2188
 1800260:	48 00 00 61 	bl      18002c0 <Test>
 1800264:	80 1f 00 08 	lwz     r0,8(r31)
 1800268:	30 00 ff ff 	addic   r0,r0,-1
 180026c:	90 1f 00 08 	stw     r0,8(r31)
 1800270:	80 1f 00 08 	lwz     r0,8(r31)
 1800274:	2f 80 00 00 	cmpwi   cr7,r0,0
 1800278:	40 9e ff cc 	bne+    cr7,1800244 <main+0x24>
 180027c:	39 7f 00 20 	addi    r11,r31,32
 1800280:	80 0b 00 04 	lwz     r0,4(r11)
 1800284:	7c 08 03 a6 	mtlr    r0
 1800288:	83 eb ff fc 	lwz     r31,-4(r11)
 180028c:	7d 61 5b 78 	mr      r1,r11
 1800290:	4e 80 00 20 	blr

01800294 <InitSeed>:
 1800294:	94 21 ff f0 	stwu    r1,-16(r1)
 1800298:	93 e1 00 0c 	stw     r31,12(r1)
 180029c:	7c 3f 0b 78 	mr      r31,r1
 18002a0:	3c 00 01 81 	lis     r0,385
 18002a4:	39 20 00 00 	li      r9,0
 18002a8:	7c 0b 03 78 	mr      r11,r0
 18002ac:	91 2b 08 68 	stw     r9,2152(r11)
 18002b0:	39 7f 00 10 	addi    r11,r31,16
 18002b4:	83 eb ff fc 	lwz     r31,-4(r11)
 18002b8:	7d 61 5b 78 	mr      r1,r11
 18002bc:	4e 80 00 20 	blr

018002c0 <Test>:
 18002c0:	94 21 ff e0 	stwu    r1,-32(r1)
 18002c4:	7c 08 02 a6 	mflr    r0
 18002c8:	90 01 00 24 	stw     r0,36(r1)
 18002cc:	93 e1 00 1c 	stw     r31,28(r1)
 18002d0:	7c 3f 0b 78 	mr      r31,r1
 18002d4:	90 7f 00 08 	stw     r3,8(r31)
 18002d8:	90 9f 00 0c 	stw     r4,12(r31)
 18002dc:	90 bf 00 10 	stw     r5,16(r31)
 18002e0:	80 7f 00 08 	lwz     r3,8(r31)
 18002e4:	48 00 00 35 	bl      1800318 <Initialize>
 18002e8:	80 7f 00 0c 	lwz     r3,12(r31)
 18002ec:	48 00 00 2d 	bl      1800318 <Initialize>
 18002f0:	80 7f 00 08 	lwz     r3,8(r31)
 18002f4:	80 9f 00 0c 	lwz     r4,12(r31)
 18002f8:	80 bf 00 10 	lwz     r5,16(r31)
 18002fc:	48 00 01 39 	bl      1800434 <Multiply>
 1800300:	39 7f 00 20 	addi    r11,r31,32
 1800304:	80 0b 00 04 	lwz     r0,4(r11)
 1800308:	7c 08 03 a6 	mtlr    r0
 180030c:	83 eb ff fc 	lwz     r31,-4(r11)
 1800310:	7d 61 5b 78 	mr      r1,r11
 1800314:	4e 80 00 20 	blr

01800318 <Initialize>:
 1800318:	94 21 ff d0 	stwu    r1,-48(r1)
 180031c:	7c 08 02 a6 	mflr    r0
 1800320:	90 01 00 34 	stw     r0,52(r1)
 1800324:	93 a1 00 24 	stw     r29,36(r1)
 1800328:	93 c1 00 28 	stw     r30,40(r1)
 180032c:	93 e1 00 2c 	stw     r31,44(r1)
 1800330:	7c 3f 0b 78 	mr      r31,r1
 1800334:	90 7f 00 18 	stw     r3,24(r31)
 1800338:	38 00 00 00 	li      r0,0
 180033c:	90 1f 00 0c 	stw     r0,12(r31)
 1800340:	48 00 00 60 	b       18003a0 <Initialize+0x88>
 1800344:	38 00 00 00 	li      r0,0
 1800348:	90 1f 00 08 	stw     r0,8(r31)
 180034c:	48 00 00 3c 	b       1800388 <Initialize+0x70>
 1800350:	80 1f 00 0c 	lwz     r0,12(r31)
 1800354:	1c 00 00 50 	mulli   r0,r0,80
 1800358:	81 3f 00 18 	lwz     r9,24(r31)
 180035c:	7f c9 02 14 	add     r30,r9,r0
 1800360:	83 bf 00 08 	lwz     r29,8(r31)
 1800364:	48 00 00 69 	bl      18003cc <RandomInteger>
 1800368:	7c 69 1b 78 	mr      r9,r3
 180036c:	57 a0 10 3a 	rlwinm  r0,r29,2,0,29
 1800370:	7c 1e 02 14 	add     r0,r30,r0
 1800374:	7c 0b 03 78 	mr      r11,r0
 1800378:	91 2b 00 00 	stw     r9,0(r11)
 180037c:	80 1f 00 08 	lwz     r0,8(r31)
 1800380:	30 00 00 01 	addic   r0,r0,1
 1800384:	90 1f 00 08 	stw     r0,8(r31)
 1800388:	80 1f 00 08 	lwz     r0,8(r31)
 180038c:	2f 80 00 13 	cmpwi   cr7,r0,19
 1800390:	40 9d ff c0 	ble+    cr7,1800350 <Initialize+0x38>
 1800394:	80 1f 00 0c 	lwz     r0,12(r31)
 1800398:	30 00 00 01 	addic   r0,r0,1
 180039c:	90 1f 00 0c 	stw     r0,12(r31)
 18003a0:	80 1f 00 0c 	lwz     r0,12(r31)
 18003a4:	2f 80 00 13 	cmpwi   cr7,r0,19
 18003a8:	40 9d ff 9c 	ble+    cr7,1800344 <Initialize+0x2c>
 18003ac:	39 7f 00 30 	addi    r11,r31,48
 18003b0:	80 0b 00 04 	lwz     r0,4(r11)
 18003b4:	7c 08 03 a6 	mtlr    r0
 18003b8:	83 ab ff f4 	lwz     r29,-12(r11)
 18003bc:	83 cb ff f8 	lwz     r30,-8(r11)
 18003c0:	83 eb ff fc 	lwz     r31,-4(r11)
 18003c4:	7d 61 5b 78 	mr      r1,r11
 18003c8:	4e 80 00 20 	blr

018003cc <RandomInteger>:
 18003cc:	94 21 ff f0 	stwu    r1,-16(r1)
 18003d0:	93 e1 00 0c 	stw     r31,12(r1)
 18003d4:	7c 3f 0b 78 	mr      r31,r1
 18003d8:	3c 00 01 81 	lis     r0,385
 18003dc:	7c 09 03 78 	mr      r9,r0
 18003e0:	80 09 08 68 	lwz     r0,2152(r9)
 18003e4:	1c 00 00 85 	mulli   r0,r0,133
 18003e8:	31 20 00 51 	addic   r9,r0,81
 18003ec:	3c 00 10 31 	lis     r0,4145
 18003f0:	60 00 14 c7 	ori     r0,r0,5319
 18003f4:	7c 09 00 96 	mulhw   r0,r9,r0
 18003f8:	7c 0b 4e 70 	srawi   r11,r0,9
 18003fc:	7d 20 fe 70 	srawi   r0,r9,31
 1800400:	7c 00 58 50 	subf    r0,r0,r11
 1800404:	1c 00 1f 9f 	mulli   r0,r0,8095
 1800408:	7c 00 48 50 	subf    r0,r0,r9
 180040c:	3d 20 01 81 	lis     r9,385
 1800410:	90 09 08 68 	stw     r0,2152(r9)
 1800414:	3c 00 01 81 	lis     r0,385
 1800418:	7c 09 03 78 	mr      r9,r0
 180041c:	80 09 08 68 	lwz     r0,2152(r9)
 1800420:	7c 03 03 78 	mr      r3,r0
 1800424:	39 7f 00 10 	addi    r11,r31,16
 1800428:	83 eb ff fc 	lwz     r31,-4(r11)
 180042c:	7d 61 5b 78 	mr      r1,r11
 1800430:	4e 80 00 20 	blr

01800434 <Multiply>:
 1800434:	94 21 ff d8 	stwu    r1,-40(r1)
 1800438:	93 81 00 18 	stw     r28,24(r1)
 180043c:	93 a1 00 1c 	stw     r29,28(r1)
 1800440:	93 c1 00 20 	stw     r30,32(r1)
 1800444:	93 e1 00 24 	stw     r31,36(r1)
 1800448:	7c 3f 0b 78 	mr      r31,r1
 180044c:	90 7f 00 08 	stw     r3,8(r31)
 1800450:	90 9f 00 0c 	stw     r4,12(r31)
 1800454:	90 bf 00 10 	stw     r5,16(r31)
 1800458:	3b c0 00 00 	li      r30,0
 180045c:	48 00 00 e4 	b       1800540 <Multiply+0x10c>
 1800460:	3b a0 00 00 	li      r29,0
 1800464:	48 00 00 d0 	b       1800534 <Multiply+0x100>
 1800468:	7f c0 f3 78 	mr      r0,r30
 180046c:	1c 00 00 50 	mulli   r0,r0,80
 1800470:	81 3f 00 10 	lwz     r9,16(r31)
 1800474:	7d 29 02 14 	add     r9,r9,r0
 1800478:	7f a0 eb 78 	mr      r0,r29
 180047c:	54 00 10 3a 	rlwinm  r0,r0,2,0,29
 1800480:	7c 09 02 14 	add     r0,r9,r0
 1800484:	39 20 00 00 	li      r9,0
 1800488:	7c 0b 03 78 	mr      r11,r0
 180048c:	91 2b 00 00 	stw     r9,0(r11)
 1800490:	3b 80 00 00 	li      r28,0
 1800494:	48 00 00 94 	b       1800528 <Multiply+0xf4>
 1800498:	7f c0 f3 78 	mr      r0,r30
 180049c:	1c 00 00 50 	mulli   r0,r0,80
 18004a0:	81 3f 00 10 	lwz     r9,16(r31)
 18004a4:	7d 69 02 14 	add     r11,r9,r0
 18004a8:	7f a0 eb 78 	mr      r0,r29
 18004ac:	7f c9 f3 78 	mr      r9,r30
 18004b0:	1d 29 00 50 	mulli   r9,r9,80
 18004b4:	81 5f 00 10 	lwz     r10,16(r31)
 18004b8:	7d 4a 4a 14 	add     r10,r10,r9
 18004bc:	7f a9 eb 78 	mr      r9,r29
 18004c0:	55 29 10 3a 	rlwinm  r9,r9,2,0,29
 18004c4:	7d 2a 4a 14 	add     r9,r10,r9
 18004c8:	81 49 00 00 	lwz     r10,0(r9)
 18004cc:	7f c9 f3 78 	mr      r9,r30
 18004d0:	1d 29 00 50 	mulli   r9,r9,80
 18004d4:	81 1f 00 08 	lwz     r8,8(r31)
 18004d8:	7d 08 4a 14 	add     r8,r8,r9
 18004dc:	7f 89 e3 78 	mr      r9,r28
 18004e0:	55 29 10 3a 	rlwinm  r9,r9,2,0,29
 18004e4:	7d 28 4a 14 	add     r9,r8,r9
 18004e8:	81 09 00 00 	lwz     r8,0(r9)
 18004ec:	7f 89 e3 78 	mr      r9,r28
 18004f0:	1d 29 00 50 	mulli   r9,r9,80
 18004f4:	80 ff 00 0c 	lwz     r7,12(r31)
 18004f8:	7c e7 4a 14 	add     r7,r7,r9
 18004fc:	7f a9 eb 78 	mr      r9,r29
 1800500:	55 29 10 3a 	rlwinm  r9,r9,2,0,29
 1800504:	7d 27 4a 14 	add     r9,r7,r9
 1800508:	81 29 00 00 	lwz     r9,0(r9)
 180050c:	7d 28 49 d6 	mullw   r9,r8,r9
 1800510:	7d 2a 4a 14 	add     r9,r10,r9
 1800514:	54 00 10 3a 	rlwinm  r0,r0,2,0,29
 1800518:	7c 0b 02 14 	add     r0,r11,r0
 180051c:	7c 0b 03 78 	mr      r11,r0
 1800520:	91 2b 00 00 	stw     r9,0(r11)
 1800524:	3b 9c 00 01 	addi    r28,r28,1
 1800528:	2f 9c 00 13 	cmpwi   cr7,r28,19
 180052c:	40 9d ff 6c 	ble+    cr7,1800498 <Multiply+0x64>
 1800530:	3b bd 00 01 	addi    r29,r29,1
 1800534:	2f 9d 00 13 	cmpwi   cr7,r29,19
 1800538:	40 9d ff 30 	ble+    cr7,1800468 <Multiply+0x34>
 180053c:	3b de 00 01 	addi    r30,r30,1
 1800540:	2f 9e 00 13 	cmpwi   cr7,r30,19
 1800544:	40 9d ff 1c 	ble+    cr7,1800460 <Multiply+0x2c>
 1800548:	39 7f 00 28 	addi    r11,r31,40
 180054c:	83 8b ff f0 	lwz     r28,-16(r11)
 1800550:	83 ab ff f4 	lwz     r29,-12(r11)
 1800554:	83 cb ff f8 	lwz     r30,-8(r11)
 1800558:	83 eb ff fc 	lwz     r31,-4(r11)
 180055c:	7d 61 5b 78 	mr      r1,r11
 1800560:	4e 80 00 20 	blr

01800564 <_exit>:
 1800564:	94 21 ff e8 	stwu    r1,-24(r1)
 1800568:	93 e1 00 14 	stw     r31,20(r1)
 180056c:	7c 3f 0b 78 	mr      r31,r1
 1800570:	90 7f 00 08 	stw     r3,8(r31)
 1800574:	48 00 00 00 	b       1800574 <_exit+0x10>

01800578 <_start>:
 1800578:	94 21 ff f0 	stwu    r1,-16(r1)
 180057c:	7c 08 02 a6 	mflr    r0
 1800580:	90 01 00 14 	stw     r0,20(r1)
 1800584:	93 e1 00 0c 	stw     r31,12(r1)
 1800588:	7c 3f 0b 78 	mr      r31,r1
 180058c:	38 60 00 00 	li      r3,0
 1800590:	38 80 00 00 	li      r4,0
 1800594:	4b ff fc 8d 	bl      1800220 <main>
 1800598:	38 60 00 00 	li      r3,0
 180059c:	4b ff ff c9 	bl      1800564 <_exit>

018005a0 <__eabi>:
 18005a0:	3d 40 01 81 	lis     r10,385
 18005a4:	3d 60 01 81 	lis     r11,385
 18005a8:	81 2a 08 64 	lwz     r9,2148(r10)
 18005ac:	39 6b 08 44 	addi    r11,r11,2116
 18005b0:	29 09 00 00 	cmplwi  cr2,r9,0
 18005b4:	4c 8a 00 20 	bnelr   cr2
 18005b8:	90 2a 08 64 	stw     r1,2148(r10)
 18005bc:	80 6b 00 08 	lwz     r3,8(r11)
 18005c0:	80 8b 00 0c 	lwz     r4,12(r11)
 18005c4:	7c 83 20 00 	cmpw    cr1,r3,r4
 18005c8:	41 86 00 08 	beq-    cr1,18005d0 <__eabi+0x30>
 18005cc:	81 ab 00 04 	lwz     r13,4(r11)
 18005d0:	80 6b 00 14 	lwz     r3,20(r11)
 18005d4:	80 8b 00 18 	lwz     r4,24(r11)
 18005d8:	7c 83 20 00 	cmpw    cr1,r3,r4
 18005dc:	41 a6 00 08 	beq+    cr1,18005e4 <__eabi+0x44>
 18005e0:	80 4b 00 10 	lwz     r2,16(r11)
 18005e4:	4b ff fa b0 	b       1800094 <__init>

018005e8 <__eabi_convert>:
 18005e8:	7c 83 20 40 	cmplw   cr1,r3,r4
 18005ec:	7c a3 20 50 	subf    r5,r3,r4
 18005f0:	4c 84 00 20 	bgelr   cr1
 18005f4:	7c a5 16 70 	srawi   r5,r5,2
 18005f8:	38 63 ff fc 	addi    r3,r3,-4
 18005fc:	7c a9 03 a6 	mtctr   r5
 1800600:	84 c3 00 04 	lwzu    r6,4(r3)
 1800604:	2c 06 00 00 	cmpwi   r6,0
 1800608:	41 82 00 0c 	beq-    1800614 <__eabi_convert+0x2c>
 180060c:	7c c6 62 14 	add     r6,r6,r12
 1800610:	90 c3 00 00 	stw     r6,0(r3)
 1800614:	42 00 ff ec 	bdnz+   1800600 <__eabi_convert+0x18>
 1800618:	4e 80 00 20 	blr

0180061c <__eabi_uconvert>:
 180061c:	7c 83 20 40 	cmplw   cr1,r3,r4
 1800620:	7c a3 20 50 	subf    r5,r3,r4
 1800624:	4c 84 00 20 	bgelr   cr1
 1800628:	7c a5 16 70 	srawi   r5,r5,2
 180062c:	38 63 ff fc 	addi    r3,r3,-4
 1800630:	7c a9 03 a6 	mtctr   r5
 1800634:	84 c3 00 04 	lwzu    r6,4(r3)
 1800638:	7c c6 62 14 	add     r6,r6,r12
 180063c:	80 e6 00 00 	lwz     r7,0(r6)
 1800640:	90 c3 00 00 	stw     r6,0(r3)
 1800644:	7c e7 62 14 	add     r7,r7,r12
 1800648:	90 e6 00 00 	stw     r7,0(r6)
 180064c:	42 00 ff e8 	bdnz+   1800634 <__eabi_uconvert+0x18>
 1800650:	4e 80 00 20 	blr

01800654 <__do_global_ctors_aux>:
 1800654:	7c 08 02 a6 	mflr    r0
 1800658:	94 21 ff f0 	stwu    r1,-16(r1)
 180065c:	93 e1 00 0c 	stw     r31,12(r1)
 1800660:	3f e0 01 81 	lis     r31,385
 1800664:	90 01 00 14 	stw     r0,20(r1)
 1800668:	3b ff 08 34 	addi    r31,r31,2100
 180066c:	80 1f ff fc 	lwz     r0,-4(r31)
 1800670:	2f 80 ff ff 	cmpwi   cr7,r0,-1
 1800674:	41 9e 00 1c 	beq-    cr7,1800690 <__do_global_ctors_aux+0x3c>
 1800678:	3b ff ff fc 	addi    r31,r31,-4
 180067c:	7c 09 03 a6 	mtctr   r0
 1800680:	4e 80 04 21 	bctrl
 1800684:	84 1f ff fc 	lwzu    r0,-4(r31)
 1800688:	2f 80 ff ff 	cmpwi   cr7,r0,-1
 180068c:	40 9e ff f0 	bne+    cr7,180067c <__do_global_ctors_aux+0x28>
 1800690:	80 01 00 14 	lwz     r0,20(r1)
 1800694:	83 e1 00 0c 	lwz     r31,12(r1)
 1800698:	38 21 00 10 	addi    r1,r1,16
 180069c:	7c 08 03 a6 	mtlr    r0
 18006a0:	4e 80 00 20 	blr

018006a4 <call___do_global_ctors_aux>:
 18006a4:	7c 08 02 a6 	mflr    r0
 18006a8:	94 21 ff f8 	stwu    r1,-8(r1)
 18006ac:	90 01 00 0c 	stw     r0,12(r1)
 18006b0:	80 01 00 0c 	lwz     r0,12(r1)
 18006b4:	38 21 00 08 	addi    r1,r1,8
 18006b8:	7c 08 03 a6 	mtlr    r0
 18006bc:	4e 80 00 20 	blr

Disassembly of section .fini:

018006c0 <__fini>:
 18006c0:	94 21 ff f0 	stwu    r1,-16(r1)
 18006c4:	7c 08 02 a6 	mflr    r0
 18006c8:	90 01 00 14 	stw     r0,20(r1)
 18006cc:	4b ff f9 ed 	bl      18000b8 <__do_global_dtors_aux>
 18006d0:	80 01 00 14 	lwz     r0,20(r1)
 18006d4:	7c 08 03 a6 	mtlr    r0
 18006d8:	38 21 00 10 	addi    r1,r1,16
 18006dc:	4e 80 00 20 	blr
